ARM GAS  /tmp/ccUrIl19.s 			page 1


   1              		.syntax unified
   2              		.cpu cortex-m3
   3              		.fpu softvfp
   4              		.eabi_attribute 20, 1
   5              		.eabi_attribute 21, 1
   6              		.eabi_attribute 23, 3
   7              		.eabi_attribute 24, 1
   8              		.eabi_attribute 25, 1
   9              		.eabi_attribute 26, 1
  10              		.eabi_attribute 30, 4
  11              		.eabi_attribute 34, 1
  12              		.eabi_attribute 18, 4
  13              		.thumb
  14              		.file	"bluetooth_rxtx.c"
  15              		.text
  16              	.Ltext0:
  17              		.cfi_sections	.debug_frame
  18              		.section	.text.reverse8,"ax",%progbits
  19              		.align	1
  20              		.thumb
  21              		.thumb_func
  23              	reverse8:
  24              	.LFB16:
  25              		.file 1 "bluetooth_rxtx.c"
   1:bluetooth_rxtx.c **** /*
   2:bluetooth_rxtx.c ****  * Copyright 2010-2013 Michael Ossmann
   3:bluetooth_rxtx.c ****  * Copyright 2011-2013 Dominic Spill
   4:bluetooth_rxtx.c ****  *
   5:bluetooth_rxtx.c ****  * This file is part of Project Ubertooth.
   6:bluetooth_rxtx.c ****  *
   7:bluetooth_rxtx.c ****  * This program is free software; you can redistribute it and/or modify
   8:bluetooth_rxtx.c ****  * it under the terms of the GNU General Public License as published by
   9:bluetooth_rxtx.c ****  * the Free Software Foundation; either version 2, or (at your option)
  10:bluetooth_rxtx.c ****  * any later version.
  11:bluetooth_rxtx.c ****  *
  12:bluetooth_rxtx.c ****  * This program is distributed in the hope that it will be useful,
  13:bluetooth_rxtx.c ****  * but WITHOUT ANY WARRANTY; without even the implied warranty of
  14:bluetooth_rxtx.c ****  * MERCHANTABILITY or FITNESS FOR A PARTICULAR PURPOSE.  See the
  15:bluetooth_rxtx.c ****  * GNU General Public License for more details.
  16:bluetooth_rxtx.c ****  *
  17:bluetooth_rxtx.c ****  * You should have received a copy of the GNU General Public License
  18:bluetooth_rxtx.c ****  * along with this program; see the file COPYING.  If not, write to
  19:bluetooth_rxtx.c ****  * the Free Software Foundation, Inc., 51 Franklin Street,
  20:bluetooth_rxtx.c ****  * Boston, MA 02110-1301, USA.
  21:bluetooth_rxtx.c ****  */
  22:bluetooth_rxtx.c **** 
  23:bluetooth_rxtx.c **** #include <string.h>
  24:bluetooth_rxtx.c **** #include <stdlib.h>
  25:bluetooth_rxtx.c **** 
  26:bluetooth_rxtx.c **** #include "ubertooth.h"
  27:bluetooth_rxtx.c **** #include "ubertooth_usb.h"
  28:bluetooth_rxtx.c **** #include "ubertooth_interface.h"
  29:bluetooth_rxtx.c **** #include "ubertooth_rssi.h"
  30:bluetooth_rxtx.c **** #include "ubertooth_cs.h"
  31:bluetooth_rxtx.c **** #include "ubertooth_dma.h"
  32:bluetooth_rxtx.c **** #include "ubertooth_clock.h"
  33:bluetooth_rxtx.c **** #include "bluetooth.h"
ARM GAS  /tmp/ccUrIl19.s 			page 2


  34:bluetooth_rxtx.c **** #include "bluetooth_le.h"
  35:bluetooth_rxtx.c **** #include "cc2400_rangetest.h"
  36:bluetooth_rxtx.c **** #include "ego.h"
  37:bluetooth_rxtx.c **** 
  38:bluetooth_rxtx.c **** #define MIN(x,y)	((x)<(y)?(x):(y))
  39:bluetooth_rxtx.c **** #define MAX(x,y)	((x)>(y)?(x):(y))
  40:bluetooth_rxtx.c **** 
  41:bluetooth_rxtx.c **** /* build info */
  42:bluetooth_rxtx.c **** const char compile_info[] =
  43:bluetooth_rxtx.c **** 	"ubertooth " GIT_REVISION " (" COMPILE_BY "@" COMPILE_HOST ") " TIMESTAMP;
  44:bluetooth_rxtx.c **** 
  45:bluetooth_rxtx.c **** /* hopping stuff */
  46:bluetooth_rxtx.c **** volatile uint8_t  hop_mode = HOP_NONE;
  47:bluetooth_rxtx.c **** volatile uint8_t  do_hop = 0;                  // set by timer interrupt
  48:bluetooth_rxtx.c **** volatile uint16_t channel = 2441;
  49:bluetooth_rxtx.c **** volatile uint16_t hop_direct_channel = 0;      // for hopping directly to a channel
  50:bluetooth_rxtx.c **** volatile uint16_t hop_timeout = 158;
  51:bluetooth_rxtx.c **** volatile uint16_t requested_channel = 0;
  52:bluetooth_rxtx.c **** volatile uint16_t le_adv_channel = 2402;
  53:bluetooth_rxtx.c **** 
  54:bluetooth_rxtx.c **** /* bulk USB stuff */
  55:bluetooth_rxtx.c **** volatile uint8_t  idle_buf_clkn_high = 0;
  56:bluetooth_rxtx.c **** volatile uint32_t idle_buf_clk100ns = 0;
  57:bluetooth_rxtx.c **** volatile uint16_t idle_buf_channel = 0;
  58:bluetooth_rxtx.c **** volatile uint8_t  dma_discard = 0;
  59:bluetooth_rxtx.c **** volatile uint8_t  status = 0;
  60:bluetooth_rxtx.c **** 
  61:bluetooth_rxtx.c **** /* operation mode */
  62:bluetooth_rxtx.c **** volatile uint8_t mode = MODE_IDLE;
  63:bluetooth_rxtx.c **** volatile uint8_t requested_mode = MODE_IDLE;
  64:bluetooth_rxtx.c **** volatile uint8_t jam_mode = JAM_NONE;
  65:bluetooth_rxtx.c **** volatile uint8_t ego_mode = EGO_FOLLOW;
  66:bluetooth_rxtx.c **** 
  67:bluetooth_rxtx.c **** volatile uint8_t modulation = MOD_BT_BASIC_RATE;
  68:bluetooth_rxtx.c **** 
  69:bluetooth_rxtx.c **** /* specan stuff */
  70:bluetooth_rxtx.c **** volatile uint16_t low_freq = 2400;
  71:bluetooth_rxtx.c **** volatile uint16_t high_freq = 2483;
  72:bluetooth_rxtx.c **** volatile int8_t rssi_threshold = -30;  // -54dBm - 30 = -84dBm
  73:bluetooth_rxtx.c **** 
  74:bluetooth_rxtx.c **** /* Generic TX stuff */
  75:bluetooth_rxtx.c **** generic_tx_packet tx_pkt;
  76:bluetooth_rxtx.c **** 
  77:bluetooth_rxtx.c **** /* le stuff */
  78:bluetooth_rxtx.c **** int dlen = 0;
  79:bluetooth_rxtx.c **** uint8_t *slave_mac_address_data;
  80:bluetooth_rxtx.c **** uint8_t slave_mac_address[6] = { 0, };
  81:bluetooth_rxtx.c **** 
  82:bluetooth_rxtx.c **** //JWHUR for rssi sampling synchronization
  83:bluetooth_rxtx.c **** uint32_t now_sync = 0, start_sync =0;
  84:bluetooth_rxtx.c **** 
  85:bluetooth_rxtx.c **** le_state_t le = {
  86:bluetooth_rxtx.c **** 	.access_address = 0x8e89bed6,           // advertising channel access address
  87:bluetooth_rxtx.c **** 	.synch = 0x6b7d,                        // bit-reversed adv channel AA
  88:bluetooth_rxtx.c **** 	.syncl = 0x9171,
  89:bluetooth_rxtx.c **** 	.crc_init  = 0x555555,                  // advertising channel CRCInit
  90:bluetooth_rxtx.c **** 	.crc_init_reversed = 0xAAAAAA,
ARM GAS  /tmp/ccUrIl19.s 			page 3


  91:bluetooth_rxtx.c **** 	.crc_verify = 0,
  92:bluetooth_rxtx.c **** 
  93:bluetooth_rxtx.c **** 	.link_state = LINK_INACTIVE,
  94:bluetooth_rxtx.c **** 	.conn_epoch = 0,
  95:bluetooth_rxtx.c **** 	.target_set = 0,
  96:bluetooth_rxtx.c **** 	.last_packet = 0,
  97:bluetooth_rxtx.c **** };
  98:bluetooth_rxtx.c **** 
  99:bluetooth_rxtx.c **** typedef struct _le_promisc_active_aa_t {
 100:bluetooth_rxtx.c **** 	u32 aa;
 101:bluetooth_rxtx.c **** 	int count;
 102:bluetooth_rxtx.c **** } le_promisc_active_aa_t;
 103:bluetooth_rxtx.c **** 
 104:bluetooth_rxtx.c **** typedef struct _le_promisc_state_t {
 105:bluetooth_rxtx.c **** 	// LFU cache of recently seen AA's
 106:bluetooth_rxtx.c **** 	le_promisc_active_aa_t active_aa[32];
 107:bluetooth_rxtx.c **** 
 108:bluetooth_rxtx.c **** 	// recovering hop interval
 109:bluetooth_rxtx.c **** 	u32 smallest_hop_interval;
 110:bluetooth_rxtx.c **** 	int consec_intervals;
 111:bluetooth_rxtx.c **** } le_promisc_state_t;
 112:bluetooth_rxtx.c **** le_promisc_state_t le_promisc;
 113:bluetooth_rxtx.c **** #define AA_LIST_SIZE (int)(sizeof(le_promisc.active_aa) / sizeof(le_promisc_active_aa_t))
 114:bluetooth_rxtx.c **** 
 115:bluetooth_rxtx.c **** /* LE jamming */
 116:bluetooth_rxtx.c **** #define JAM_COUNT_DEFAULT 40
 117:bluetooth_rxtx.c **** int le_jam_count = 0;
 118:bluetooth_rxtx.c **** 
 119:bluetooth_rxtx.c **** /* set LE access address */
 120:bluetooth_rxtx.c **** static void le_set_access_address(u32 aa);
 121:bluetooth_rxtx.c **** 
 122:bluetooth_rxtx.c **** typedef int (*data_cb_t)(char *);
 123:bluetooth_rxtx.c **** data_cb_t data_cb = NULL;
 124:bluetooth_rxtx.c **** 
 125:bluetooth_rxtx.c **** typedef void (*packet_cb_t)(u8 *);
 126:bluetooth_rxtx.c **** packet_cb_t packet_cb = NULL;
 127:bluetooth_rxtx.c **** 
 128:bluetooth_rxtx.c **** /* Unpacked symbol buffers (two rxbufs) */
 129:bluetooth_rxtx.c **** char unpacked[DMA_SIZE*8*2];
 130:bluetooth_rxtx.c **** 
 131:bluetooth_rxtx.c **** static int enqueue(uint8_t type, uint8_t* buf)
 132:bluetooth_rxtx.c **** {
 133:bluetooth_rxtx.c **** 	usb_pkt_rx* f = usb_enqueue();
 134:bluetooth_rxtx.c **** 
 135:bluetooth_rxtx.c **** 	/* fail if queue is full */
 136:bluetooth_rxtx.c **** 	if (f == NULL) {
 137:bluetooth_rxtx.c **** 		status |= FIFO_OVERFLOW;
 138:bluetooth_rxtx.c **** 		return 0;
 139:bluetooth_rxtx.c **** 	}
 140:bluetooth_rxtx.c **** 
 141:bluetooth_rxtx.c **** 	f->pkt_type = type;
 142:bluetooth_rxtx.c **** 	if(type == SPECAN) {
 143:bluetooth_rxtx.c **** 		f->clkn_high = (clkn >> 20) & 0xff;
 144:bluetooth_rxtx.c **** 		f->clk100ns = CLK100NS;
 145:bluetooth_rxtx.c **** 	} else {
 146:bluetooth_rxtx.c **** 		f->clkn_high = idle_buf_clkn_high;
 147:bluetooth_rxtx.c **** 		f->clk100ns = idle_buf_clk100ns;
ARM GAS  /tmp/ccUrIl19.s 			page 4


 148:bluetooth_rxtx.c **** 		f->channel = (uint8_t)((idle_buf_channel - 2402) & 0xff);
 149:bluetooth_rxtx.c **** 		f->rssi_min = rssi_min;
 150:bluetooth_rxtx.c **** 		f->rssi_max = rssi_max;
 151:bluetooth_rxtx.c **** 		f->rssi_avg = rssi_get_avg(idle_buf_channel);
 152:bluetooth_rxtx.c **** 		f->rssi_count = rssi_count;
 153:bluetooth_rxtx.c **** 	}
 154:bluetooth_rxtx.c **** 
 155:bluetooth_rxtx.c **** 	memcpy(f->data, buf, DMA_SIZE);
 156:bluetooth_rxtx.c **** 
 157:bluetooth_rxtx.c **** 	f->status = status;
 158:bluetooth_rxtx.c **** 	status = 0;
 159:bluetooth_rxtx.c **** 
 160:bluetooth_rxtx.c **** 	return 1;
 161:bluetooth_rxtx.c **** }
 162:bluetooth_rxtx.c **** 
 163:bluetooth_rxtx.c **** //JWHUR usb_time_rx
 164:bluetooth_rxtx.c **** static int enqueue_time(uint8_t* buf)
 165:bluetooth_rxtx.c **** {
 166:bluetooth_rxtx.c **** 	usb_time_rx* f = usb_enqueue_time();
 167:bluetooth_rxtx.c **** 	if  (f == NULL) {
 168:bluetooth_rxtx.c **** 		status |= FIFO_OVERFLOW;
 169:bluetooth_rxtx.c **** 		return 0;
 170:bluetooth_rxtx.c **** 	}
 171:bluetooth_rxtx.c **** 	memcpy(f->time, buf, 16 * sizeof(long));
 172:bluetooth_rxtx.c **** 	return 1;
 173:bluetooth_rxtx.c **** }
 174:bluetooth_rxtx.c **** //
 175:bluetooth_rxtx.c **** 
 176:bluetooth_rxtx.c **** int enqueue_with_ts(uint8_t type, uint8_t* buf, uint32_t ts)
 177:bluetooth_rxtx.c **** {
 178:bluetooth_rxtx.c **** 	usb_pkt_rx* f = usb_enqueue();
 179:bluetooth_rxtx.c **** 
 180:bluetooth_rxtx.c **** 	/* fail if queue is full */
 181:bluetooth_rxtx.c **** 	if (f == NULL) {
 182:bluetooth_rxtx.c **** 		status |= FIFO_OVERFLOW;
 183:bluetooth_rxtx.c **** 		return 0;
 184:bluetooth_rxtx.c **** 	}
 185:bluetooth_rxtx.c **** 
 186:bluetooth_rxtx.c **** 	f->pkt_type = type;
 187:bluetooth_rxtx.c **** 
 188:bluetooth_rxtx.c **** 	f->clkn_high = 0;
 189:bluetooth_rxtx.c **** 	f->clk100ns = ts;
 190:bluetooth_rxtx.c **** 
 191:bluetooth_rxtx.c **** 	f->channel = (uint8_t)((channel - 2402) & 0xff);
 192:bluetooth_rxtx.c **** 	f->rssi_avg = 0;
 193:bluetooth_rxtx.c **** 	f->rssi_count = 0;
 194:bluetooth_rxtx.c **** 
 195:bluetooth_rxtx.c **** 	memcpy(f->data, buf, DMA_SIZE);
 196:bluetooth_rxtx.c **** 
 197:bluetooth_rxtx.c **** 	f->status = status;
 198:bluetooth_rxtx.c **** 	status = 0;
 199:bluetooth_rxtx.c **** 
 200:bluetooth_rxtx.c **** 	return 1;
 201:bluetooth_rxtx.c **** }
 202:bluetooth_rxtx.c **** 
 203:bluetooth_rxtx.c **** static int vendor_request_handler(uint8_t request, uint16_t* request_params, uint8_t* data, int* da
 204:bluetooth_rxtx.c **** {
ARM GAS  /tmp/ccUrIl19.s 			page 5


 205:bluetooth_rxtx.c **** 	uint32_t clock;
 206:bluetooth_rxtx.c **** 	size_t length; // string length
 207:bluetooth_rxtx.c **** 	usb_pkt_rx* p = NULL;
 208:bluetooth_rxtx.c **** 	uint16_t reg_val;
 209:bluetooth_rxtx.c **** 	uint8_t i;
 210:bluetooth_rxtx.c **** 	dlen = *data_len;
 211:bluetooth_rxtx.c **** 
 212:bluetooth_rxtx.c **** 	switch (request) {
 213:bluetooth_rxtx.c **** 
 214:bluetooth_rxtx.c **** 	case UBERTOOTH_PING:
 215:bluetooth_rxtx.c **** 		*data_len = 0;
 216:bluetooth_rxtx.c **** 		break;
 217:bluetooth_rxtx.c **** 
 218:bluetooth_rxtx.c **** 	case UBERTOOTH_RX_SYMBOLS:
 219:bluetooth_rxtx.c **** 		requested_mode = MODE_RX_SYMBOLS;
 220:bluetooth_rxtx.c **** 		*data_len = 0;
 221:bluetooth_rxtx.c **** 		break;
 222:bluetooth_rxtx.c **** 
 223:bluetooth_rxtx.c **** 	case UBERTOOTH_TX_SYMBOLS:
 224:bluetooth_rxtx.c **** 		hop_mode = HOP_BLUETOOTH;
 225:bluetooth_rxtx.c **** 		requested_mode = MODE_TX_SYMBOLS;
 226:bluetooth_rxtx.c **** 		*data_len = 0;
 227:bluetooth_rxtx.c **** 		break;
 228:bluetooth_rxtx.c **** 
 229:bluetooth_rxtx.c **** 	case UBERTOOTH_GET_USRLED:
 230:bluetooth_rxtx.c **** 		data[0] = (USRLED) ? 1 : 0;
 231:bluetooth_rxtx.c **** 		*data_len = 1;
 232:bluetooth_rxtx.c **** 		break;
 233:bluetooth_rxtx.c **** 
 234:bluetooth_rxtx.c **** 	case UBERTOOTH_SET_USRLED:
 235:bluetooth_rxtx.c **** 		if (request_params[0])
 236:bluetooth_rxtx.c **** 			USRLED_SET;
 237:bluetooth_rxtx.c **** 		else
 238:bluetooth_rxtx.c **** 			USRLED_CLR;
 239:bluetooth_rxtx.c **** 		break;
 240:bluetooth_rxtx.c **** 
 241:bluetooth_rxtx.c **** 	case UBERTOOTH_GET_RXLED:
 242:bluetooth_rxtx.c **** 		data[0] = (RXLED) ? 1 : 0;
 243:bluetooth_rxtx.c **** 		*data_len = 1;
 244:bluetooth_rxtx.c **** 		break;
 245:bluetooth_rxtx.c **** 
 246:bluetooth_rxtx.c **** 	case UBERTOOTH_SET_RXLED:
 247:bluetooth_rxtx.c **** 		if (request_params[0])
 248:bluetooth_rxtx.c **** 			RXLED_SET;
 249:bluetooth_rxtx.c **** 		else
 250:bluetooth_rxtx.c **** 			RXLED_CLR;
 251:bluetooth_rxtx.c **** 		break;
 252:bluetooth_rxtx.c **** 
 253:bluetooth_rxtx.c **** 	case UBERTOOTH_GET_TXLED:
 254:bluetooth_rxtx.c **** 		data[0] = (TXLED) ? 1 : 0;
 255:bluetooth_rxtx.c **** 		*data_len = 1;
 256:bluetooth_rxtx.c **** 		break;
 257:bluetooth_rxtx.c **** 
 258:bluetooth_rxtx.c **** 	case UBERTOOTH_SET_TXLED:
 259:bluetooth_rxtx.c **** 		if (request_params[0])
 260:bluetooth_rxtx.c **** 			TXLED_SET;
 261:bluetooth_rxtx.c **** 		else
ARM GAS  /tmp/ccUrIl19.s 			page 6


 262:bluetooth_rxtx.c **** 			TXLED_CLR;
 263:bluetooth_rxtx.c **** 		break;
 264:bluetooth_rxtx.c **** 
 265:bluetooth_rxtx.c **** 	case UBERTOOTH_GET_1V8:
 266:bluetooth_rxtx.c **** 		data[0] = (CC1V8) ? 1 : 0;
 267:bluetooth_rxtx.c **** 		*data_len = 1;
 268:bluetooth_rxtx.c **** 		break;
 269:bluetooth_rxtx.c **** 
 270:bluetooth_rxtx.c **** 	case UBERTOOTH_SET_1V8:
 271:bluetooth_rxtx.c **** 		if (request_params[0])
 272:bluetooth_rxtx.c **** 			CC1V8_SET;
 273:bluetooth_rxtx.c **** 		else
 274:bluetooth_rxtx.c **** 			CC1V8_CLR;
 275:bluetooth_rxtx.c **** 		break;
 276:bluetooth_rxtx.c **** 
 277:bluetooth_rxtx.c **** 	case UBERTOOTH_GET_PARTNUM:
 278:bluetooth_rxtx.c **** 		get_part_num(data, data_len);
 279:bluetooth_rxtx.c **** 		break;
 280:bluetooth_rxtx.c **** 
 281:bluetooth_rxtx.c **** 	case UBERTOOTH_RESET:
 282:bluetooth_rxtx.c **** 		requested_mode = MODE_RESET;
 283:bluetooth_rxtx.c **** 		break;
 284:bluetooth_rxtx.c **** 
 285:bluetooth_rxtx.c **** 	case UBERTOOTH_GET_SERIAL:
 286:bluetooth_rxtx.c **** 		get_device_serial(data, data_len);
 287:bluetooth_rxtx.c **** 		break;
 288:bluetooth_rxtx.c **** 
 289:bluetooth_rxtx.c **** #ifdef UBERTOOTH_ONE
 290:bluetooth_rxtx.c **** 	case UBERTOOTH_GET_PAEN:
 291:bluetooth_rxtx.c **** 		data[0] = (PAEN) ? 1 : 0;
 292:bluetooth_rxtx.c **** 		*data_len = 1;
 293:bluetooth_rxtx.c **** 		break;
 294:bluetooth_rxtx.c **** 
 295:bluetooth_rxtx.c **** 	case UBERTOOTH_SET_PAEN:
 296:bluetooth_rxtx.c **** 		if (request_params[0])
 297:bluetooth_rxtx.c **** 			PAEN_SET;
 298:bluetooth_rxtx.c **** 		else
 299:bluetooth_rxtx.c **** 			PAEN_CLR;
 300:bluetooth_rxtx.c **** 		break;
 301:bluetooth_rxtx.c **** 
 302:bluetooth_rxtx.c **** 	case UBERTOOTH_GET_HGM:
 303:bluetooth_rxtx.c **** 		data[0] = (HGM) ? 1 : 0;
 304:bluetooth_rxtx.c **** 		*data_len = 1;
 305:bluetooth_rxtx.c **** 		break;
 306:bluetooth_rxtx.c **** 
 307:bluetooth_rxtx.c **** 	case UBERTOOTH_SET_HGM:
 308:bluetooth_rxtx.c **** 		if (request_params[0])
 309:bluetooth_rxtx.c **** 			HGM_SET;
 310:bluetooth_rxtx.c **** 		else
 311:bluetooth_rxtx.c **** 			HGM_CLR;
 312:bluetooth_rxtx.c **** 		break;
 313:bluetooth_rxtx.c **** #endif
 314:bluetooth_rxtx.c **** 
 315:bluetooth_rxtx.c **** #ifdef TX_ENABLE
 316:bluetooth_rxtx.c **** 	case UBERTOOTH_TX_TEST:
 317:bluetooth_rxtx.c **** 		requested_mode = MODE_TX_TEST;
 318:bluetooth_rxtx.c **** 		break;
ARM GAS  /tmp/ccUrIl19.s 			page 7


 319:bluetooth_rxtx.c **** 
 320:bluetooth_rxtx.c **** 	case UBERTOOTH_GET_PALEVEL:
 321:bluetooth_rxtx.c **** 		data[0] = cc2400_get(FREND) & 0x7;
 322:bluetooth_rxtx.c **** 		*data_len = 1;
 323:bluetooth_rxtx.c **** 		break;
 324:bluetooth_rxtx.c **** 
 325:bluetooth_rxtx.c **** 	case UBERTOOTH_SET_PALEVEL:
 326:bluetooth_rxtx.c **** 		if( request_params[0] < 8 ) {
 327:bluetooth_rxtx.c **** 			cc2400_set(FREND, 8 | request_params[0]);
 328:bluetooth_rxtx.c **** 		} else {
 329:bluetooth_rxtx.c **** 			return 0;
 330:bluetooth_rxtx.c **** 		}
 331:bluetooth_rxtx.c **** 		break;
 332:bluetooth_rxtx.c **** 
 333:bluetooth_rxtx.c **** 	case UBERTOOTH_RANGE_TEST:
 334:bluetooth_rxtx.c **** 		requested_mode = MODE_RANGE_TEST;
 335:bluetooth_rxtx.c **** 		break;
 336:bluetooth_rxtx.c **** 
 337:bluetooth_rxtx.c **** 	case UBERTOOTH_REPEATER:
 338:bluetooth_rxtx.c **** 		requested_mode = MODE_REPEATER;
 339:bluetooth_rxtx.c **** 		break;
 340:bluetooth_rxtx.c **** #endif
 341:bluetooth_rxtx.c **** 
 342:bluetooth_rxtx.c **** 	case UBERTOOTH_RANGE_CHECK:
 343:bluetooth_rxtx.c **** 		data[0] = rr.valid;
 344:bluetooth_rxtx.c **** 		data[1] = rr.request_pa;
 345:bluetooth_rxtx.c **** 		data[2] = rr.request_num;
 346:bluetooth_rxtx.c **** 		data[3] = rr.reply_pa;
 347:bluetooth_rxtx.c **** 		data[4] = rr.reply_num;
 348:bluetooth_rxtx.c **** 		*data_len = 5;
 349:bluetooth_rxtx.c **** 		break;
 350:bluetooth_rxtx.c **** 
 351:bluetooth_rxtx.c **** 	case UBERTOOTH_STOP:
 352:bluetooth_rxtx.c **** 		requested_mode = MODE_IDLE;
 353:bluetooth_rxtx.c **** 		break;
 354:bluetooth_rxtx.c **** 
 355:bluetooth_rxtx.c **** 	case UBERTOOTH_GET_MOD:
 356:bluetooth_rxtx.c **** 		data[0] = modulation;
 357:bluetooth_rxtx.c **** 		*data_len = 1;
 358:bluetooth_rxtx.c **** 		break;
 359:bluetooth_rxtx.c **** 
 360:bluetooth_rxtx.c **** 	case UBERTOOTH_SET_MOD:
 361:bluetooth_rxtx.c **** 		modulation = request_params[0];
 362:bluetooth_rxtx.c **** 		break;
 363:bluetooth_rxtx.c **** 
 364:bluetooth_rxtx.c **** 	case UBERTOOTH_GET_CHANNEL:
 365:bluetooth_rxtx.c **** 		data[0] = channel & 0xFF;
 366:bluetooth_rxtx.c **** 		data[1] = (channel >> 8) & 0xFF;
 367:bluetooth_rxtx.c **** 		*data_len = 2;
 368:bluetooth_rxtx.c **** 		break;
 369:bluetooth_rxtx.c **** 
 370:bluetooth_rxtx.c **** 	case UBERTOOTH_SET_CHANNEL:
 371:bluetooth_rxtx.c **** 		requested_channel = request_params[0];
 372:bluetooth_rxtx.c **** 		/* bluetooth band sweep mode, start at channel 2402 */
 373:bluetooth_rxtx.c **** 		if (requested_channel > MAX_FREQ) {
 374:bluetooth_rxtx.c **** 			hop_mode = HOP_SWEEP;
 375:bluetooth_rxtx.c **** 			requested_channel = 2402;
ARM GAS  /tmp/ccUrIl19.s 			page 8


 376:bluetooth_rxtx.c **** 		}
 377:bluetooth_rxtx.c **** 		/* fixed channel mode, can be outside bluetooth band */
 378:bluetooth_rxtx.c **** 		else {
 379:bluetooth_rxtx.c **** 			hop_mode = HOP_NONE;
 380:bluetooth_rxtx.c **** 			requested_channel = MAX(requested_channel, MIN_FREQ);
 381:bluetooth_rxtx.c **** 			requested_channel = MIN(requested_channel, MAX_FREQ);
 382:bluetooth_rxtx.c **** 		}
 383:bluetooth_rxtx.c **** 
 384:bluetooth_rxtx.c **** 		le_adv_channel = requested_channel;
 385:bluetooth_rxtx.c **** 		if (mode != MODE_BT_FOLLOW_LE) {
 386:bluetooth_rxtx.c **** 			channel = requested_channel;
 387:bluetooth_rxtx.c **** 			requested_channel = 0;
 388:bluetooth_rxtx.c **** 
 389:bluetooth_rxtx.c **** 			/* CS threshold is mode-dependent. Update it after
 390:bluetooth_rxtx.c **** 			 * possible mode change. TODO - kludgy. */
 391:bluetooth_rxtx.c **** 			cs_threshold_calc_and_set(channel);
 392:bluetooth_rxtx.c **** 		}
 393:bluetooth_rxtx.c **** 		break;
 394:bluetooth_rxtx.c **** 
 395:bluetooth_rxtx.c **** 	case UBERTOOTH_SET_ISP:
 396:bluetooth_rxtx.c **** 		set_isp();
 397:bluetooth_rxtx.c **** 		*data_len = 0; /* should never return */
 398:bluetooth_rxtx.c **** 		break;
 399:bluetooth_rxtx.c **** 
 400:bluetooth_rxtx.c **** 	case UBERTOOTH_FLASH:
 401:bluetooth_rxtx.c **** 		bootloader_ctrl = DFU_MODE;
 402:bluetooth_rxtx.c **** 		requested_mode = MODE_RESET;
 403:bluetooth_rxtx.c **** 		break;
 404:bluetooth_rxtx.c **** 
 405:bluetooth_rxtx.c **** 	case UBERTOOTH_SPECAN:
 406:bluetooth_rxtx.c **** 		if (request_params[0] < 2049 || request_params[0] > 3072 ||
 407:bluetooth_rxtx.c **** 				request_params[1] < 2049 || request_params[1] > 3072 ||
 408:bluetooth_rxtx.c **** 				request_params[1] < request_params[0])
 409:bluetooth_rxtx.c **** 			return 0;
 410:bluetooth_rxtx.c **** 		low_freq = request_params[0];
 411:bluetooth_rxtx.c **** 		high_freq = request_params[1];
 412:bluetooth_rxtx.c **** 		requested_mode = MODE_SPECAN;
 413:bluetooth_rxtx.c **** 		*data_len = 0;
 414:bluetooth_rxtx.c **** 		break;
 415:bluetooth_rxtx.c **** 
 416:bluetooth_rxtx.c **** 	case UBERTOOTH_RX_GENERIC:
 417:bluetooth_rxtx.c **** 		requested_mode = MODE_RX_GENERIC;
 418:bluetooth_rxtx.c **** 		*data_len = 0;
 419:bluetooth_rxtx.c **** 		break;
 420:bluetooth_rxtx.c **** 
 421:bluetooth_rxtx.c **** 	case UBERTOOTH_LED_SPECAN:
 422:bluetooth_rxtx.c **** 		if (request_params[0] > 256)
 423:bluetooth_rxtx.c **** 			return 0;
 424:bluetooth_rxtx.c **** 		rssi_threshold = 54 - request_params[0];
 425:bluetooth_rxtx.c **** 		requested_mode = MODE_LED_SPECAN;
 426:bluetooth_rxtx.c **** 		*data_len = 0;
 427:bluetooth_rxtx.c **** 		break;
 428:bluetooth_rxtx.c **** 
 429:bluetooth_rxtx.c **** 	case UBERTOOTH_GET_REV_NUM:
 430:bluetooth_rxtx.c **** 		data[0] = 0x00;
 431:bluetooth_rxtx.c **** 		data[1] = 0x00;
 432:bluetooth_rxtx.c **** 
ARM GAS  /tmp/ccUrIl19.s 			page 9


 433:bluetooth_rxtx.c **** 		length = (u8)strlen(GIT_REVISION);
 434:bluetooth_rxtx.c **** 		data[2] = length;
 435:bluetooth_rxtx.c **** 
 436:bluetooth_rxtx.c **** 		memcpy(&data[3], GIT_REVISION, length);
 437:bluetooth_rxtx.c **** 
 438:bluetooth_rxtx.c **** 		*data_len = 2 + 1 + length;
 439:bluetooth_rxtx.c **** 		break;
 440:bluetooth_rxtx.c **** 
 441:bluetooth_rxtx.c **** 	case UBERTOOTH_GET_COMPILE_INFO:
 442:bluetooth_rxtx.c **** 		length = (u8)strlen(compile_info);
 443:bluetooth_rxtx.c **** 		data[0] = length;
 444:bluetooth_rxtx.c **** 		memcpy(&data[1], compile_info, length);
 445:bluetooth_rxtx.c **** 		*data_len = 1 + length;
 446:bluetooth_rxtx.c **** 		break;
 447:bluetooth_rxtx.c **** 
 448:bluetooth_rxtx.c **** 	case UBERTOOTH_GET_BOARD_ID:
 449:bluetooth_rxtx.c **** 		data[0] = BOARD_ID;
 450:bluetooth_rxtx.c **** 		*data_len = 1;
 451:bluetooth_rxtx.c **** 		break;
 452:bluetooth_rxtx.c **** 
 453:bluetooth_rxtx.c **** 	case UBERTOOTH_SET_SQUELCH:
 454:bluetooth_rxtx.c **** 		cs_threshold_req = (int8_t)request_params[0];
 455:bluetooth_rxtx.c **** 		cs_threshold_calc_and_set(channel);
 456:bluetooth_rxtx.c **** 		break;
 457:bluetooth_rxtx.c **** 
 458:bluetooth_rxtx.c **** 	case UBERTOOTH_GET_SQUELCH:
 459:bluetooth_rxtx.c **** 		data[0] = cs_threshold_req;
 460:bluetooth_rxtx.c **** 		*data_len = 1;
 461:bluetooth_rxtx.c **** 		break;
 462:bluetooth_rxtx.c **** 
 463:bluetooth_rxtx.c **** 	case UBERTOOTH_SET_BDADDR:
 464:bluetooth_rxtx.c **** 		target.address = 0;
 465:bluetooth_rxtx.c **** 		target.syncword = 0;
 466:bluetooth_rxtx.c **** 		for(int i=0; i < 8; i++) {
 467:bluetooth_rxtx.c **** 			target.address |= (uint64_t)data[i] << 8*i;
 468:bluetooth_rxtx.c **** 		}
 469:bluetooth_rxtx.c **** 		for(int i=0; i < 8; i++) {
 470:bluetooth_rxtx.c **** 			target.syncword |= (uint64_t)data[i+8] << 8*i;
 471:bluetooth_rxtx.c **** 		}
 472:bluetooth_rxtx.c **** 		precalc();
 473:bluetooth_rxtx.c **** 		break;
 474:bluetooth_rxtx.c **** 
 475:bluetooth_rxtx.c **** 	case UBERTOOTH_START_HOPPING:
 476:bluetooth_rxtx.c **** 		clkn_offset = 0;
 477:bluetooth_rxtx.c **** 		for(int i=0; i < 4; i++) {
 478:bluetooth_rxtx.c **** 			clkn_offset <<= 8;
 479:bluetooth_rxtx.c **** 			clkn_offset |= data[i];
 480:bluetooth_rxtx.c **** 		}
 481:bluetooth_rxtx.c **** 		hop_mode = HOP_BLUETOOTH;
 482:bluetooth_rxtx.c **** 		dma_discard = 1;
 483:bluetooth_rxtx.c **** 		DIO_SSEL_SET;
 484:bluetooth_rxtx.c **** 		clk100ns_offset = (data[4] << 8) | (data[5] << 0);
 485:bluetooth_rxtx.c **** 		requested_mode = MODE_BT_FOLLOW;
 486:bluetooth_rxtx.c **** 		break;
 487:bluetooth_rxtx.c **** 
 488:bluetooth_rxtx.c **** 	case UBERTOOTH_AFH:
 489:bluetooth_rxtx.c **** 		hop_mode = HOP_AFH;
ARM GAS  /tmp/ccUrIl19.s 			page 10


 490:bluetooth_rxtx.c **** 		requested_mode = MODE_AFH;
 491:bluetooth_rxtx.c **** 
 492:bluetooth_rxtx.c **** 		for(int i=0; i < 10; i++) {
 493:bluetooth_rxtx.c **** 			afh_map[i] = 0;
 494:bluetooth_rxtx.c **** 		}
 495:bluetooth_rxtx.c **** 		used_channels = 0;
 496:bluetooth_rxtx.c **** 		afh_enabled = 1;
 497:bluetooth_rxtx.c **** 		break;
 498:bluetooth_rxtx.c **** 
 499:bluetooth_rxtx.c **** 	case UBERTOOTH_HOP:
 500:bluetooth_rxtx.c **** 		do_hop = 1;
 501:bluetooth_rxtx.c **** 		break;
 502:bluetooth_rxtx.c **** 
 503:bluetooth_rxtx.c **** 	case UBERTOOTH_SET_CLOCK:
 504:bluetooth_rxtx.c **** 		clock = data[0] | data[1] << 8 | data[2] << 16 | data[3] << 24;
 505:bluetooth_rxtx.c **** 		clkn = clock;
 506:bluetooth_rxtx.c **** 		cs_threshold_calc_and_set(channel);
 507:bluetooth_rxtx.c **** 		break;
 508:bluetooth_rxtx.c **** 
 509:bluetooth_rxtx.c **** 	case UBERTOOTH_SET_AFHMAP:
 510:bluetooth_rxtx.c **** 		for(int i=0; i < 10; i++) {
 511:bluetooth_rxtx.c **** 			afh_map[i] = data[i];
 512:bluetooth_rxtx.c **** 		}
 513:bluetooth_rxtx.c **** 		afh_enabled = 1;
 514:bluetooth_rxtx.c **** 		*data_len = 10;
 515:bluetooth_rxtx.c **** 		break;
 516:bluetooth_rxtx.c **** 
 517:bluetooth_rxtx.c **** 	case UBERTOOTH_CLEAR_AFHMAP:
 518:bluetooth_rxtx.c **** 		for(int i=0; i < 10; i++) {
 519:bluetooth_rxtx.c **** 			afh_map[i] = 0;
 520:bluetooth_rxtx.c **** 		}
 521:bluetooth_rxtx.c **** 		afh_enabled = 0;
 522:bluetooth_rxtx.c **** 		*data_len = 10;
 523:bluetooth_rxtx.c **** 		break;
 524:bluetooth_rxtx.c **** 
 525:bluetooth_rxtx.c **** 	case UBERTOOTH_GET_CLOCK:
 526:bluetooth_rxtx.c **** 		clock = clkn;
 527:bluetooth_rxtx.c **** 		for(int i=0; i < 4; i++) {
 528:bluetooth_rxtx.c **** 			data[i] = (clock >> (8*i)) & 0xff;
 529:bluetooth_rxtx.c **** 		}
 530:bluetooth_rxtx.c **** 		*data_len = 4;
 531:bluetooth_rxtx.c **** 		break;
 532:bluetooth_rxtx.c **** 
 533:bluetooth_rxtx.c **** 	case UBERTOOTH_TRIM_CLOCK:
 534:bluetooth_rxtx.c **** 		clk100ns_offset = (data[0] << 8) | (data[1] << 0);
 535:bluetooth_rxtx.c **** 		break;
 536:bluetooth_rxtx.c **** 
 537:bluetooth_rxtx.c **** 	case UBERTOOTH_FIX_CLOCK_DRIFT:
 538:bluetooth_rxtx.c **** 		clk_drift_ppm += (int16_t)(data[0] << 8) | (data[1] << 0);
 539:bluetooth_rxtx.c **** 
 540:bluetooth_rxtx.c **** 		// Too slow
 541:bluetooth_rxtx.c **** 		if (clk_drift_ppm < 0) {
 542:bluetooth_rxtx.c **** 			clk_drift_correction = 320 / (uint16_t)(-clk_drift_ppm);
 543:bluetooth_rxtx.c **** 			clkn_next_drift_fix = clkn_last_drift_fix + clk_drift_correction;
 544:bluetooth_rxtx.c **** 		}
 545:bluetooth_rxtx.c **** 		// Too fast
 546:bluetooth_rxtx.c **** 		else if (clk_drift_ppm > 0) {
ARM GAS  /tmp/ccUrIl19.s 			page 11


 547:bluetooth_rxtx.c **** 			clk_drift_correction = 320 / clk_drift_ppm;
 548:bluetooth_rxtx.c **** 			clkn_next_drift_fix = clkn_last_drift_fix + clk_drift_correction;
 549:bluetooth_rxtx.c **** 		}
 550:bluetooth_rxtx.c **** 		// Don't trim
 551:bluetooth_rxtx.c **** 		else {
 552:bluetooth_rxtx.c **** 			clk_drift_correction = 0;
 553:bluetooth_rxtx.c **** 			clkn_next_drift_fix = 0;
 554:bluetooth_rxtx.c **** 		}
 555:bluetooth_rxtx.c **** 
 556:bluetooth_rxtx.c **** 		break;
 557:bluetooth_rxtx.c **** 
 558:bluetooth_rxtx.c **** 	case UBERTOOTH_BTLE_SNIFFING:
 559:bluetooth_rxtx.c **** 		*data_len = 0;
 560:bluetooth_rxtx.c **** 
 561:bluetooth_rxtx.c **** 		do_hop = 0;
 562:bluetooth_rxtx.c **** 		hop_mode = HOP_BTLE;
 563:bluetooth_rxtx.c **** 		requested_mode = MODE_BT_FOLLOW_LE;
 564:bluetooth_rxtx.c **** 
 565:bluetooth_rxtx.c **** 		queue_init();
 566:bluetooth_rxtx.c **** 		cs_threshold_calc_and_set(channel);
 567:bluetooth_rxtx.c **** 		break;
 568:bluetooth_rxtx.c **** 	
 569:bluetooth_rxtx.c **** 	// JWHUR cfo estimation tracking
 570:bluetooth_rxtx.c **** 	case UBERTOOTH_BTLE_CFO:
 571:bluetooth_rxtx.c **** 		do_hop = 0;
 572:bluetooth_rxtx.c **** 		hop_mode = HOP_BTLE;
 573:bluetooth_rxtx.c **** 		requested_mode = MODE_BT_CFO_LE;
 574:bluetooth_rxtx.c **** 
 575:bluetooth_rxtx.c **** 		queue_init();
 576:bluetooth_rxtx.c **** 		cs_threshold_calc_and_set(channel);
 577:bluetooth_rxtx.c **** 		break;
 578:bluetooth_rxtx.c **** 
 579:bluetooth_rxtx.c **** 	case UBERTOOTH_BTLE_RSSI:
 580:bluetooth_rxtx.c **** 		do_hop = 0;
 581:bluetooth_rxtx.c **** 		hop_mode = HOP_BTLE;
 582:bluetooth_rxtx.c **** 		requested_mode = MODE_BT_RSSI_LE;
 583:bluetooth_rxtx.c **** 
 584:bluetooth_rxtx.c **** 		queue_init();
 585:bluetooth_rxtx.c **** 		cs_threshold_calc_and_set(channel);
 586:bluetooth_rxtx.c **** 		break;
 587:bluetooth_rxtx.c **** 
 588:bluetooth_rxtx.c **** 	case UBERTOOTH_GET_ACCESS_ADDRESS:
 589:bluetooth_rxtx.c **** 		for(int i=0; i < 4; i++) {
 590:bluetooth_rxtx.c **** 			data[i] = (le.access_address >> (8*i)) & 0xff;
 591:bluetooth_rxtx.c **** 		}
 592:bluetooth_rxtx.c **** 		*data_len = 4;
 593:bluetooth_rxtx.c **** 		break;
 594:bluetooth_rxtx.c **** 
 595:bluetooth_rxtx.c **** 	case UBERTOOTH_SET_ACCESS_ADDRESS:
 596:bluetooth_rxtx.c **** 		le_set_access_address(data[0] | data[1] << 8 | data[2] << 16 | data[3] << 24);
 597:bluetooth_rxtx.c **** 		le.target_set = 1;
 598:bluetooth_rxtx.c **** 		break;
 599:bluetooth_rxtx.c **** 
 600:bluetooth_rxtx.c **** 	case UBERTOOTH_DO_SOMETHING:
 601:bluetooth_rxtx.c **** 		// do something! just don't commit anything here
 602:bluetooth_rxtx.c **** 		break;
 603:bluetooth_rxtx.c **** 
ARM GAS  /tmp/ccUrIl19.s 			page 12


 604:bluetooth_rxtx.c **** 	case UBERTOOTH_DO_SOMETHING_REPLY:
 605:bluetooth_rxtx.c **** 		// after you do something, tell me what you did!
 606:bluetooth_rxtx.c **** 		// don't commit here please
 607:bluetooth_rxtx.c **** 		data[0] = 0x13;
 608:bluetooth_rxtx.c **** 		data[1] = 0x37;
 609:bluetooth_rxtx.c **** 		*data_len = 2;
 610:bluetooth_rxtx.c **** 		break;
 611:bluetooth_rxtx.c **** 
 612:bluetooth_rxtx.c **** 	case UBERTOOTH_GET_CRC_VERIFY:
 613:bluetooth_rxtx.c **** 		data[0] = le.crc_verify ? 1 : 0;
 614:bluetooth_rxtx.c **** 		*data_len = 1;
 615:bluetooth_rxtx.c **** 		break;
 616:bluetooth_rxtx.c **** 
 617:bluetooth_rxtx.c **** 	case UBERTOOTH_SET_CRC_VERIFY:
 618:bluetooth_rxtx.c **** 		le.crc_verify = request_params[0] ? 1 : 0;
 619:bluetooth_rxtx.c **** 		break;
 620:bluetooth_rxtx.c **** 
 621:bluetooth_rxtx.c **** 	case UBERTOOTH_POLL:
 622:bluetooth_rxtx.c **** 		p = dequeue();
 623:bluetooth_rxtx.c **** 		if (p != NULL) {
 624:bluetooth_rxtx.c **** 			memcpy(data, (void *)p, sizeof(usb_pkt_rx));
 625:bluetooth_rxtx.c **** 			*data_len = sizeof(usb_pkt_rx);
 626:bluetooth_rxtx.c **** 		} else {
 627:bluetooth_rxtx.c **** 			data[0] = 0;
 628:bluetooth_rxtx.c **** 			*data_len = 1;
 629:bluetooth_rxtx.c **** 		}
 630:bluetooth_rxtx.c **** 		break;
 631:bluetooth_rxtx.c **** 
 632:bluetooth_rxtx.c **** 	case UBERTOOTH_BTLE_PROMISC:
 633:bluetooth_rxtx.c **** 		*data_len = 0;
 634:bluetooth_rxtx.c **** 
 635:bluetooth_rxtx.c **** 		hop_mode = HOP_NONE;
 636:bluetooth_rxtx.c **** 		requested_mode = MODE_BT_PROMISC_LE;
 637:bluetooth_rxtx.c **** 
 638:bluetooth_rxtx.c **** 		queue_init();
 639:bluetooth_rxtx.c **** 		cs_threshold_calc_and_set(channel);
 640:bluetooth_rxtx.c **** 		break;
 641:bluetooth_rxtx.c **** 
 642:bluetooth_rxtx.c **** 	case UBERTOOTH_READ_REGISTER:
 643:bluetooth_rxtx.c **** 		reg_val = cc2400_get(request_params[0]);
 644:bluetooth_rxtx.c **** 		data[0] = (reg_val >> 8) & 0xff;
 645:bluetooth_rxtx.c **** 		data[1] = reg_val & 0xff;
 646:bluetooth_rxtx.c **** 		*data_len = 2;
 647:bluetooth_rxtx.c **** 		break;
 648:bluetooth_rxtx.c **** 
 649:bluetooth_rxtx.c **** 	case UBERTOOTH_WRITE_REGISTER:
 650:bluetooth_rxtx.c **** 		cc2400_set(request_params[0] & 0xff, request_params[1]);
 651:bluetooth_rxtx.c **** 		break;
 652:bluetooth_rxtx.c **** 
 653:bluetooth_rxtx.c **** 	case UBERTOOTH_WRITE_REGISTERS:
 654:bluetooth_rxtx.c **** 		for(i=0; i<request_params[0]; i++) {
 655:bluetooth_rxtx.c **** 			reg_val = (data[(i*3)+1] << 8) | data[(i*3)+2];
 656:bluetooth_rxtx.c **** 			cc2400_set(data[i*3], reg_val);
 657:bluetooth_rxtx.c **** 		}
 658:bluetooth_rxtx.c **** 		break;
 659:bluetooth_rxtx.c **** 
 660:bluetooth_rxtx.c **** 	case UBERTOOTH_READ_ALL_REGISTERS:
ARM GAS  /tmp/ccUrIl19.s 			page 13


 661:bluetooth_rxtx.c **** 		#define MAX_READ_REG 0x2d
 662:bluetooth_rxtx.c **** 		for(i=0; i<=MAX_READ_REG; i++) {
 663:bluetooth_rxtx.c **** 			reg_val = cc2400_get(i);
 664:bluetooth_rxtx.c **** 			data[i*3] = i;
 665:bluetooth_rxtx.c **** 			data[(i*3)+1] = (reg_val >> 8) & 0xff;
 666:bluetooth_rxtx.c **** 			data[(i*3)+2] = reg_val & 0xff;
 667:bluetooth_rxtx.c **** 		}
 668:bluetooth_rxtx.c **** 		*data_len = MAX_READ_REG*3;
 669:bluetooth_rxtx.c **** 		break;
 670:bluetooth_rxtx.c **** 
 671:bluetooth_rxtx.c **** 	case UBERTOOTH_TX_GENERIC_PACKET:
 672:bluetooth_rxtx.c **** 		i = 7 + data[6];
 673:bluetooth_rxtx.c **** 		memcpy(&tx_pkt, data, i);
 674:bluetooth_rxtx.c **** 		//tx_pkt.channel = data[4] << 8 | data[5];
 675:bluetooth_rxtx.c **** 		requested_mode = MODE_TX_GENERIC;
 676:bluetooth_rxtx.c **** 		*data_len = 0;
 677:bluetooth_rxtx.c **** 		break;
 678:bluetooth_rxtx.c **** 
 679:bluetooth_rxtx.c **** 	case UBERTOOTH_BTLE_SLAVE:
 680:bluetooth_rxtx.c **** 		slave_mac_address_data = (uint8_t*) malloc(sizeof(uint8_t)*dlen);
 681:bluetooth_rxtx.c **** 		memcpy(slave_mac_address_data, data, dlen);
 682:bluetooth_rxtx.c **** 		requested_mode = MODE_BT_SLAVE_LE;
 683:bluetooth_rxtx.c **** 		break;
 684:bluetooth_rxtx.c **** 
 685:bluetooth_rxtx.c **** 	//JWHUR for rssi sampling synchronization
 686:bluetooth_rxtx.c **** 	case UBERTOOTH_BTLE_SYNC:
 687:bluetooth_rxtx.c **** 		slave_mac_address_data = (uint8_t*) malloc(sizeof(uint8_t)*dlen);
 688:bluetooth_rxtx.c **** 		memcpy(slave_mac_address_data, data, dlen);
 689:bluetooth_rxtx.c **** 		requested_mode = MODE_BT_SYNC_LE;
 690:bluetooth_rxtx.c **** 		break;
 691:bluetooth_rxtx.c **** 	
 692:bluetooth_rxtx.c **** 	case UBERTOOTH_BTLE_SET_TARGET:
 693:bluetooth_rxtx.c **** 		// Addresses appear in packets in reverse-octet order.
 694:bluetooth_rxtx.c **** 		// Store the target address in reverse order so that we can do a simple memcmp later
 695:bluetooth_rxtx.c **** 		le.target[0] = data[5];
 696:bluetooth_rxtx.c **** 		le.target[1] = data[4];
 697:bluetooth_rxtx.c **** 		le.target[2] = data[3];
 698:bluetooth_rxtx.c **** 		le.target[3] = data[2];
 699:bluetooth_rxtx.c **** 		le.target[4] = data[1];
 700:bluetooth_rxtx.c **** 		le.target[5] = data[0];
 701:bluetooth_rxtx.c **** 		le.target_set = 1;
 702:bluetooth_rxtx.c **** 		break;
 703:bluetooth_rxtx.c **** 
 704:bluetooth_rxtx.c **** #ifdef TX_ENABLE
 705:bluetooth_rxtx.c **** 	case UBERTOOTH_JAM_MODE:
 706:bluetooth_rxtx.c **** 		jam_mode = request_params[0];
 707:bluetooth_rxtx.c **** 		break;
 708:bluetooth_rxtx.c **** #endif
 709:bluetooth_rxtx.c **** 
 710:bluetooth_rxtx.c **** 	case UBERTOOTH_EGO:
 711:bluetooth_rxtx.c **** #ifndef TX_ENABLE
 712:bluetooth_rxtx.c **** 		if (ego_mode == EGO_JAM)
 713:bluetooth_rxtx.c **** 			return 0;
 714:bluetooth_rxtx.c **** #endif
 715:bluetooth_rxtx.c **** 		requested_mode = MODE_EGO;
 716:bluetooth_rxtx.c **** 		ego_mode = request_params[0];
 717:bluetooth_rxtx.c **** 		break;
ARM GAS  /tmp/ccUrIl19.s 			page 14


 718:bluetooth_rxtx.c **** 
 719:bluetooth_rxtx.c **** 	default:
 720:bluetooth_rxtx.c **** 		return 0;
 721:bluetooth_rxtx.c **** 	}
 722:bluetooth_rxtx.c **** 	return 1;
 723:bluetooth_rxtx.c **** }
 724:bluetooth_rxtx.c **** 
 725:bluetooth_rxtx.c **** /* Update CLKN. */
 726:bluetooth_rxtx.c **** void TIMER0_IRQHandler()
 727:bluetooth_rxtx.c **** {
 728:bluetooth_rxtx.c **** 	if (T0IR & TIR_MR0_Interrupt) {
 729:bluetooth_rxtx.c **** 
 730:bluetooth_rxtx.c **** 		clkn += clkn_offset + 1;
 731:bluetooth_rxtx.c **** 		clkn_offset = 0;
 732:bluetooth_rxtx.c **** 
 733:bluetooth_rxtx.c **** 		uint32_t le_clk = (clkn - le.conn_epoch) & 0x03;
 734:bluetooth_rxtx.c **** 
 735:bluetooth_rxtx.c **** 		/* Trigger hop based on mode */
 736:bluetooth_rxtx.c **** 
 737:bluetooth_rxtx.c **** 		/* NONE or SWEEP -> 25 Hz */
 738:bluetooth_rxtx.c **** 		if (hop_mode == HOP_NONE || hop_mode == HOP_SWEEP) {
 739:bluetooth_rxtx.c **** 			if ((clkn & 0x7f) == 0)
 740:bluetooth_rxtx.c **** 				do_hop = 1;
 741:bluetooth_rxtx.c **** 		}
 742:bluetooth_rxtx.c **** 		/* BLUETOOTH -> 1600 Hz */
 743:bluetooth_rxtx.c **** 		else if (hop_mode == HOP_BLUETOOTH) {
 744:bluetooth_rxtx.c **** 			if ((clkn & 0x1) == 0)
 745:bluetooth_rxtx.c **** 				do_hop = 1;
 746:bluetooth_rxtx.c **** 		}
 747:bluetooth_rxtx.c **** 		/* BLUETOOTH Low Energy -> 7.5ms - 4.0s in multiples of 1.25 ms */
 748:bluetooth_rxtx.c **** 		else if (hop_mode == HOP_BTLE) {
 749:bluetooth_rxtx.c **** 			// Only hop if connected
 750:bluetooth_rxtx.c **** 			if (le.link_state == LINK_CONNECTED && le_clk == 0) {
 751:bluetooth_rxtx.c **** 				--le.interval_timer;
 752:bluetooth_rxtx.c **** 				if (le.interval_timer == 0) {
 753:bluetooth_rxtx.c **** 					do_hop = 1;
 754:bluetooth_rxtx.c **** 					++le.conn_count;
 755:bluetooth_rxtx.c **** 					le.interval_timer = le.conn_interval;
 756:bluetooth_rxtx.c **** 				} else {
 757:bluetooth_rxtx.c **** 					TXLED_CLR; // hack!
 758:bluetooth_rxtx.c **** 				}
 759:bluetooth_rxtx.c **** 			}
 760:bluetooth_rxtx.c **** 		}
 761:bluetooth_rxtx.c **** 		else if (hop_mode == HOP_AFH) {
 762:bluetooth_rxtx.c **** 			if( (last_hop + hop_timeout) == clkn ) {
 763:bluetooth_rxtx.c **** 				do_hop = 1;
 764:bluetooth_rxtx.c **** 			}
 765:bluetooth_rxtx.c **** 		}
 766:bluetooth_rxtx.c **** 
 767:bluetooth_rxtx.c **** 		// Fix linear clock drift deviation
 768:bluetooth_rxtx.c **** 		if(clkn_next_drift_fix != 0 && clk100ns_offset == 0) {
 769:bluetooth_rxtx.c **** 			if(clkn >= clkn_next_drift_fix) {
 770:bluetooth_rxtx.c **** 
 771:bluetooth_rxtx.c **** 				// Too fast
 772:bluetooth_rxtx.c **** 				if(clk_drift_ppm >= 0) {
 773:bluetooth_rxtx.c **** 					clk100ns_offset = 1;
 774:bluetooth_rxtx.c **** 				}
ARM GAS  /tmp/ccUrIl19.s 			page 15


 775:bluetooth_rxtx.c **** 
 776:bluetooth_rxtx.c **** 				// Too slow
 777:bluetooth_rxtx.c **** 				else {
 778:bluetooth_rxtx.c **** 					clk100ns_offset = 6249;
 779:bluetooth_rxtx.c **** 				}
 780:bluetooth_rxtx.c **** 				clkn_last_drift_fix = clkn;
 781:bluetooth_rxtx.c **** 				clkn_next_drift_fix = clkn_last_drift_fix + clk_drift_correction;
 782:bluetooth_rxtx.c **** 			}
 783:bluetooth_rxtx.c **** 		}
 784:bluetooth_rxtx.c **** 
 785:bluetooth_rxtx.c **** 		// Negative clock correction
 786:bluetooth_rxtx.c **** 		if(clk100ns_offset > 3124)
 787:bluetooth_rxtx.c **** 			clkn += 2;
 788:bluetooth_rxtx.c **** 
 789:bluetooth_rxtx.c **** 		T0MR0 = 3124 + clk100ns_offset;
 790:bluetooth_rxtx.c **** 		clk100ns_offset = 0;
 791:bluetooth_rxtx.c **** 
 792:bluetooth_rxtx.c **** 		/* Ack interrupt */
 793:bluetooth_rxtx.c **** 		T0IR = TIR_MR0_Interrupt;
 794:bluetooth_rxtx.c **** 	}
 795:bluetooth_rxtx.c **** }
 796:bluetooth_rxtx.c **** 
 797:bluetooth_rxtx.c **** /* EINT3 handler is also defined in ubertooth.c for TC13BADGE. */
 798:bluetooth_rxtx.c **** #ifndef TC13BADGE
 799:bluetooth_rxtx.c **** void EINT3_IRQHandler()
 800:bluetooth_rxtx.c **** {
 801:bluetooth_rxtx.c **** 	/* TODO - check specific source of shared interrupt */
 802:bluetooth_rxtx.c **** 	IO2IntClr   = PIN_GIO6; // clear interrupt
 803:bluetooth_rxtx.c **** 	DIO_SSEL_CLR;           // enable SPI
 804:bluetooth_rxtx.c **** 	cs_trigger  = 1;        // signal trigger
 805:bluetooth_rxtx.c **** 	if (hop_mode == HOP_BLUETOOTH)
 806:bluetooth_rxtx.c **** 		dma_discard = 0;
 807:bluetooth_rxtx.c **** 
 808:bluetooth_rxtx.c **** }
 809:bluetooth_rxtx.c **** #endif // TC13BADGE
 810:bluetooth_rxtx.c **** 
 811:bluetooth_rxtx.c **** /*
 812:bluetooth_rxtx.c ****  * Sleep (busy wait) for 'millis' milliseconds
 813:bluetooth_rxtx.c ****  * Needs clkn. Be sure to call clkn_init() before using it.
 814:bluetooth_rxtx.c ****  */
 815:bluetooth_rxtx.c **** static void msleep(uint32_t millis)
 816:bluetooth_rxtx.c **** {
 817:bluetooth_rxtx.c **** 	uint32_t now = (clkn & 0xffffff);
 818:bluetooth_rxtx.c **** 	uint32_t stop_at = now + millis * 10000 / 3125; // millis -> clkn ticks
 819:bluetooth_rxtx.c **** 
 820:bluetooth_rxtx.c **** 	// handle clkn overflow
 821:bluetooth_rxtx.c **** 	if (stop_at >= ((uint32_t)1<<28)) {
 822:bluetooth_rxtx.c **** 		stop_at -= ((uint32_t)1<<28);
 823:bluetooth_rxtx.c **** 		while ((clkn & 0xffffff) >= now || (clkn & 0xffffff) < stop_at);
 824:bluetooth_rxtx.c **** 	} else {
 825:bluetooth_rxtx.c **** 		while ((clkn & 0xffffff) < stop_at);
 826:bluetooth_rxtx.c **** 	}
 827:bluetooth_rxtx.c **** }
 828:bluetooth_rxtx.c **** 
 829:bluetooth_rxtx.c **** void DMA_IRQHandler()
 830:bluetooth_rxtx.c **** {
 831:bluetooth_rxtx.c **** 	if ( mode == MODE_RX_SYMBOLS
ARM GAS  /tmp/ccUrIl19.s 			page 16


 832:bluetooth_rxtx.c **** 	   || mode == MODE_BT_FOLLOW
 833:bluetooth_rxtx.c **** 	   || mode == MODE_SPECAN
 834:bluetooth_rxtx.c **** 	   || mode == MODE_BT_FOLLOW_LE
 835:bluetooth_rxtx.c **** 	   || mode == MODE_BT_CFO_LE
 836:bluetooth_rxtx.c **** 	   || mode == MODE_BT_RSSI_LE
 837:bluetooth_rxtx.c **** 	   || mode == MODE_BT_PROMISC_LE
 838:bluetooth_rxtx.c **** 	   || mode == MODE_BT_SLAVE_LE
 839:bluetooth_rxtx.c **** 	   || mode == MODE_BT_SYNC_LE
 840:bluetooth_rxtx.c **** 	   || mode == MODE_RX_GENERIC)
 841:bluetooth_rxtx.c **** 	{
 842:bluetooth_rxtx.c **** 		/* interrupt on channel 0 */
 843:bluetooth_rxtx.c **** 		if (DMACIntStat & (1 << 0)) {
 844:bluetooth_rxtx.c **** 			if (DMACIntTCStat & (1 << 0)) {
 845:bluetooth_rxtx.c **** 				DMACIntTCClear = (1 << 0);
 846:bluetooth_rxtx.c **** 
 847:bluetooth_rxtx.c **** 				if (hop_mode == HOP_BLUETOOTH)
 848:bluetooth_rxtx.c **** 					DIO_SSEL_SET;
 849:bluetooth_rxtx.c **** 
 850:bluetooth_rxtx.c **** 				idle_buf_clk100ns  = CLK100NS;
 851:bluetooth_rxtx.c **** 				idle_buf_clkn_high = (clkn >> 20) & 0xff;
 852:bluetooth_rxtx.c **** 				idle_buf_channel   = channel;
 853:bluetooth_rxtx.c **** 
 854:bluetooth_rxtx.c **** 				/* Keep buffer swapping in sync with DMA. */
 855:bluetooth_rxtx.c **** 				volatile uint8_t* tmp = active_rxbuf;
 856:bluetooth_rxtx.c **** 				active_rxbuf = idle_rxbuf;
 857:bluetooth_rxtx.c **** 				idle_rxbuf = tmp;
 858:bluetooth_rxtx.c **** 
 859:bluetooth_rxtx.c **** 				++rx_tc;
 860:bluetooth_rxtx.c **** 			}
 861:bluetooth_rxtx.c **** 			if (DMACIntErrStat & (1 << 0)) {
 862:bluetooth_rxtx.c **** 				DMACIntErrClr = (1 << 0);
 863:bluetooth_rxtx.c **** 				++rx_err;
 864:bluetooth_rxtx.c **** 			}
 865:bluetooth_rxtx.c **** 		}
 866:bluetooth_rxtx.c **** 	}
 867:bluetooth_rxtx.c **** }
 868:bluetooth_rxtx.c **** 
 869:bluetooth_rxtx.c **** static void cc2400_idle()
 870:bluetooth_rxtx.c **** {
 871:bluetooth_rxtx.c **** 	cc2400_strobe(SRFOFF);
 872:bluetooth_rxtx.c **** 	while ((cc2400_status() & FS_LOCK)); // need to wait for unlock?
 873:bluetooth_rxtx.c **** 
 874:bluetooth_rxtx.c **** #ifdef UBERTOOTH_ONE
 875:bluetooth_rxtx.c **** 	PAEN_CLR;
 876:bluetooth_rxtx.c **** 	HGM_CLR;
 877:bluetooth_rxtx.c **** #endif
 878:bluetooth_rxtx.c **** 
 879:bluetooth_rxtx.c **** 	RXLED_CLR;
 880:bluetooth_rxtx.c **** 	TXLED_CLR;
 881:bluetooth_rxtx.c **** 	USRLED_CLR;
 882:bluetooth_rxtx.c **** 
 883:bluetooth_rxtx.c **** 	clkn_stop();
 884:bluetooth_rxtx.c **** 	dio_ssp_stop();
 885:bluetooth_rxtx.c **** 	cs_reset();
 886:bluetooth_rxtx.c **** 	rssi_reset();
 887:bluetooth_rxtx.c **** 
 888:bluetooth_rxtx.c **** 	/* hopping stuff */
ARM GAS  /tmp/ccUrIl19.s 			page 17


 889:bluetooth_rxtx.c **** 	hop_mode = HOP_NONE;
 890:bluetooth_rxtx.c **** 	do_hop = 0;
 891:bluetooth_rxtx.c **** 	channel = 2441;
 892:bluetooth_rxtx.c **** 	hop_direct_channel = 0;
 893:bluetooth_rxtx.c **** 	hop_timeout = 158;
 894:bluetooth_rxtx.c **** 	requested_channel = 0;
 895:bluetooth_rxtx.c **** 	le_adv_channel = 2402;
 896:bluetooth_rxtx.c **** 
 897:bluetooth_rxtx.c **** 
 898:bluetooth_rxtx.c **** 	/* bulk USB stuff */
 899:bluetooth_rxtx.c **** 	idle_buf_clkn_high = 0;
 900:bluetooth_rxtx.c **** 	idle_buf_clk100ns = 0;
 901:bluetooth_rxtx.c **** 	idle_buf_channel = 0;
 902:bluetooth_rxtx.c **** 	dma_discard = 0;
 903:bluetooth_rxtx.c **** 	status = 0;
 904:bluetooth_rxtx.c **** 
 905:bluetooth_rxtx.c **** 	/* operation mode */
 906:bluetooth_rxtx.c **** 	mode = MODE_IDLE;
 907:bluetooth_rxtx.c **** 	requested_mode = MODE_IDLE;
 908:bluetooth_rxtx.c **** 	jam_mode = JAM_NONE;
 909:bluetooth_rxtx.c **** 	ego_mode = EGO_FOLLOW;
 910:bluetooth_rxtx.c **** 
 911:bluetooth_rxtx.c **** 	modulation = MOD_BT_BASIC_RATE;
 912:bluetooth_rxtx.c **** 
 913:bluetooth_rxtx.c **** 	/* specan stuff */
 914:bluetooth_rxtx.c **** 	low_freq = 2400;
 915:bluetooth_rxtx.c **** 	high_freq = 2483;
 916:bluetooth_rxtx.c **** 	rssi_threshold = -30;
 917:bluetooth_rxtx.c **** 
 918:bluetooth_rxtx.c **** 	target.address = 0;
 919:bluetooth_rxtx.c **** 	target.syncword = 0;
 920:bluetooth_rxtx.c **** }
 921:bluetooth_rxtx.c **** 
 922:bluetooth_rxtx.c **** /* start un-buffered rx */
 923:bluetooth_rxtx.c **** static void cc2400_rx()
 924:bluetooth_rxtx.c **** {
 925:bluetooth_rxtx.c **** 	u16 mdmctrl = 0;
 926:bluetooth_rxtx.c **** 
 927:bluetooth_rxtx.c **** 	if((modulation == MOD_BT_BASIC_RATE) || (modulation == MOD_BT_LOW_ENERGY)) {
 928:bluetooth_rxtx.c **** 		if (modulation == MOD_BT_BASIC_RATE) {
 929:bluetooth_rxtx.c **** 			mdmctrl = 0x0029; // 160 kHz frequency deviation
 930:bluetooth_rxtx.c **** 		} else if (modulation == MOD_BT_LOW_ENERGY) {
 931:bluetooth_rxtx.c **** 			mdmctrl = 0x0040; // 250 kHz frequency deviation
 932:bluetooth_rxtx.c **** 		}
 933:bluetooth_rxtx.c **** 		cc2400_set(MANAND,  0x7fff);
 934:bluetooth_rxtx.c **** 		cc2400_set(LMTST,   0x2b22);
 935:bluetooth_rxtx.c **** 		cc2400_set(MDMTST0, 0x134b); // without PRNG 16 MAX MIN PAIRS
 936:bluetooth_rxtx.c **** 		cc2400_set(GRMDM,   0x0101); // un-buffered mode, GFSK
 937:bluetooth_rxtx.c **** 		// 0 00 00 0 010 00 0 00 0 1
 938:bluetooth_rxtx.c **** 		//      |  | |   |  +--------> CRC off
 939:bluetooth_rxtx.c **** 		//      |  | |   +-----------> sync word: 8 MSB bits of SYNC_WORD
 940:bluetooth_rxtx.c **** 		//      |  | +---------------> 2 preamble bytes of 01010101
 941:bluetooth_rxtx.c **** 		//      |  +-----------------> not packet mode
 942:bluetooth_rxtx.c **** 			//      +--------------------> un-buffered mode
 943:bluetooth_rxtx.c **** 		cc2400_set(FSDIV,   channel - 1); // 1 MHz IF
 944:bluetooth_rxtx.c **** 		cc2400_set(MDMCTRL, mdmctrl);
 945:bluetooth_rxtx.c **** 	}
ARM GAS  /tmp/ccUrIl19.s 			page 18


 946:bluetooth_rxtx.c **** 
 947:bluetooth_rxtx.c **** 	// Set up CS register
 948:bluetooth_rxtx.c **** 	cs_threshold_calc_and_set(channel);
 949:bluetooth_rxtx.c **** 
 950:bluetooth_rxtx.c **** 	clkn_start();
 951:bluetooth_rxtx.c **** 
 952:bluetooth_rxtx.c **** 	while (!(cc2400_status() & XOSC16M_STABLE));
 953:bluetooth_rxtx.c **** 	cc2400_strobe(SFSON);
 954:bluetooth_rxtx.c **** 	while (!(cc2400_status() & FS_LOCK));
 955:bluetooth_rxtx.c **** 	cc2400_strobe(SRX);
 956:bluetooth_rxtx.c **** #ifdef UBERTOOTH_ONE
 957:bluetooth_rxtx.c **** 	PAEN_SET;
 958:bluetooth_rxtx.c **** 	HGM_SET;
 959:bluetooth_rxtx.c **** #endif
 960:bluetooth_rxtx.c **** }
 961:bluetooth_rxtx.c **** 
 962:bluetooth_rxtx.c **** /* start un-buffered rx */
 963:bluetooth_rxtx.c **** static void cc2400_rx_sync(u32 sync)
 964:bluetooth_rxtx.c **** {
 965:bluetooth_rxtx.c **** 	u16 grmdm, mdmctrl;
 966:bluetooth_rxtx.c **** 
 967:bluetooth_rxtx.c **** 	if (modulation == MOD_BT_BASIC_RATE) {
 968:bluetooth_rxtx.c **** 		mdmctrl = 0x0029; // 160 kHz frequency deviation
 969:bluetooth_rxtx.c **** 		grmdm = 0x0461; // un-buffered mode, packet w/ sync word detection
 970:bluetooth_rxtx.c **** 		// 0 00 00 1 000 11 0 00 0 1
 971:bluetooth_rxtx.c **** 		//   |  |  | |   |  +--------> CRC off
 972:bluetooth_rxtx.c **** 		//   |  |  | |   +-----------> sync word: 32 MSB bits of SYNC_WORD
 973:bluetooth_rxtx.c **** 		//   |  |  | +---------------> 0 preamble bytes of 01010101
 974:bluetooth_rxtx.c **** 		//   |  |  +-----------------> packet mode
 975:bluetooth_rxtx.c **** 		//   |  +--------------------> un-buffered mode
 976:bluetooth_rxtx.c **** 		//   +-----------------------> sync error bits: 0
 977:bluetooth_rxtx.c **** 
 978:bluetooth_rxtx.c **** 	} else if (modulation == MOD_BT_LOW_ENERGY) {
 979:bluetooth_rxtx.c **** 		mdmctrl = 0x0040; // 250 kHz frequency deviation
 980:bluetooth_rxtx.c **** 		grmdm = 0x6561; // un-buffered mode, packet w/ sync word detection
 981:bluetooth_rxtx.c **** 		// 0 11 00 1 010 11 0 00 0 1
 982:bluetooth_rxtx.c **** 		//   |  |  | |   |  +--------> CRC off
 983:bluetooth_rxtx.c **** 		//   |  |  | |   +-----------> sync word: 32 MSB bits of SYNC_WORD
 984:bluetooth_rxtx.c **** 		//   |  |  | +---------------> 2 preamble bytes of 01010101
 985:bluetooth_rxtx.c **** 		//   |  |  +-----------------> packet mode
 986:bluetooth_rxtx.c **** 		//   |  +--------------------> un-buffered mode
 987:bluetooth_rxtx.c **** 		//   +-----------------------> sync error bits: 3
 988:bluetooth_rxtx.c **** 
 989:bluetooth_rxtx.c **** 	} else {
 990:bluetooth_rxtx.c **** 		/* oops */
 991:bluetooth_rxtx.c **** 		return;
 992:bluetooth_rxtx.c **** 	}
 993:bluetooth_rxtx.c **** 
 994:bluetooth_rxtx.c **** 	cc2400_set(MANAND,  0x7fff);
 995:bluetooth_rxtx.c **** 	cc2400_set(LMTST,   0x2b22);
 996:bluetooth_rxtx.c **** 
 997:bluetooth_rxtx.c **** 	cc2400_set(MDMTST0, 0x104b); //JWHUR AFC settling = 2 maxmin pairs
 998:bluetooth_rxtx.c **** 	//cc2400_set(MDMTST0, 0x124b);
 999:bluetooth_rxtx.c **** 	// 1      2      4b
1000:bluetooth_rxtx.c **** 	// 00 0 1 0 0 10 01001011
1001:bluetooth_rxtx.c **** 	//    | | | | |  +---------> AFC_DELTA = ??
1002:bluetooth_rxtx.c **** 	//    | | | | +------------> AFC settling = 4 pairs (8 bit preamble)
ARM GAS  /tmp/ccUrIl19.s 			page 19


1003:bluetooth_rxtx.c **** 	//    | | | +--------------> no AFC adjust on packet
1004:bluetooth_rxtx.c **** 	//    | | +----------------> do not invert data
1005:bluetooth_rxtx.c **** 	//    | +------------------> TX IF freq 1 0Hz
1006:bluetooth_rxtx.c **** 	//    +--------------------> PRNG off
1007:bluetooth_rxtx.c **** 	//
1008:bluetooth_rxtx.c **** 	// ref: CC2400 datasheet page 67
1009:bluetooth_rxtx.c **** 	// AFC settling explained page 41/42
1010:bluetooth_rxtx.c **** 
1011:bluetooth_rxtx.c **** 	cc2400_set(GRMDM,   grmdm);
1012:bluetooth_rxtx.c **** 
1013:bluetooth_rxtx.c **** 	cc2400_set(SYNCL,   sync & 0xffff);
1014:bluetooth_rxtx.c **** 	cc2400_set(SYNCH,   (sync >> 16) & 0xffff);
1015:bluetooth_rxtx.c **** 
1016:bluetooth_rxtx.c **** 	cc2400_set(FSDIV,   channel - 1); // 1 MHz IF
1017:bluetooth_rxtx.c **** 	cc2400_set(MDMCTRL, mdmctrl);
1018:bluetooth_rxtx.c **** 
1019:bluetooth_rxtx.c **** 	//JWHUR RSSI sampling symbols
1020:bluetooth_rxtx.c **** 	cc2400_set(RSSI, 0x003f);
1021:bluetooth_rxtx.c **** 
1022:bluetooth_rxtx.c **** 	// Set up CS register
1023:bluetooth_rxtx.c **** 	cs_threshold_calc_and_set(channel);
1024:bluetooth_rxtx.c **** 
1025:bluetooth_rxtx.c **** 	clkn_start();
1026:bluetooth_rxtx.c **** 
1027:bluetooth_rxtx.c **** 	while (!(cc2400_status() & XOSC16M_STABLE));
1028:bluetooth_rxtx.c **** 	cc2400_strobe(SFSON);
1029:bluetooth_rxtx.c **** 	while (!(cc2400_status() & FS_LOCK));
1030:bluetooth_rxtx.c **** 	cc2400_strobe(SRX);
1031:bluetooth_rxtx.c **** #ifdef UBERTOOTH_ONE
1032:bluetooth_rxtx.c **** 	PAEN_SET;
1033:bluetooth_rxtx.c **** 	HGM_SET;
1034:bluetooth_rxtx.c **** #endif
1035:bluetooth_rxtx.c **** }
1036:bluetooth_rxtx.c **** 
1037:bluetooth_rxtx.c **** /* start buffered tx */
1038:bluetooth_rxtx.c **** static void cc2400_tx_sync(uint32_t sync)
1039:bluetooth_rxtx.c **** {
1040:bluetooth_rxtx.c **** #ifdef TX_ENABLE
1041:bluetooth_rxtx.c **** 	// Bluetooth-like modulation
1042:bluetooth_rxtx.c **** 	cc2400_set(MANAND,  0x7fff);
1043:bluetooth_rxtx.c **** 	cc2400_set(LMTST,   0x2b22);    // LNA and receive mixers test register
1044:bluetooth_rxtx.c **** 	cc2400_set(MDMTST0, 0x134b);    // no PRNG
1045:bluetooth_rxtx.c **** 
1046:bluetooth_rxtx.c **** 	cc2400_set(GRMDM,   0x0c01);
1047:bluetooth_rxtx.c **** 	// 0 00 01 1 000 00 0 00 0 1
1048:bluetooth_rxtx.c **** 	//      |  | |   |  +--------> CRC off
1049:bluetooth_rxtx.c **** 	//      |  | |   +-----------> sync word: 8 MSB bits of SYNC_WORD
1050:bluetooth_rxtx.c **** 	//      |  | +---------------> 0 preamble bytes of 01010101
1051:bluetooth_rxtx.c **** 	//      |  +-----------------> packet mode
1052:bluetooth_rxtx.c **** 	//      +--------------------> buffered mode
1053:bluetooth_rxtx.c **** 
1054:bluetooth_rxtx.c **** 	cc2400_set(SYNCL,   sync & 0xffff);
1055:bluetooth_rxtx.c **** 	cc2400_set(SYNCH,   (sync >> 16) & 0xffff);
1056:bluetooth_rxtx.c **** 
1057:bluetooth_rxtx.c **** 	cc2400_set(FSDIV,   channel);
1058:bluetooth_rxtx.c **** 	cc2400_set(FREND,   0b1011);    // amplifier level (-7 dBm, picked from hat)
1059:bluetooth_rxtx.c **** 
ARM GAS  /tmp/ccUrIl19.s 			page 20


1060:bluetooth_rxtx.c **** 	if (modulation == MOD_BT_BASIC_RATE) {
1061:bluetooth_rxtx.c **** 		cc2400_set(MDMCTRL, 0x0029);    // 160 kHz frequency deviation
1062:bluetooth_rxtx.c **** 	} else if (modulation == MOD_BT_LOW_ENERGY) {
1063:bluetooth_rxtx.c **** 		cc2400_set(MDMCTRL, 0x0040);    // 250 kHz frequency deviation
1064:bluetooth_rxtx.c **** 	} else {
1065:bluetooth_rxtx.c **** 		/* oops */
1066:bluetooth_rxtx.c **** 		return;
1067:bluetooth_rxtx.c **** 	}
1068:bluetooth_rxtx.c **** 
1069:bluetooth_rxtx.c **** 	clkn_start();
1070:bluetooth_rxtx.c **** 
1071:bluetooth_rxtx.c **** 	while (!(cc2400_status() & XOSC16M_STABLE));
1072:bluetooth_rxtx.c **** 	cc2400_strobe(SFSON);
1073:bluetooth_rxtx.c **** 	while (!(cc2400_status() & FS_LOCK));
1074:bluetooth_rxtx.c **** 
1075:bluetooth_rxtx.c **** #ifdef UBERTOOTH_ONE
1076:bluetooth_rxtx.c **** 	PAEN_SET;
1077:bluetooth_rxtx.c **** #endif
1078:bluetooth_rxtx.c **** 
1079:bluetooth_rxtx.c **** 	while ((cc2400_get(FSMSTATE) & 0x1f) != STATE_STROBE_FS_ON);
1080:bluetooth_rxtx.c **** 	cc2400_strobe(STX);
1081:bluetooth_rxtx.c **** 
1082:bluetooth_rxtx.c **** #endif
1083:bluetooth_rxtx.c **** }
1084:bluetooth_rxtx.c **** 
1085:bluetooth_rxtx.c **** /*
1086:bluetooth_rxtx.c ****  * Transmit a BTLE packet with the specified access address.
1087:bluetooth_rxtx.c ****  *
1088:bluetooth_rxtx.c ****  * All modulation parameters are set within this function. The data
1089:bluetooth_rxtx.c ****  * should not be pre-whitened, but the CRC should be calculated and
1090:bluetooth_rxtx.c ****  * included in the data length.
1091:bluetooth_rxtx.c ****  */
1092:bluetooth_rxtx.c **** void le_transmit(u32 aa, u8 len, u8 *data, u16 ch)
1093:bluetooth_rxtx.c **** {
1094:bluetooth_rxtx.c **** 	unsigned i, j;
1095:bluetooth_rxtx.c **** 	int bit;
1096:bluetooth_rxtx.c **** 	uint16_t jw_channel = 2402;
1097:bluetooth_rxtx.c **** 	jw_channel = ch;
1098:bluetooth_rxtx.c **** 	u8 txbuf[64];
1099:bluetooth_rxtx.c **** 	u8 tx_len;
1100:bluetooth_rxtx.c **** 	u8 byte;
1101:bluetooth_rxtx.c **** 	u16 gio_save;
1102:bluetooth_rxtx.c **** 	//JWHUR tx power control
1103:bluetooth_rxtx.c **** 	u8 tx_pwr = 0x0007;
1104:bluetooth_rxtx.c **** 
1105:bluetooth_rxtx.c **** 	// first four bytes: AA
1106:bluetooth_rxtx.c **** 	for (i = 0; i < 4; ++i) {
1107:bluetooth_rxtx.c **** 		byte = aa & 0xff;
1108:bluetooth_rxtx.c **** 		aa >>= 8;
1109:bluetooth_rxtx.c **** 		txbuf[i] = 0;
1110:bluetooth_rxtx.c **** 		for (j = 0; j < 8; ++j) {
1111:bluetooth_rxtx.c **** 			txbuf[i] |= (byte & 1) << (7 - j);
1112:bluetooth_rxtx.c **** 			byte >>= 1;
1113:bluetooth_rxtx.c **** 		}
1114:bluetooth_rxtx.c **** 	}
1115:bluetooth_rxtx.c **** 
1116:bluetooth_rxtx.c **** 	// whiten the data and copy it into the txbuf
ARM GAS  /tmp/ccUrIl19.s 			page 21


1117:bluetooth_rxtx.c **** 	int idx = whitening_index[btle_channel_index(jw_channel-2402)];
1118:bluetooth_rxtx.c **** 	for (i = 0; i < len; ++i) {
1119:bluetooth_rxtx.c **** 		byte = data[i];
1120:bluetooth_rxtx.c **** 		txbuf[i+4] = 0;
1121:bluetooth_rxtx.c **** 		for (j = 0; j < 8; ++j) {
1122:bluetooth_rxtx.c **** 			bit = (byte & 1) ^ whitening[idx];
1123:bluetooth_rxtx.c **** 			idx = (idx + 1) % sizeof(whitening);
1124:bluetooth_rxtx.c **** 			//bit = (byte & 1);
1125:bluetooth_rxtx.c **** 			byte >>= 1;
1126:bluetooth_rxtx.c **** 			txbuf[i+4] |= bit << (7 - j);
1127:bluetooth_rxtx.c **** 		}
1128:bluetooth_rxtx.c **** 	}
1129:bluetooth_rxtx.c **** 
1130:bluetooth_rxtx.c **** 	len += 4; // include the AA in len
1131:bluetooth_rxtx.c **** 
1132:bluetooth_rxtx.c **** 	// Bluetooth-like modulation
1133:bluetooth_rxtx.c **** 	cc2400_set(MANAND,  0x7fff);
1134:bluetooth_rxtx.c **** 	cc2400_set(LMTST,   0x2b22);    // LNA and receive mixers test register
1135:bluetooth_rxtx.c **** 	cc2400_set(MDMTST0, 0x134b);    // no PRNG
1136:bluetooth_rxtx.c **** 
1137:bluetooth_rxtx.c **** 	cc2400_set(GRMDM,   0x0c01);
1138:bluetooth_rxtx.c **** 	// 0 00 01 1 001 00 0 00 0 1
1139:bluetooth_rxtx.c **** 	//      |  | |   |  +--------> CRC off
1140:bluetooth_rxtx.c **** 	//      |  | |   +-----------> sync word: 8 MSB bits of SYNC_WORD
1141:bluetooth_rxtx.c **** 	//      |  | +---------------> 0 preamble bytes of 01010101
1142:bluetooth_rxtx.c **** 	//      |  +-----------------> packet mode
1143:bluetooth_rxtx.c **** 	//      +--------------------> buffered mode
1144:bluetooth_rxtx.c **** 
1145:bluetooth_rxtx.c **** 	cc2400_set(FSDIV,   jw_channel);
1146:bluetooth_rxtx.c **** 	// JWHUR cc2400 data sheet about power control
1147:bluetooth_rxtx.c **** 	// lsb 3 bit : dbm
1148:bluetooth_rxtx.c **** 	// 000 : -25
1149:bluetooth_rxtx.c **** 	// 001 : -15
1150:bluetooth_rxtx.c **** 	// 010 : -10
1151:bluetooth_rxtx.c **** 	// 011 : -7
1152:bluetooth_rxtx.c **** 	// 100 : -4.6
1153:bluetooth_rxtx.c **** 	// 101 : -2.8
1154:bluetooth_rxtx.c **** 	// 110 : -1.3
1155:bluetooth_rxtx.c **** 	// 111 : 0
1156:bluetooth_rxtx.c **** 	cc2400_set(FREND, tx_pwr);
1157:bluetooth_rxtx.c **** 	//cc2400_set(FREND,   0b1011);    // amplifier level (-7 dBm, picked from hat)
1158:bluetooth_rxtx.c **** 	cc2400_set(MDMCTRL, 0x0040);    // 250 kHz frequency deviation
1159:bluetooth_rxtx.c **** 	cc2400_set(INT,     0x0014);    // FIFO_THRESHOLD: 20 bytes
1160:bluetooth_rxtx.c **** 
1161:bluetooth_rxtx.c **** 	// sync byte depends on the first transmitted bit of the AA
1162:bluetooth_rxtx.c **** 	if (aa & 1)
1163:bluetooth_rxtx.c **** 		cc2400_set(SYNCH,   0xaaaa);
1164:bluetooth_rxtx.c **** 	else
1165:bluetooth_rxtx.c **** 		cc2400_set(SYNCH,   0x5555);
1166:bluetooth_rxtx.c **** 
1167:bluetooth_rxtx.c **** 	// set GIO to FIFO_FULL
1168:bluetooth_rxtx.c **** 	gio_save = cc2400_get(IOCFG);
1169:bluetooth_rxtx.c **** 	cc2400_set(IOCFG, (GIO_FIFO_FULL << 9) | (gio_save & 0x1ff));
1170:bluetooth_rxtx.c **** 
1171:bluetooth_rxtx.c **** 	while (!(cc2400_status() & XOSC16M_STABLE));
1172:bluetooth_rxtx.c **** 	cc2400_strobe(SFSON);
1173:bluetooth_rxtx.c **** 	while (!(cc2400_status() & FS_LOCK));
ARM GAS  /tmp/ccUrIl19.s 			page 22


1174:bluetooth_rxtx.c **** 	TXLED_SET;
1175:bluetooth_rxtx.c **** #ifdef UBERTOOTH_ONE
1176:bluetooth_rxtx.c **** 	PAEN_SET;
1177:bluetooth_rxtx.c **** #endif
1178:bluetooth_rxtx.c **** 	while ((cc2400_get(FSMSTATE) & 0x1f) != STATE_STROBE_FS_ON);
1179:bluetooth_rxtx.c **** 	cc2400_strobe(STX);
1180:bluetooth_rxtx.c **** 
1181:bluetooth_rxtx.c **** 	// put the packet into the FIFO
1182:bluetooth_rxtx.c **** 	/*
1183:bluetooth_rxtx.c **** 	for (i = 0; i < len; i += 16) {
1184:bluetooth_rxtx.c **** 		while (GIO6) ; // wait for the FIFO to drain (FIFO_FULL false)
1185:bluetooth_rxtx.c **** 		tx_len = len - i;
1186:bluetooth_rxtx.c **** 		if (tx_len >16)
1187:bluetooth_rxtx.c **** 			tx_len = 16;
1188:bluetooth_rxtx.c **** 		cc2400_fifo_write(tx_len, txbuf + i);
1189:bluetooth_rxtx.c **** 	}*/
1190:bluetooth_rxtx.c **** 
1191:bluetooth_rxtx.c **** 	//JWHUR cc2400 fifo write
1192:bluetooth_rxtx.c **** 	while (GIO6) ;
1193:bluetooth_rxtx.c **** 	if (len > 46) len = 46;
1194:bluetooth_rxtx.c **** 	cc2400_fifo_write(len, txbuf);
1195:bluetooth_rxtx.c **** 
1196:bluetooth_rxtx.c **** 	while ((cc2400_get(FSMSTATE) & 0x1f) != STATE_STROBE_FS_ON);
1197:bluetooth_rxtx.c **** 	TXLED_CLR;
1198:bluetooth_rxtx.c **** 
1199:bluetooth_rxtx.c **** 	cc2400_strobe(SRFOFF);
1200:bluetooth_rxtx.c **** 	while ((cc2400_status() & FS_LOCK));
1201:bluetooth_rxtx.c **** 
1202:bluetooth_rxtx.c **** #ifdef UBERTOOTH_ONE
1203:bluetooth_rxtx.c **** 	PAEN_CLR;
1204:bluetooth_rxtx.c **** #endif
1205:bluetooth_rxtx.c **** 
1206:bluetooth_rxtx.c **** 	// reset GIO
1207:bluetooth_rxtx.c **** 	cc2400_set(IOCFG, gio_save);
1208:bluetooth_rxtx.c **** }
1209:bluetooth_rxtx.c **** 
1210:bluetooth_rxtx.c **** void le_jam(void) {
1211:bluetooth_rxtx.c **** #ifdef TX_ENABLE
1212:bluetooth_rxtx.c **** 	cc2400_set(MANAND,  0x7fff);
1213:bluetooth_rxtx.c **** 	cc2400_set(LMTST,   0x2b22);    // LNA and receive mixers test register
1214:bluetooth_rxtx.c **** 	cc2400_set(MDMTST0, 0x234b);    // PRNG, 1 MHz offset
1215:bluetooth_rxtx.c **** 
1216:bluetooth_rxtx.c **** 	cc2400_set(GRMDM,   0x0c01);
1217:bluetooth_rxtx.c **** 	// 0 00 01 1 000 00 0 00 0 1
1218:bluetooth_rxtx.c **** 	//      |  | |   |  +--------> CRC off
1219:bluetooth_rxtx.c **** 	//      |  | |   +-----------> sync word: 8 MSB bits of SYNC_WORD
1220:bluetooth_rxtx.c **** 	//      |  | +---------------> 0 preamble bytes of 01010101
1221:bluetooth_rxtx.c **** 	//      |  +-----------------> packet mode
1222:bluetooth_rxtx.c **** 	//      +--------------------> buffered mode
1223:bluetooth_rxtx.c **** 
1224:bluetooth_rxtx.c **** 	// cc2400_set(FSDIV,   channel);
1225:bluetooth_rxtx.c **** 	cc2400_set(FREND,   0b1011);    // amplifier level (-7 dBm, picked from hat)
1226:bluetooth_rxtx.c **** 	cc2400_set(MDMCTRL, 0x0040);    // 250 kHz frequency deviation
1227:bluetooth_rxtx.c **** 
1228:bluetooth_rxtx.c **** 	while (!(cc2400_status() & XOSC16M_STABLE));
1229:bluetooth_rxtx.c **** 	cc2400_strobe(SFSON);
1230:bluetooth_rxtx.c **** 	while (!(cc2400_status() & FS_LOCK));
ARM GAS  /tmp/ccUrIl19.s 			page 23


1231:bluetooth_rxtx.c **** 	TXLED_SET;
1232:bluetooth_rxtx.c **** #ifdef UBERTOOTH_ONE
1233:bluetooth_rxtx.c **** 	PAEN_SET;
1234:bluetooth_rxtx.c **** #endif
1235:bluetooth_rxtx.c **** 	while ((cc2400_get(FSMSTATE) & 0x1f) != STATE_STROBE_FS_ON);
1236:bluetooth_rxtx.c **** 	cc2400_strobe(STX);
1237:bluetooth_rxtx.c **** #endif
1238:bluetooth_rxtx.c **** }
1239:bluetooth_rxtx.c **** 
1240:bluetooth_rxtx.c **** /* TODO - return whether hop happened, or should caller have to keep
1241:bluetooth_rxtx.c ****  * track of this? */
1242:bluetooth_rxtx.c **** void hop(void)
1243:bluetooth_rxtx.c **** {
1244:bluetooth_rxtx.c **** 	do_hop = 0;
1245:bluetooth_rxtx.c **** 	last_hop = clkn;
1246:bluetooth_rxtx.c **** 
1247:bluetooth_rxtx.c **** 	// No hopping, if channel is set correctly, do nothing
1248:bluetooth_rxtx.c **** 	if (hop_mode == HOP_NONE) {
1249:bluetooth_rxtx.c **** 		if (cc2400_get(FSDIV) == (channel - 1))
1250:bluetooth_rxtx.c **** 			return;
1251:bluetooth_rxtx.c **** 	}
1252:bluetooth_rxtx.c **** 	/* Slow sweep (100 hops/sec)
1253:bluetooth_rxtx.c **** 	 * only hop to currently used channels if AFH is enabled
1254:bluetooth_rxtx.c **** 	 */
1255:bluetooth_rxtx.c **** 	else if (hop_mode == HOP_SWEEP) {
1256:bluetooth_rxtx.c **** 		do {
1257:bluetooth_rxtx.c **** 			channel += 32;
1258:bluetooth_rxtx.c **** 			if (channel > 2480)
1259:bluetooth_rxtx.c **** 				channel -= 79;
1260:bluetooth_rxtx.c **** 		} while ( used_channels != 0 && afh_enabled && !( afh_map[(channel-2402)/8] & 0x1<<((channel-2402
1261:bluetooth_rxtx.c **** 	}
1262:bluetooth_rxtx.c **** 
1263:bluetooth_rxtx.c **** 	/* AFH detection
1264:bluetooth_rxtx.c **** 	 * only hop to currently unused channesl
1265:bluetooth_rxtx.c **** 	 */
1266:bluetooth_rxtx.c **** 	else if (hop_mode == HOP_AFH) {
1267:bluetooth_rxtx.c **** 		do {
1268:bluetooth_rxtx.c **** 			channel += 32;
1269:bluetooth_rxtx.c **** 			if (channel > 2480)
1270:bluetooth_rxtx.c **** 				channel -= 79;
1271:bluetooth_rxtx.c **** 		} while( used_channels != 79 && (afh_map[(channel-2402)/8] & 0x1<<((channel-2402)%8)) );
1272:bluetooth_rxtx.c **** 	}
1273:bluetooth_rxtx.c **** 
1274:bluetooth_rxtx.c **** 	else if (hop_mode == HOP_BLUETOOTH) {
1275:bluetooth_rxtx.c **** 		channel = next_hop(clkn);
1276:bluetooth_rxtx.c **** 	}
1277:bluetooth_rxtx.c **** 
1278:bluetooth_rxtx.c **** 	else if (hop_mode == HOP_BTLE) {
1279:bluetooth_rxtx.c **** 		channel = btle_next_hop(&le);
1280:bluetooth_rxtx.c **** 	}
1281:bluetooth_rxtx.c **** 
1282:bluetooth_rxtx.c **** 	else if (hop_mode == HOP_DIRECT) {
1283:bluetooth_rxtx.c **** 		channel = hop_direct_channel;
1284:bluetooth_rxtx.c **** 	}
1285:bluetooth_rxtx.c **** 	/* IDLE mode, but leave amp on, so don't call cc2400_idle(). */
1286:bluetooth_rxtx.c **** 	cc2400_strobe(SRFOFF);
1287:bluetooth_rxtx.c **** 	while ((cc2400_status() & FS_LOCK)); // need to wait for unlock?
ARM GAS  /tmp/ccUrIl19.s 			page 24


1288:bluetooth_rxtx.c **** 
1289:bluetooth_rxtx.c **** 	/* Retune */
1290:bluetooth_rxtx.c **** 	if(mode == MODE_TX_SYMBOLS)
1291:bluetooth_rxtx.c **** 		cc2400_set(FSDIV, channel);
1292:bluetooth_rxtx.c **** 	else
1293:bluetooth_rxtx.c **** 		cc2400_set(FSDIV, channel - 1);
1294:bluetooth_rxtx.c **** 
1295:bluetooth_rxtx.c **** 	/* Update CS register if hopping.  */
1296:bluetooth_rxtx.c **** 	if (hop_mode > 0) {
1297:bluetooth_rxtx.c **** 		cs_threshold_calc_and_set(channel);
1298:bluetooth_rxtx.c **** 	}
1299:bluetooth_rxtx.c **** 
1300:bluetooth_rxtx.c **** 	/* Wait for lock */
1301:bluetooth_rxtx.c **** 	cc2400_strobe(SFSON);
1302:bluetooth_rxtx.c **** 	while (!(cc2400_status() & FS_LOCK));
1303:bluetooth_rxtx.c **** 
1304:bluetooth_rxtx.c **** 	dma_discard = 1;
1305:bluetooth_rxtx.c **** 
1306:bluetooth_rxtx.c **** 	if(mode == MODE_TX_SYMBOLS)
1307:bluetooth_rxtx.c **** 		cc2400_strobe(STX);
1308:bluetooth_rxtx.c **** 	else
1309:bluetooth_rxtx.c **** 		cc2400_strobe(SRX);
1310:bluetooth_rxtx.c **** }
1311:bluetooth_rxtx.c **** 
1312:bluetooth_rxtx.c **** /* Bluetooth packet monitoring */
1313:bluetooth_rxtx.c **** void bt_stream_rx()
1314:bluetooth_rxtx.c **** {
1315:bluetooth_rxtx.c **** 	int8_t rssi;
1316:bluetooth_rxtx.c **** 	int8_t rssi_at_trigger;
1317:bluetooth_rxtx.c **** 
1318:bluetooth_rxtx.c **** 	RXLED_CLR;
1319:bluetooth_rxtx.c **** 
1320:bluetooth_rxtx.c **** 	queue_init();
1321:bluetooth_rxtx.c **** 	dio_ssp_init();
1322:bluetooth_rxtx.c **** 	dma_init();
1323:bluetooth_rxtx.c **** 	dio_ssp_start();
1324:bluetooth_rxtx.c **** 
1325:bluetooth_rxtx.c **** 	cc2400_rx();
1326:bluetooth_rxtx.c **** 
1327:bluetooth_rxtx.c **** 	cs_trigger_enable();
1328:bluetooth_rxtx.c **** 
1329:bluetooth_rxtx.c **** 	while ( requested_mode == MODE_RX_SYMBOLS || requested_mode == MODE_BT_FOLLOW )
1330:bluetooth_rxtx.c **** 	{
1331:bluetooth_rxtx.c **** 
1332:bluetooth_rxtx.c **** 		RXLED_CLR;
1333:bluetooth_rxtx.c **** 
1334:bluetooth_rxtx.c **** 		/* Wait for DMA transfer. TODO - need more work on
1335:bluetooth_rxtx.c **** 		 * RSSI. Should send RSSI indications to host even
1336:bluetooth_rxtx.c **** 		 * when not transferring data. That would also keep
1337:bluetooth_rxtx.c **** 		 * the USB stream going. This loop runs 50-80 times
1338:bluetooth_rxtx.c **** 		 * while waiting for DMA, but RSSI sampling does not
1339:bluetooth_rxtx.c **** 		 * cover all the symbols in a DMA transfer. Can not do
1340:bluetooth_rxtx.c **** 		 * RSSI sampling in CS interrupt, but could log time
1341:bluetooth_rxtx.c **** 		 * at multiple trigger points there. The MAX() below
1342:bluetooth_rxtx.c **** 		 * helps with statistics in the case that cs_trigger
1343:bluetooth_rxtx.c **** 		 * happened before the loop started. */
1344:bluetooth_rxtx.c **** 		rssi_reset();
ARM GAS  /tmp/ccUrIl19.s 			page 25


1345:bluetooth_rxtx.c **** 		rssi_at_trigger = INT8_MIN;
1346:bluetooth_rxtx.c **** 		while (!rx_tc) {
1347:bluetooth_rxtx.c **** 			rssi = (int8_t)(cc2400_get(RSSI) >> 8);
1348:bluetooth_rxtx.c **** 			if (cs_trigger && (rssi_at_trigger == INT8_MIN)) {
1349:bluetooth_rxtx.c **** 				rssi = MAX(rssi,(cs_threshold_cur+54));
1350:bluetooth_rxtx.c **** 				rssi_at_trigger = rssi;
1351:bluetooth_rxtx.c **** 			}
1352:bluetooth_rxtx.c **** 			rssi_add(rssi);
1353:bluetooth_rxtx.c **** 
1354:bluetooth_rxtx.c **** 			handle_usb(clkn);
1355:bluetooth_rxtx.c **** 
1356:bluetooth_rxtx.c **** 			/* If timer says time to hop, do it. */
1357:bluetooth_rxtx.c **** 			if (do_hop) {
1358:bluetooth_rxtx.c **** 				hop();
1359:bluetooth_rxtx.c **** 			} else {
1360:bluetooth_rxtx.c **** 				TXLED_CLR;
1361:bluetooth_rxtx.c **** 			}
1362:bluetooth_rxtx.c **** 			/* TODO - set per-channel carrier sense threshold.
1363:bluetooth_rxtx.c **** 			 * Set by firmware or host. */
1364:bluetooth_rxtx.c **** 		}
1365:bluetooth_rxtx.c **** 
1366:bluetooth_rxtx.c **** 		RXLED_SET;
1367:bluetooth_rxtx.c **** 
1368:bluetooth_rxtx.c **** 		if (rx_err) {
1369:bluetooth_rxtx.c **** 			status |= DMA_ERROR;
1370:bluetooth_rxtx.c **** 		}
1371:bluetooth_rxtx.c **** 
1372:bluetooth_rxtx.c **** 		/* Missed a DMA trasfer? */
1373:bluetooth_rxtx.c **** 		if (rx_tc > 1)
1374:bluetooth_rxtx.c **** 			status |= DMA_OVERFLOW;
1375:bluetooth_rxtx.c **** 
1376:bluetooth_rxtx.c **** 		if (dma_discard) {
1377:bluetooth_rxtx.c **** 			status |= DISCARD;
1378:bluetooth_rxtx.c **** 			dma_discard = 0;
1379:bluetooth_rxtx.c **** 		}
1380:bluetooth_rxtx.c **** 
1381:bluetooth_rxtx.c **** 		rssi_iir_update(channel);
1382:bluetooth_rxtx.c **** 
1383:bluetooth_rxtx.c **** 		/* Set squelch hold if there was either a CS trigger, squelch
1384:bluetooth_rxtx.c **** 		 * is disabled, or if the current rssi_max is above the same
1385:bluetooth_rxtx.c **** 		 * threshold. Currently, this is redundant, but allows for
1386:bluetooth_rxtx.c **** 		 * per-channel or other rssi triggers in the future. */
1387:bluetooth_rxtx.c **** 		if (cs_trigger || cs_no_squelch) {
1388:bluetooth_rxtx.c **** 			status |= CS_TRIGGER;
1389:bluetooth_rxtx.c **** 			cs_trigger = 0;
1390:bluetooth_rxtx.c **** 		}
1391:bluetooth_rxtx.c **** 
1392:bluetooth_rxtx.c **** 		if (rssi_max >= (cs_threshold_cur + 54)) {
1393:bluetooth_rxtx.c **** 			status |= RSSI_TRIGGER;
1394:bluetooth_rxtx.c **** 		}
1395:bluetooth_rxtx.c **** 
1396:bluetooth_rxtx.c **** 		enqueue(BR_PACKET, (uint8_t*)idle_rxbuf);
1397:bluetooth_rxtx.c **** 
1398:bluetooth_rxtx.c **** 		handle_usb(clkn);
1399:bluetooth_rxtx.c **** 		rx_tc = 0;
1400:bluetooth_rxtx.c **** 		rx_err = 0;
1401:bluetooth_rxtx.c **** 	}
ARM GAS  /tmp/ccUrIl19.s 			page 26


1402:bluetooth_rxtx.c **** 
1403:bluetooth_rxtx.c **** 	/* This call is a nop so far. Since bt_rx_stream() starts the
1404:bluetooth_rxtx.c **** 	 * stream, it makes sense that it would stop it. TODO - how
1405:bluetooth_rxtx.c **** 	 * should setup/teardown be handled? Should every new mode be
1406:bluetooth_rxtx.c **** 	 * starting from scratch? */
1407:bluetooth_rxtx.c **** 	dio_ssp_stop();
1408:bluetooth_rxtx.c **** 	cs_trigger_disable();
1409:bluetooth_rxtx.c **** }
1410:bluetooth_rxtx.c **** 
1411:bluetooth_rxtx.c **** static uint8_t reverse8(uint8_t data)
1412:bluetooth_rxtx.c **** {
  26              		.loc 1 1412 0
  27              		.cfi_startproc
  28              		@ args = 0, pretend = 0, frame = 0
  29              		@ frame_needed = 0, uses_anonymous_args = 0
  30              	.LVL0:
  31 0000 10B5     		push	{r4, lr}
  32              		.cfi_def_cfa_offset 8
  33              		.cfi_offset 4, -8
  34              		.cfi_offset 14, -4
  35              	.LVL1:
  36              	.LBB4:
1413:bluetooth_rxtx.c **** 	uint8_t reversed = 0;
1414:bluetooth_rxtx.c **** 
1415:bluetooth_rxtx.c **** 	for(size_t i=0; i<8; i++)
  37              		.loc 1 1415 0
  38 0002 0023     		movs	r3, #0
  39              	.LBE4:
1413:bluetooth_rxtx.c **** 	uint8_t reversed = 0;
  40              		.loc 1 1413 0
  41 0004 1A46     		mov	r2, r3
  42              	.LVL2:
  43              	.L3:
  44              	.LBB5:
1416:bluetooth_rxtx.c **** 	{
1417:bluetooth_rxtx.c **** 		reversed |= ((data >> i) & 0x01) << (7-i);
  45              		.loc 1 1417 0 discriminator 2
  46 0006 40FA03F1 		asr	r1, r0, r3
  47 000a C3F10704 		rsb	r4, r3, #7
  48 000e 01F00101 		and	r1, r1, #1
  49 0012 A140     		lsls	r1, r1, r4
1415:bluetooth_rxtx.c **** 	{
  50              		.loc 1 1415 0 discriminator 2
  51 0014 0133     		adds	r3, r3, #1
  52              	.LVL3:
  53              		.loc 1 1417 0 discriminator 2
  54 0016 0A43     		orrs	r2, r2, r1
  55              	.LVL4:
1415:bluetooth_rxtx.c **** 	{
  56              		.loc 1 1415 0 discriminator 2
  57 0018 082B     		cmp	r3, #8
  58              		.loc 1 1417 0 discriminator 2
  59 001a D2B2     		uxtb	r2, r2
  60              	.LVL5:
1415:bluetooth_rxtx.c **** 	{
  61              		.loc 1 1415 0 discriminator 2
  62 001c F3D1     		bne	.L3
ARM GAS  /tmp/ccUrIl19.s 			page 27


  63              	.LBE5:
1418:bluetooth_rxtx.c **** 	}
1419:bluetooth_rxtx.c **** 
1420:bluetooth_rxtx.c **** 	return reversed;
1421:bluetooth_rxtx.c **** }
  64              		.loc 1 1421 0
  65 001e 1046     		mov	r0, r2
  66              	.LVL6:
  67 0020 10BD     		pop	{r4, pc}
  68              		.cfi_endproc
  69              	.LFE16:
  71              		.section	.text.cc2400_rx,"ax",%progbits
  72              		.align	1
  73              		.thumb
  74              		.thumb_func
  76              	cc2400_rx:
  77              	.LFB9:
 924:bluetooth_rxtx.c **** 	u16 mdmctrl = 0;
  78              		.loc 1 924 0
  79              		.cfi_startproc
  80              		@ args = 0, pretend = 0, frame = 0
  81              		@ frame_needed = 0, uses_anonymous_args = 0
  82 0000 38B5     		push	{r3, r4, r5, lr}
  83              		.cfi_def_cfa_offset 16
  84              		.cfi_offset 3, -16
  85              		.cfi_offset 4, -12
  86              		.cfi_offset 5, -8
  87              		.cfi_offset 14, -4
  88              	.LVL7:
 927:bluetooth_rxtx.c **** 		if (modulation == MOD_BT_BASIC_RATE) {
  89              		.loc 1 927 0
  90 0002 254B     		ldr	r3, .L19
  91 0004 254C     		ldr	r4, .L19+4
  92 0006 1A78     		ldrb	r2, [r3]	@ zero_extendqisi2
  93 0008 12B1     		cbz	r2, .L7
 927:bluetooth_rxtx.c **** 		if (modulation == MOD_BT_BASIC_RATE) {
  94              		.loc 1 927 0 is_stmt 0 discriminator 1
  95 000a 1A78     		ldrb	r2, [r3]	@ zero_extendqisi2
  96 000c 012A     		cmp	r2, #1
  97 000e 28D1     		bne	.L8
  98              	.L7:
 928:bluetooth_rxtx.c **** 			mdmctrl = 0x0029; // 160 kHz frequency deviation
  99              		.loc 1 928 0 is_stmt 1
 100 0010 1B78     		ldrb	r3, [r3]	@ zero_extendqisi2
 101 0012 33B1     		cbz	r3, .L14
 930:bluetooth_rxtx.c **** 			mdmctrl = 0x0040; // 250 kHz frequency deviation
 102              		.loc 1 930 0
 103 0014 204B     		ldr	r3, .L19
 104 0016 1D78     		ldrb	r5, [r3]	@ zero_extendqisi2
 925:bluetooth_rxtx.c **** 
 105              		.loc 1 925 0
 106 0018 012D     		cmp	r5, #1
 107 001a 0CBF     		ite	eq
 108 001c 4025     		moveq	r5, #64
 109 001e 0025     		movne	r5, #0
 110 0020 00E0     		b	.L9
 111              	.L14:
ARM GAS  /tmp/ccUrIl19.s 			page 28


 929:bluetooth_rxtx.c **** 		} else if (modulation == MOD_BT_LOW_ENERGY) {
 112              		.loc 1 929 0
 113 0022 2925     		movs	r5, #41
 114              	.L9:
 115              	.LVL8:
 933:bluetooth_rxtx.c **** 		cc2400_set(LMTST,   0x2b22);
 116              		.loc 1 933 0
 117 0024 0D20     		movs	r0, #13
 118 0026 47F6FF71 		movw	r1, #32767
 119 002a FFF7FEFF 		bl	cc2400_set
 120              	.LVL9:
 934:bluetooth_rxtx.c **** 		cc2400_set(MDMTST0, 0x134b); // without PRNG 16 MAX MIN PAIRS
 121              		.loc 1 934 0
 122 002e 1220     		movs	r0, #18
 123 0030 42F62231 		movw	r1, #11042
 124 0034 FFF7FEFF 		bl	cc2400_set
 125              	.LVL10:
 935:bluetooth_rxtx.c **** 		cc2400_set(GRMDM,   0x0101); // un-buffered mode, GFSK
 126              		.loc 1 935 0
 127 0038 1420     		movs	r0, #20
 128 003a 41F24B31 		movw	r1, #4939
 129 003e FFF7FEFF 		bl	cc2400_set
 130              	.LVL11:
 936:bluetooth_rxtx.c **** 		// 0 00 00 0 010 00 0 00 0 1
 131              		.loc 1 936 0
 132 0042 2020     		movs	r0, #32
 133 0044 40F20111 		movw	r1, #257
 134 0048 FFF7FEFF 		bl	cc2400_set
 135              	.LVL12:
 943:bluetooth_rxtx.c **** 		cc2400_set(MDMCTRL, mdmctrl);
 136              		.loc 1 943 0
 137 004c 2188     		ldrh	r1, [r4]
 138 004e 0220     		movs	r0, #2
 139 0050 89B2     		uxth	r1, r1
 140 0052 0139     		subs	r1, r1, #1
 141 0054 89B2     		uxth	r1, r1
 142 0056 FFF7FEFF 		bl	cc2400_set
 143              	.LVL13:
 944:bluetooth_rxtx.c **** 	}
 144              		.loc 1 944 0
 145 005a 0320     		movs	r0, #3
 146 005c 2946     		mov	r1, r5
 147 005e FFF7FEFF 		bl	cc2400_set
 148              	.LVL14:
 149              	.L8:
 948:bluetooth_rxtx.c **** 
 150              		.loc 1 948 0
 151 0062 2088     		ldrh	r0, [r4]
 152 0064 80B2     		uxth	r0, r0
 153 0066 FFF7FEFF 		bl	cs_threshold_calc_and_set
 154              	.LVL15:
 950:bluetooth_rxtx.c **** 
 155              		.loc 1 950 0
 156 006a FFF7FEFF 		bl	clkn_start
 157              	.LVL16:
 158              	.L11:
 952:bluetooth_rxtx.c **** 	cc2400_strobe(SFSON);
ARM GAS  /tmp/ccUrIl19.s 			page 29


 159              		.loc 1 952 0 discriminator 1
 160 006e FFF7FEFF 		bl	cc2400_status
 161              	.LVL17:
 162 0072 4206     		lsls	r2, r0, #25
 163 0074 FBD5     		bpl	.L11
 953:bluetooth_rxtx.c **** 	while (!(cc2400_status() & FS_LOCK));
 164              		.loc 1 953 0
 165 0076 6120     		movs	r0, #97
 166 0078 FFF7FEFF 		bl	cc2400_strobe
 167              	.LVL18:
 168              	.L13:
 954:bluetooth_rxtx.c **** 	cc2400_strobe(SRX);
 169              		.loc 1 954 0 discriminator 1
 170 007c FFF7FEFF 		bl	cc2400_status
 171              	.LVL19:
 172 0080 4307     		lsls	r3, r0, #29
 173 0082 FBD5     		bpl	.L13
 955:bluetooth_rxtx.c **** #ifdef UBERTOOTH_ONE
 174              		.loc 1 955 0
 175 0084 6220     		movs	r0, #98
 176 0086 FFF7FEFF 		bl	cc2400_strobe
 177              	.LVL20:
 957:bluetooth_rxtx.c **** 	HGM_SET;
 178              		.loc 1 957 0
 179 008a 054B     		ldr	r3, .L19+8
 180 008c 8022     		movs	r2, #128
 181 008e 1A60     		str	r2, [r3]
 958:bluetooth_rxtx.c **** #endif
 182              		.loc 1 958 0
 183 0090 4FF48072 		mov	r2, #256
 184 0094 1A60     		str	r2, [r3]
 185 0096 38BD     		pop	{r3, r4, r5, pc}
 186              	.L20:
 187              		.align	2
 188              	.L19:
 189 0098 00000000 		.word	.LANCHOR0
 190 009c 00000000 		.word	.LANCHOR1
 191 00a0 58C00920 		.word	537509976
 192              		.cfi_endproc
 193              	.LFE9:
 195              		.section	.text.cc2400_rx_sync,"ax",%progbits
 196              		.align	1
 197              		.thumb
 198              		.thumb_func
 200              	cc2400_rx_sync:
 201              	.LFB10:
 964:bluetooth_rxtx.c **** 	u16 grmdm, mdmctrl;
 202              		.loc 1 964 0
 203              		.cfi_startproc
 204              		@ args = 0, pretend = 0, frame = 0
 205              		@ frame_needed = 0, uses_anonymous_args = 0
 206              	.LVL21:
 207 0000 70B5     		push	{r4, r5, r6, lr}
 208              		.cfi_def_cfa_offset 16
 209              		.cfi_offset 4, -16
 210              		.cfi_offset 5, -12
 211              		.cfi_offset 6, -8
ARM GAS  /tmp/ccUrIl19.s 			page 30


 212              		.cfi_offset 14, -4
 967:bluetooth_rxtx.c **** 		mdmctrl = 0x0029; // 160 kHz frequency deviation
 213              		.loc 1 967 0
 214 0002 2A4B     		ldr	r3, .L29
 964:bluetooth_rxtx.c **** 	u16 grmdm, mdmctrl;
 215              		.loc 1 964 0
 216 0004 0446     		mov	r4, r0
 967:bluetooth_rxtx.c **** 		mdmctrl = 0x0029; // 160 kHz frequency deviation
 217              		.loc 1 967 0
 218 0006 1A78     		ldrb	r2, [r3]	@ zero_extendqisi2
 219 0008 32B1     		cbz	r2, .L28
 978:bluetooth_rxtx.c **** 		mdmctrl = 0x0040; // 250 kHz frequency deviation
 220              		.loc 1 978 0
 221 000a 1B78     		ldrb	r3, [r3]	@ zero_extendqisi2
 222 000c 012B     		cmp	r3, #1
 223 000e 4BD1     		bne	.L21
 979:bluetooth_rxtx.c **** 		grmdm = 0x6561; // un-buffered mode, packet w/ sync word detection
 224              		.loc 1 979 0
 225 0010 4025     		movs	r5, #64
 980:bluetooth_rxtx.c **** 		// 0 11 00 1 010 11 0 00 0 1
 226              		.loc 1 980 0
 227 0012 46F26156 		movw	r6, #25953
 228 0016 02E0     		b	.L22
 229              	.L28:
 968:bluetooth_rxtx.c **** 		grmdm = 0x0461; // un-buffered mode, packet w/ sync word detection
 230              		.loc 1 968 0
 231 0018 2925     		movs	r5, #41
 969:bluetooth_rxtx.c **** 		// 0 00 00 1 000 11 0 00 0 1
 232              		.loc 1 969 0
 233 001a 40F26146 		movw	r6, #1121
 234              	.L22:
 235              	.LVL22:
 994:bluetooth_rxtx.c **** 	cc2400_set(LMTST,   0x2b22);
 236              		.loc 1 994 0
 237 001e 0D20     		movs	r0, #13
 238              	.LVL23:
 239 0020 47F6FF71 		movw	r1, #32767
 240 0024 FFF7FEFF 		bl	cc2400_set
 241              	.LVL24:
 995:bluetooth_rxtx.c **** 
 242              		.loc 1 995 0
 243 0028 1220     		movs	r0, #18
 244 002a 42F62231 		movw	r1, #11042
 245 002e FFF7FEFF 		bl	cc2400_set
 246              	.LVL25:
 997:bluetooth_rxtx.c **** 	//cc2400_set(MDMTST0, 0x124b);
 247              		.loc 1 997 0
 248 0032 1420     		movs	r0, #20
 249 0034 41F24B01 		movw	r1, #4171
 250 0038 FFF7FEFF 		bl	cc2400_set
 251              	.LVL26:
1011:bluetooth_rxtx.c **** 
 252              		.loc 1 1011 0
 253 003c 2020     		movs	r0, #32
 254 003e 3146     		mov	r1, r6
 255 0040 FFF7FEFF 		bl	cc2400_set
 256              	.LVL27:
ARM GAS  /tmp/ccUrIl19.s 			page 31


1013:bluetooth_rxtx.c **** 	cc2400_set(SYNCH,   (sync >> 16) & 0xffff);
 257              		.loc 1 1013 0
 258 0044 A1B2     		uxth	r1, r4
 259 0046 2C20     		movs	r0, #44
 260 0048 FFF7FEFF 		bl	cc2400_set
 261              	.LVL28:
1014:bluetooth_rxtx.c **** 
 262              		.loc 1 1014 0
 263 004c 210C     		lsrs	r1, r4, #16
1016:bluetooth_rxtx.c **** 	cc2400_set(MDMCTRL, mdmctrl);
 264              		.loc 1 1016 0
 265 004e 184C     		ldr	r4, .L29+4
 266              	.LVL29:
1014:bluetooth_rxtx.c **** 
 267              		.loc 1 1014 0
 268 0050 2D20     		movs	r0, #45
 269 0052 FFF7FEFF 		bl	cc2400_set
 270              	.LVL30:
1016:bluetooth_rxtx.c **** 	cc2400_set(MDMCTRL, mdmctrl);
 271              		.loc 1 1016 0
 272 0056 2188     		ldrh	r1, [r4]
 273 0058 0220     		movs	r0, #2
 274 005a 89B2     		uxth	r1, r1
 275 005c 0139     		subs	r1, r1, #1
 276 005e 89B2     		uxth	r1, r1
 277 0060 FFF7FEFF 		bl	cc2400_set
 278              	.LVL31:
1017:bluetooth_rxtx.c **** 
 279              		.loc 1 1017 0
 280 0064 0320     		movs	r0, #3
 281 0066 2946     		mov	r1, r5
 282 0068 FFF7FEFF 		bl	cc2400_set
 283              	.LVL32:
1020:bluetooth_rxtx.c **** 
 284              		.loc 1 1020 0
 285 006c 0620     		movs	r0, #6
 286 006e 3F21     		movs	r1, #63
 287 0070 FFF7FEFF 		bl	cc2400_set
 288              	.LVL33:
1023:bluetooth_rxtx.c **** 
 289              		.loc 1 1023 0
 290 0074 2088     		ldrh	r0, [r4]
 291 0076 80B2     		uxth	r0, r0
 292 0078 FFF7FEFF 		bl	cs_threshold_calc_and_set
 293              	.LVL34:
1025:bluetooth_rxtx.c **** 
 294              		.loc 1 1025 0
 295 007c FFF7FEFF 		bl	clkn_start
 296              	.LVL35:
 297              	.L25:
1027:bluetooth_rxtx.c **** 	cc2400_strobe(SFSON);
 298              		.loc 1 1027 0 discriminator 1
 299 0080 FFF7FEFF 		bl	cc2400_status
 300              	.LVL36:
 301 0084 4006     		lsls	r0, r0, #25
 302 0086 FBD5     		bpl	.L25
1028:bluetooth_rxtx.c **** 	while (!(cc2400_status() & FS_LOCK));
ARM GAS  /tmp/ccUrIl19.s 			page 32


 303              		.loc 1 1028 0
 304 0088 6120     		movs	r0, #97
 305 008a FFF7FEFF 		bl	cc2400_strobe
 306              	.LVL37:
 307              	.L27:
1029:bluetooth_rxtx.c **** 	cc2400_strobe(SRX);
 308              		.loc 1 1029 0 discriminator 1
 309 008e FFF7FEFF 		bl	cc2400_status
 310              	.LVL38:
 311 0092 4107     		lsls	r1, r0, #29
 312 0094 FBD5     		bpl	.L27
1030:bluetooth_rxtx.c **** #ifdef UBERTOOTH_ONE
 313              		.loc 1 1030 0
 314 0096 6220     		movs	r0, #98
 315 0098 FFF7FEFF 		bl	cc2400_strobe
 316              	.LVL39:
1032:bluetooth_rxtx.c **** 	HGM_SET;
 317              		.loc 1 1032 0
 318 009c 054B     		ldr	r3, .L29+8
 319 009e 8022     		movs	r2, #128
 320 00a0 1A60     		str	r2, [r3]
1033:bluetooth_rxtx.c **** #endif
 321              		.loc 1 1033 0
 322 00a2 4FF48072 		mov	r2, #256
 323 00a6 1A60     		str	r2, [r3]
 324              	.LVL40:
 325              	.L21:
 326 00a8 70BD     		pop	{r4, r5, r6, pc}
 327              	.L30:
 328 00aa 00BF     		.align	2
 329              	.L29:
 330 00ac 00000000 		.word	.LANCHOR0
 331 00b0 00000000 		.word	.LANCHOR1
 332 00b4 58C00920 		.word	537509976
 333              		.cfi_endproc
 334              	.LFE10:
 336              		.section	.text.enqueue,"ax",%progbits
 337              		.align	1
 338              		.thumb
 339              		.thumb_func
 341              	enqueue:
 342              	.LFB0:
 132:bluetooth_rxtx.c **** 	usb_pkt_rx* f = usb_enqueue();
 343              		.loc 1 132 0
 344              		.cfi_startproc
 345              		@ args = 0, pretend = 0, frame = 0
 346              		@ frame_needed = 0, uses_anonymous_args = 0
 347              	.LVL41:
 348 0000 F8B5     		push	{r3, r4, r5, r6, r7, lr}
 349              		.cfi_def_cfa_offset 24
 350              		.cfi_offset 3, -24
 351              		.cfi_offset 4, -20
 352              		.cfi_offset 5, -16
 353              		.cfi_offset 6, -12
 354              		.cfi_offset 7, -8
 355              		.cfi_offset 14, -4
 132:bluetooth_rxtx.c **** 	usb_pkt_rx* f = usb_enqueue();
ARM GAS  /tmp/ccUrIl19.s 			page 33


 356              		.loc 1 132 0
 357 0002 0646     		mov	r6, r0
 358 0004 0F46     		mov	r7, r1
 133:bluetooth_rxtx.c **** 
 359              		.loc 1 133 0
 360 0006 FFF7FEFF 		bl	usb_enqueue
 361              	.LVL42:
 362 000a 1E4D     		ldr	r5, .L36
 136:bluetooth_rxtx.c **** 		status |= FIFO_OVERFLOW;
 363              		.loc 1 136 0
 364 000c 0446     		mov	r4, r0
 365 000e 20B9     		cbnz	r0, .L32
 137:bluetooth_rxtx.c **** 		return 0;
 366              		.loc 1 137 0
 367 0010 6B78     		ldrb	r3, [r5, #1]	@ zero_extendqisi2
 368 0012 43F00403 		orr	r3, r3, #4
 369 0016 6B70     		strb	r3, [r5, #1]
 138:bluetooth_rxtx.c **** 	}
 370              		.loc 1 138 0
 371 0018 F8BD     		pop	{r3, r4, r5, r6, r7, pc}
 372              	.LVL43:
 373              	.L32:
 142:bluetooth_rxtx.c **** 		f->clkn_high = (clkn >> 20) & 0xff;
 374              		.loc 1 142 0
 375 001a 042E     		cmp	r6, #4
 141:bluetooth_rxtx.c **** 	if(type == SPECAN) {
 376              		.loc 1 141 0
 377 001c 0670     		strb	r6, [r0]
 142:bluetooth_rxtx.c **** 		f->clkn_high = (clkn >> 20) & 0xff;
 378              		.loc 1 142 0
 379 001e 0ED1     		bne	.L34
 143:bluetooth_rxtx.c **** 		f->clk100ns = CLK100NS;
 380              		.loc 1 143 0
 381 0020 194B     		ldr	r3, .L36+4
 144:bluetooth_rxtx.c **** 	} else {
 382              		.loc 1 144 0
 383 0022 40F63541 		movw	r1, #3125
 143:bluetooth_rxtx.c **** 		f->clk100ns = CLK100NS;
 384              		.loc 1 143 0
 385 0026 1A68     		ldr	r2, [r3]
 386 0028 120D     		lsrs	r2, r2, #20
 387 002a C270     		strb	r2, [r0, #3]
 144:bluetooth_rxtx.c **** 	} else {
 388              		.loc 1 144 0
 389 002c 174A     		ldr	r2, .L36+8
 390 002e 1B68     		ldr	r3, [r3]
 391 0030 1268     		ldr	r2, [r2]
 392 0032 C3F31303 		ubfx	r3, r3, #0, #20
 393 0036 01FB0323 		mla	r3, r1, r3, r2
 394 003a 4360     		str	r3, [r0, #4]
 395 003c 15E0     		b	.L35
 396              	.L34:
 146:bluetooth_rxtx.c **** 		f->clk100ns = idle_buf_clk100ns;
 397              		.loc 1 146 0
 398 003e AB78     		ldrb	r3, [r5, #2]	@ zero_extendqisi2
 399 0040 C370     		strb	r3, [r0, #3]
 147:bluetooth_rxtx.c **** 		f->channel = (uint8_t)((idle_buf_channel - 2402) & 0xff);
ARM GAS  /tmp/ccUrIl19.s 			page 34


 400              		.loc 1 147 0
 401 0042 6B68     		ldr	r3, [r5, #4]
 402 0044 4360     		str	r3, [r0, #4]
 148:bluetooth_rxtx.c **** 		f->rssi_min = rssi_min;
 403              		.loc 1 148 0
 404 0046 2B89     		ldrh	r3, [r5, #8]
 405 0048 9BB2     		uxth	r3, r3
 406 004a 623B     		subs	r3, r3, #98
 407 004c 8370     		strb	r3, [r0, #2]
 149:bluetooth_rxtx.c **** 		f->rssi_max = rssi_max;
 408              		.loc 1 149 0
 409 004e 104B     		ldr	r3, .L36+12
 410 0050 1B78     		ldrb	r3, [r3]	@ zero_extendqisi2
 411 0052 4372     		strb	r3, [r0, #9]
 150:bluetooth_rxtx.c **** 		f->rssi_avg = rssi_get_avg(idle_buf_channel);
 412              		.loc 1 150 0
 413 0054 0F4B     		ldr	r3, .L36+16
 414 0056 1B78     		ldrb	r3, [r3]	@ zero_extendqisi2
 415 0058 0372     		strb	r3, [r0, #8]
 151:bluetooth_rxtx.c **** 		f->rssi_count = rssi_count;
 416              		.loc 1 151 0
 417 005a 2889     		ldrh	r0, [r5, #8]
 418              	.LVL44:
 419 005c 80B2     		uxth	r0, r0
 420 005e FFF7FEFF 		bl	rssi_get_avg
 421              	.LVL45:
 152:bluetooth_rxtx.c **** 	}
 422              		.loc 1 152 0
 423 0062 0D4B     		ldr	r3, .L36+20
 151:bluetooth_rxtx.c **** 		f->rssi_count = rssi_count;
 424              		.loc 1 151 0
 425 0064 A072     		strb	r0, [r4, #10]
 152:bluetooth_rxtx.c **** 	}
 426              		.loc 1 152 0
 427 0066 1B78     		ldrb	r3, [r3]	@ zero_extendqisi2
 428 0068 E372     		strb	r3, [r4, #11]
 429              	.L35:
 155:bluetooth_rxtx.c **** 
 430              		.loc 1 155 0
 431 006a 04F10E00 		add	r0, r4, #14
 432 006e 3946     		mov	r1, r7
 433 0070 3222     		movs	r2, #50
 434 0072 FFF7FEFF 		bl	memcpy
 435              	.LVL46:
 157:bluetooth_rxtx.c **** 	status = 0;
 436              		.loc 1 157 0
 437 0076 6B78     		ldrb	r3, [r5, #1]	@ zero_extendqisi2
 160:bluetooth_rxtx.c **** }
 438              		.loc 1 160 0
 439 0078 0120     		movs	r0, #1
 157:bluetooth_rxtx.c **** 	status = 0;
 440              		.loc 1 157 0
 441 007a 6370     		strb	r3, [r4, #1]
 158:bluetooth_rxtx.c **** 
 442              		.loc 1 158 0
 443 007c 0023     		movs	r3, #0
 444 007e 6B70     		strb	r3, [r5, #1]
ARM GAS  /tmp/ccUrIl19.s 			page 35


 161:bluetooth_rxtx.c **** 
 445              		.loc 1 161 0
 446 0080 F8BD     		pop	{r3, r4, r5, r6, r7, pc}
 447              	.LVL47:
 448              	.L37:
 449 0082 00BF     		.align	2
 450              	.L36:
 451 0084 00000000 		.word	.LANCHOR0
 452 0088 00000000 		.word	clkn
 453 008c 08400040 		.word	1073758216
 454 0090 00000000 		.word	rssi_min
 455 0094 00000000 		.word	rssi_max
 456 0098 00000000 		.word	rssi_count
 457              		.cfi_endproc
 458              	.LFE0:
 460              		.section	.text.le_set_access_address,"ax",%progbits
 461              		.align	1
 462              		.thumb
 463              		.thumb_func
 465              	le_set_access_address:
 466              	.LFB19:
1422:bluetooth_rxtx.c **** 
1423:bluetooth_rxtx.c **** static uint16_t reverse16(uint16_t data)
1424:bluetooth_rxtx.c **** {
1425:bluetooth_rxtx.c **** 	uint16_t reversed = 0;
1426:bluetooth_rxtx.c **** 
1427:bluetooth_rxtx.c **** 	for(size_t i=0; i<16; i++)
1428:bluetooth_rxtx.c **** 	{
1429:bluetooth_rxtx.c **** 		reversed |= ((data >> i) & 0x01) << (15-i);
1430:bluetooth_rxtx.c **** 	}
1431:bluetooth_rxtx.c **** 
1432:bluetooth_rxtx.c **** 	return reversed;
1433:bluetooth_rxtx.c **** }
1434:bluetooth_rxtx.c **** 
1435:bluetooth_rxtx.c **** /*
1436:bluetooth_rxtx.c ****  * Transmit a BTBR packet with the specified access code.
1437:bluetooth_rxtx.c ****  *
1438:bluetooth_rxtx.c ****  * All modulation parameters are set within this function.
1439:bluetooth_rxtx.c ****  */
1440:bluetooth_rxtx.c **** void br_transmit()
1441:bluetooth_rxtx.c **** {
1442:bluetooth_rxtx.c **** 	uint16_t gio_save;
1443:bluetooth_rxtx.c **** 
1444:bluetooth_rxtx.c **** 	uint32_t clkn_saved = 0;
1445:bluetooth_rxtx.c **** 
1446:bluetooth_rxtx.c **** 	uint16_t preamble = (target.syncword & 1) == 1 ? 0x5555 : 0xaaaa;
1447:bluetooth_rxtx.c **** 	uint8_t trailer = ((target.syncword >> 63) & 1) == 1 ? 0xaa : 0x55;
1448:bluetooth_rxtx.c **** 
1449:bluetooth_rxtx.c **** 	uint8_t data[16] = {
1450:bluetooth_rxtx.c **** 		reverse8((target.syncword >> 0) & 0xFF),
1451:bluetooth_rxtx.c **** 		reverse8((target.syncword >> 8) & 0xFF),
1452:bluetooth_rxtx.c **** 		reverse8((target.syncword >> 16) & 0xFF),
1453:bluetooth_rxtx.c **** 		reverse8((target.syncword >> 24) & 0xFF),
1454:bluetooth_rxtx.c **** 		reverse8((target.syncword >> 32) & 0xFF),
1455:bluetooth_rxtx.c **** 		reverse8((target.syncword >> 40) & 0xFF),
1456:bluetooth_rxtx.c **** 		reverse8((target.syncword >> 48) & 0xFF),
1457:bluetooth_rxtx.c **** 		reverse8((target.syncword >> 56) & 0xFF),
ARM GAS  /tmp/ccUrIl19.s 			page 36


1458:bluetooth_rxtx.c **** 		reverse8(trailer),
1459:bluetooth_rxtx.c **** 		reverse8(0x77),
1460:bluetooth_rxtx.c **** 		reverse8(0x66),
1461:bluetooth_rxtx.c **** 		reverse8(0x55),
1462:bluetooth_rxtx.c **** 		reverse8(0x44),
1463:bluetooth_rxtx.c **** 		reverse8(0x33),
1464:bluetooth_rxtx.c **** 		reverse8(0x22),
1465:bluetooth_rxtx.c **** 		reverse8(0x11)
1466:bluetooth_rxtx.c **** 	};
1467:bluetooth_rxtx.c **** 
1468:bluetooth_rxtx.c **** 	cc2400_tx_sync(reverse16(preamble));
1469:bluetooth_rxtx.c **** 
1470:bluetooth_rxtx.c **** 	cc2400_set(INT,     0x0014);    // FIFO_THRESHOLD: 20 bytes
1471:bluetooth_rxtx.c **** 
1472:bluetooth_rxtx.c **** 	// set GIO to FIFO_FULL
1473:bluetooth_rxtx.c **** 	gio_save = cc2400_get(IOCFG);
1474:bluetooth_rxtx.c **** 	cc2400_set(IOCFG, (GIO_FIFO_FULL << 9) | (gio_save & 0x1ff));
1475:bluetooth_rxtx.c **** 
1476:bluetooth_rxtx.c **** 	while ( requested_mode == MODE_TX_SYMBOLS )
1477:bluetooth_rxtx.c **** 	{
1478:bluetooth_rxtx.c **** 
1479:bluetooth_rxtx.c **** 		while ((clkn >> 1) == (clkn_saved >> 1) || T0TC < 2250) {
1480:bluetooth_rxtx.c **** 
1481:bluetooth_rxtx.c **** 			// If timer says time to hop, do it.
1482:bluetooth_rxtx.c **** 			if (do_hop) {
1483:bluetooth_rxtx.c **** 				hop();
1484:bluetooth_rxtx.c **** 			}
1485:bluetooth_rxtx.c **** 		}
1486:bluetooth_rxtx.c **** 
1487:bluetooth_rxtx.c **** 		clkn_saved = clkn;
1488:bluetooth_rxtx.c **** 
1489:bluetooth_rxtx.c **** 		TXLED_SET;
1490:bluetooth_rxtx.c **** 
1491:bluetooth_rxtx.c **** 		cc2400_fifo_write(16, data);
1492:bluetooth_rxtx.c **** 
1493:bluetooth_rxtx.c **** 		while ((cc2400_get(FSMSTATE) & 0x1f) != STATE_STROBE_FS_ON);
1494:bluetooth_rxtx.c **** 		TXLED_CLR;
1495:bluetooth_rxtx.c **** 
1496:bluetooth_rxtx.c **** 		cc2400_strobe(SRFOFF);
1497:bluetooth_rxtx.c **** 		while ((cc2400_status() & FS_LOCK));
1498:bluetooth_rxtx.c **** 
1499:bluetooth_rxtx.c **** 		while (!(cc2400_status() & XOSC16M_STABLE));
1500:bluetooth_rxtx.c **** 		cc2400_strobe(SFSON);
1501:bluetooth_rxtx.c **** 		while (!(cc2400_status() & FS_LOCK));
1502:bluetooth_rxtx.c **** 
1503:bluetooth_rxtx.c **** 		while ((cc2400_get(FSMSTATE) & 0x1f) != STATE_STROBE_FS_ON);
1504:bluetooth_rxtx.c **** 		cc2400_strobe(STX);
1505:bluetooth_rxtx.c **** 
1506:bluetooth_rxtx.c **** 		handle_usb(clkn);
1507:bluetooth_rxtx.c **** 	}
1508:bluetooth_rxtx.c **** 
1509:bluetooth_rxtx.c **** #ifdef UBERTOOTH_ONE
1510:bluetooth_rxtx.c **** 	PAEN_CLR;
1511:bluetooth_rxtx.c **** #endif
1512:bluetooth_rxtx.c **** 
1513:bluetooth_rxtx.c **** 	// reset GIO
1514:bluetooth_rxtx.c **** 	cc2400_set(IOCFG, gio_save);
ARM GAS  /tmp/ccUrIl19.s 			page 37


1515:bluetooth_rxtx.c **** }
1516:bluetooth_rxtx.c **** 
1517:bluetooth_rxtx.c **** /* set LE access address */
1518:bluetooth_rxtx.c **** static void le_set_access_address(u32 aa) {
 467              		.loc 1 1518 0
 468              		.cfi_startproc
 469              		@ args = 0, pretend = 0, frame = 0
 470              		@ frame_needed = 0, uses_anonymous_args = 0
 471              	.LVL48:
 472 0000 10B5     		push	{r4, lr}
 473              		.cfi_def_cfa_offset 8
 474              		.cfi_offset 4, -8
 475              		.cfi_offset 14, -4
1519:bluetooth_rxtx.c **** 	u32 aa_rev;
1520:bluetooth_rxtx.c **** 
1521:bluetooth_rxtx.c **** 	le.access_address = aa;
 476              		.loc 1 1521 0
 477 0002 044C     		ldr	r4, .L39
 478 0004 6060     		str	r0, [r4, #4]
1522:bluetooth_rxtx.c **** 	aa_rev = rbit(aa);
 479              		.loc 1 1522 0
 480 0006 FFF7FEFF 		bl	rbit
 481              	.LVL49:
1523:bluetooth_rxtx.c **** 	le.syncl = aa_rev & 0xffff;
 482              		.loc 1 1523 0
 483 000a 6081     		strh	r0, [r4, #10]	@ movhi
1524:bluetooth_rxtx.c **** 	le.synch = aa_rev >> 16;
 484              		.loc 1 1524 0
 485 000c 000C     		lsrs	r0, r0, #16
 486              	.LVL50:
 487 000e 2081     		strh	r0, [r4, #8]	@ movhi
 488 0010 10BD     		pop	{r4, pc}
 489              	.L40:
 490 0012 00BF     		.align	2
 491              	.L39:
 492 0014 00000000 		.word	.LANCHOR1
 493              		.cfi_endproc
 494              	.LFE19:
 496              		.section	.text.cc2400_idle,"ax",%progbits
 497              		.align	1
 498              		.thumb
 499              		.thumb_func
 501              	cc2400_idle:
 502              	.LFB8:
 870:bluetooth_rxtx.c **** 	cc2400_strobe(SRFOFF);
 503              		.loc 1 870 0
 504              		.cfi_startproc
 505              		@ args = 0, pretend = 0, frame = 0
 506              		@ frame_needed = 0, uses_anonymous_args = 0
 507 0000 10B5     		push	{r4, lr}
 508              		.cfi_def_cfa_offset 8
 509              		.cfi_offset 4, -8
 510              		.cfi_offset 14, -4
 871:bluetooth_rxtx.c **** 	while ((cc2400_status() & FS_LOCK)); // need to wait for unlock?
 511              		.loc 1 871 0
 512 0002 6420     		movs	r0, #100
 513 0004 FFF7FEFF 		bl	cc2400_strobe
ARM GAS  /tmp/ccUrIl19.s 			page 38


 514              	.LVL51:
 515              	.L43:
 872:bluetooth_rxtx.c **** 
 516              		.loc 1 872 0 discriminator 1
 517 0008 FFF7FEFF 		bl	cc2400_status
 518              	.LVL52:
 519 000c 00F00400 		and	r0, r0, #4
 520 0010 00F0FF04 		and	r4, r0, #255
 521 0014 0028     		cmp	r0, #0
 522 0016 F7D1     		bne	.L43
 875:bluetooth_rxtx.c **** 	HGM_CLR;
 523              		.loc 1 875 0
 524 0018 204B     		ldr	r3, .L44
 525 001a 8022     		movs	r2, #128
 526 001c 1A60     		str	r2, [r3]
 879:bluetooth_rxtx.c **** 	TXLED_CLR;
 527              		.loc 1 879 0
 528 001e 1021     		movs	r1, #16
 876:bluetooth_rxtx.c **** #endif
 529              		.loc 1 876 0
 530 0020 4FF48072 		mov	r2, #256
 531 0024 1A60     		str	r2, [r3]
 879:bluetooth_rxtx.c **** 	TXLED_CLR;
 532              		.loc 1 879 0
 533 0026 43F8201C 		str	r1, [r3, #-32]
 880:bluetooth_rxtx.c **** 	USRLED_CLR;
 534              		.loc 1 880 0
 535 002a 43F8202C 		str	r2, [r3, #-32]
 881:bluetooth_rxtx.c **** 
 536              		.loc 1 881 0
 537 002e 0222     		movs	r2, #2
 538 0030 43F8202C 		str	r2, [r3, #-32]
 883:bluetooth_rxtx.c **** 	dio_ssp_stop();
 539              		.loc 1 883 0
 540 0034 FFF7FEFF 		bl	clkn_stop
 541              	.LVL53:
 884:bluetooth_rxtx.c **** 	cs_reset();
 542              		.loc 1 884 0
 543 0038 FFF7FEFF 		bl	dio_ssp_stop
 544              	.LVL54:
 885:bluetooth_rxtx.c **** 	rssi_reset();
 545              		.loc 1 885 0
 546 003c FFF7FEFF 		bl	cs_reset
 547              	.LVL55:
 886:bluetooth_rxtx.c **** 
 548              		.loc 1 886 0
 549 0040 FFF7FEFF 		bl	rssi_reset
 550              	.LVL56:
 889:bluetooth_rxtx.c **** 	do_hop = 0;
 551              		.loc 1 889 0
 552 0044 164B     		ldr	r3, .L44+4
 891:bluetooth_rxtx.c **** 	hop_direct_channel = 0;
 553              		.loc 1 891 0
 554 0046 174A     		ldr	r2, .L44+8
 555 0048 40F68911 		movw	r1, #2441
 889:bluetooth_rxtx.c **** 	do_hop = 0;
 556              		.loc 1 889 0
ARM GAS  /tmp/ccUrIl19.s 			page 39


 557 004c 9C72     		strb	r4, [r3, #10]
 890:bluetooth_rxtx.c **** 	channel = 2441;
 558              		.loc 1 890 0
 559 004e DC72     		strb	r4, [r3, #11]
 891:bluetooth_rxtx.c **** 	hop_direct_channel = 0;
 560              		.loc 1 891 0
 561 0050 1180     		strh	r1, [r2]	@ movhi
 893:bluetooth_rxtx.c **** 	requested_channel = 0;
 562              		.loc 1 893 0
 563 0052 9E21     		movs	r1, #158
 892:bluetooth_rxtx.c **** 	hop_timeout = 158;
 564              		.loc 1 892 0
 565 0054 9C81     		strh	r4, [r3, #12]	@ movhi
 893:bluetooth_rxtx.c **** 	requested_channel = 0;
 566              		.loc 1 893 0
 567 0056 A2F84810 		strh	r1, [r2, #72]	@ movhi
 895:bluetooth_rxtx.c **** 
 568              		.loc 1 895 0
 569 005a 40F66211 		movw	r1, #2402
 894:bluetooth_rxtx.c **** 	le_adv_channel = 2402;
 570              		.loc 1 894 0
 571 005e DC81     		strh	r4, [r3, #14]	@ movhi
 895:bluetooth_rxtx.c **** 
 572              		.loc 1 895 0
 573 0060 A2F84A10 		strh	r1, [r2, #74]	@ movhi
 899:bluetooth_rxtx.c **** 	idle_buf_clk100ns = 0;
 574              		.loc 1 899 0
 575 0064 9C70     		strb	r4, [r3, #2]
 900:bluetooth_rxtx.c **** 	idle_buf_channel = 0;
 576              		.loc 1 900 0
 577 0066 5C60     		str	r4, [r3, #4]
 901:bluetooth_rxtx.c **** 	dma_discard = 0;
 578              		.loc 1 901 0
 579 0068 1C81     		strh	r4, [r3, #8]	@ movhi
 902:bluetooth_rxtx.c **** 	status = 0;
 580              		.loc 1 902 0
 581 006a 1C74     		strb	r4, [r3, #16]
 903:bluetooth_rxtx.c **** 
 582              		.loc 1 903 0
 583 006c 5C70     		strb	r4, [r3, #1]
 906:bluetooth_rxtx.c **** 	requested_mode = MODE_IDLE;
 584              		.loc 1 906 0
 585 006e 5C74     		strb	r4, [r3, #17]
 907:bluetooth_rxtx.c **** 	jam_mode = JAM_NONE;
 586              		.loc 1 907 0
 587 0070 9C74     		strb	r4, [r3, #18]
 908:bluetooth_rxtx.c **** 	ego_mode = EGO_FOLLOW;
 588              		.loc 1 908 0
 589 0072 DC74     		strb	r4, [r3, #19]
 909:bluetooth_rxtx.c **** 
 590              		.loc 1 909 0
 591 0074 1C75     		strb	r4, [r3, #20]
 911:bluetooth_rxtx.c **** 
 592              		.loc 1 911 0
 593 0076 1C70     		strb	r4, [r3]
 914:bluetooth_rxtx.c **** 	high_freq = 2483;
 594              		.loc 1 914 0
ARM GAS  /tmp/ccUrIl19.s 			page 40


 595 0078 4FF41663 		mov	r3, #2400
 596 007c A2F84C30 		strh	r3, [r2, #76]	@ movhi
 915:bluetooth_rxtx.c **** 	rssi_threshold = -30;
 597              		.loc 1 915 0
 598 0080 5333     		adds	r3, r3, #83
 599 0082 A2F84E30 		strh	r3, [r2, #78]	@ movhi
 918:bluetooth_rxtx.c **** 	target.syncword = 0;
 600              		.loc 1 918 0
 601 0086 0849     		ldr	r1, .L44+12
 916:bluetooth_rxtx.c **** 
 602              		.loc 1 916 0
 603 0088 E223     		movs	r3, #226
 604 008a 82F85030 		strb	r3, [r2, #80]
 918:bluetooth_rxtx.c **** 	target.syncword = 0;
 605              		.loc 1 918 0
 606 008e 0022     		movs	r2, #0
 607 0090 0023     		movs	r3, #0
 608 0092 C1E90023 		strd	r2, [r1]
 919:bluetooth_rxtx.c **** }
 609              		.loc 1 919 0
 610 0096 C1E90223 		strd	r2, [r1, #8]
 611 009a 10BD     		pop	{r4, pc}
 612              	.L45:
 613              		.align	2
 614              	.L44:
 615 009c 5CC00920 		.word	537509980
 616 00a0 00000000 		.word	.LANCHOR0
 617 00a4 00000000 		.word	.LANCHOR1
 618 00a8 00000000 		.word	target
 619              		.cfi_endproc
 620              	.LFE8:
 622              		.section	.text.cb_follow_le,"ax",%progbits
 623              		.align	1
 624              		.global	cb_follow_le
 625              		.thumb
 626              		.thumb_func
 628              	cb_follow_le:
 629              	.LFB26:
1525:bluetooth_rxtx.c **** }
1526:bluetooth_rxtx.c **** 
1527:bluetooth_rxtx.c **** /* reset le state, called by bt_generic_le and bt_follow_le() */
1528:bluetooth_rxtx.c **** void reset_le() {
1529:bluetooth_rxtx.c **** 	le_set_access_address(0x8e89bed6);     // advertising channel access address
1530:bluetooth_rxtx.c **** 	le.crc_init  = 0x555555;               // advertising channel CRCInit
1531:bluetooth_rxtx.c **** 	le.crc_init_reversed = 0xAAAAAA;
1532:bluetooth_rxtx.c **** 	//JWHUR crc verify on
1533:bluetooth_rxtx.c **** 	le.crc_verify = 1;
1534:bluetooth_rxtx.c **** 	le.last_packet = 0;
1535:bluetooth_rxtx.c **** 
1536:bluetooth_rxtx.c **** 	le.link_state = LINK_INACTIVE;
1537:bluetooth_rxtx.c **** 
1538:bluetooth_rxtx.c **** 	le.channel_idx = 0;
1539:bluetooth_rxtx.c **** 	le.channel_increment = 0;
1540:bluetooth_rxtx.c **** 
1541:bluetooth_rxtx.c **** 	le.conn_epoch = 0;
1542:bluetooth_rxtx.c **** 	le.interval_timer = 0;
1543:bluetooth_rxtx.c **** 	le.conn_interval = 0;
ARM GAS  /tmp/ccUrIl19.s 			page 41


1544:bluetooth_rxtx.c **** 	le.conn_interval = 0;
1545:bluetooth_rxtx.c **** 	le.conn_count = 0;
1546:bluetooth_rxtx.c **** 
1547:bluetooth_rxtx.c **** 	le.win_size = 0;
1548:bluetooth_rxtx.c **** 	le.win_offset = 0;
1549:bluetooth_rxtx.c **** 
1550:bluetooth_rxtx.c **** 	le.update_pending = 0;
1551:bluetooth_rxtx.c **** 	le.update_instant = 0;
1552:bluetooth_rxtx.c **** 	le.interval_update = 0;
1553:bluetooth_rxtx.c **** 	le.win_size_update = 0;
1554:bluetooth_rxtx.c **** 	le.win_offset_update = 0;
1555:bluetooth_rxtx.c **** 
1556:bluetooth_rxtx.c **** 	do_hop = 0;
1557:bluetooth_rxtx.c **** }
1558:bluetooth_rxtx.c **** 
1559:bluetooth_rxtx.c **** // reset LE Promisc state
1560:bluetooth_rxtx.c **** void reset_le_promisc(void) {
1561:bluetooth_rxtx.c **** 	memset(&le_promisc, 0, sizeof(le_promisc));
1562:bluetooth_rxtx.c **** 	le_promisc.smallest_hop_interval = 0xffffffff;
1563:bluetooth_rxtx.c **** }
1564:bluetooth_rxtx.c **** 
1565:bluetooth_rxtx.c **** /* generic le mode */
1566:bluetooth_rxtx.c **** void bt_generic_le(u8 active_mode)
1567:bluetooth_rxtx.c **** {
1568:bluetooth_rxtx.c **** 	u8 hold;
1569:bluetooth_rxtx.c **** 	int i, j;
1570:bluetooth_rxtx.c **** 	int8_t rssi, rssi_at_trigger;
1571:bluetooth_rxtx.c **** 
1572:bluetooth_rxtx.c **** 	modulation = MOD_BT_LOW_ENERGY;
1573:bluetooth_rxtx.c **** 	mode = active_mode;
1574:bluetooth_rxtx.c **** 
1575:bluetooth_rxtx.c **** 	reset_le();
1576:bluetooth_rxtx.c **** 
1577:bluetooth_rxtx.c **** 	// enable USB interrupts
1578:bluetooth_rxtx.c **** 	ISER0 = ISER0_ISE_USB;
1579:bluetooth_rxtx.c **** 
1580:bluetooth_rxtx.c **** 	RXLED_CLR;
1581:bluetooth_rxtx.c **** 
1582:bluetooth_rxtx.c **** 	queue_init();
1583:bluetooth_rxtx.c **** 	dio_ssp_init();
1584:bluetooth_rxtx.c **** 	dma_init();
1585:bluetooth_rxtx.c **** 	dio_ssp_start();
1586:bluetooth_rxtx.c **** 	cc2400_rx();
1587:bluetooth_rxtx.c **** 
1588:bluetooth_rxtx.c **** 	cs_trigger_enable();
1589:bluetooth_rxtx.c **** 
1590:bluetooth_rxtx.c **** 	hold = 0;
1591:bluetooth_rxtx.c **** 
1592:bluetooth_rxtx.c **** 	while (requested_mode == active_mode) {
1593:bluetooth_rxtx.c **** 		if (requested_channel != 0) {
1594:bluetooth_rxtx.c **** 			cc2400_strobe(SRFOFF);
1595:bluetooth_rxtx.c **** 			while ((cc2400_status() & FS_LOCK)); // need to wait for unlock?
1596:bluetooth_rxtx.c **** 
1597:bluetooth_rxtx.c **** 			/* Retune */
1598:bluetooth_rxtx.c **** 			cc2400_set(FSDIV, channel - 1);
1599:bluetooth_rxtx.c **** 
1600:bluetooth_rxtx.c **** 			/* Wait for lock */
ARM GAS  /tmp/ccUrIl19.s 			page 42


1601:bluetooth_rxtx.c **** 			cc2400_strobe(SFSON);
1602:bluetooth_rxtx.c **** 			while (!(cc2400_status() & FS_LOCK));
1603:bluetooth_rxtx.c **** 
1604:bluetooth_rxtx.c **** 			/* RX mode */
1605:bluetooth_rxtx.c **** 			cc2400_strobe(SRX);
1606:bluetooth_rxtx.c **** 
1607:bluetooth_rxtx.c **** 			requested_channel = 0;
1608:bluetooth_rxtx.c **** 		}
1609:bluetooth_rxtx.c **** 
1610:bluetooth_rxtx.c **** 		if (do_hop) {
1611:bluetooth_rxtx.c **** 			hop();
1612:bluetooth_rxtx.c **** 		} else {
1613:bluetooth_rxtx.c **** 			TXLED_CLR;
1614:bluetooth_rxtx.c **** 		}
1615:bluetooth_rxtx.c **** 
1616:bluetooth_rxtx.c **** 		RXLED_CLR;
1617:bluetooth_rxtx.c **** 
1618:bluetooth_rxtx.c **** 		/* Wait for DMA. Meanwhile keep track of RSSI. */
1619:bluetooth_rxtx.c **** 		rssi_reset();
1620:bluetooth_rxtx.c **** 		rssi_at_trigger = INT8_MIN;
1621:bluetooth_rxtx.c **** 		while ((rx_tc == 0) && (rx_err == 0))
1622:bluetooth_rxtx.c **** 		{
1623:bluetooth_rxtx.c **** 			rssi = (int8_t)(cc2400_get(RSSI) >> 8);
1624:bluetooth_rxtx.c **** 			if (cs_trigger && (rssi_at_trigger == INT8_MIN)) {
1625:bluetooth_rxtx.c **** 				rssi = MAX(rssi,(cs_threshold_cur+54));
1626:bluetooth_rxtx.c **** 				rssi_at_trigger = rssi;
1627:bluetooth_rxtx.c **** 			}
1628:bluetooth_rxtx.c **** 			rssi_add(rssi);
1629:bluetooth_rxtx.c **** 		}
1630:bluetooth_rxtx.c **** 
1631:bluetooth_rxtx.c **** 		if (rx_err) {
1632:bluetooth_rxtx.c **** 			status |= DMA_ERROR;
1633:bluetooth_rxtx.c **** 		}
1634:bluetooth_rxtx.c **** 
1635:bluetooth_rxtx.c **** 		/* No DMA transfer? */
1636:bluetooth_rxtx.c **** 		if (!rx_tc)
1637:bluetooth_rxtx.c **** 			goto rx_continue;
1638:bluetooth_rxtx.c **** 
1639:bluetooth_rxtx.c **** 		/* Missed a DMA trasfer? */
1640:bluetooth_rxtx.c **** 		if (rx_tc > 1)
1641:bluetooth_rxtx.c **** 			status |= DMA_OVERFLOW;
1642:bluetooth_rxtx.c **** 
1643:bluetooth_rxtx.c **** 		rssi_iir_update(channel);
1644:bluetooth_rxtx.c **** 
1645:bluetooth_rxtx.c **** 		/* Set squelch hold if there was either a CS trigger, squelch
1646:bluetooth_rxtx.c **** 		 * is disabled, or if the current rssi_max is above the same
1647:bluetooth_rxtx.c **** 		 * threshold. Currently, this is redundant, but allows for
1648:bluetooth_rxtx.c **** 		 * per-channel or other rssi triggers in the future. */
1649:bluetooth_rxtx.c **** 		if (cs_trigger || cs_no_squelch) {
1650:bluetooth_rxtx.c **** 			status |= CS_TRIGGER;
1651:bluetooth_rxtx.c **** 			hold = CS_HOLD_TIME;
1652:bluetooth_rxtx.c **** 			cs_trigger = 0;
1653:bluetooth_rxtx.c **** 		}
1654:bluetooth_rxtx.c **** 
1655:bluetooth_rxtx.c **** 		if (rssi_max >= (cs_threshold_cur + 54)) {
1656:bluetooth_rxtx.c **** 			status |= RSSI_TRIGGER;
1657:bluetooth_rxtx.c **** 			hold = CS_HOLD_TIME;
ARM GAS  /tmp/ccUrIl19.s 			page 43


1658:bluetooth_rxtx.c **** 		}
1659:bluetooth_rxtx.c **** 
1660:bluetooth_rxtx.c **** 		/* Hold expired? Ignore data. */
1661:bluetooth_rxtx.c **** 		if (hold == 0) {
1662:bluetooth_rxtx.c **** 			goto rx_continue;
1663:bluetooth_rxtx.c **** 		}
1664:bluetooth_rxtx.c **** 		hold--;
1665:bluetooth_rxtx.c **** 
1666:bluetooth_rxtx.c **** 		// copy the previously unpacked symbols to the front of the buffer
1667:bluetooth_rxtx.c **** 		memcpy(unpacked, unpacked + DMA_SIZE*8, DMA_SIZE*8);
1668:bluetooth_rxtx.c **** 
1669:bluetooth_rxtx.c **** 		// unpack the new packet to the end of the buffer
1670:bluetooth_rxtx.c **** 		for (i = 0; i < DMA_SIZE; ++i) {
1671:bluetooth_rxtx.c **** 			/* output one byte for each received symbol (0x00 or 0x01) */
1672:bluetooth_rxtx.c **** 			for (j = 0; j < 8; ++j) {
1673:bluetooth_rxtx.c **** 				unpacked[DMA_SIZE*8 + i * 8 + j] = (idle_rxbuf[i] & 0x80) >> 7;
1674:bluetooth_rxtx.c **** 				idle_rxbuf[i] <<= 1;
1675:bluetooth_rxtx.c **** 			}
1676:bluetooth_rxtx.c **** 		}
1677:bluetooth_rxtx.c **** 
1678:bluetooth_rxtx.c **** 		int ret = data_cb(unpacked);
1679:bluetooth_rxtx.c **** 		if (!ret) break;
1680:bluetooth_rxtx.c **** 
1681:bluetooth_rxtx.c **** 	rx_continue:
1682:bluetooth_rxtx.c **** 		rx_tc = 0;
1683:bluetooth_rxtx.c **** 		rx_err = 0;
1684:bluetooth_rxtx.c **** 	}
1685:bluetooth_rxtx.c **** 
1686:bluetooth_rxtx.c **** 	// disable USB interrupts
1687:bluetooth_rxtx.c **** 	ICER0 = ICER0_ICE_USB;
1688:bluetooth_rxtx.c **** 
1689:bluetooth_rxtx.c **** 	// reset the radio completely
1690:bluetooth_rxtx.c **** 	cc2400_idle();
1691:bluetooth_rxtx.c **** 	dio_ssp_stop();
1692:bluetooth_rxtx.c **** 	cs_trigger_disable();
1693:bluetooth_rxtx.c **** }
1694:bluetooth_rxtx.c **** 
1695:bluetooth_rxtx.c **** //JWHUR rssi tracking
1696:bluetooth_rxtx.c **** void bt_le_sync_rssi(u8 active_mode) 
1697:bluetooth_rxtx.c **** {
1698:bluetooth_rxtx.c **** 	int i;
1699:bluetooth_rxtx.c **** 	int8_t rssi;
1700:bluetooth_rxtx.c **** 	static int restart_jamming = 0;
1701:bluetooth_rxtx.c **** 	u8 rssi_buf[DMA_SIZE] = {0, };
1702:bluetooth_rxtx.c **** 
1703:bluetooth_rxtx.c **** 	if (start_sync >= ((uint32_t)1<<28)) {
1704:bluetooth_rxtx.c **** 		start_sync -= ((uint32_t)1<<28);
1705:bluetooth_rxtx.c **** 		while ((clkn & 0xffffff) >= now_sync || (clkn & 0xffffff) < start_sync);
1706:bluetooth_rxtx.c **** 	} else {
1707:bluetooth_rxtx.c **** 		while ((clkn & 0xffffff) < start_sync);
1708:bluetooth_rxtx.c **** 	}
1709:bluetooth_rxtx.c **** 
1710:bluetooth_rxtx.c **** 	// rssi sampling for only 100 ms
1711:bluetooth_rxtx.c **** 	uint32_t now = (clkn & 0xffffff);
1712:bluetooth_rxtx.c **** 	uint32_t stop_at = now + 100 * 10000 / 3125; // millis -> clkn ticks
1713:bluetooth_rxtx.c **** 	int overflow = 0;
1714:bluetooth_rxtx.c **** 	// handle clkn overflow
ARM GAS  /tmp/ccUrIl19.s 			page 44


1715:bluetooth_rxtx.c **** 	if (stop_at >= ((uint32_t)1<<28)) {
1716:bluetooth_rxtx.c **** 		stop_at -= ((uint32_t)1<<28);
1717:bluetooth_rxtx.c **** 		overflow = 1;
1718:bluetooth_rxtx.c **** 	}
1719:bluetooth_rxtx.c **** 
1720:bluetooth_rxtx.c **** 	modulation = MOD_BT_LOW_ENERGY;
1721:bluetooth_rxtx.c **** 	mode = active_mode;
1722:bluetooth_rxtx.c **** 
1723:bluetooth_rxtx.c **** 	le.link_state = LINK_LISTENING;
1724:bluetooth_rxtx.c **** 
1725:bluetooth_rxtx.c **** 	ISER0 = ISER0_ISE_USB;
1726:bluetooth_rxtx.c **** 	RXLED_CLR;
1727:bluetooth_rxtx.c **** 	queue_init();
1728:bluetooth_rxtx.c **** 	dio_ssp_init();
1729:bluetooth_rxtx.c **** 	dma_init_le();
1730:bluetooth_rxtx.c **** 	dio_ssp_start();
1731:bluetooth_rxtx.c **** 
1732:bluetooth_rxtx.c **** 	cc2400_rx_sync(rbit(le.access_address));
1733:bluetooth_rxtx.c **** 	
1734:bluetooth_rxtx.c **** 	while (requested_mode == active_mode) {
1735:bluetooth_rxtx.c **** 		if (requested_channel != 0) {
1736:bluetooth_rxtx.c **** 			cc2400_strobe(SRFOFF);
1737:bluetooth_rxtx.c **** 			while ((cc2400_status() & FS_LOCK));
1738:bluetooth_rxtx.c **** 			cc2400_set(FSDIV, channel - 1);
1739:bluetooth_rxtx.c **** 			cc2400_strobe(SFSON);
1740:bluetooth_rxtx.c **** 			while (!(cc2400_status() & FS_LOCK));
1741:bluetooth_rxtx.c **** 			cc2400_strobe(SRX);
1742:bluetooth_rxtx.c **** 			requested_channel = 0;
1743:bluetooth_rxtx.c **** 		}
1744:bluetooth_rxtx.c **** 		RXLED_CLR;
1745:bluetooth_rxtx.c **** 		
1746:bluetooth_rxtx.c **** 		if (requested_mode != active_mode) {
1747:bluetooth_rxtx.c **** 			goto cleanup;
1748:bluetooth_rxtx.c **** 		}
1749:bluetooth_rxtx.c **** 
1750:bluetooth_rxtx.c **** 		//JWHUR buffering time information
1751:bluetooth_rxtx.c **** 		u32 time_buf1[16] = {0, };
1752:bluetooth_rxtx.c **** 		u32 time_buf2[16] = {0, };
1753:bluetooth_rxtx.c **** 		u32 time_buf3[16] = {0, };
1754:bluetooth_rxtx.c **** 		u32 time_buf4[16] = {0, };
1755:bluetooth_rxtx.c **** 		for (i = 0; i < DMA_SIZE; i++) {
1756:bluetooth_rxtx.c **** 			if (i<16) time_buf1[i] = CLK100NS;
1757:bluetooth_rxtx.c **** 			if (15<i && i<32) time_buf2[i-16] = CLK100NS;
1758:bluetooth_rxtx.c **** 			if (31<i && i<48) time_buf3[i-32] = CLK100NS;
1759:bluetooth_rxtx.c **** 			if (47<i) time_buf4[i-48] = CLK100NS;
1760:bluetooth_rxtx.c **** 			rssi_buf[i] = (u8)(cc2400_get(RSSI) >> 8);
1761:bluetooth_rxtx.c **** 			volatile u32 j = 598; while (--j); // empty for loop ~= 70ns, 598 empty while loop ~= 41.8us
1762:bluetooth_rxtx.c **** 		}
1763:bluetooth_rxtx.c **** 
1764:bluetooth_rxtx.c **** 		RXLED_SET;
1765:bluetooth_rxtx.c **** 
1766:bluetooth_rxtx.c **** 		ICER0 = ICER0_ICE_USB;
1767:bluetooth_rxtx.c **** 		enqueue_with_ts(RSSI_TRACK, (uint8_t *)rssi_buf, CLK100NS);
1768:bluetooth_rxtx.c **** 		enqueue_time((uint8_t *) time_buf1);
1769:bluetooth_rxtx.c **** 		enqueue_time((uint8_t *) time_buf2);
1770:bluetooth_rxtx.c **** 		enqueue_time((uint8_t *) time_buf3);
1771:bluetooth_rxtx.c **** 		enqueue_time((uint8_t *) time_buf4);
ARM GAS  /tmp/ccUrIl19.s 			page 45


1772:bluetooth_rxtx.c **** 		ISER0 = ISER0_ISE_USB;
1773:bluetooth_rxtx.c **** 		
1774:bluetooth_rxtx.c **** 		if (overflow == 0) {
1775:bluetooth_rxtx.c **** 			if ((clkn & 0xffffff) > stop_at)
1776:bluetooth_rxtx.c **** 				goto cleanup;
1777:bluetooth_rxtx.c **** 		} else {
1778:bluetooth_rxtx.c **** 			if ((clkn & 0xffffff) < now_sync && (clkn & 0xffffff) > stop_at)
1779:bluetooth_rxtx.c **** 				goto cleanup;
1780:bluetooth_rxtx.c **** 		}
1781:bluetooth_rxtx.c **** 		
1782:bluetooth_rxtx.c **** 	}
1783:bluetooth_rxtx.c **** cleanup:
1784:bluetooth_rxtx.c **** 	ICER0 = ICER0_ICE_USB;
1785:bluetooth_rxtx.c **** 	cc2400_idle();
1786:bluetooth_rxtx.c **** 	dio_ssp_stop ();
1787:bluetooth_rxtx.c **** 	cs_trigger_disable();
1788:bluetooth_rxtx.c **** }
1789:bluetooth_rxtx.c **** 
1790:bluetooth_rxtx.c **** 
1791:bluetooth_rxtx.c **** void bt_le_sync(u8 active_mode)
1792:bluetooth_rxtx.c **** {
1793:bluetooth_rxtx.c **** 	int i;
1794:bluetooth_rxtx.c **** 	int8_t rssi;
1795:bluetooth_rxtx.c **** 	static int restart_jamming = 0;
1796:bluetooth_rxtx.c **** 	int uuuuu = 0; //JWHUR to detect packet with pdu uuuuu
1797:bluetooth_rxtx.c **** 
1798:bluetooth_rxtx.c **** 	modulation = MOD_BT_LOW_ENERGY;
1799:bluetooth_rxtx.c **** 	mode = active_mode;
1800:bluetooth_rxtx.c **** 
1801:bluetooth_rxtx.c **** 	le.link_state = LINK_LISTENING;
1802:bluetooth_rxtx.c **** 
1803:bluetooth_rxtx.c **** 	// enable USB interrupts
1804:bluetooth_rxtx.c **** 	ISER0 = ISER0_ISE_USB;
1805:bluetooth_rxtx.c **** 
1806:bluetooth_rxtx.c **** 	RXLED_CLR;
1807:bluetooth_rxtx.c **** 
1808:bluetooth_rxtx.c **** 	queue_init();
1809:bluetooth_rxtx.c **** 	dio_ssp_init();
1810:bluetooth_rxtx.c **** 	dma_init_le();
1811:bluetooth_rxtx.c **** 	dio_ssp_start();
1812:bluetooth_rxtx.c **** 
1813:bluetooth_rxtx.c **** 	cc2400_rx_sync(rbit(le.access_address)); // bit-reversed access address
1814:bluetooth_rxtx.c **** 
1815:bluetooth_rxtx.c **** 	while (requested_mode == active_mode) {
1816:bluetooth_rxtx.c **** 		if (requested_channel != 0) {
1817:bluetooth_rxtx.c **** 			cc2400_strobe(SRFOFF);
1818:bluetooth_rxtx.c **** 			while ((cc2400_status() & FS_LOCK)); // need to wait for unlock?
1819:bluetooth_rxtx.c **** 
1820:bluetooth_rxtx.c **** 			/* Retune */
1821:bluetooth_rxtx.c **** 			cc2400_set(FSDIV, channel - 1);
1822:bluetooth_rxtx.c **** 
1823:bluetooth_rxtx.c **** 			/* Wait for lock */
1824:bluetooth_rxtx.c **** 			cc2400_strobe(SFSON);
1825:bluetooth_rxtx.c **** 			while (!(cc2400_status() & FS_LOCK));
1826:bluetooth_rxtx.c **** 
1827:bluetooth_rxtx.c **** 			/* RX mode */
1828:bluetooth_rxtx.c **** 			cc2400_strobe(SRX);
ARM GAS  /tmp/ccUrIl19.s 			page 46


1829:bluetooth_rxtx.c **** 
1830:bluetooth_rxtx.c **** 			requested_channel = 0;
1831:bluetooth_rxtx.c **** 		}
1832:bluetooth_rxtx.c **** 
1833:bluetooth_rxtx.c **** 		RXLED_CLR;
1834:bluetooth_rxtx.c **** 
1835:bluetooth_rxtx.c **** 		/* Wait for DMA. Meanwhile keep track of RSSI. */
1836:bluetooth_rxtx.c **** 		rssi_reset();
1837:bluetooth_rxtx.c **** 		while ((rx_tc == 0) && (rx_err == 0) && (do_hop == 0) && requested_mode == active_mode)	;
1838:bluetooth_rxtx.c **** 
1839:bluetooth_rxtx.c **** 		rssi = (int8_t)(cc2400_get(RSSI) >> 8);
1840:bluetooth_rxtx.c **** 		rssi_min = rssi_max = rssi;
1841:bluetooth_rxtx.c **** 
1842:bluetooth_rxtx.c **** 		if (requested_mode != active_mode) {
1843:bluetooth_rxtx.c **** 			goto cleanup;
1844:bluetooth_rxtx.c **** 		}
1845:bluetooth_rxtx.c **** 
1846:bluetooth_rxtx.c **** 		if (rx_err) {
1847:bluetooth_rxtx.c **** 			status |= DMA_ERROR;
1848:bluetooth_rxtx.c **** 		}
1849:bluetooth_rxtx.c **** 
1850:bluetooth_rxtx.c **** 		if (do_hop)
1851:bluetooth_rxtx.c **** 			goto rx_flush;
1852:bluetooth_rxtx.c **** 
1853:bluetooth_rxtx.c **** 		/* No DMA transfer? */
1854:bluetooth_rxtx.c **** 		if (!rx_tc)
1855:bluetooth_rxtx.c **** 			continue;
1856:bluetooth_rxtx.c **** 
1857:bluetooth_rxtx.c **** 		/////////////////////
1858:bluetooth_rxtx.c **** 		// process the packet
1859:bluetooth_rxtx.c **** 
1860:bluetooth_rxtx.c **** 		uint32_t packet[48/4+1] = { 0, };
1861:bluetooth_rxtx.c **** 		u8 *p = (u8 *)packet;
1862:bluetooth_rxtx.c **** 		packet[0] = le.access_address;
1863:bluetooth_rxtx.c **** 
1864:bluetooth_rxtx.c **** 		const uint32_t *whit = whitening_word[btle_channel_index(channel-2402)];
1865:bluetooth_rxtx.c **** 		for (i = 0; i < 4; i+= 4) {
1866:bluetooth_rxtx.c **** 			uint32_t v = rxbuf1[i+0] << 24
1867:bluetooth_rxtx.c **** 					   | rxbuf1[i+1] << 16
1868:bluetooth_rxtx.c **** 					   | rxbuf1[i+2] << 8
1869:bluetooth_rxtx.c **** 					   | rxbuf1[i+3] << 0;
1870:bluetooth_rxtx.c **** 			packet[i/4+1] = rbit(v) ^ whit[i/4];
1871:bluetooth_rxtx.c **** 		}
1872:bluetooth_rxtx.c **** 
1873:bluetooth_rxtx.c **** 		unsigned len = (p[5] & 0x3f) + 2;
1874:bluetooth_rxtx.c **** 		if (len > 39)
1875:bluetooth_rxtx.c **** 			goto rx_flush;
1876:bluetooth_rxtx.c **** 
1877:bluetooth_rxtx.c **** 		// transfer the minimum number of bytes from the CC2400
1878:bluetooth_rxtx.c **** 		// this allows us enough time to resume RX for subsequent packets on the same channel
1879:bluetooth_rxtx.c **** 		unsigned total_transfers = ((len + 3) + 4 - 1) / 4;
1880:bluetooth_rxtx.c **** 		if (total_transfers < 11) {
1881:bluetooth_rxtx.c **** 			while (DMACC0DestAddr < (uint32_t)rxbuf1 + 4 * total_transfers && rx_err == 0)
1882:bluetooth_rxtx.c **** 				;
1883:bluetooth_rxtx.c **** 		} else { // max transfers? just wait till DMA's done
1884:bluetooth_rxtx.c **** 			while (DMACC0Config & DMACCxConfig_E && rx_err == 0)
1885:bluetooth_rxtx.c **** 				;
ARM GAS  /tmp/ccUrIl19.s 			page 47


1886:bluetooth_rxtx.c **** 		}
1887:bluetooth_rxtx.c **** 		DIO_SSP_DMACR &= ~SSPDMACR_RXDMAE;
1888:bluetooth_rxtx.c **** 
1889:bluetooth_rxtx.c **** 		// strobe SFSON to allow the resync to occur while we process the packet
1890:bluetooth_rxtx.c **** 		cc2400_strobe(SFSON);
1891:bluetooth_rxtx.c **** 
1892:bluetooth_rxtx.c **** 		// unwhiten the rest of the packet
1893:bluetooth_rxtx.c **** 		for (i = 4; i < 44; i += 4) {
1894:bluetooth_rxtx.c **** 			uint32_t v = rxbuf1[i+0] << 24
1895:bluetooth_rxtx.c **** 					   | rxbuf1[i+1] << 16
1896:bluetooth_rxtx.c **** 					   | rxbuf1[i+2] << 8
1897:bluetooth_rxtx.c **** 					   | rxbuf1[i+3] << 0;
1898:bluetooth_rxtx.c **** 			packet[i/4+1] = rbit(v) ^ whit[i/4];
1899:bluetooth_rxtx.c **** 		}
1900:bluetooth_rxtx.c **** 
1901:bluetooth_rxtx.c **** 		if (le.crc_verify) {
1902:bluetooth_rxtx.c **** 			u32 calc_crc = btle_crcgen_lut(le.crc_init_reversed, p + 4, len);
1903:bluetooth_rxtx.c **** 			u32 wire_crc = (p[4+len+2] << 16)
1904:bluetooth_rxtx.c **** 						 | (p[4+len+1] << 8)
1905:bluetooth_rxtx.c **** 						 | (p[4+len+0] << 0);
1906:bluetooth_rxtx.c **** 			if (calc_crc != wire_crc) // skip packets with a bad CRC
1907:bluetooth_rxtx.c **** 				goto rx_flush;
1908:bluetooth_rxtx.c **** 		}
1909:bluetooth_rxtx.c **** 
1910:bluetooth_rxtx.c **** 		//JWHUR rssi sampling synchronization test
1911:bluetooth_rxtx.c **** 		//If a BLE advertising packet with pdu, uuuuu received, after 100ms goto le_sync_rssi
1912:bluetooth_rxtx.c **** 		if (p[24] == 0x55 && p[25] == 0x55 && p[26] == 0x55 && p[27] == 0x55 && p[28] == 0x55) {
1913:bluetooth_rxtx.c **** 			uuuuu = 1;
1914:bluetooth_rxtx.c **** 			now_sync = (clkn & 0xffffff);
1915:bluetooth_rxtx.c **** 			start_sync = now_sync + 100 * 10000 / 3125; // wait for 100 ms
1916:bluetooth_rxtx.c **** 		}
1917:bluetooth_rxtx.c **** 
1918:bluetooth_rxtx.c **** 
1919:bluetooth_rxtx.c **** 		RXLED_SET;
1920:bluetooth_rxtx.c **** 		packet_cb((uint8_t *)packet);
1921:bluetooth_rxtx.c **** 
1922:bluetooth_rxtx.c **** 		// disable USB interrupts while we touch USB data structures
1923:bluetooth_rxtx.c **** 		ICER0 = ICER0_ICE_USB;
1924:bluetooth_rxtx.c **** 		enqueue(LE_PACKET, (uint8_t *)packet);
1925:bluetooth_rxtx.c **** 		ISER0 = ISER0_ISE_USB;
1926:bluetooth_rxtx.c **** 
1927:bluetooth_rxtx.c **** 		le.last_packet = CLK100NS;
1928:bluetooth_rxtx.c **** 
1929:bluetooth_rxtx.c **** 		//JWHUR if uuuuu receive
1930:bluetooth_rxtx.c **** 		if (uuuuu == 1) {
1931:bluetooth_rxtx.c **** 			requested_mode = MODE_BT_RSSI_LE;
1932:bluetooth_rxtx.c **** 			bt_le_sync_rssi(MODE_BT_RSSI_LE);
1933:bluetooth_rxtx.c **** 		}
1934:bluetooth_rxtx.c **** 	
1935:bluetooth_rxtx.c **** 	rx_flush:
1936:bluetooth_rxtx.c **** 		// this might happen twice, but it's safe to do so
1937:bluetooth_rxtx.c **** 		cc2400_strobe(SFSON);
1938:bluetooth_rxtx.c **** 
1939:bluetooth_rxtx.c **** 		// flush any excess bytes from the SSP's buffer
1940:bluetooth_rxtx.c **** 		DIO_SSP_DMACR &= ~SSPDMACR_RXDMAE;
1941:bluetooth_rxtx.c **** 		while (SSP1SR & SSPSR_RNE) {
1942:bluetooth_rxtx.c **** 			u8 tmp = (u8)DIO_SSP_DR;
ARM GAS  /tmp/ccUrIl19.s 			page 48


1943:bluetooth_rxtx.c **** 		}
1944:bluetooth_rxtx.c **** 
1945:bluetooth_rxtx.c **** 		// timeout - FIXME this is an ugly hack
1946:bluetooth_rxtx.c **** 		u32 now = CLK100NS;
1947:bluetooth_rxtx.c **** 		if (now < le.last_packet)
1948:bluetooth_rxtx.c **** 			now += 3276800000; // handle rollover
1949:bluetooth_rxtx.c **** 		if  ( // timeout
1950:bluetooth_rxtx.c **** 			((le.link_state == LINK_CONNECTED || le.link_state == LINK_CONN_PENDING)
1951:bluetooth_rxtx.c **** 			&& (now - le.last_packet > 50000000))
1952:bluetooth_rxtx.c **** 			// jam finished
1953:bluetooth_rxtx.c **** 			|| (le_jam_count == 1)
1954:bluetooth_rxtx.c **** 			)
1955:bluetooth_rxtx.c **** 		{
1956:bluetooth_rxtx.c **** 			reset_le();
1957:bluetooth_rxtx.c **** 			le_jam_count = 0;
1958:bluetooth_rxtx.c **** 			TXLED_CLR;
1959:bluetooth_rxtx.c **** 
1960:bluetooth_rxtx.c **** 			if (jam_mode == JAM_ONCE) {
1961:bluetooth_rxtx.c **** 				jam_mode = JAM_NONE;
1962:bluetooth_rxtx.c **** 				requested_mode = MODE_IDLE;
1963:bluetooth_rxtx.c **** 				goto cleanup;
1964:bluetooth_rxtx.c **** 			}
1965:bluetooth_rxtx.c **** 
1966:bluetooth_rxtx.c **** 			// go back to promisc if the connection dies
1967:bluetooth_rxtx.c **** 			if (active_mode == MODE_BT_PROMISC_LE)
1968:bluetooth_rxtx.c **** 				goto cleanup;
1969:bluetooth_rxtx.c **** 
1970:bluetooth_rxtx.c **** 			le.link_state = LINK_LISTENING;
1971:bluetooth_rxtx.c **** 
1972:bluetooth_rxtx.c **** 			cc2400_strobe(SRFOFF);
1973:bluetooth_rxtx.c **** 			while ((cc2400_status() & FS_LOCK));
1974:bluetooth_rxtx.c **** 
1975:bluetooth_rxtx.c **** 			/* Retune */
1976:bluetooth_rxtx.c **** 			channel = le_adv_channel != 0 ? le_adv_channel : 2402;
1977:bluetooth_rxtx.c **** 			restart_jamming = 1;
1978:bluetooth_rxtx.c **** 		}
1979:bluetooth_rxtx.c **** 
1980:bluetooth_rxtx.c **** 		cc2400_set(SYNCL, le.syncl);
1981:bluetooth_rxtx.c **** 		cc2400_set(SYNCH, le.synch);
1982:bluetooth_rxtx.c **** 
1983:bluetooth_rxtx.c **** 		if (do_hop)
1984:bluetooth_rxtx.c **** 			hop();
1985:bluetooth_rxtx.c **** 
1986:bluetooth_rxtx.c **** 		//  you can jam but you keep turning off the light 
1987:bluetooth_rxtx.c **** 		if (le_jam_count > 0) {
1988:bluetooth_rxtx.c **** 			le_jam();
1989:bluetooth_rxtx.c **** 			--le_jam_count;
1990:bluetooth_rxtx.c **** 		} else {
1991:bluetooth_rxtx.c **** 			/* RX mode */
1992:bluetooth_rxtx.c **** 			dma_init_le();
1993:bluetooth_rxtx.c **** 			dio_ssp_start();
1994:bluetooth_rxtx.c **** 
1995:bluetooth_rxtx.c **** 			if (restart_jamming) {
1996:bluetooth_rxtx.c **** 				cc2400_rx_sync(rbit(le.access_address));
1997:bluetooth_rxtx.c **** 				restart_jamming = 0;
1998:bluetooth_rxtx.c **** 			} else {
1999:bluetooth_rxtx.c **** 				// wait till we're in FSLOCK before strobing RX
ARM GAS  /tmp/ccUrIl19.s 			page 49


2000:bluetooth_rxtx.c **** 				while (!(cc2400_status() & FS_LOCK));
2001:bluetooth_rxtx.c **** 				cc2400_strobe(SRX);
2002:bluetooth_rxtx.c **** 			}
2003:bluetooth_rxtx.c **** 		}
2004:bluetooth_rxtx.c **** 
2005:bluetooth_rxtx.c **** 		rx_tc = 0;
2006:bluetooth_rxtx.c **** 		rx_err = 0;
2007:bluetooth_rxtx.c **** 	}
2008:bluetooth_rxtx.c **** 
2009:bluetooth_rxtx.c **** cleanup:
2010:bluetooth_rxtx.c **** 
2011:bluetooth_rxtx.c **** 	// disable USB interrupts
2012:bluetooth_rxtx.c **** 	ICER0 = ICER0_ICE_USB;
2013:bluetooth_rxtx.c **** 
2014:bluetooth_rxtx.c **** 	// reset the radio completely
2015:bluetooth_rxtx.c **** 	cc2400_idle();
2016:bluetooth_rxtx.c **** 	dio_ssp_stop();
2017:bluetooth_rxtx.c **** 	cs_trigger_disable();
2018:bluetooth_rxtx.c **** }
2019:bluetooth_rxtx.c **** 
2020:bluetooth_rxtx.c **** //JWHUR cfo estimation tracking
2021:bluetooth_rxtx.c **** void bt_le_sync_cfo(u8 active_mode) 
2022:bluetooth_rxtx.c **** {
2023:bluetooth_rxtx.c **** 	int i;
2024:bluetooth_rxtx.c **** 	int8_t rssi;
2025:bluetooth_rxtx.c **** 	static int restart_jamming = 0;
2026:bluetooth_rxtx.c **** 	u8 cfo_buf[DMA_SIZE] = {0, };
2027:bluetooth_rxtx.c **** 
2028:bluetooth_rxtx.c **** 	modulation = MOD_BT_LOW_ENERGY;
2029:bluetooth_rxtx.c **** 	mode = active_mode;
2030:bluetooth_rxtx.c **** 
2031:bluetooth_rxtx.c **** 	le.link_state = LINK_LISTENING;
2032:bluetooth_rxtx.c **** 
2033:bluetooth_rxtx.c **** 	ISER0 = ISER0_ISE_USB;
2034:bluetooth_rxtx.c **** 	RXLED_CLR;
2035:bluetooth_rxtx.c **** 	queue_init();
2036:bluetooth_rxtx.c **** 	dio_ssp_init();
2037:bluetooth_rxtx.c **** 	dma_init_le();
2038:bluetooth_rxtx.c **** 	dio_ssp_start();
2039:bluetooth_rxtx.c **** 
2040:bluetooth_rxtx.c **** 	cc2400_rx_sync(rbit(le.access_address));
2041:bluetooth_rxtx.c **** 
2042:bluetooth_rxtx.c **** 	while (requested_mode == active_mode) {
2043:bluetooth_rxtx.c **** 		if (requested_channel != 0) {
2044:bluetooth_rxtx.c **** 			cc2400_strobe(SRFOFF);
2045:bluetooth_rxtx.c **** 			while ((cc2400_status() & FS_LOCK));
2046:bluetooth_rxtx.c **** 			cc2400_set(FSDIV, channel - 1);
2047:bluetooth_rxtx.c **** 			cc2400_strobe(SFSON);
2048:bluetooth_rxtx.c **** 			while (!(cc2400_status() & FS_LOCK));
2049:bluetooth_rxtx.c **** 			cc2400_strobe(SRX);
2050:bluetooth_rxtx.c **** 			requested_channel = 0;
2051:bluetooth_rxtx.c **** 		}
2052:bluetooth_rxtx.c **** 		RXLED_CLR;
2053:bluetooth_rxtx.c **** 		rssi_reset();
2054:bluetooth_rxtx.c **** 		while ((rx_tc == 0) && (rx_err == 0) && (do_hop == 0) && requested_mode == active_mode) ;
2055:bluetooth_rxtx.c **** 		rssi = (int8_t)(cc2400_get(RSSI) >> 8);
2056:bluetooth_rxtx.c **** 		rssi_min = rssi_max = rssi;
ARM GAS  /tmp/ccUrIl19.s 			page 50


2057:bluetooth_rxtx.c **** 
2058:bluetooth_rxtx.c **** 		if (requested_mode != active_mode) {
2059:bluetooth_rxtx.c **** 			goto cleanup;
2060:bluetooth_rxtx.c **** 		}
2061:bluetooth_rxtx.c **** 		if (rx_err) {
2062:bluetooth_rxtx.c **** 			status |= DMA_ERROR;
2063:bluetooth_rxtx.c **** 		}
2064:bluetooth_rxtx.c **** 		if (do_hop)
2065:bluetooth_rxtx.c **** 			goto rx_flush;
2066:bluetooth_rxtx.c **** 		if (!rx_tc)
2067:bluetooth_rxtx.c **** 			continue;
2068:bluetooth_rxtx.c **** 		
2069:bluetooth_rxtx.c **** 		uint32_t packet[48/4+1] = {0, };
2070:bluetooth_rxtx.c **** 		uint32_t whiten_packet[48/4+1] = {0, };
2071:bluetooth_rxtx.c **** 		u8 *p = (u8 *)packet;
2072:bluetooth_rxtx.c **** 
2073:bluetooth_rxtx.c **** 		//JWHUR buffering carrier frequency offset estimation
2074:bluetooth_rxtx.c **** 		for (i = 0; i < DMA_SIZE; i++) {
2075:bluetooth_rxtx.c **** 			cfo_buf[i] = cc2400_get_rev(FREQEST);
2076:bluetooth_rxtx.c **** 		}
2077:bluetooth_rxtx.c **** 
2078:bluetooth_rxtx.c **** 		packet[0] = le.access_address;
2079:bluetooth_rxtx.c **** 		
2080:bluetooth_rxtx.c **** 		const uint32_t *whit = whitening_word[btle_channel_index(channel-2402)];
2081:bluetooth_rxtx.c **** 		for (i=0; i<4; i+= 4) {
2082:bluetooth_rxtx.c **** 			uint32_t v = rxbuf1[i+0] << 24
2083:bluetooth_rxtx.c **** 					   | rxbuf1[i+1] << 16
2084:bluetooth_rxtx.c **** 					   | rxbuf1[i+2] << 8
2085:bluetooth_rxtx.c **** 					   | rxbuf1[i+3] << 0;
2086:bluetooth_rxtx.c **** 			packet[i/4+1] = rbit(v) ^ whit[i/4];
2087:bluetooth_rxtx.c **** 			whiten_packet[i/4+1] = rbit(v);
2088:bluetooth_rxtx.c **** 		}
2089:bluetooth_rxtx.c **** 
2090:bluetooth_rxtx.c **** 		unsigned len = (p[5] & 0x3f) + 2;
2091:bluetooth_rxtx.c **** 		cfo_buf[DMA_SIZE - 1] = p[5];
2092:bluetooth_rxtx.c **** 
2093:bluetooth_rxtx.c **** 		if (len > 39)
2094:bluetooth_rxtx.c **** 			goto rx_flush;
2095:bluetooth_rxtx.c **** 
2096:bluetooth_rxtx.c **** 		unsigned total_transfers = ((len + 3) + 4 - 1) / 4;
2097:bluetooth_rxtx.c **** 		if (total_transfers < 11) {
2098:bluetooth_rxtx.c **** 			while (DMACC0DestAddr < (uint32_t)rxbuf1 + 4 * total_transfers && rx_err == 0) ;
2099:bluetooth_rxtx.c **** 		} else { while (DMACC0Config & DMACCxConfig_E && rx_err == 0) ;
2100:bluetooth_rxtx.c **** 		}
2101:bluetooth_rxtx.c **** 
2102:bluetooth_rxtx.c **** 		DIO_SSP_DMACR &= ~SSPDMACR_RXDMAE;
2103:bluetooth_rxtx.c **** 		cc2400_strobe(SFSON);
2104:bluetooth_rxtx.c **** 
2105:bluetooth_rxtx.c **** 		for (i=4; i<44; i+=4) {
2106:bluetooth_rxtx.c **** 			uint32_t v = rxbuf1[i+0] << 24
2107:bluetooth_rxtx.c **** 					   | rxbuf1[i+1] << 16
2108:bluetooth_rxtx.c **** 					   | rxbuf1[i+2] << 8
2109:bluetooth_rxtx.c **** 					   | rxbuf1[i+3] << 0;
2110:bluetooth_rxtx.c **** 			packet[i/4+1] = rbit(v) ^ whit[i/4];
2111:bluetooth_rxtx.c **** 			whiten_packet[i/4+1] = rbit(v);
2112:bluetooth_rxtx.c **** 		}
2113:bluetooth_rxtx.c **** 
ARM GAS  /tmp/ccUrIl19.s 			page 51


2114:bluetooth_rxtx.c **** 		if (le.crc_verify) {
2115:bluetooth_rxtx.c **** 			u32 calc_crc = btle_crcgen_lut(le.crc_init_reversed, p + 4, len);
2116:bluetooth_rxtx.c **** 			u32 wire_crc = (p[4+len+2] << 16)
2117:bluetooth_rxtx.c **** 						 | (p[4+len+1] << 8)
2118:bluetooth_rxtx.c **** 						 | (p[4+len+0] << 0);
2119:bluetooth_rxtx.c **** 			if (calc_crc != wire_crc)
2120:bluetooth_rxtx.c **** 				goto rx_flush;
2121:bluetooth_rxtx.c **** 		}
2122:bluetooth_rxtx.c **** 
2123:bluetooth_rxtx.c **** 		RXLED_SET;
2124:bluetooth_rxtx.c **** 		packet_cb((uint8_t *)packet);
2125:bluetooth_rxtx.c **** 
2126:bluetooth_rxtx.c **** 		ICER0 = ICER0_ICE_USB;
2127:bluetooth_rxtx.c **** 		if (p[10] == 0x55 && p[11] == 0xec) {
2128:bluetooth_rxtx.c **** 			enqueue(LE_PACKET, (uint8_t *)packet);
2129:bluetooth_rxtx.c **** 			enqueue(CFO_TRACK, (uint8_t *)cfo_buf);
2130:bluetooth_rxtx.c **** 			//enqueue(MESSAGE, (uint8_t *)whiten_packet);
2131:bluetooth_rxtx.c **** 		}
2132:bluetooth_rxtx.c **** 		ISER0 = ISER0_ISE_USB;
2133:bluetooth_rxtx.c **** 
2134:bluetooth_rxtx.c **** 		le.last_packet = CLK100NS;
2135:bluetooth_rxtx.c **** 
2136:bluetooth_rxtx.c **** 	rx_flush:
2137:bluetooth_rxtx.c **** 		cc2400_strobe(SFSON);
2138:bluetooth_rxtx.c **** 		DIO_SSP_DMACR &= ~SSPDMACR_RXDMAE;
2139:bluetooth_rxtx.c **** 		while (SSP1SR & SSPSR_RNE) {
2140:bluetooth_rxtx.c **** 			u8 tmp = (u8) DIO_SSP_DR;
2141:bluetooth_rxtx.c **** 		}
2142:bluetooth_rxtx.c **** 		u32 now = CLK100NS;
2143:bluetooth_rxtx.c **** 		if (now <le.last_packet)
2144:bluetooth_rxtx.c **** 			now += 3276800000;
2145:bluetooth_rxtx.c **** 		if ( ((le.link_state == LINK_CONNECTED || le.link_state == LINK_CONN_PENDING) && (now - le.last_p
2146:bluetooth_rxtx.c **** 			reset_le();
2147:bluetooth_rxtx.c **** 			le_jam_count = 0;
2148:bluetooth_rxtx.c **** 			TXLED_CLR;
2149:bluetooth_rxtx.c **** 			if (jam_mode == JAM_ONCE) {
2150:bluetooth_rxtx.c **** 				jam_mode = JAM_NONE;
2151:bluetooth_rxtx.c **** 				requested_mode = MODE_IDLE;
2152:bluetooth_rxtx.c **** 				goto cleanup;
2153:bluetooth_rxtx.c **** 			}
2154:bluetooth_rxtx.c **** 			le.link_state = LINK_LISTENING;
2155:bluetooth_rxtx.c **** 			cc2400_strobe(SRFOFF);
2156:bluetooth_rxtx.c **** 			while ((cc2400_status() & FS_LOCK));
2157:bluetooth_rxtx.c **** 
2158:bluetooth_rxtx.c **** 			channel = le_adv_channel != 0 ? le_adv_channel : 2402;
2159:bluetooth_rxtx.c **** 			restart_jamming = 1;
2160:bluetooth_rxtx.c **** 		}
2161:bluetooth_rxtx.c **** 
2162:bluetooth_rxtx.c **** 		cc2400_set(SYNCL, le.syncl);
2163:bluetooth_rxtx.c **** 		cc2400_set(SYNCH, le.synch);
2164:bluetooth_rxtx.c **** 
2165:bluetooth_rxtx.c **** 		if (do_hop)
2166:bluetooth_rxtx.c **** 			hop();
2167:bluetooth_rxtx.c **** 		if (le_jam_count > 0) {
2168:bluetooth_rxtx.c **** 			le_jam();
2169:bluetooth_rxtx.c **** 			--le_jam_count;
2170:bluetooth_rxtx.c **** 		} else {
ARM GAS  /tmp/ccUrIl19.s 			page 52


2171:bluetooth_rxtx.c **** 			dma_init_le();
2172:bluetooth_rxtx.c **** 			dio_ssp_start();
2173:bluetooth_rxtx.c **** 
2174:bluetooth_rxtx.c **** 			if (restart_jamming) {
2175:bluetooth_rxtx.c **** 				cc2400_rx_sync(rbit(le.access_address));
2176:bluetooth_rxtx.c **** 				restart_jamming = 0;
2177:bluetooth_rxtx.c **** 			} else {
2178:bluetooth_rxtx.c **** 				while (!(cc2400_status() & FS_LOCK));
2179:bluetooth_rxtx.c **** 				cc2400_strobe(SRX);
2180:bluetooth_rxtx.c **** 			}
2181:bluetooth_rxtx.c **** 		}
2182:bluetooth_rxtx.c **** 		rx_tc = 0;
2183:bluetooth_rxtx.c **** 		rx_err = 0;
2184:bluetooth_rxtx.c **** 
2185:bluetooth_rxtx.c **** 	}
2186:bluetooth_rxtx.c **** 	goto cleanup;
2187:bluetooth_rxtx.c **** 
2188:bluetooth_rxtx.c **** cleanup:
2189:bluetooth_rxtx.c **** 	ICER0 = ICER0_ICE_USB;
2190:bluetooth_rxtx.c **** 	cc2400_idle();
2191:bluetooth_rxtx.c **** 	dio_ssp_stop ();
2192:bluetooth_rxtx.c **** 	cs_trigger_disable();
2193:bluetooth_rxtx.c **** }
2194:bluetooth_rxtx.c **** 
2195:bluetooth_rxtx.c **** /* low energy connection following
2196:bluetooth_rxtx.c ****  * follows a known AA around */
2197:bluetooth_rxtx.c **** int cb_follow_le() {
 630              		.loc 1 2197 0
 631              		.cfi_startproc
 632              		@ args = 0, pretend = 0, frame = 0
 633              		@ frame_needed = 0, uses_anonymous_args = 0
 634 0000 2DE9F843 		push	{r3, r4, r5, r6, r7, r8, r9, lr}
 635              		.cfi_def_cfa_offset 32
 636              		.cfi_offset 3, -32
 637              		.cfi_offset 4, -28
 638              		.cfi_offset 5, -24
 639              		.cfi_offset 6, -20
 640              		.cfi_offset 7, -16
 641              		.cfi_offset 8, -12
 642              		.cfi_offset 9, -8
 643              		.cfi_offset 14, -4
2198:bluetooth_rxtx.c **** 	int i, j, k;
2199:bluetooth_rxtx.c **** 	int idx = whitening_index[btle_channel_index(channel-2402)];
 644              		.loc 1 2199 0
 645 0004 394C     		ldr	r4, .L67
 646 0006 2088     		ldrh	r0, [r4]
 647 0008 2646     		mov	r6, r4
 648 000a 80B2     		uxth	r0, r0
 649 000c 6238     		subs	r0, r0, #98
 650 000e C0B2     		uxtb	r0, r0
 651 0010 FFF7FEFF 		bl	btle_channel_index
 652              	.LVL57:
 653 0014 3649     		ldr	r1, .L67+4
2200:bluetooth_rxtx.c **** 
2201:bluetooth_rxtx.c **** 	u32 access_address = 0;
 654              		.loc 1 2201 0
 655 0016 0022     		movs	r2, #0
ARM GAS  /tmp/ccUrIl19.s 			page 53


2199:bluetooth_rxtx.c **** 
 656              		.loc 1 2199 0
 657 0018 0D5C     		ldrb	r5, [r1, r0]	@ zero_extendqisi2
 658              	.LVL58:
2202:bluetooth_rxtx.c **** 	for (i = 0; i < 31; ++i) {
 659              		.loc 1 2202 0
 660 001a 1346     		mov	r3, r2
 661 001c 8C46     		mov	ip, r1
 662              	.LVL59:
 663              	.L48:
2203:bluetooth_rxtx.c **** 		access_address >>= 1;
2204:bluetooth_rxtx.c **** 		access_address |= (unpacked[i] << 31);
 664              		.loc 1 2204 0 discriminator 2
 665 001e 354F     		ldr	r7, .L67+8
 666 0020 D95D     		ldrb	r1, [r3, r7]	@ zero_extendqisi2
2202:bluetooth_rxtx.c **** 	for (i = 0; i < 31; ++i) {
 667              		.loc 1 2202 0 discriminator 2
 668 0022 0133     		adds	r3, r3, #1
 669              	.LVL60:
 670              		.loc 1 2204 0 discriminator 2
 671 0024 C907     		lsls	r1, r1, #31
2202:bluetooth_rxtx.c **** 	for (i = 0; i < 31; ++i) {
 672              		.loc 1 2202 0 discriminator 2
 673 0026 1F2B     		cmp	r3, #31
 674              		.loc 1 2204 0 discriminator 2
 675 0028 41EA5202 		orr	r2, r1, r2, lsr #1
 676              	.LVL61:
2202:bluetooth_rxtx.c **** 	for (i = 0; i < 31; ++i) {
 677              		.loc 1 2202 0 discriminator 2
 678 002c F7D1     		bne	.L48
2205:bluetooth_rxtx.c **** 	}
2206:bluetooth_rxtx.c **** 
2207:bluetooth_rxtx.c **** 	for (i = 31; i < DMA_SIZE * 8 + 32; i++) {
2208:bluetooth_rxtx.c **** 		access_address >>= 1;
2209:bluetooth_rxtx.c **** 		access_address |= (unpacked[i] << 31);
2210:bluetooth_rxtx.c **** 		if (access_address == le.access_address) {
 679              		.loc 1 2210 0
 680 002e 7168     		ldr	r1, [r6, #4]
 681              	.L60:
 682              	.LVL62:
2209:bluetooth_rxtx.c **** 		if (access_address == le.access_address) {
 683              		.loc 1 2209 0
 684 0030 F85C     		ldrb	r0, [r7, r3]	@ zero_extendqisi2
 685 0032 C007     		lsls	r0, r0, #31
 686 0034 40EA5202 		orr	r2, r0, r2, lsr #1
 687              	.LVL63:
 688              		.loc 1 2210 0
 689 0038 8A42     		cmp	r2, r1
 690 003a 4FD1     		bne	.L49
 691 003c 0022     		movs	r2, #0
 692              	.LVL64:
 693              	.L50:
 694 003e 07EB0308 		add	r8, r7, r3
2202:bluetooth_rxtx.c **** 		access_address >>= 1;
 695              		.loc 1 2202 0 discriminator 1
 696 0042 0020     		movs	r0, #0
 697 0044 08EBC208 		add	r8, r8, r2, lsl #3
ARM GAS  /tmp/ccUrIl19.s 			page 54


 698 0048 0146     		mov	r1, r0
 699              	.LVL65:
 700              	.L55:
 701 004a 08EB0104 		add	r4, r8, r1
 702              	.LBB6:
 703              	.LBB7:
2211:bluetooth_rxtx.c **** 			for (j = 0; j < 46; ++j) {
2212:bluetooth_rxtx.c **** 				u8 byte = 0;
2213:bluetooth_rxtx.c **** 				for (k = 0; k < 8; k++) {
2214:bluetooth_rxtx.c **** 					int offset = k + (j * 8) + i - 31;
2215:bluetooth_rxtx.c **** 					if (offset >= DMA_SIZE*8*2) break;
2216:bluetooth_rxtx.c **** 					int bit = unpacked[offset];
2217:bluetooth_rxtx.c **** 					if (j >= 4) { // unwhiten data bytes
 704              		.loc 1 2217 0
 705 004e 032A     		cmp	r2, #3
2216:bluetooth_rxtx.c **** 					if (j >= 4) { // unwhiten data bytes
 706              		.loc 1 2216 0
 707 0050 14F81F4C 		ldrb	r4, [r4, #-31]	@ zero_extendqisi2
 708              	.LVL66:
 709              		.loc 1 2217 0
 710 0054 0CDD     		ble	.L52
2218:bluetooth_rxtx.c **** 						bit ^= whitening[idx];
 711              		.loc 1 2218 0
 712 0056 0CEB050E 		add	lr, ip, r5
 713 005a 9EF828E0 		ldrb	lr, [lr, #40]	@ zero_extendqisi2
2219:bluetooth_rxtx.c **** 						idx = (idx + 1) % sizeof(whitening);
 714              		.loc 1 2219 0
 715 005e 0135     		adds	r5, r5, #1
 716              	.LVL67:
2218:bluetooth_rxtx.c **** 						bit ^= whitening[idx];
 717              		.loc 1 2218 0
 718 0060 84EA0E04 		eor	r4, r4, lr
 719              	.LVL68:
 720              		.loc 1 2219 0
 721 0064 4FF07F0E 		mov	lr, #127
 722 0068 B5FBFEF9 		udiv	r9, r5, lr
 723 006c 0EFB1955 		mls	r5, lr, r9, r5
 724              	.LVL69:
 725              	.L52:
2220:bluetooth_rxtx.c **** 					}
2221:bluetooth_rxtx.c **** 					byte |= bit << k;
 726              		.loc 1 2221 0
 727 0070 8C40     		lsls	r4, r4, r1
 728              	.LVL70:
 729              	.LBE7:
2213:bluetooth_rxtx.c **** 					int offset = k + (j * 8) + i - 31;
 730              		.loc 1 2213 0
 731 0072 0131     		adds	r1, r1, #1
 732              	.LVL71:
 733              	.LBB8:
 734              		.loc 1 2221 0
 735 0074 2043     		orrs	r0, r0, r4
 736              	.LVL72:
 737              	.LBE8:
2213:bluetooth_rxtx.c **** 					int offset = k + (j * 8) + i - 31;
 738              		.loc 1 2213 0
 739 0076 0829     		cmp	r1, #8
ARM GAS  /tmp/ccUrIl19.s 			page 55


 740              	.LBB9:
 741              		.loc 1 2221 0
 742 0078 C0B2     		uxtb	r0, r0
 743              	.LVL73:
 744              	.LBE9:
2213:bluetooth_rxtx.c **** 					int offset = k + (j * 8) + i - 31;
 745              		.loc 1 2213 0
 746 007a E6D1     		bne	.L55
2222:bluetooth_rxtx.c **** 				}
2223:bluetooth_rxtx.c **** 				idle_rxbuf[j] = byte;
 747              		.loc 1 2223 0
 748 007c 1E4C     		ldr	r4, .L67+12
 749 007e 2168     		ldr	r1, [r4]
 750              	.LVL74:
 751 0080 8854     		strb	r0, [r1, r2]
 752              	.LBE6:
2211:bluetooth_rxtx.c **** 				u8 byte = 0;
 753              		.loc 1 2211 0
 754 0082 0132     		adds	r2, r2, #1
 755              	.LVL75:
 756 0084 2E2A     		cmp	r2, #46
 757 0086 DAD1     		bne	.L50
2224:bluetooth_rxtx.c **** 			}
2225:bluetooth_rxtx.c **** 
2226:bluetooth_rxtx.c **** 			// verify CRC
2227:bluetooth_rxtx.c **** 			if (le.crc_verify) {
 758              		.loc 1 2227 0
 759 0088 7369     		ldr	r3, [r6, #20]
 760              	.LVL76:
 761 008a 5BB9     		cbnz	r3, .L56
 762              	.LVL77:
 763              	.L58:
2228:bluetooth_rxtx.c **** 				int len		 = (idle_rxbuf[5] & 0x3f) + 2;
2229:bluetooth_rxtx.c **** 				u32 calc_crc = btle_crcgen_lut(le.crc_init_reversed, (uint8_t*)idle_rxbuf + 4, len);
2230:bluetooth_rxtx.c **** 				u32 wire_crc = (idle_rxbuf[4+len+2] << 16)
2231:bluetooth_rxtx.c **** 							 | (idle_rxbuf[4+len+1] << 8)
2232:bluetooth_rxtx.c **** 							 |  idle_rxbuf[4+len+0];
2233:bluetooth_rxtx.c **** 				if (calc_crc != wire_crc) // skip packets with a bad CRC
2234:bluetooth_rxtx.c **** 					break;
2235:bluetooth_rxtx.c **** 			}
2236:bluetooth_rxtx.c **** 
2237:bluetooth_rxtx.c **** 			// send to PC
2238:bluetooth_rxtx.c **** 			enqueue(LE_PACKET, (uint8_t*)idle_rxbuf);
 764              		.loc 1 2238 0
 765 008c 2168     		ldr	r1, [r4]
 766 008e 0120     		movs	r0, #1
 767 0090 FFF7FEFF 		bl	enqueue
 768              	.LVL78:
2239:bluetooth_rxtx.c **** 			RXLED_SET;
 769              		.loc 1 2239 0
 770 0094 194B     		ldr	r3, .L67+16
 771 0096 1022     		movs	r2, #16
 772 0098 1A60     		str	r2, [r3]
2240:bluetooth_rxtx.c **** 
2241:bluetooth_rxtx.c **** 			packet_cb((uint8_t*)idle_rxbuf);
 773              		.loc 1 2241 0
 774 009a 194B     		ldr	r3, .L67+20
ARM GAS  /tmp/ccUrIl19.s 			page 56


 775 009c 2068     		ldr	r0, [r4]
 776 009e 9B69     		ldr	r3, [r3, #24]
 777 00a0 9847     		blx	r3
 778              	.LVL79:
2242:bluetooth_rxtx.c **** 
2243:bluetooth_rxtx.c **** 			break;
 779              		.loc 1 2243 0
 780 00a2 1FE0     		b	.L57
 781              	.LVL80:
 782              	.L56:
 783              	.LBB10:
2228:bluetooth_rxtx.c **** 				u32 calc_crc = btle_crcgen_lut(le.crc_init_reversed, (uint8_t*)idle_rxbuf + 4, len);
 784              		.loc 1 2228 0
 785 00a4 2368     		ldr	r3, [r4]
 786 00a6 5D79     		ldrb	r5, [r3, #5]	@ zero_extendqisi2
 787              	.LVL81:
2229:bluetooth_rxtx.c **** 				u32 wire_crc = (idle_rxbuf[4+len+2] << 16)
 788              		.loc 1 2229 0
 789 00a8 104B     		ldr	r3, .L67
 790 00aa 2168     		ldr	r1, [r4]
2228:bluetooth_rxtx.c **** 				u32 calc_crc = btle_crcgen_lut(le.crc_init_reversed, (uint8_t*)idle_rxbuf + 4, len);
 791              		.loc 1 2228 0
 792 00ac 05F03F05 		and	r5, r5, #63
 793              	.LVL82:
2229:bluetooth_rxtx.c **** 				u32 wire_crc = (idle_rxbuf[4+len+2] << 16)
 794              		.loc 1 2229 0
 795 00b0 AA1C     		adds	r2, r5, #2
 796              	.LVL83:
 797 00b2 1869     		ldr	r0, [r3, #16]
 798              	.LVL84:
 799 00b4 0431     		adds	r1, r1, #4
 800 00b6 FFF7FEFF 		bl	btle_crcgen_lut
 801              	.LVL85:
2230:bluetooth_rxtx.c **** 							 | (idle_rxbuf[4+len+1] << 8)
 802              		.loc 1 2230 0
 803 00ba 2268     		ldr	r2, [r4]
 804 00bc 05F10803 		add	r3, r5, #8
 805 00c0 D15C     		ldrb	r1, [r2, r3]	@ zero_extendqisi2
2231:bluetooth_rxtx.c **** 							 |  idle_rxbuf[4+len+0];
 806              		.loc 1 2231 0
 807 00c2 2268     		ldr	r2, [r4]
 808 00c4 EB1D     		adds	r3, r5, #7
 809 00c6 D35C     		ldrb	r3, [r2, r3]	@ zero_extendqisi2
2232:bluetooth_rxtx.c **** 				if (calc_crc != wire_crc) // skip packets with a bad CRC
 810              		.loc 1 2232 0
 811 00c8 2268     		ldr	r2, [r4]
 812 00ca 0635     		adds	r5, r5, #6
 813              	.LVL86:
 814 00cc 525D     		ldrb	r2, [r2, r5]	@ zero_extendqisi2
 815              	.LVL87:
2231:bluetooth_rxtx.c **** 							 |  idle_rxbuf[4+len+0];
 816              		.loc 1 2231 0
 817 00ce 1B02     		lsls	r3, r3, #8
 818              	.LVL88:
 819 00d0 43EA0143 		orr	r3, r3, r1, lsl #16
2232:bluetooth_rxtx.c **** 				if (calc_crc != wire_crc) // skip packets with a bad CRC
 820              		.loc 1 2232 0
ARM GAS  /tmp/ccUrIl19.s 			page 57


 821 00d4 1343     		orrs	r3, r3, r2
2233:bluetooth_rxtx.c **** 					break;
 822              		.loc 1 2233 0
 823 00d6 9842     		cmp	r0, r3
 824 00d8 04D1     		bne	.L57
 825 00da D7E7     		b	.L58
 826              	.LVL89:
 827              	.L49:
 828              	.LBE10:
2207:bluetooth_rxtx.c **** 		access_address >>= 1;
 829              		.loc 1 2207 0
 830 00dc 0133     		adds	r3, r3, #1
 831              	.LVL90:
 832 00de B3F5D87F 		cmp	r3, #432
 833 00e2 A5D1     		bne	.L60
 834              	.LVL91:
 835              	.L57:
2244:bluetooth_rxtx.c **** 		}
2245:bluetooth_rxtx.c **** 	}
2246:bluetooth_rxtx.c **** 
2247:bluetooth_rxtx.c **** 	return 1;
2248:bluetooth_rxtx.c **** }
 836              		.loc 1 2248 0
 837 00e4 0120     		movs	r0, #1
 838 00e6 BDE8F883 		pop	{r3, r4, r5, r6, r7, r8, r9, pc}
 839              	.L68:
 840 00ea 00BF     		.align	2
 841              	.L67:
 842 00ec 00000000 		.word	.LANCHOR1
 843 00f0 00000000 		.word	.LANCHOR2
 844 00f4 00000000 		.word	unpacked
 845 00f8 00000000 		.word	idle_rxbuf
 846 00fc 38C00920 		.word	537509944
 847 0100 00000000 		.word	.LANCHOR0
 848              		.cfi_endproc
 849              	.LFE26:
 851              		.section	.text.connection_follow_cb,"ax",%progbits
 852              		.align	1
 853              		.global	connection_follow_cb
 854              		.thumb
 855              		.thumb_func
 857              	connection_follow_cb:
 858              	.LFB27:
2249:bluetooth_rxtx.c **** 
2250:bluetooth_rxtx.c **** /**
2251:bluetooth_rxtx.c ****  * Called when we receive a packet in connection following mode.
2252:bluetooth_rxtx.c ****  */
2253:bluetooth_rxtx.c **** void connection_follow_cb(u8 *packet) {
 859              		.loc 1 2253 0
 860              		.cfi_startproc
 861              		@ args = 0, pretend = 0, frame = 0
 862              		@ frame_needed = 0, uses_anonymous_args = 0
 863              	.LVL92:
 864 0000 38B5     		push	{r3, r4, r5, lr}
 865              		.cfi_def_cfa_offset 16
 866              		.cfi_offset 3, -16
 867              		.cfi_offset 4, -12
ARM GAS  /tmp/ccUrIl19.s 			page 58


 868              		.cfi_offset 5, -8
 869              		.cfi_offset 14, -4
 870              	.LVL93:
2254:bluetooth_rxtx.c **** 	int i;
2255:bluetooth_rxtx.c **** 	u32 aa = 0;
2256:bluetooth_rxtx.c **** 
2257:bluetooth_rxtx.c **** #define ADV_ADDRESS_IDX 0
2258:bluetooth_rxtx.c **** #define HEADER_IDX 4
2259:bluetooth_rxtx.c **** #define DATA_LEN_IDX 5
2260:bluetooth_rxtx.c **** #define DATA_START_IDX 6
2261:bluetooth_rxtx.c **** 
2262:bluetooth_rxtx.c **** 	// u8 *adv_addr = &packet[ADV_ADDRESS_IDX];
2263:bluetooth_rxtx.c **** 	u8 header = packet[HEADER_IDX];
2264:bluetooth_rxtx.c **** 	u8 *data_len = &packet[DATA_LEN_IDX];
2265:bluetooth_rxtx.c **** 	u8 *data = &packet[DATA_START_IDX];
2266:bluetooth_rxtx.c **** 	// u8 *crc = &packet[DATA_START_IDX + *data_len];
2267:bluetooth_rxtx.c **** 
2268:bluetooth_rxtx.c **** 	if (le.link_state == LINK_CONN_PENDING) {
 871              		.loc 1 2268 0
 872 0002 584B     		ldr	r3, .L87
2253:bluetooth_rxtx.c **** 	int i;
 873              		.loc 1 2253 0
 874 0004 0546     		mov	r5, r0
 875              		.loc 1 2268 0
 876 0006 1A7E     		ldrb	r2, [r3, #24]	@ zero_extendqisi2
2263:bluetooth_rxtx.c **** 	u8 *data_len = &packet[DATA_LEN_IDX];
 877              		.loc 1 2263 0
 878 0008 0179     		ldrb	r1, [r0, #4]	@ zero_extendqisi2
 879              	.LVL94:
 880              		.loc 1 2268 0
 881 000a 022A     		cmp	r2, #2
 882 000c 1C46     		mov	r4, r3
 883 000e 13D1     		bne	.L70
2269:bluetooth_rxtx.c **** 		// We received a packet in the connection pending state, so now the device *should* be connected
2270:bluetooth_rxtx.c **** 		le.link_state = LINK_CONNECTED;
 884              		.loc 1 2270 0
 885 0010 0322     		movs	r2, #3
 886 0012 1A76     		strb	r2, [r3, #24]
 887              	.LVL95:
2271:bluetooth_rxtx.c **** 		le.conn_epoch = clkn;
 888              		.loc 1 2271 0
 889 0014 544A     		ldr	r2, .L87+4
 890 0016 1268     		ldr	r2, [r2]
 891 0018 DA61     		str	r2, [r3, #28]
2272:bluetooth_rxtx.c **** 		le.interval_timer = le.conn_interval - 1;
 892              		.loc 1 2272 0
 893 001a 5A8C     		ldrh	r2, [r3, #34]
 894 001c 013A     		subs	r2, r2, #1
 895 001e 92B2     		uxth	r2, r2
 896 0020 1A84     		strh	r2, [r3, #32]	@ movhi
2273:bluetooth_rxtx.c **** 		le.conn_count = 0;
 897              		.loc 1 2273 0
 898 0022 0022     		movs	r2, #0
 899 0024 9A84     		strh	r2, [r3, #36]	@ movhi
2274:bluetooth_rxtx.c **** 		le.update_pending = 0;
 900              		.loc 1 2274 0
 901 0026 DA62     		str	r2, [r3, #44]
ARM GAS  /tmp/ccUrIl19.s 			page 59


2275:bluetooth_rxtx.c **** 
2276:bluetooth_rxtx.c **** 		// hue hue hue
2277:bluetooth_rxtx.c **** 		if (jam_mode != JAM_NONE)
 902              		.loc 1 2277 0
 903 0028 504B     		ldr	r3, .L87+8
 904 002a DA7C     		ldrb	r2, [r3, #19]	@ zero_extendqisi2
 905 002c 002A     		cmp	r2, #0
 906 002e 00F09880 		beq	.L69
2278:bluetooth_rxtx.c **** 			le_jam_count = JAM_COUNT_DEFAULT;
 907              		.loc 1 2278 0
 908 0032 2822     		movs	r2, #40
 909 0034 DA61     		str	r2, [r3, #28]
 910 0036 38BD     		pop	{r3, r4, r5, pc}
 911              	.LVL96:
 912              	.L70:
2279:bluetooth_rxtx.c **** 
2280:bluetooth_rxtx.c **** 	} else if (le.link_state == LINK_CONNECTED) {
 913              		.loc 1 2280 0
 914 0038 032A     		cmp	r2, #3
 915 003a 3BD1     		bne	.L73
 916              	.LBB11:
2281:bluetooth_rxtx.c **** 		u8 llid =  header & 0x03;
2282:bluetooth_rxtx.c **** 
2283:bluetooth_rxtx.c **** 		// Apply any connection parameter update if necessary
2284:bluetooth_rxtx.c **** 		if (le.update_pending && le.conn_count == le.update_instant) {
 917              		.loc 1 2284 0
 918 003c DB6A     		ldr	r3, [r3, #44]
2281:bluetooth_rxtx.c **** 		u8 llid =  header & 0x03;
 919              		.loc 1 2281 0
 920 003e 01F00301 		and	r1, r1, #3
 921              	.LVL97:
 922              		.loc 1 2284 0
 923 0042 A3B1     		cbz	r3, .L74
 924              		.loc 1 2284 0 is_stmt 0 discriminator 1
 925 0044 A38C     		ldrh	r3, [r4, #36]
 926 0046 228E     		ldrh	r2, [r4, #48]
 927 0048 9BB2     		uxth	r3, r3
 928 004a 9A42     		cmp	r2, r3
 929 004c 0FD1     		bne	.L74
2285:bluetooth_rxtx.c **** 			// This is the first packet received in the connection interval for which the new parameters app
2286:bluetooth_rxtx.c **** 			le.conn_epoch = clkn;
 930              		.loc 1 2286 0 is_stmt 1
 931 004e 464B     		ldr	r3, .L87+4
 932 0050 1B68     		ldr	r3, [r3]
 933 0052 E361     		str	r3, [r4, #28]
 934              	.LVL98:
2287:bluetooth_rxtx.c **** 			le.conn_interval = le.interval_update;
 935              		.loc 1 2287 0
 936 0054 638E     		ldrh	r3, [r4, #50]
 937 0056 6384     		strh	r3, [r4, #34]	@ movhi
2288:bluetooth_rxtx.c **** 			le.interval_timer = le.interval_update - 1;
 938              		.loc 1 2288 0
 939 0058 013B     		subs	r3, r3, #1
 940 005a 9BB2     		uxth	r3, r3
 941 005c 2384     		strh	r3, [r4, #32]	@ movhi
2289:bluetooth_rxtx.c **** 			le.win_size = le.win_size_update;
 942              		.loc 1 2289 0
ARM GAS  /tmp/ccUrIl19.s 			page 60


 943 005e 94F83430 		ldrb	r3, [r4, #52]	@ zero_extendqisi2
 944 0062 84F82630 		strb	r3, [r4, #38]
2290:bluetooth_rxtx.c **** 			le.win_offset = le.win_offset_update;
 945              		.loc 1 2290 0
 946 0066 E38E     		ldrh	r3, [r4, #54]
 947 0068 2385     		strh	r3, [r4, #40]	@ movhi
2291:bluetooth_rxtx.c **** 			le.update_pending = 0;
 948              		.loc 1 2291 0
 949 006a 0023     		movs	r3, #0
 950 006c E362     		str	r3, [r4, #44]
 951              	.L74:
2292:bluetooth_rxtx.c **** 		}
2293:bluetooth_rxtx.c **** 
2294:bluetooth_rxtx.c **** 		if (llid == 0x03 && data[0] == 0x00) {
 952              		.loc 1 2294 0
 953 006e 0329     		cmp	r1, #3
 954 0070 77D1     		bne	.L69
 955              		.loc 1 2294 0 is_stmt 0 discriminator 1
 956 0072 AB79     		ldrb	r3, [r5, #6]	@ zero_extendqisi2
 957 0074 002B     		cmp	r3, #0
 958 0076 74D1     		bne	.L69
2295:bluetooth_rxtx.c **** 			// This is a CONNECTION_UPDATE_REQ.
2296:bluetooth_rxtx.c **** 			// The host is changing the connection parameters.
2297:bluetooth_rxtx.c **** 			le.win_size_update = packet[7];
 959              		.loc 1 2297 0 is_stmt 1
 960 0078 EB79     		ldrb	r3, [r5, #7]	@ zero_extendqisi2
 961 007a 84F83430 		strb	r3, [r4, #52]
2298:bluetooth_rxtx.c **** 			le.win_offset_update = packet[8] + ((u16)packet[9] << 8);
 962              		.loc 1 2298 0
 963 007e 6A7A     		ldrb	r2, [r5, #9]	@ zero_extendqisi2
 964 0080 2B7A     		ldrb	r3, [r5, #8]	@ zero_extendqisi2
 965 0082 03EB0223 		add	r3, r3, r2, lsl #8
 966 0086 E386     		strh	r3, [r4, #54]	@ movhi
2299:bluetooth_rxtx.c **** 			le.interval_update = packet[10] + ((u16)packet[11] << 8);
 967              		.loc 1 2299 0
 968 0088 EA7A     		ldrb	r2, [r5, #11]	@ zero_extendqisi2
 969 008a AB7A     		ldrb	r3, [r5, #10]	@ zero_extendqisi2
 970 008c 03EB0223 		add	r3, r3, r2, lsl #8
 971 0090 6386     		strh	r3, [r4, #50]	@ movhi
2300:bluetooth_rxtx.c **** 			le.update_instant = packet[16] + ((u16)packet[17] << 8);
 972              		.loc 1 2300 0
 973 0092 6A7C     		ldrb	r2, [r5, #17]	@ zero_extendqisi2
 974 0094 2B7C     		ldrb	r3, [r5, #16]	@ zero_extendqisi2
 975 0096 03EB0223 		add	r3, r3, r2, lsl #8
2301:bluetooth_rxtx.c **** 			if (le.update_instant - le.conn_count < 32767)
 976              		.loc 1 2301 0
 977 009a A28C     		ldrh	r2, [r4, #36]
2300:bluetooth_rxtx.c **** 			le.update_instant = packet[16] + ((u16)packet[17] << 8);
 978              		.loc 1 2300 0
 979 009c 9BB2     		uxth	r3, r3
 980              		.loc 1 2301 0
 981 009e 92B2     		uxth	r2, r2
2300:bluetooth_rxtx.c **** 			le.update_instant = packet[16] + ((u16)packet[17] << 8);
 982              		.loc 1 2300 0
 983 00a0 2386     		strh	r3, [r4, #48]	@ movhi
 984              		.loc 1 2301 0
 985 00a2 9B1A     		subs	r3, r3, r2
ARM GAS  /tmp/ccUrIl19.s 			page 61


 986 00a4 47F6FE72 		movw	r2, #32766
 987 00a8 9342     		cmp	r3, r2
 988 00aa 5ADC     		bgt	.L69
2302:bluetooth_rxtx.c **** 				le.update_pending = 1;
 989              		.loc 1 2302 0
 990 00ac 2D4B     		ldr	r3, .L87
 991 00ae 0122     		movs	r2, #1
 992 00b0 DA62     		str	r2, [r3, #44]
 993 00b2 38BD     		pop	{r3, r4, r5, pc}
 994              	.LVL99:
 995              	.L73:
 996              	.LBE11:
2303:bluetooth_rxtx.c **** 		}
2304:bluetooth_rxtx.c **** 
2305:bluetooth_rxtx.c **** 	} else if (le.link_state == LINK_LISTENING) {
 997              		.loc 1 2305 0
 998 00b4 012A     		cmp	r2, #1
 999 00b6 54D1     		bne	.L69
 1000              	.LVL100:
 1001              	.LBB12:
2306:bluetooth_rxtx.c **** 		u8 pkt_type = packet[4] & 0x0F;
2307:bluetooth_rxtx.c **** 		if (pkt_type == 0x05) {
 1002              		.loc 1 2307 0
 1003 00b8 01F00F01 		and	r1, r1, #15
 1004              	.LVL101:
 1005 00bc 0529     		cmp	r1, #5
 1006 00be 50D1     		bne	.L69
 1007              	.LBB13:
2308:bluetooth_rxtx.c **** 			uint16_t conn_interval;
2309:bluetooth_rxtx.c **** 
2310:bluetooth_rxtx.c **** 			// ignore packets with incorrect length
2311:bluetooth_rxtx.c **** 			if (*data_len != 34)
 1008              		.loc 1 2311 0
 1009 00c0 4379     		ldrb	r3, [r0, #5]	@ zero_extendqisi2
 1010 00c2 222B     		cmp	r3, #34
 1011 00c4 4DD1     		bne	.L69
 1012              	.LVL102:
2312:bluetooth_rxtx.c **** 				return;
2313:bluetooth_rxtx.c **** 
2314:bluetooth_rxtx.c **** 			// conn interval must be [7.5 ms, 4.0s] in units of 1.25 ms
2315:bluetooth_rxtx.c **** 			conn_interval = (packet[29] << 8) | packet[28];
 1013              		.loc 1 2315 0
 1014 00c6 037F     		ldrb	r3, [r0, #28]	@ zero_extendqisi2
 1015 00c8 427F     		ldrb	r2, [r0, #29]	@ zero_extendqisi2
 1016 00ca 43EA0222 		orr	r2, r3, r2, lsl #8
2316:bluetooth_rxtx.c **** 			if (conn_interval < 6 || conn_interval > 3200)
 1017              		.loc 1 2316 0
 1018 00ce 063A     		subs	r2, r2, #6
 1019 00d0 92B2     		uxth	r2, r2
 1020 00d2 40F67A43 		movw	r3, #3194
 1021 00d6 9A42     		cmp	r2, r3
 1022 00d8 43D8     		bhi	.L69
2317:bluetooth_rxtx.c **** 				return;
2318:bluetooth_rxtx.c **** 
2319:bluetooth_rxtx.c **** 			// This is a connect packet
2320:bluetooth_rxtx.c **** 			// if we have a target, see if InitA or AdvA matches
2321:bluetooth_rxtx.c **** 			if (le.target_set &&
ARM GAS  /tmp/ccUrIl19.s 			page 62


 1023              		.loc 1 2321 0
 1024 00da 236C     		ldr	r3, [r4, #64]
 1025 00dc 2BB9     		cbnz	r3, .L76
 1026              	.LVL103:
 1027              	.L78:
2322:bluetooth_rxtx.c **** 				memcmp(le.target, &packet[6], 6) &&  // Target address doesn't match Initiator.
2323:bluetooth_rxtx.c **** 				memcmp(le.target, &packet[12], 6)) {  // Target address doesn't match Advertiser.
2324:bluetooth_rxtx.c **** 				return;
2325:bluetooth_rxtx.c **** 			}
2326:bluetooth_rxtx.c **** 
2327:bluetooth_rxtx.c **** 			le.link_state = LINK_CONN_PENDING;
 1028              		.loc 1 2327 0
 1029 00de 0223     		movs	r3, #2
2328:bluetooth_rxtx.c **** 			le.crc_verify = 0; // we will drop many packets if we attempt to filter by CRC
 1030              		.loc 1 2328 0
 1031 00e0 0020     		movs	r0, #0
2327:bluetooth_rxtx.c **** 			le.crc_verify = 0; // we will drop many packets if we attempt to filter by CRC
 1032              		.loc 1 2327 0
 1033 00e2 2376     		strb	r3, [r4, #24]
 1034              		.loc 1 2328 0
 1035 00e4 6061     		str	r0, [r4, #20]
 1036              	.LVL104:
2329:bluetooth_rxtx.c **** 
2330:bluetooth_rxtx.c **** 			for (i = 0; i < 4; ++i)
 1037              		.loc 1 2330 0
 1038 00e6 0346     		mov	r3, r0
 1039 00e8 11E0     		b	.L77
 1040              	.LVL105:
 1041              	.L76:
2322:bluetooth_rxtx.c **** 				memcmp(le.target, &packet[12], 6)) {  // Target address doesn't match Advertiser.
 1042              		.loc 1 2322 0 discriminator 1
 1043 00ea 04F13800 		add	r0, r4, #56
 1044              	.LVL106:
 1045 00ee A91D     		adds	r1, r5, #6
 1046 00f0 0622     		movs	r2, #6
 1047 00f2 FFF7FEFF 		bl	memcmp
 1048              	.LVL107:
2321:bluetooth_rxtx.c **** 				memcmp(le.target, &packet[6], 6) &&  // Target address doesn't match Initiator.
 1049              		.loc 1 2321 0 discriminator 1
 1050 00f6 0028     		cmp	r0, #0
 1051 00f8 F1D0     		beq	.L78
2323:bluetooth_rxtx.c **** 				return;
 1052              		.loc 1 2323 0
 1053 00fa 04F13800 		add	r0, r4, #56
 1054 00fe 05F10C01 		add	r1, r5, #12
 1055 0102 0622     		movs	r2, #6
 1056 0104 FFF7FEFF 		bl	memcmp
 1057              	.LVL108:
2322:bluetooth_rxtx.c **** 				memcmp(le.target, &packet[12], 6)) {  // Target address doesn't match Advertiser.
 1058              		.loc 1 2322 0
 1059 0108 0028     		cmp	r0, #0
 1060 010a E8D0     		beq	.L78
 1061 010c 38BD     		pop	{r3, r4, r5, pc}
 1062              	.LVL109:
 1063              	.L77:
 1064 010e EA18     		adds	r2, r5, r3
2331:bluetooth_rxtx.c **** 				aa |= packet[18+i] << (i*8);
ARM GAS  /tmp/ccUrIl19.s 			page 63


 1065              		.loc 1 2331 0 discriminator 2
 1066 0110 917C     		ldrb	r1, [r2, #18]	@ zero_extendqisi2
 1067 0112 DA00     		lsls	r2, r3, #3
 1068 0114 01FA02F2 		lsl	r2, r1, r2
2330:bluetooth_rxtx.c **** 				aa |= packet[18+i] << (i*8);
 1069              		.loc 1 2330 0 discriminator 2
 1070 0118 0133     		adds	r3, r3, #1
 1071              	.LVL110:
 1072 011a 042B     		cmp	r3, #4
 1073              		.loc 1 2331 0 discriminator 2
 1074 011c 40EA0200 		orr	r0, r0, r2
 1075              	.LVL111:
2330:bluetooth_rxtx.c **** 				aa |= packet[18+i] << (i*8);
 1076              		.loc 1 2330 0 discriminator 2
 1077 0120 F5D1     		bne	.L77
2332:bluetooth_rxtx.c **** 			le_set_access_address(aa);
 1078              		.loc 1 2332 0
 1079 0122 FFF7FEFF 		bl	le_set_access_address
 1080              	.LVL112:
2333:bluetooth_rxtx.c **** 
2334:bluetooth_rxtx.c **** #define CRC_INIT (2+4+6+6+4)
2335:bluetooth_rxtx.c **** 			le.crc_init = (packet[CRC_INIT+2] << 16)
2336:bluetooth_rxtx.c **** 						| (packet[CRC_INIT+1] << 8)
 1081              		.loc 1 2336 0
 1082 0126 E87D     		ldrb	r0, [r5, #23]	@ zero_extendqisi2
2335:bluetooth_rxtx.c **** 						| (packet[CRC_INIT+1] << 8)
 1083              		.loc 1 2335 0
 1084 0128 2B7E     		ldrb	r3, [r5, #24]	@ zero_extendqisi2
 1085              		.loc 1 2336 0
 1086 012a 0002     		lsls	r0, r0, #8
 1087 012c 40EA0340 		orr	r0, r0, r3, lsl #16
2337:bluetooth_rxtx.c **** 						|  packet[CRC_INIT+0];
 1088              		.loc 1 2337 0
 1089 0130 AB7D     		ldrb	r3, [r5, #22]	@ zero_extendqisi2
 1090 0132 1843     		orrs	r0, r0, r3
2335:bluetooth_rxtx.c **** 						| (packet[CRC_INIT+1] << 8)
 1091              		.loc 1 2335 0
 1092 0134 E060     		str	r0, [r4, #12]
2338:bluetooth_rxtx.c **** 			le.crc_init_reversed = rbit(le.crc_init);
 1093              		.loc 1 2338 0
 1094 0136 FFF7FEFF 		bl	rbit
 1095              	.LVL113:
2339:bluetooth_rxtx.c **** 
2340:bluetooth_rxtx.c **** #define WIN_SIZE (2+4+6+6+4+3)
2341:bluetooth_rxtx.c **** 			le.win_size = packet[WIN_SIZE];
 1096              		.loc 1 2341 0
 1097 013a 6B7E     		ldrb	r3, [r5, #25]	@ zero_extendqisi2
2338:bluetooth_rxtx.c **** 			le.crc_init_reversed = rbit(le.crc_init);
 1098              		.loc 1 2338 0
 1099 013c 2061     		str	r0, [r4, #16]
 1100              		.loc 1 2341 0
 1101 013e 84F82630 		strb	r3, [r4, #38]
2342:bluetooth_rxtx.c **** 
2343:bluetooth_rxtx.c **** #define WIN_OFFSET (2+4+6+6+4+3+1)
2344:bluetooth_rxtx.c **** 			le.win_offset = packet[WIN_OFFSET];
 1102              		.loc 1 2344 0
 1103 0142 AB7E     		ldrb	r3, [r5, #26]	@ zero_extendqisi2
ARM GAS  /tmp/ccUrIl19.s 			page 64


 1104 0144 2385     		strh	r3, [r4, #40]	@ movhi
2345:bluetooth_rxtx.c **** 
2346:bluetooth_rxtx.c **** #define CONN_INTERVAL (2+4+6+6+4+3+1+2)
2347:bluetooth_rxtx.c **** 			le.conn_interval = (packet[CONN_INTERVAL+1] << 8)
 1105              		.loc 1 2347 0
 1106 0146 6A7F     		ldrb	r2, [r5, #29]	@ zero_extendqisi2
 1107 0148 2B7F     		ldrb	r3, [r5, #28]	@ zero_extendqisi2
 1108 014a 43EA0223 		orr	r3, r3, r2, lsl #8
 1109 014e 6384     		strh	r3, [r4, #34]	@ movhi
2348:bluetooth_rxtx.c **** 							 |  packet[CONN_INTERVAL+0];
2349:bluetooth_rxtx.c **** 
2350:bluetooth_rxtx.c **** #define CHANNEL_INC (2+4+6+6+4+3+1+2+2+2+2+5)
2351:bluetooth_rxtx.c **** 			le.channel_increment = packet[CHANNEL_INC] & 0x1f;
 1110              		.loc 1 2351 0
 1111 0150 95F82730 		ldrb	r3, [r5, #39]	@ zero_extendqisi2
2352:bluetooth_rxtx.c **** 			le.channel_idx = le.channel_increment;
2353:bluetooth_rxtx.c **** 
2354:bluetooth_rxtx.c **** 			// Hop to the initial channel immediately
2355:bluetooth_rxtx.c **** 			do_hop = 1;
 1112              		.loc 1 2355 0
 1113 0154 0122     		movs	r2, #1
2351:bluetooth_rxtx.c **** 			le.channel_idx = le.channel_increment;
 1114              		.loc 1 2351 0
 1115 0156 03F01F03 		and	r3, r3, #31
 1116 015a A376     		strb	r3, [r4, #26]
2352:bluetooth_rxtx.c **** 			le.channel_idx = le.channel_increment;
 1117              		.loc 1 2352 0
 1118 015c 6376     		strb	r3, [r4, #25]
 1119              		.loc 1 2355 0
 1120 015e 034B     		ldr	r3, .L87+8
 1121 0160 DA72     		strb	r2, [r3, #11]
 1122              	.L69:
 1123 0162 38BD     		pop	{r3, r4, r5, pc}
 1124              	.LVL114:
 1125              	.L88:
 1126              		.align	2
 1127              	.L87:
 1128 0164 00000000 		.word	.LANCHOR1
 1129 0168 00000000 		.word	clkn
 1130 016c 00000000 		.word	.LANCHOR0
 1131              	.LBE13:
 1132              	.LBE12:
 1133              		.cfi_endproc
 1134              	.LFE27:
 1136              		.global	__aeabi_llsl
 1137              		.section	.text.vendor_request_handler,"ax",%progbits
 1138              		.align	1
 1139              		.thumb
 1140              		.thumb_func
 1142              	vendor_request_handler:
 1143              	.LFB3:
 204:bluetooth_rxtx.c **** 	uint32_t clock;
 1144              		.loc 1 204 0
 1145              		.cfi_startproc
 1146              		@ args = 0, pretend = 0, frame = 0
 1147              		@ frame_needed = 0, uses_anonymous_args = 0
 1148              	.LVL115:
ARM GAS  /tmp/ccUrIl19.s 			page 65


 1149 0000 2DE9F041 		push	{r4, r5, r6, r7, r8, lr}
 1150              		.cfi_def_cfa_offset 24
 1151              		.cfi_offset 4, -24
 1152              		.cfi_offset 5, -20
 1153              		.cfi_offset 6, -16
 1154              		.cfi_offset 7, -12
 1155              		.cfi_offset 8, -8
 1156              		.cfi_offset 14, -4
 1157              	.LVL116:
 210:bluetooth_rxtx.c **** 
 1158              		.loc 1 210 0
 1159 0004 974C     		ldr	r4, .L244
 204:bluetooth_rxtx.c **** 	uint32_t clock;
 1160              		.loc 1 204 0
 1161 0006 1D46     		mov	r5, r3
 210:bluetooth_rxtx.c **** 
 1162              		.loc 1 210 0
 1163 0008 1B68     		ldr	r3, [r3]
 1164              	.LVL117:
 204:bluetooth_rxtx.c **** 	uint32_t clock;
 1165              		.loc 1 204 0
 1166 000a 0F46     		mov	r7, r1
 1167 000c 1646     		mov	r6, r2
 210:bluetooth_rxtx.c **** 
 1168              		.loc 1 210 0
 1169 000e 2362     		str	r3, [r4, #32]
 212:bluetooth_rxtx.c **** 
 1170              		.loc 1 212 0
 1171 0010 4828     		cmp	r0, #72
 1172 0012 00F22983 		bhi	.L204
 1173 0016 DFE810F0 		tbh	[pc, r0, lsl #1]
 1174              	.LVL118:
 1175              	.L92:
 1176 001a FF00     		.2byte	(.L221-.L92)/2
 1177 001c 4B00     		.2byte	(.L93-.L92)/2
 1178 001e 4F00     		.2byte	(.L94-.L92)/2
 1179 0020 5200     		.2byte	(.L95-.L92)/2
 1180 0022 5700     		.2byte	(.L96-.L92)/2
 1181 0024 5A00     		.2byte	(.L97-.L92)/2
 1182 0026 5F00     		.2byte	(.L98-.L92)/2
 1183 0028 6200     		.2byte	(.L99-.L92)/2
 1184 002a 6400     		.2byte	(.L100-.L92)/2
 1185 002c 6800     		.2byte	(.L101-.L92)/2
 1186 002e 6D00     		.2byte	(.L102-.L92)/2
 1187 0030 BF00     		.2byte	(.L103-.L92)/2
 1188 0032 C600     		.2byte	(.L104-.L92)/2
 1189 0034 0401     		.2byte	(.L240-.L92)/2
 1190 0036 7B00     		.2byte	(.L106-.L92)/2
 1191 0038 7600     		.2byte	(.L107-.L92)/2
 1192 003a 8000     		.2byte	(.L108-.L92)/2
 1193 003c 8500     		.2byte	(.L109-.L92)/2
 1194 003e 8800     		.2byte	(.L110-.L92)/2
 1195 0040 8D00     		.2byte	(.L111-.L92)/2
 1196 0042 9500     		.2byte	(.L112-.L92)/2
 1197 0044 B800     		.2byte	(.L113-.L92)/2
 1198 0046 BA00     		.2byte	(.L114-.L92)/2
 1199 0048 BC00     		.2byte	(.L115-.L92)/2
ARM GAS  /tmp/ccUrIl19.s 			page 66


 1200 004a FD00     		.2byte	(.L116-.L92)/2
 1201 004c 0101     		.2byte	(.L117-.L92)/2
 1202 004e 2703     		.2byte	(.L204-.L92)/2
 1203 0050 0601     		.2byte	(.L118-.L92)/2
 1204 0052 9700     		.2byte	(.L119-.L92)/2
 1205 0054 9E00     		.2byte	(.L120-.L92)/2
 1206 0056 A800     		.2byte	(.L121-.L92)/2
 1207 0058 A600     		.2byte	(.L122-.L92)/2
 1208 005a AA00     		.2byte	(.L123-.L92)/2
 1209 005c 4901     		.2byte	(.L124-.L92)/2
 1210 005e 3B01     		.2byte	(.L125-.L92)/2
 1211 0060 6601     		.2byte	(.L126-.L92)/2
 1212 0062 6901     		.2byte	(.L127-.L92)/2
 1213 0064 6D01     		.2byte	(.L128-.L92)/2
 1214 0066 7101     		.2byte	(.L129-.L92)/2
 1215 0068 A401     		.2byte	(.L130-.L92)/2
 1216 006a D901     		.2byte	(.L131-.L92)/2
 1217 006c FD01     		.2byte	(.L132-.L92)/2
 1218 006e 3D02     		.2byte	(.L133-.L92)/2
 1219 0070 5002     		.2byte	(.L134-.L92)/2
 1220 0072 5B02     		.2byte	(.L135-.L92)/2
 1221 0074 2403     		.2byte	(.L197-.L92)/2
 1222 0076 6A02     		.2byte	(.L137-.L92)/2
 1223 0078 6F02     		.2byte	(.L138-.L92)/2
 1224 007a 7502     		.2byte	(.L139-.L92)/2
 1225 007c 7C02     		.2byte	(.L140-.L92)/2
 1226 007e 8B02     		.2byte	(.L141-.L92)/2
 1227 0080 E601     		.2byte	(.L142-.L92)/2
 1228 0082 F301     		.2byte	(.L143-.L92)/2
 1229 0084 9802     		.2byte	(.L144-.L92)/2
 1230 0086 EF02     		.2byte	(.L145-.L92)/2
 1231 0088 5801     		.2byte	(.L146-.L92)/2
 1232 008a 0603     		.2byte	(.L147-.L92)/2
 1233 008c 2703     		.2byte	(.L204-.L92)/2
 1234 008e C102     		.2byte	(.L148-.L92)/2
 1235 0090 1D03     		.2byte	(.L149-.L92)/2
 1236 0092 2003     		.2byte	(.L150-.L92)/2
 1237 0094 C301     		.2byte	(.L151-.L92)/2
 1238 0096 D501     		.2byte	(.L152-.L92)/2
 1239 0098 0802     		.2byte	(.L153-.L92)/2
 1240 009a 2703     		.2byte	(.L204-.L92)/2
 1241 009c 4900     		.2byte	(.L154-.L92)/2
 1242 009e D602     		.2byte	(.L155-.L92)/2
 1243 00a0 2301     		.2byte	(.L156-.L92)/2
 1244 00a2 E602     		.2byte	(.L157-.L92)/2
 1245 00a4 0F02     		.2byte	(.L158-.L92)/2
 1246 00a6 4402     		.2byte	(.L159-.L92)/2
 1247 00a8 4A02     		.2byte	(.L160-.L92)/2
 1248 00aa FA02     		.2byte	(.L161-.L92)/2
 1249              	.L154:
 1250 00ac 0024     		movs	r4, #0
 1251 00ae 7AE2     		b	.L162
 1252              	.L93:
 219:bluetooth_rxtx.c **** 		*data_len = 0;
 1253              		.loc 1 219 0
 1254 00b0 0120     		movs	r0, #1
 1255              	.LVL119:
ARM GAS  /tmp/ccUrIl19.s 			page 67


 1256 00b2 A074     		strb	r0, [r4, #18]
 220:bluetooth_rxtx.c **** 		break;
 1257              		.loc 1 220 0
 1258 00b4 0023     		movs	r3, #0
 1259 00b6 A0E1     		b	.L214
 1260              	.LVL120:
 1261              	.L94:
 224:bluetooth_rxtx.c **** 		requested_mode = MODE_TX_SYMBOLS;
 1262              		.loc 1 224 0
 1263 00b8 0223     		movs	r3, #2
 1264 00ba A372     		strb	r3, [r4, #10]
 1265 00bc F4E0     		b	.L236
 1266              	.L95:
 230:bluetooth_rxtx.c **** 		*data_len = 1;
 1267              		.loc 1 230 0
 1268 00be 6A4B     		ldr	r3, .L244+4
 1269 00c0 1B68     		ldr	r3, [r3]
 1270 00c2 C3F34003 		ubfx	r3, r3, #1, #1
 1271 00c6 17E1     		b	.L215
 1272              	.L96:
 235:bluetooth_rxtx.c **** 			USRLED_SET;
 1273              		.loc 1 235 0
 1274 00c8 0A88     		ldrh	r2, [r1]
 1275 00ca 0223     		movs	r3, #2
 1276 00cc 15E0     		b	.L233
 1277              	.L97:
 242:bluetooth_rxtx.c **** 		*data_len = 1;
 1278              		.loc 1 242 0
 1279 00ce 664B     		ldr	r3, .L244+4
 1280 00d0 1B68     		ldr	r3, [r3]
 1281 00d2 C3F30013 		ubfx	r3, r3, #4, #1
 1282 00d6 0FE1     		b	.L215
 1283              	.L98:
 247:bluetooth_rxtx.c **** 			RXLED_SET;
 1284              		.loc 1 247 0
 1285 00d8 0A88     		ldrh	r2, [r1]
 1286 00da 1023     		movs	r3, #16
 1287 00dc 0DE0     		b	.L233
 1288              	.L99:
 254:bluetooth_rxtx.c **** 		*data_len = 1;
 1289              		.loc 1 254 0
 1290 00de 624B     		ldr	r3, .L244+4
 1291 00e0 24E0     		b	.L238
 1292              	.L100:
 259:bluetooth_rxtx.c **** 			TXLED_SET;
 1293              		.loc 1 259 0
 1294 00e2 0A88     		ldrh	r2, [r1]
 1295 00e4 4FF48073 		mov	r3, #256
 1296 00e8 07E0     		b	.L233
 1297              	.L101:
 266:bluetooth_rxtx.c **** 		*data_len = 1;
 1298              		.loc 1 266 0
 1299 00ea 5F4B     		ldr	r3, .L244+4
 1300 00ec 1B68     		ldr	r3, [r3]
 1301 00ee C3F34023 		ubfx	r3, r3, #9, #1
 1302 00f2 01E1     		b	.L215
 1303              	.L102:
ARM GAS  /tmp/ccUrIl19.s 			page 68


 271:bluetooth_rxtx.c **** 			CC1V8_SET;
 1304              		.loc 1 271 0
 1305 00f4 0A88     		ldrh	r2, [r1]
 1306 00f6 4FF40073 		mov	r3, #512
 1307              	.L233:
 1308 00fa 12B9     		cbnz	r2, .L243
 262:bluetooth_rxtx.c **** 		break;
 1309              		.loc 1 262 0
 1310 00fc 5B4A     		ldr	r2, .L244+8
 1311              	.L217:
 1312 00fe 1360     		str	r3, [r2]
 1313 0100 AFE2     		b	.L197
 1314              	.L243:
 272:bluetooth_rxtx.c **** 		else
 1315              		.loc 1 272 0
 1316 0102 5B4A     		ldr	r2, .L244+12
 1317 0104 FBE7     		b	.L217
 1318              	.L107:
 278:bluetooth_rxtx.c **** 		break;
 1319              		.loc 1 278 0
 1320 0106 3046     		mov	r0, r6
 1321              	.LVL121:
 1322 0108 2946     		mov	r1, r5
 1323              	.LVL122:
 1324 010a FFF7FEFF 		bl	get_part_num
 1325              	.LVL123:
 1326 010e A8E2     		b	.L197
 1327              	.LVL124:
 1328              	.L106:
 286:bluetooth_rxtx.c **** 		break;
 1329              		.loc 1 286 0
 1330 0110 3046     		mov	r0, r6
 1331              	.LVL125:
 1332 0112 2946     		mov	r1, r5
 1333              	.LVL126:
 1334 0114 FFF7FEFF 		bl	get_device_serial
 1335              	.LVL127:
 1336 0118 A3E2     		b	.L197
 1337              	.LVL128:
 1338              	.L108:
 291:bluetooth_rxtx.c **** 		*data_len = 1;
 1339              		.loc 1 291 0
 1340 011a 564B     		ldr	r3, .L244+16
 1341 011c 1B68     		ldr	r3, [r3]
 1342 011e C3F3C013 		ubfx	r3, r3, #7, #1
 1343 0122 E9E0     		b	.L215
 1344              	.L109:
 296:bluetooth_rxtx.c **** 			PAEN_SET;
 1345              		.loc 1 296 0
 1346 0124 0A88     		ldrh	r2, [r1]
 1347 0126 8023     		movs	r3, #128
 1348 0128 07E0     		b	.L235
 1349              	.L110:
 303:bluetooth_rxtx.c **** 		*data_len = 1;
 1350              		.loc 1 303 0
 1351 012a 524B     		ldr	r3, .L244+16
 1352              	.L238:
ARM GAS  /tmp/ccUrIl19.s 			page 69


 1353 012c 1B68     		ldr	r3, [r3]
 1354 012e C3F30023 		ubfx	r3, r3, #8, #1
 1355 0132 E1E0     		b	.L215
 1356              	.L111:
 308:bluetooth_rxtx.c **** 			HGM_SET;
 1357              		.loc 1 308 0
 1358 0134 0A88     		ldrh	r2, [r1]
 1359 0136 4FF48073 		mov	r3, #256
 1360              	.L235:
 1361 013a 0AB1     		cbz	r2, .L168
 309:bluetooth_rxtx.c **** 		else
 1362              		.loc 1 309 0
 1363 013c 4E4A     		ldr	r2, .L244+20
 1364 013e DEE7     		b	.L217
 1365              	.L168:
 311:bluetooth_rxtx.c **** 		break;
 1366              		.loc 1 311 0
 1367 0140 4E4A     		ldr	r2, .L244+24
 1368 0142 DCE7     		b	.L217
 1369              	.L112:
 317:bluetooth_rxtx.c **** 		break;
 1370              		.loc 1 317 0
 1371 0144 0323     		movs	r3, #3
 1372 0146 6CE2     		b	.L220
 1373              	.L119:
 321:bluetooth_rxtx.c **** 		*data_len = 1;
 1374              		.loc 1 321 0
 1375 0148 0520     		movs	r0, #5
 1376              	.LVL129:
 1377 014a FFF7FEFF 		bl	cc2400_get
 1378              	.LVL130:
 1379 014e 00F00700 		and	r0, r0, #7
 1380 0152 3070     		strb	r0, [r6]
 1381 0154 E8E1     		b	.L211
 1382              	.LVL131:
 1383              	.L120:
 326:bluetooth_rxtx.c **** 			cc2400_set(FREND, 8 | request_params[0]);
 1384              		.loc 1 326 0
 1385 0156 0988     		ldrh	r1, [r1]
 1386              	.LVL132:
 1387 0158 0729     		cmp	r1, #7
 1388 015a 00F28582 		bhi	.L204
 327:bluetooth_rxtx.c **** 		} else {
 1389              		.loc 1 327 0
 1390 015e 0520     		movs	r0, #5
 1391              	.LVL133:
 1392 0160 41F00801 		orr	r1, r1, #8
 1393 0164 1CE2     		b	.L225
 1394              	.LVL134:
 1395              	.L122:
 334:bluetooth_rxtx.c **** 		break;
 1396              		.loc 1 334 0
 1397 0166 0523     		movs	r3, #5
 1398 0168 5BE2     		b	.L220
 1399              	.L121:
 338:bluetooth_rxtx.c **** 		break;
 1400              		.loc 1 338 0
ARM GAS  /tmp/ccUrIl19.s 			page 70


 1401 016a 0623     		movs	r3, #6
 1402 016c 59E2     		b	.L220
 1403              	.L123:
 343:bluetooth_rxtx.c **** 		data[1] = rr.request_pa;
 1404              		.loc 1 343 0
 1405 016e 444B     		ldr	r3, .L244+28
 1406 0170 1A78     		ldrb	r2, [r3]	@ zero_extendqisi2
 1407 0172 3270     		strb	r2, [r6]
 344:bluetooth_rxtx.c **** 		data[2] = rr.request_num;
 1408              		.loc 1 344 0
 1409 0174 5A78     		ldrb	r2, [r3, #1]	@ zero_extendqisi2
 1410 0176 7270     		strb	r2, [r6, #1]
 345:bluetooth_rxtx.c **** 		data[3] = rr.reply_pa;
 1411              		.loc 1 345 0
 1412 0178 9A78     		ldrb	r2, [r3, #2]	@ zero_extendqisi2
 1413 017a B270     		strb	r2, [r6, #2]
 346:bluetooth_rxtx.c **** 		data[4] = rr.reply_num;
 1414              		.loc 1 346 0
 1415 017c DA78     		ldrb	r2, [r3, #3]	@ zero_extendqisi2
 1416 017e F270     		strb	r2, [r6, #3]
 347:bluetooth_rxtx.c **** 		*data_len = 5;
 1417              		.loc 1 347 0
 1418 0180 1B79     		ldrb	r3, [r3, #4]	@ zero_extendqisi2
 1419 0182 3371     		strb	r3, [r6, #4]
 348:bluetooth_rxtx.c **** 		break;
 1420              		.loc 1 348 0
 1421 0184 0523     		movs	r3, #5
 1422              	.LVL135:
 1423              	.L223:
 1424 0186 2B60     		str	r3, [r5]
 1425 0188 6BE2     		b	.L197
 1426              	.LVL136:
 1427              	.L113:
 352:bluetooth_rxtx.c **** 		break;
 1428              		.loc 1 352 0
 1429 018a 0023     		movs	r3, #0
 1430 018c 49E2     		b	.L220
 1431              	.L114:
 356:bluetooth_rxtx.c **** 		*data_len = 1;
 1432              		.loc 1 356 0
 1433 018e 2378     		ldrb	r3, [r4]	@ zero_extendqisi2
 1434 0190 B2E0     		b	.L215
 1435              	.L115:
 361:bluetooth_rxtx.c **** 		break;
 1436              		.loc 1 361 0
 1437 0192 0B78     		ldrb	r3, [r1]	@ zero_extendqisi2
 1438 0194 2370     		strb	r3, [r4]
 1439 0196 64E2     		b	.L197
 1440              	.L103:
 365:bluetooth_rxtx.c **** 		data[1] = (channel >> 8) & 0xFF;
 1441              		.loc 1 365 0
 1442 0198 3A4B     		ldr	r3, .L244+32
 1443 019a 1A88     		ldrh	r2, [r3]
 1444 019c 3270     		strb	r2, [r6]
 366:bluetooth_rxtx.c **** 		*data_len = 2;
 1445              		.loc 1 366 0
 1446 019e 1B88     		ldrh	r3, [r3]
ARM GAS  /tmp/ccUrIl19.s 			page 71


 1447 01a0 C3F30723 		ubfx	r3, r3, #8, #8
 1448 01a4 A6E1     		b	.L242
 1449              	.L104:
 371:bluetooth_rxtx.c **** 		/* bluetooth band sweep mode, start at channel 2402 */
 1450              		.loc 1 371 0
 1451 01a6 0A88     		ldrh	r2, [r1]
 1452 01a8 2E4B     		ldr	r3, .L244
 1453 01aa E281     		strh	r2, [r4, #14]	@ movhi
 373:bluetooth_rxtx.c **** 			hop_mode = HOP_SWEEP;
 1454              		.loc 1 373 0
 1455 01ac E189     		ldrh	r1, [r4, #14]
 1456              	.LVL137:
 1457 01ae 40F6EA22 		movw	r2, #2794
 1458 01b2 89B2     		uxth	r1, r1
 1459 01b4 9142     		cmp	r1, r2
 1460 01b6 05D9     		bls	.L169
 374:bluetooth_rxtx.c **** 			requested_channel = 2402;
 1461              		.loc 1 374 0
 1462 01b8 0122     		movs	r2, #1
 1463 01ba 9A72     		strb	r2, [r3, #10]
 375:bluetooth_rxtx.c **** 		}
 1464              		.loc 1 375 0
 1465 01bc 40F66212 		movw	r2, #2402
 1466 01c0 DA81     		strh	r2, [r3, #14]	@ movhi
 1467 01c2 17E0     		b	.L170
 1468              	.L169:
 379:bluetooth_rxtx.c **** 			requested_channel = MAX(requested_channel, MIN_FREQ);
 1469              		.loc 1 379 0
 1470 01c4 0022     		movs	r2, #0
 1471 01c6 9A72     		strb	r2, [r3, #10]
 380:bluetooth_rxtx.c **** 			requested_channel = MIN(requested_channel, MAX_FREQ);
 1472              		.loc 1 380 0
 1473 01c8 D989     		ldrh	r1, [r3, #14]
 1474 01ca 40F6DC02 		movw	r2, #2268
 1475 01ce 89B2     		uxth	r1, r1
 1476 01d0 9142     		cmp	r1, r2
 1477 01d2 8ABF     		itet	hi
 1478 01d4 DB89     		ldrhhi	r3, [r3, #14]
 1479 01d6 1346     		movls	r3, r2
 1480 01d8 9BB2     		uxthhi	r3, r3
 1481 01da E381     		strh	r3, [r4, #14]	@ movhi
 381:bluetooth_rxtx.c **** 		}
 1482              		.loc 1 381 0
 1483 01dc E289     		ldrh	r2, [r4, #14]
 1484 01de 40F6E923 		movw	r3, #2793
 1485 01e2 92B2     		uxth	r2, r2
 1486 01e4 9A42     		cmp	r2, r3
 1487 01e6 97BF     		itett	ls
 1488 01e8 1E4B     		ldrls	r3, .L244
 1489 01ea 40F6EA23 		movwhi	r3, #2794
 1490 01ee DB89     		ldrhls	r3, [r3, #14]
 1491 01f0 9BB2     		uxthls	r3, r3
 1492 01f2 E381     		strh	r3, [r4, #14]	@ movhi
 1493              	.L170:
 384:bluetooth_rxtx.c **** 		if (mode != MODE_BT_FOLLOW_LE) {
 1494              		.loc 1 384 0
 1495 01f4 E189     		ldrh	r1, [r4, #14]
ARM GAS  /tmp/ccUrIl19.s 			page 72


 1496 01f6 234B     		ldr	r3, .L244+32
 1497 01f8 89B2     		uxth	r1, r1
 1498 01fa A3F84A10 		strh	r1, [r3, #74]	@ movhi
 385:bluetooth_rxtx.c **** 			channel = requested_channel;
 1499              		.loc 1 385 0
 1500 01fe 617C     		ldrb	r1, [r4, #17]	@ zero_extendqisi2
 384:bluetooth_rxtx.c **** 		if (mode != MODE_BT_FOLLOW_LE) {
 1501              		.loc 1 384 0
 1502 0200 184A     		ldr	r2, .L244
 385:bluetooth_rxtx.c **** 			channel = requested_channel;
 1503              		.loc 1 385 0
 1504 0202 0929     		cmp	r1, #9
 1505 0204 00F02D82 		beq	.L197
 386:bluetooth_rxtx.c **** 			requested_channel = 0;
 1506              		.loc 1 386 0
 1507 0208 D189     		ldrh	r1, [r2, #14]
 1508 020a 89B2     		uxth	r1, r1
 1509 020c 1980     		strh	r1, [r3]	@ movhi
 387:bluetooth_rxtx.c **** 
 1510              		.loc 1 387 0
 1511 020e 0021     		movs	r1, #0
 1512 0210 D181     		strh	r1, [r2, #14]	@ movhi
 1513 0212 95E1     		b	.L227
 1514              	.LVL138:
 1515              	.L116:
 396:bluetooth_rxtx.c **** 		*data_len = 0; /* should never return */
 1516              		.loc 1 396 0
 1517 0214 FFF7FEFF 		bl	set_isp
 1518              	.LVL139:
 1519              	.L221:
 397:bluetooth_rxtx.c **** 		break;
 1520              		.loc 1 397 0
 1521 0218 0023     		movs	r3, #0
 1522 021a B4E7     		b	.L223
 1523              	.LVL140:
 1524              	.L117:
 401:bluetooth_rxtx.c **** 		requested_mode = MODE_RESET;
 1525              		.loc 1 401 0
 1526 021c 1A4A     		ldr	r2, .L244+36
 1527 021e 1B4B     		ldr	r3, .L244+40
 1528 0220 1A60     		str	r2, [r3]
 1529              	.L240:
 402:bluetooth_rxtx.c **** 		break;
 1530              		.loc 1 402 0
 1531 0222 0B23     		movs	r3, #11
 1532 0224 FDE1     		b	.L220
 1533              	.L118:
 406:bluetooth_rxtx.c **** 				request_params[1] < 2049 || request_params[1] > 3072 ||
 1534              		.loc 1 406 0
 1535 0226 0A88     		ldrh	r2, [r1]
 1536 0228 6FF4006C 		mvn	ip, #2048
 1537 022c 02EB0C03 		add	r3, r2, ip
 1538 0230 40F2FF31 		movw	r1, #1023
 1539              	.LVL141:
 1540 0234 9BB2     		uxth	r3, r3
 1541 0236 8B42     		cmp	r3, r1
 1542 0238 00F21682 		bhi	.L204
ARM GAS  /tmp/ccUrIl19.s 			page 73


 407:bluetooth_rxtx.c **** 				request_params[1] < request_params[0])
 1543              		.loc 1 407 0 discriminator 1
 1544 023c 7B88     		ldrh	r3, [r7, #2]
 406:bluetooth_rxtx.c **** 				request_params[1] < 2049 || request_params[1] > 3072 ||
 1545              		.loc 1 406 0 discriminator 1
 1546 023e 6FF40066 		mvn	r6, #2048
 1547              	.LVL142:
 1548 0242 9819     		adds	r0, r3, r6
 1549              	.LVL143:
 1550 0244 80B2     		uxth	r0, r0
 1551 0246 8842     		cmp	r0, r1
 1552 0248 00F20E82 		bhi	.L204
 407:bluetooth_rxtx.c **** 				request_params[1] < request_params[0])
 1553              		.loc 1 407 0 discriminator 1
 1554 024c 9342     		cmp	r3, r2
 1555 024e C0F00B82 		bcc	.L204
 410:bluetooth_rxtx.c **** 		high_freq = request_params[1];
 1556              		.loc 1 410 0
 1557 0252 0C49     		ldr	r1, .L244+32
 1558 0254 A1F84C20 		strh	r2, [r1, #76]	@ movhi
 411:bluetooth_rxtx.c **** 		requested_mode = MODE_SPECAN;
 1559              		.loc 1 411 0
 1560 0258 A1F84E30 		strh	r3, [r1, #78]	@ movhi
 412:bluetooth_rxtx.c **** 		*data_len = 0;
 1561              		.loc 1 412 0
 1562 025c 0423     		movs	r3, #4
 1563 025e 23E0     		b	.L236
 1564              	.LVL144:
 1565              	.L156:
 417:bluetooth_rxtx.c **** 		*data_len = 0;
 1566              		.loc 1 417 0
 1567 0260 0F23     		movs	r3, #15
 1568 0262 21E0     		b	.L236
 1569              	.L245:
 1570              		.align	2
 1571              	.L244:
 1572 0264 00000000 		.word	.LANCHOR0
 1573 0268 34C00920 		.word	537509940
 1574 026c 3CC00920 		.word	537509948
 1575 0270 38C00920 		.word	537509944
 1576 0274 54C00920 		.word	537509972
 1577 0278 58C00920 		.word	537509976
 1578 027c 5CC00920 		.word	537509980
 1579 0280 00000000 		.word	rr
 1580 0284 00000000 		.word	.LANCHOR1
 1581 0288 21BB0543 		.word	1124449057
 1582 028c 00000000 		.word	bootloader_ctrl
 1583              	.L125:
 422:bluetooth_rxtx.c **** 			return 0;
 1584              		.loc 1 422 0
 1585 0290 0B88     		ldrh	r3, [r1]
 1586 0292 B3F5807F 		cmp	r3, #256
 1587 0296 00F2E781 		bhi	.L204
 424:bluetooth_rxtx.c **** 		requested_mode = MODE_LED_SPECAN;
 1588              		.loc 1 424 0
 1589 029a C3F13603 		rsb	r3, r3, #54
 1590 029e AF4A     		ldr	r2, .L246
ARM GAS  /tmp/ccUrIl19.s 			page 74


 1591 02a0 DBB2     		uxtb	r3, r3
 1592 02a2 82F85030 		strb	r3, [r2, #80]
 425:bluetooth_rxtx.c **** 		*data_len = 0;
 1593              		.loc 1 425 0
 1594 02a6 0723     		movs	r3, #7
 1595              	.LVL145:
 1596              	.L236:
 1597 02a8 A374     		strb	r3, [r4, #18]
 1598 02aa B5E7     		b	.L221
 1599              	.LVL146:
 1600              	.L124:
 430:bluetooth_rxtx.c **** 		data[1] = 0x00;
 1601              		.loc 1 430 0
 1602 02ac 0023     		movs	r3, #0
 1603 02ae 3370     		strb	r3, [r6]
 431:bluetooth_rxtx.c **** 
 1604              		.loc 1 431 0
 1605 02b0 7370     		strb	r3, [r6, #1]
 433:bluetooth_rxtx.c **** 		data[2] = length;
 1606              		.loc 1 433 0
 1607 02b2 AB48     		ldr	r0, .L246+4
 1608              	.LVL147:
 1609 02b4 FFF7FEFF 		bl	strlen
 1610              	.LVL148:
 1611 02b8 C4B2     		uxtb	r4, r0
 1612              	.LVL149:
 434:bluetooth_rxtx.c **** 
 1613              		.loc 1 434 0
 1614 02ba B470     		strb	r4, [r6, #2]
 436:bluetooth_rxtx.c **** 
 1615              		.loc 1 436 0
 1616 02bc 2246     		mov	r2, r4
 1617 02be F01C     		adds	r0, r6, #3
 1618 02c0 A749     		ldr	r1, .L246+4
 1619 02c2 FFF7FEFF 		bl	memcpy
 1620              	.LVL150:
 438:bluetooth_rxtx.c **** 		break;
 1621              		.loc 1 438 0
 1622 02c6 0334     		adds	r4, r4, #3
 1623              	.LVL151:
 1624 02c8 0BE0     		b	.L226
 1625              	.LVL152:
 1626              	.L146:
 442:bluetooth_rxtx.c **** 		data[0] = length;
 1627              		.loc 1 442 0
 1628 02ca A648     		ldr	r0, .L246+8
 1629              	.LVL153:
 1630 02cc FFF7FEFF 		bl	strlen
 1631              	.LVL154:
 1632 02d0 C4B2     		uxtb	r4, r0
 1633              	.LVL155:
 443:bluetooth_rxtx.c **** 		memcpy(&data[1], compile_info, length);
 1634              		.loc 1 443 0
 1635 02d2 3046     		mov	r0, r6
 1636 02d4 00F8014B 		strb	r4, [r0], #1
 444:bluetooth_rxtx.c **** 		*data_len = 1 + length;
 1637              		.loc 1 444 0
ARM GAS  /tmp/ccUrIl19.s 			page 75


 1638 02d8 2246     		mov	r2, r4
 1639 02da A249     		ldr	r1, .L246+8
 1640 02dc FFF7FEFF 		bl	memcpy
 1641              	.LVL156:
 445:bluetooth_rxtx.c **** 		break;
 1642              		.loc 1 445 0
 1643 02e0 0134     		adds	r4, r4, #1
 1644              	.LVL157:
 1645              	.L226:
 1646 02e2 2C60     		str	r4, [r5]
 1647 02e4 BDE1     		b	.L197
 1648              	.LVL158:
 1649              	.L126:
 449:bluetooth_rxtx.c **** 		*data_len = 1;
 1650              		.loc 1 449 0
 1651 02e6 0120     		movs	r0, #1
 1652              	.LVL159:
 1653 02e8 3070     		strb	r0, [r6]
 1654 02ea 1EE1     		b	.L212
 1655              	.LVL160:
 1656              	.L127:
 454:bluetooth_rxtx.c **** 		cs_threshold_calc_and_set(channel);
 1657              		.loc 1 454 0
 1658 02ec 0A88     		ldrh	r2, [r1]
 1659 02ee 9E4B     		ldr	r3, .L246+12
 1660 02f0 1A70     		strb	r2, [r3]
 1661 02f2 24E1     		b	.L224
 1662              	.L128:
 459:bluetooth_rxtx.c **** 		*data_len = 1;
 1663              		.loc 1 459 0
 1664 02f4 9C4B     		ldr	r3, .L246+12
 1665 02f6 1B78     		ldrb	r3, [r3]	@ zero_extendqisi2
 1666              	.L215:
 1667 02f8 3370     		strb	r3, [r6]
 1668 02fa 15E1     		b	.L211
 1669              	.L129:
 464:bluetooth_rxtx.c **** 		target.syncword = 0;
 1670              		.loc 1 464 0
 1671 02fc 9B4F     		ldr	r7, .L246+16
 1672 02fe 0024     		movs	r4, #0
 1673 0300 0025     		movs	r5, #0
 1674              	.LVL161:
 1675 0302 C7E90045 		strd	r4, [r7]
 465:bluetooth_rxtx.c **** 		for(int i=0; i < 8; i++) {
 1676              		.loc 1 465 0
 1677 0306 C7E90245 		strd	r4, [r7, #8]
 1678              	.LVL162:
 1679              	.LBB14:
 466:bluetooth_rxtx.c **** 			target.address |= (uint64_t)data[i] << 8*i;
 1680              		.loc 1 466 0
 1681 030a 4FF00008 		mov	r8, #0
 1682              	.LVL163:
 1683              	.L175:
 467:bluetooth_rxtx.c **** 		}
 1684              		.loc 1 467 0 discriminator 2
 1685 030e 16F80800 		ldrb	r0, [r6, r8]	@ zero_extendqisi2
 1686 0312 4FEAC802 		lsl	r2, r8, #3
ARM GAS  /tmp/ccUrIl19.s 			page 76


 1687 0316 0021     		movs	r1, #0
 1688 0318 FFF7FEFF 		bl	__aeabi_llsl
 1689              	.LVL164:
 1690 031c D7E90045 		ldrd	r4, [r7]
 466:bluetooth_rxtx.c **** 			target.address |= (uint64_t)data[i] << 8*i;
 1691              		.loc 1 466 0 discriminator 2
 1692 0320 08F10108 		add	r8, r8, #1
 1693              	.LVL165:
 467:bluetooth_rxtx.c **** 		}
 1694              		.loc 1 467 0 discriminator 2
 1695 0324 2043     		orrs	r0, r0, r4
 1696 0326 2943     		orrs	r1, r1, r5
 466:bluetooth_rxtx.c **** 			target.address |= (uint64_t)data[i] << 8*i;
 1697              		.loc 1 466 0 discriminator 2
 1698 0328 B8F1080F 		cmp	r8, #8
 467:bluetooth_rxtx.c **** 		}
 1699              		.loc 1 467 0 discriminator 2
 1700 032c C7E90001 		strd	r0, [r7]
 466:bluetooth_rxtx.c **** 			target.address |= (uint64_t)data[i] << 8*i;
 1701              		.loc 1 466 0 discriminator 2
 1702 0330 EDD1     		bne	.L175
 466:bluetooth_rxtx.c **** 			target.address |= (uint64_t)data[i] << 8*i;
 1703              		.loc 1 466 0 is_stmt 0
 1704 0332 4FF00008 		mov	r8, #0
 1705              	.LVL166:
 1706              	.L177:
 1707 0336 06EB0803 		add	r3, r6, r8
 1708              	.LBE14:
 1709              	.LBB15:
 470:bluetooth_rxtx.c **** 		}
 1710              		.loc 1 470 0 is_stmt 1 discriminator 2
 1711 033a 187A     		ldrb	r0, [r3, #8]	@ zero_extendqisi2
 1712 033c 4FEAC802 		lsl	r2, r8, #3
 1713 0340 0021     		movs	r1, #0
 1714 0342 FFF7FEFF 		bl	__aeabi_llsl
 1715              	.LVL167:
 1716 0346 D7E90245 		ldrd	r4, [r7, #8]
 469:bluetooth_rxtx.c **** 			target.syncword |= (uint64_t)data[i+8] << 8*i;
 1717              		.loc 1 469 0 discriminator 2
 1718 034a 08F10108 		add	r8, r8, #1
 1719              	.LVL168:
 470:bluetooth_rxtx.c **** 		}
 1720              		.loc 1 470 0 discriminator 2
 1721 034e 2043     		orrs	r0, r0, r4
 1722 0350 2943     		orrs	r1, r1, r5
 469:bluetooth_rxtx.c **** 			target.syncword |= (uint64_t)data[i+8] << 8*i;
 1723              		.loc 1 469 0 discriminator 2
 1724 0352 B8F1080F 		cmp	r8, #8
 470:bluetooth_rxtx.c **** 		}
 1725              		.loc 1 470 0 discriminator 2
 1726 0356 C7E90201 		strd	r0, [r7, #8]
 469:bluetooth_rxtx.c **** 			target.syncword |= (uint64_t)data[i+8] << 8*i;
 1727              		.loc 1 469 0 discriminator 2
 1728 035a ECD1     		bne	.L177
 1729              	.LBE15:
 472:bluetooth_rxtx.c **** 		break;
 1730              		.loc 1 472 0
ARM GAS  /tmp/ccUrIl19.s 			page 77


 1731 035c FFF7FEFF 		bl	precalc
 1732              	.LVL169:
 1733 0360 7FE1     		b	.L197
 1734              	.LVL170:
 1735              	.L130:
 476:bluetooth_rxtx.c **** 		for(int i=0; i < 4; i++) {
 1736              		.loc 1 476 0
 1737 0362 834A     		ldr	r2, .L246+20
 1738 0364 0023     		movs	r3, #0
 1739 0366 1360     		str	r3, [r2]
 1740              	.LVL171:
 1741              	.L179:
 1742              	.LBB16:
 478:bluetooth_rxtx.c **** 			clkn_offset |= data[i];
 1743              		.loc 1 478 0 discriminator 2
 1744 0368 1168     		ldr	r1, [r2]
 1745 036a 0902     		lsls	r1, r1, #8
 1746 036c 1160     		str	r1, [r2]
 479:bluetooth_rxtx.c **** 		}
 1747              		.loc 1 479 0 discriminator 2
 1748 036e F05C     		ldrb	r0, [r6, r3]	@ zero_extendqisi2
 1749 0370 1168     		ldr	r1, [r2]
 477:bluetooth_rxtx.c **** 			clkn_offset <<= 8;
 1750              		.loc 1 477 0 discriminator 2
 1751 0372 0133     		adds	r3, r3, #1
 1752              	.LVL172:
 479:bluetooth_rxtx.c **** 		}
 1753              		.loc 1 479 0 discriminator 2
 1754 0374 0143     		orrs	r1, r1, r0
 477:bluetooth_rxtx.c **** 			clkn_offset <<= 8;
 1755              		.loc 1 477 0 discriminator 2
 1756 0376 042B     		cmp	r3, #4
 479:bluetooth_rxtx.c **** 		}
 1757              		.loc 1 479 0 discriminator 2
 1758 0378 1160     		str	r1, [r2]
 477:bluetooth_rxtx.c **** 			clkn_offset <<= 8;
 1759              		.loc 1 477 0 discriminator 2
 1760 037a F5D1     		bne	.L179
 1761              	.LBE16:
 481:bluetooth_rxtx.c **** 		dma_discard = 1;
 1762              		.loc 1 481 0
 1763 037c 0223     		movs	r3, #2
 1764              	.LVL173:
 1765 037e A372     		strb	r3, [r4, #10]
 483:bluetooth_rxtx.c **** 		clk100ns_offset = (data[4] << 8) | (data[5] << 0);
 1766              		.loc 1 483 0
 1767 0380 7C4B     		ldr	r3, .L246+24
 482:bluetooth_rxtx.c **** 		DIO_SSEL_SET;
 1768              		.loc 1 482 0
 1769 0382 0120     		movs	r0, #1
 483:bluetooth_rxtx.c **** 		clk100ns_offset = (data[4] << 8) | (data[5] << 0);
 1770              		.loc 1 483 0
 1771 0384 4FF08052 		mov	r2, #268435456
 482:bluetooth_rxtx.c **** 		DIO_SSEL_SET;
 1772              		.loc 1 482 0
 1773 0388 2074     		strb	r0, [r4, #16]
 483:bluetooth_rxtx.c **** 		clk100ns_offset = (data[4] << 8) | (data[5] << 0);
ARM GAS  /tmp/ccUrIl19.s 			page 78


 1774              		.loc 1 483 0
 1775 038a 1A60     		str	r2, [r3]
 484:bluetooth_rxtx.c **** 		requested_mode = MODE_BT_FOLLOW;
 1776              		.loc 1 484 0
 1777 038c 7379     		ldrb	r3, [r6, #5]	@ zero_extendqisi2
 1778 038e 3279     		ldrb	r2, [r6, #4]	@ zero_extendqisi2
 1779 0390 43EA0222 		orr	r2, r3, r2, lsl #8
 1780 0394 784B     		ldr	r3, .L246+28
 1781 0396 1A80     		strh	r2, [r3]	@ movhi
 485:bluetooth_rxtx.c **** 		break;
 1782              		.loc 1 485 0
 1783 0398 0823     		movs	r3, #8
 1784 039a A374     		strb	r3, [r4, #18]
 486:bluetooth_rxtx.c **** 
 1785              		.loc 1 486 0
 1786 039c BDE8F081 		pop	{r4, r5, r6, r7, r8, pc}
 1787              	.LVL174:
 1788              	.L151:
 489:bluetooth_rxtx.c **** 		requested_mode = MODE_AFH;
 1789              		.loc 1 489 0
 1790 03a0 0523     		movs	r3, #5
 1791 03a2 A372     		strb	r3, [r4, #10]
 490:bluetooth_rxtx.c **** 
 1792              		.loc 1 490 0
 1793 03a4 0E23     		movs	r3, #14
 1794 03a6 A374     		strb	r3, [r4, #18]
 1795              	.LVL175:
 1796              	.LBB17:
 492:bluetooth_rxtx.c **** 			afh_map[i] = 0;
 1797              		.loc 1 492 0
 1798 03a8 0023     		movs	r3, #0
 1799              	.LVL176:
 1800              	.L181:
 493:bluetooth_rxtx.c **** 		}
 1801              		.loc 1 493 0 discriminator 2
 1802 03aa 7449     		ldr	r1, .L246+32
 1803 03ac 0022     		movs	r2, #0
 1804 03ae 5A54     		strb	r2, [r3, r1]
 492:bluetooth_rxtx.c **** 			afh_map[i] = 0;
 1805              		.loc 1 492 0 discriminator 2
 1806 03b0 0133     		adds	r3, r3, #1
 1807              	.LVL177:
 1808 03b2 0A2B     		cmp	r3, #10
 1809 03b4 F9D1     		bne	.L181
 1810              	.LBE17:
 495:bluetooth_rxtx.c **** 		afh_enabled = 1;
 1811              		.loc 1 495 0
 1812 03b6 724B     		ldr	r3, .L246+36
 1813              	.LVL178:
 496:bluetooth_rxtx.c **** 		break;
 1814              		.loc 1 496 0
 1815 03b8 0120     		movs	r0, #1
 1816              	.LVL179:
 495:bluetooth_rxtx.c **** 		afh_enabled = 1;
 1817              		.loc 1 495 0
 1818 03ba 1A70     		strb	r2, [r3]
 496:bluetooth_rxtx.c **** 		break;
ARM GAS  /tmp/ccUrIl19.s 			page 79


 1819              		.loc 1 496 0
 1820 03bc 714B     		ldr	r3, .L246+40
 1821 03be 1870     		strb	r0, [r3]
 497:bluetooth_rxtx.c **** 
 1822              		.loc 1 497 0
 1823 03c0 BDE8F081 		pop	{r4, r5, r6, r7, r8, pc}
 1824              	.LVL180:
 1825              	.L152:
 500:bluetooth_rxtx.c **** 		break;
 1826              		.loc 1 500 0
 1827 03c4 0120     		movs	r0, #1
 1828              	.LVL181:
 1829 03c6 E072     		strb	r0, [r4, #11]
 501:bluetooth_rxtx.c **** 
 1830              		.loc 1 501 0
 1831 03c8 BDE8F081 		pop	{r4, r5, r6, r7, r8, pc}
 1832              	.LVL182:
 1833              	.L131:
 504:bluetooth_rxtx.c **** 		clkn = clock;
 1834              		.loc 1 504 0
 1835 03cc B278     		ldrb	r2, [r6, #2]	@ zero_extendqisi2
 1836 03ce 7378     		ldrb	r3, [r6, #1]	@ zero_extendqisi2
 1837 03d0 1204     		lsls	r2, r2, #16
 1838 03d2 42EA0322 		orr	r2, r2, r3, lsl #8
 1839 03d6 3378     		ldrb	r3, [r6]	@ zero_extendqisi2
 1840 03d8 1A43     		orrs	r2, r2, r3
 1841 03da F378     		ldrb	r3, [r6, #3]	@ zero_extendqisi2
 1842 03dc 42EA0362 		orr	r2, r2, r3, lsl #24
 1843              	.LVL183:
 505:bluetooth_rxtx.c **** 		cs_threshold_calc_and_set(channel);
 1844              		.loc 1 505 0
 1845 03e0 694B     		ldr	r3, .L246+44
 1846 03e2 1A60     		str	r2, [r3]
 1847 03e4 ABE0     		b	.L224
 1848              	.LVL184:
 1849              	.L142:
 212:bluetooth_rxtx.c **** 
 1850              		.loc 1 212 0
 1851 03e6 0023     		movs	r3, #0
 1852              	.LVL185:
 1853              	.L183:
 1854              	.LBB18:
 511:bluetooth_rxtx.c **** 		}
 1855              		.loc 1 511 0 discriminator 2
 1856 03e8 F15C     		ldrb	r1, [r6, r3]	@ zero_extendqisi2
 1857 03ea 644A     		ldr	r2, .L246+32
 1858 03ec 9954     		strb	r1, [r3, r2]
 510:bluetooth_rxtx.c **** 			afh_map[i] = data[i];
 1859              		.loc 1 510 0 discriminator 2
 1860 03ee 0133     		adds	r3, r3, #1
 1861              	.LVL186:
 1862 03f0 0A2B     		cmp	r3, #10
 1863 03f2 F9D1     		bne	.L183
 1864              	.LBE18:
 513:bluetooth_rxtx.c **** 		*data_len = 10;
 1865              		.loc 1 513 0
 1866 03f4 634A     		ldr	r2, .L246+40
ARM GAS  /tmp/ccUrIl19.s 			page 80


 1867 03f6 0120     		movs	r0, #1
 1868              	.LVL187:
 1869 03f8 1070     		strb	r0, [r2]
 1870              	.LVL188:
 1871              	.L214:
 514:bluetooth_rxtx.c **** 		break;
 1872              		.loc 1 514 0
 1873 03fa 2B60     		str	r3, [r5]
 515:bluetooth_rxtx.c **** 
 1874              		.loc 1 515 0
 1875 03fc BDE8F081 		pop	{r4, r5, r6, r7, r8, pc}
 1876              	.LVL189:
 1877              	.L143:
 212:bluetooth_rxtx.c **** 
 1878              		.loc 1 212 0
 1879 0400 0023     		movs	r3, #0
 1880              	.LVL190:
 1881              	.L185:
 1882              	.LBB19:
 519:bluetooth_rxtx.c **** 		}
 1883              		.loc 1 519 0 discriminator 2
 1884 0402 5E49     		ldr	r1, .L246+32
 1885 0404 0022     		movs	r2, #0
 1886 0406 5A54     		strb	r2, [r3, r1]
 518:bluetooth_rxtx.c **** 			afh_map[i] = 0;
 1887              		.loc 1 518 0 discriminator 2
 1888 0408 0133     		adds	r3, r3, #1
 1889              	.LVL191:
 1890 040a 0A2B     		cmp	r3, #10
 1891 040c F9D1     		bne	.L185
 1892              	.LBE19:
 521:bluetooth_rxtx.c **** 		*data_len = 10;
 1893              		.loc 1 521 0
 1894 040e 5D49     		ldr	r1, .L246+40
 1895 0410 0A70     		strb	r2, [r1]
 1896 0412 B8E6     		b	.L223
 1897              	.LVL192:
 1898              	.L132:
 526:bluetooth_rxtx.c **** 		for(int i=0; i < 4; i++) {
 1899              		.loc 1 526 0
 1900 0414 5C4B     		ldr	r3, .L246+44
 1901 0416 1968     		ldr	r1, [r3]
 1902              	.LVL193:
 1903              	.LBB20:
 527:bluetooth_rxtx.c **** 			data[i] = (clock >> (8*i)) & 0xff;
 1904              		.loc 1 527 0
 1905 0418 0023     		movs	r3, #0
 1906              	.LVL194:
 1907              	.L187:
 1908 041a DA00     		lsls	r2, r3, #3
 528:bluetooth_rxtx.c **** 		}
 1909              		.loc 1 528 0 discriminator 2
 1910 041c 21FA02F2 		lsr	r2, r1, r2
 1911 0420 F254     		strb	r2, [r6, r3]
 527:bluetooth_rxtx.c **** 			data[i] = (clock >> (8*i)) & 0xff;
 1912              		.loc 1 527 0 discriminator 2
 1913 0422 0133     		adds	r3, r3, #1
ARM GAS  /tmp/ccUrIl19.s 			page 81


 1914              	.LVL195:
 1915 0424 042B     		cmp	r3, #4
 1916 0426 F8D1     		bne	.L187
 1917 0428 ADE6     		b	.L223
 1918              	.LVL196:
 1919              	.L153:
 1920              	.LBE20:
 534:bluetooth_rxtx.c **** 		break;
 1921              		.loc 1 534 0
 1922 042a 7378     		ldrb	r3, [r6, #1]	@ zero_extendqisi2
 1923 042c 3278     		ldrb	r2, [r6]	@ zero_extendqisi2
 1924 042e 43EA0222 		orr	r2, r3, r2, lsl #8
 1925 0432 514B     		ldr	r3, .L246+28
 1926 0434 1A80     		strh	r2, [r3]	@ movhi
 1927 0436 14E1     		b	.L197
 1928              	.L158:
 538:bluetooth_rxtx.c **** 
 1929              		.loc 1 538 0
 1930 0438 544B     		ldr	r3, .L246+48
 1931 043a 3078     		ldrb	r0, [r6]	@ zero_extendqisi2
 1932              	.LVL197:
 1933 043c 1988     		ldrh	r1, [r3]
 1934              	.LVL198:
 1935 043e 7278     		ldrb	r2, [r6, #1]	@ zero_extendqisi2
 1936 0440 89B2     		uxth	r1, r1
 1937 0442 42EA0022 		orr	r2, r2, r0, lsl #8
 1938 0446 0A44     		add	r2, r2, r1
 1939 0448 92B2     		uxth	r2, r2
 1940 044a 1A80     		strh	r2, [r3]	@ movhi
 541:bluetooth_rxtx.c **** 			clk_drift_correction = 320 / (uint16_t)(-clk_drift_ppm);
 1941              		.loc 1 541 0
 1942 044c 1A88     		ldrh	r2, [r3]
 1943 044e 5049     		ldr	r1, .L246+52
 1944 0450 12B2     		sxth	r2, r2
 1945 0452 002A     		cmp	r2, #0
 1946 0454 4F4A     		ldr	r2, .L246+56
 1947 0456 07DA     		bge	.L188
 542:bluetooth_rxtx.c **** 			clkn_next_drift_fix = clkn_last_drift_fix + clk_drift_correction;
 1948              		.loc 1 542 0
 1949 0458 1B88     		ldrh	r3, [r3]
 1950 045a 4FF4A070 		mov	r0, #320
 1951 045e 5B42     		negs	r3, r3
 1952 0460 9BB2     		uxth	r3, r3
 1953 0462 90FBF3F3 		sdiv	r3, r0, r3
 1954 0466 0AE0     		b	.L239
 1955              	.L188:
 546:bluetooth_rxtx.c **** 			clk_drift_correction = 320 / clk_drift_ppm;
 1956              		.loc 1 546 0
 1957 0468 1888     		ldrh	r0, [r3]
 1958 046a 00B2     		sxth	r0, r0
 1959 046c 0028     		cmp	r0, #0
 1960 046e 0DDD     		ble	.L189
 547:bluetooth_rxtx.c **** 			clkn_next_drift_fix = clkn_last_drift_fix + clk_drift_correction;
 1961              		.loc 1 547 0
 1962 0470 1B88     		ldrh	r3, [r3]
 1963 0472 4FF4A070 		mov	r0, #320
 1964 0476 1BB2     		sxth	r3, r3
ARM GAS  /tmp/ccUrIl19.s 			page 82


 1965 0478 90FBF3F3 		sdiv	r3, r0, r3
 1966 047c 9BB2     		uxth	r3, r3
 1967              	.L239:
 1968 047e 1380     		strh	r3, [r2]	@ movhi
 548:bluetooth_rxtx.c **** 		}
 1969              		.loc 1 548 0
 1970 0480 454B     		ldr	r3, .L246+60
 1971 0482 1868     		ldr	r0, [r3]
 1972 0484 1388     		ldrh	r3, [r2]
 1973 0486 9BB2     		uxth	r3, r3
 1974 0488 0344     		add	r3, r3, r0
 1975 048a 01E0     		b	.L218
 1976              	.L189:
 552:bluetooth_rxtx.c **** 			clkn_next_drift_fix = 0;
 1977              		.loc 1 552 0
 1978 048c 0023     		movs	r3, #0
 1979 048e 1380     		strh	r3, [r2]	@ movhi
 1980              	.L218:
 553:bluetooth_rxtx.c **** 		}
 1981              		.loc 1 553 0
 1982 0490 0B60     		str	r3, [r1]
 1983 0492 E6E0     		b	.L197
 1984              	.LVL199:
 1985              	.L133:
 559:bluetooth_rxtx.c **** 
 1986              		.loc 1 559 0
 1987 0494 0023     		movs	r3, #0
 1988 0496 2B60     		str	r3, [r5]
 561:bluetooth_rxtx.c **** 		hop_mode = HOP_BTLE;
 1989              		.loc 1 561 0
 1990 0498 E372     		strb	r3, [r4, #11]
 562:bluetooth_rxtx.c **** 		requested_mode = MODE_BT_FOLLOW_LE;
 1991              		.loc 1 562 0
 1992 049a 0323     		movs	r3, #3
 1993 049c A372     		strb	r3, [r4, #10]
 563:bluetooth_rxtx.c **** 
 1994              		.loc 1 563 0
 1995 049e 0923     		movs	r3, #9
 1996 04a0 4AE0     		b	.L222
 1997              	.L159:
 571:bluetooth_rxtx.c **** 		hop_mode = HOP_BTLE;
 1998              		.loc 1 571 0
 1999 04a2 0023     		movs	r3, #0
 2000 04a4 E372     		strb	r3, [r4, #11]
 572:bluetooth_rxtx.c **** 		requested_mode = MODE_BT_CFO_LE;
 2001              		.loc 1 572 0
 2002 04a6 0323     		movs	r3, #3
 2003 04a8 A372     		strb	r3, [r4, #10]
 573:bluetooth_rxtx.c **** 
 2004              		.loc 1 573 0
 2005 04aa 1123     		movs	r3, #17
 2006 04ac 44E0     		b	.L222
 2007              	.L160:
 580:bluetooth_rxtx.c **** 		hop_mode = HOP_BTLE;
 2008              		.loc 1 580 0
 2009 04ae 0023     		movs	r3, #0
 2010 04b0 E372     		strb	r3, [r4, #11]
ARM GAS  /tmp/ccUrIl19.s 			page 83


 581:bluetooth_rxtx.c **** 		requested_mode = MODE_BT_RSSI_LE;
 2011              		.loc 1 581 0
 2012 04b2 0323     		movs	r3, #3
 2013 04b4 A372     		strb	r3, [r4, #10]
 582:bluetooth_rxtx.c **** 
 2014              		.loc 1 582 0
 2015 04b6 1223     		movs	r3, #18
 2016 04b8 3EE0     		b	.L222
 2017              	.L134:
 212:bluetooth_rxtx.c **** 
 2018              		.loc 1 212 0
 2019 04ba 0023     		movs	r3, #0
 2020              	.LVL200:
 2021              	.L191:
 2022              	.LBB21:
 590:bluetooth_rxtx.c **** 		}
 2023              		.loc 1 590 0 discriminator 2
 2024 04bc 2749     		ldr	r1, .L246
 2025 04be DA00     		lsls	r2, r3, #3
 2026 04c0 4968     		ldr	r1, [r1, #4]
 2027 04c2 21FA02F2 		lsr	r2, r1, r2
 2028 04c6 F254     		strb	r2, [r6, r3]
 589:bluetooth_rxtx.c **** 			data[i] = (le.access_address >> (8*i)) & 0xff;
 2029              		.loc 1 589 0 discriminator 2
 2030 04c8 0133     		adds	r3, r3, #1
 2031              	.LVL201:
 2032 04ca 042B     		cmp	r3, #4
 2033 04cc F6D1     		bne	.L191
 2034 04ce 5AE6     		b	.L223
 2035              	.LVL202:
 2036              	.L135:
 2037              	.LBE21:
 596:bluetooth_rxtx.c **** 		le.target_set = 1;
 2038              		.loc 1 596 0
 2039 04d0 B378     		ldrb	r3, [r6, #2]	@ zero_extendqisi2
 2040 04d2 7278     		ldrb	r2, [r6, #1]	@ zero_extendqisi2
 2041 04d4 1B04     		lsls	r3, r3, #16
 2042 04d6 43EA0223 		orr	r3, r3, r2, lsl #8
 2043 04da 3278     		ldrb	r2, [r6]	@ zero_extendqisi2
 2044 04dc F078     		ldrb	r0, [r6, #3]	@ zero_extendqisi2
 2045              	.LVL203:
 2046 04de 1343     		orrs	r3, r3, r2
 2047 04e0 43EA0060 		orr	r0, r3, r0, lsl #24
 2048 04e4 FFF7FEFF 		bl	le_set_access_address
 2049              	.LVL204:
 597:bluetooth_rxtx.c **** 		break;
 2050              		.loc 1 597 0
 2051 04e8 0120     		movs	r0, #1
 2052 04ea 1C4B     		ldr	r3, .L246
 2053 04ec AFE0     		b	.L213
 2054              	.LVL205:
 2055              	.L137:
 607:bluetooth_rxtx.c **** 		data[1] = 0x37;
 2056              		.loc 1 607 0
 2057 04ee 1323     		movs	r3, #19
 2058 04f0 3370     		strb	r3, [r6]
 608:bluetooth_rxtx.c **** 		*data_len = 2;
ARM GAS  /tmp/ccUrIl19.s 			page 84


 2059              		.loc 1 608 0
 2060 04f2 3723     		movs	r3, #55
 2061              	.L242:
 2062 04f4 7370     		strb	r3, [r6, #1]
 2063 04f6 2EE0     		b	.L237
 2064              	.L138:
 613:bluetooth_rxtx.c **** 		*data_len = 1;
 2065              		.loc 1 613 0
 2066 04f8 184B     		ldr	r3, .L246
 2067 04fa 5B69     		ldr	r3, [r3, #20]
 2068 04fc 0033     		adds	r3, r3, #0
 2069 04fe 18BF     		it	ne
 2070 0500 0123     		movne	r3, #1
 2071 0502 F9E6     		b	.L215
 2072              	.L139:
 618:bluetooth_rxtx.c **** 		break;
 2073              		.loc 1 618 0
 2074 0504 0A88     		ldrh	r2, [r1]
 2075 0506 154B     		ldr	r3, .L246
 2076 0508 0032     		adds	r2, r2, #0
 2077 050a 18BF     		it	ne
 2078 050c 0122     		movne	r2, #1
 2079 050e 5A61     		str	r2, [r3, #20]
 2080 0510 A7E0     		b	.L197
 2081              	.L140:
 622:bluetooth_rxtx.c **** 		if (p != NULL) {
 2082              		.loc 1 622 0
 2083 0512 FFF7FEFF 		bl	dequeue
 2084              	.LVL206:
 623:bluetooth_rxtx.c **** 			memcpy(data, (void *)p, sizeof(usb_pkt_rx));
 2085              		.loc 1 623 0
 2086 0516 0146     		mov	r1, r0
 2087 0518 28B1     		cbz	r0, .L192
 624:bluetooth_rxtx.c **** 			*data_len = sizeof(usb_pkt_rx);
 2088              		.loc 1 624 0
 2089 051a 3046     		mov	r0, r6
 2090              	.LVL207:
 2091 051c 4022     		movs	r2, #64
 2092 051e FFF7FEFF 		bl	memcpy
 2093              	.LVL208:
 625:bluetooth_rxtx.c **** 		} else {
 2094              		.loc 1 625 0
 2095 0522 4023     		movs	r3, #64
 2096 0524 2FE6     		b	.L223
 2097              	.LVL209:
 2098              	.L192:
 627:bluetooth_rxtx.c **** 			*data_len = 1;
 2099              		.loc 1 627 0
 2100 0526 3070     		strb	r0, [r6]
 2101              	.LVL210:
 2102              	.L211:
 628:bluetooth_rxtx.c **** 		}
 2103              		.loc 1 628 0
 2104 0528 0120     		movs	r0, #1
 2105              	.L212:
 2106 052a 2860     		str	r0, [r5]
 2107 052c BDE8F081 		pop	{r4, r5, r6, r7, r8, pc}
ARM GAS  /tmp/ccUrIl19.s 			page 85


 2108              	.LVL211:
 2109              	.L141:
 633:bluetooth_rxtx.c **** 
 2110              		.loc 1 633 0
 2111 0530 0023     		movs	r3, #0
 2112 0532 2B60     		str	r3, [r5]
 635:bluetooth_rxtx.c **** 		requested_mode = MODE_BT_PROMISC_LE;
 2113              		.loc 1 635 0
 2114 0534 A372     		strb	r3, [r4, #10]
 636:bluetooth_rxtx.c **** 
 2115              		.loc 1 636 0
 2116 0536 0A23     		movs	r3, #10
 2117              	.L222:
 2118 0538 A374     		strb	r3, [r4, #18]
 638:bluetooth_rxtx.c **** 		cs_threshold_calc_and_set(channel);
 2119              		.loc 1 638 0
 2120 053a FFF7FEFF 		bl	queue_init
 2121              	.LVL212:
 2122              	.L224:
 639:bluetooth_rxtx.c **** 		break;
 2123              		.loc 1 639 0
 2124 053e 074B     		ldr	r3, .L246
 2125              	.L227:
 2126 0540 1888     		ldrh	r0, [r3]
 2127 0542 80B2     		uxth	r0, r0
 2128 0544 FFF7FEFF 		bl	cs_threshold_calc_and_set
 2129              	.LVL213:
 2130 0548 8BE0     		b	.L197
 2131              	.LVL214:
 2132              	.L144:
 643:bluetooth_rxtx.c **** 		data[0] = (reg_val >> 8) & 0xff;
 2133              		.loc 1 643 0
 2134 054a 0878     		ldrb	r0, [r1]	@ zero_extendqisi2
 2135              	.LVL215:
 2136 054c FFF7FEFF 		bl	cc2400_get
 2137              	.LVL216:
 644:bluetooth_rxtx.c **** 		data[1] = reg_val & 0xff;
 2138              		.loc 1 644 0
 2139 0550 030A     		lsrs	r3, r0, #8
 2140 0552 3370     		strb	r3, [r6]
 645:bluetooth_rxtx.c **** 		*data_len = 2;
 2141              		.loc 1 645 0
 2142 0554 7070     		strb	r0, [r6, #1]
 2143              	.LVL217:
 2144              	.L237:
 646:bluetooth_rxtx.c **** 		break;
 2145              		.loc 1 646 0
 2146 0556 0223     		movs	r3, #2
 2147 0558 15E6     		b	.L223
 2148              	.L247:
 2149 055a 00BF     		.align	2
 2150              	.L246:
 2151 055c 00000000 		.word	.LANCHOR1
 2152 0560 00000000 		.word	.LC4
 2153 0564 A7000000 		.word	.LANCHOR2+167
 2154 0568 00000000 		.word	cs_threshold_req
 2155 056c 00000000 		.word	target
ARM GAS  /tmp/ccUrIl19.s 			page 86


 2156 0570 00000000 		.word	clkn_offset
 2157 0574 98C00920 		.word	537510040
 2158 0578 00000000 		.word	clk100ns_offset
 2159 057c 00000000 		.word	afh_map
 2160 0580 00000000 		.word	used_channels
 2161 0584 00000000 		.word	afh_enabled
 2162 0588 00000000 		.word	clkn
 2163 058c 00000000 		.word	clk_drift_ppm
 2164 0590 00000000 		.word	clkn_next_drift_fix
 2165 0594 00000000 		.word	clk_drift_correction
 2166 0598 00000000 		.word	clkn_last_drift_fix
 2167              	.LVL218:
 2168              	.L148:
 650:bluetooth_rxtx.c **** 		break;
 2169              		.loc 1 650 0
 2170 059c 0878     		ldrb	r0, [r1]	@ zero_extendqisi2
 2171              	.LVL219:
 2172 059e 4988     		ldrh	r1, [r1, #2]
 2173              	.LVL220:
 2174              	.L225:
 2175 05a0 FFF7FEFF 		bl	cc2400_set
 2176              	.LVL221:
 2177 05a4 5DE0     		b	.L197
 2178              	.L162:
 2179              	.LVL222:
 654:bluetooth_rxtx.c **** 			reg_val = (data[(i*3)+1] << 8) | data[(i*3)+2];
 2180              		.loc 1 654 0 discriminator 1
 2181 05a6 3B88     		ldrh	r3, [r7]
 2182 05a8 A342     		cmp	r3, r4
 2183 05aa 5AD9     		bls	.L197
 655:bluetooth_rxtx.c **** 			cc2400_set(data[i*3], reg_val);
 2184              		.loc 1 655 0 discriminator 2
 2185 05ac 0323     		movs	r3, #3
 2186 05ae 6343     		muls	r3, r4, r3
 2187              	.LVL223:
 2188 05b0 F218     		adds	r2, r6, r3
 2189              	.LVL224:
 2190 05b2 5178     		ldrb	r1, [r2, #1]	@ zero_extendqisi2
 2191 05b4 9278     		ldrb	r2, [r2, #2]	@ zero_extendqisi2
 2192              	.LVL225:
 656:bluetooth_rxtx.c **** 		}
 2193              		.loc 1 656 0 discriminator 2
 2194 05b6 F05C     		ldrb	r0, [r6, r3]	@ zero_extendqisi2
 2195 05b8 42EA0121 		orr	r1, r2, r1, lsl #8
 654:bluetooth_rxtx.c **** 			reg_val = (data[(i*3)+1] << 8) | data[(i*3)+2];
 2196              		.loc 1 654 0 discriminator 2
 2197 05bc 0134     		adds	r4, r4, #1
 2198              	.LVL226:
 656:bluetooth_rxtx.c **** 		}
 2199              		.loc 1 656 0 discriminator 2
 2200 05be FFF7FEFF 		bl	cc2400_set
 2201              	.LVL227:
 654:bluetooth_rxtx.c **** 			reg_val = (data[(i*3)+1] << 8) | data[(i*3)+2];
 2202              		.loc 1 654 0 discriminator 2
 2203 05c2 E4B2     		uxtb	r4, r4
 2204              	.LVL228:
 2205 05c4 EFE7     		b	.L162
ARM GAS  /tmp/ccUrIl19.s 			page 87


 2206              	.LVL229:
 2207              	.L155:
 212:bluetooth_rxtx.c **** 
 2208              		.loc 1 212 0
 2209 05c6 0024     		movs	r4, #0
 2210              	.LVL230:
 2211              	.L196:
 663:bluetooth_rxtx.c **** 			data[i*3] = i;
 2212              		.loc 1 663 0 discriminator 2
 2213 05c8 2046     		mov	r0, r4
 2214 05ca FFF7FEFF 		bl	cc2400_get
 2215              	.LVL231:
 664:bluetooth_rxtx.c **** 			data[(i*3)+1] = (reg_val >> 8) & 0xff;
 2216              		.loc 1 664 0 discriminator 2
 2217 05ce 3470     		strb	r4, [r6]
 662:bluetooth_rxtx.c **** 			reg_val = cc2400_get(i);
 2218              		.loc 1 662 0 discriminator 2
 2219 05d0 0134     		adds	r4, r4, #1
 2220              	.LVL232:
 2221 05d2 E4B2     		uxtb	r4, r4
 2222              	.LVL233:
 665:bluetooth_rxtx.c **** 			data[(i*3)+2] = reg_val & 0xff;
 2223              		.loc 1 665 0 discriminator 2
 2224 05d4 030A     		lsrs	r3, r0, #8
 662:bluetooth_rxtx.c **** 			reg_val = cc2400_get(i);
 2225              		.loc 1 662 0 discriminator 2
 2226 05d6 2E2C     		cmp	r4, #46
 665:bluetooth_rxtx.c **** 			data[(i*3)+2] = reg_val & 0xff;
 2227              		.loc 1 665 0 discriminator 2
 2228 05d8 7370     		strb	r3, [r6, #1]
 666:bluetooth_rxtx.c **** 		}
 2229              		.loc 1 666 0 discriminator 2
 2230 05da B070     		strb	r0, [r6, #2]
 2231 05dc 06F10306 		add	r6, r6, #3
 662:bluetooth_rxtx.c **** 			reg_val = cc2400_get(i);
 2232              		.loc 1 662 0 discriminator 2
 2233 05e0 F2D1     		bne	.L196
 668:bluetooth_rxtx.c **** 		break;
 2234              		.loc 1 668 0
 2235 05e2 8723     		movs	r3, #135
 2236 05e4 CFE5     		b	.L223
 2237              	.LVL234:
 2238              	.L157:
 672:bluetooth_rxtx.c **** 		memcpy(&tx_pkt, data, i);
 2239              		.loc 1 672 0
 2240 05e6 B279     		ldrb	r2, [r6, #6]	@ zero_extendqisi2
 673:bluetooth_rxtx.c **** 		//tx_pkt.channel = data[4] << 8 | data[5];
 2241              		.loc 1 673 0
 2242 05e8 2148     		ldr	r0, .L248
 2243              	.LVL235:
 672:bluetooth_rxtx.c **** 		memcpy(&tx_pkt, data, i);
 2244              		.loc 1 672 0
 2245 05ea 0732     		adds	r2, r2, #7
 673:bluetooth_rxtx.c **** 		//tx_pkt.channel = data[4] << 8 | data[5];
 2246              		.loc 1 673 0
 2247 05ec 3146     		mov	r1, r6
 2248              	.LVL236:
ARM GAS  /tmp/ccUrIl19.s 			page 88


 2249 05ee D2B2     		uxtb	r2, r2
 2250 05f0 FFF7FEFF 		bl	memcpy
 2251              	.LVL237:
 675:bluetooth_rxtx.c **** 		*data_len = 0;
 2252              		.loc 1 675 0
 2253 05f4 1023     		movs	r3, #16
 2254 05f6 57E6     		b	.L236
 2255              	.LVL238:
 2256              	.L145:
 680:bluetooth_rxtx.c **** 		memcpy(slave_mac_address_data, data, dlen);
 2257              		.loc 1 680 0
 2258 05f8 1846     		mov	r0, r3
 2259              	.LVL239:
 2260 05fa FFF7FEFF 		bl	malloc
 2261              	.LVL240:
 2262 05fe 1D4B     		ldr	r3, .L248+4
 681:bluetooth_rxtx.c **** 		requested_mode = MODE_BT_SLAVE_LE;
 2263              		.loc 1 681 0
 2264 0600 3146     		mov	r1, r6
 2265 0602 226A     		ldr	r2, [r4, #32]
 680:bluetooth_rxtx.c **** 		memcpy(slave_mac_address_data, data, dlen);
 2266              		.loc 1 680 0
 2267 0604 1860     		str	r0, [r3]
 681:bluetooth_rxtx.c **** 		requested_mode = MODE_BT_SLAVE_LE;
 2268              		.loc 1 681 0
 2269 0606 FFF7FEFF 		bl	memcpy
 2270              	.LVL241:
 682:bluetooth_rxtx.c **** 		break;
 2271              		.loc 1 682 0
 2272 060a 0C23     		movs	r3, #12
 2273 060c 09E0     		b	.L220
 2274              	.LVL242:
 2275              	.L161:
 687:bluetooth_rxtx.c **** 		memcpy(slave_mac_address_data, data, dlen);
 2276              		.loc 1 687 0
 2277 060e 1846     		mov	r0, r3
 2278              	.LVL243:
 2279 0610 FFF7FEFF 		bl	malloc
 2280              	.LVL244:
 2281 0614 174B     		ldr	r3, .L248+4
 688:bluetooth_rxtx.c **** 		requested_mode = MODE_BT_SYNC_LE;
 2282              		.loc 1 688 0
 2283 0616 3146     		mov	r1, r6
 2284 0618 226A     		ldr	r2, [r4, #32]
 687:bluetooth_rxtx.c **** 		memcpy(slave_mac_address_data, data, dlen);
 2285              		.loc 1 687 0
 2286 061a 1860     		str	r0, [r3]
 688:bluetooth_rxtx.c **** 		requested_mode = MODE_BT_SYNC_LE;
 2287              		.loc 1 688 0
 2288 061c FFF7FEFF 		bl	memcpy
 2289              	.LVL245:
 689:bluetooth_rxtx.c **** 		break;
 2290              		.loc 1 689 0
 2291 0620 1323     		movs	r3, #19
 2292              	.L220:
 2293 0622 A374     		strb	r3, [r4, #18]
 2294 0624 1DE0     		b	.L197
ARM GAS  /tmp/ccUrIl19.s 			page 89


 2295              	.LVL246:
 2296              	.L147:
 695:bluetooth_rxtx.c **** 		le.target[1] = data[4];
 2297              		.loc 1 695 0
 2298 0626 7279     		ldrb	r2, [r6, #5]	@ zero_extendqisi2
 2299 0628 134B     		ldr	r3, .L248+8
 701:bluetooth_rxtx.c **** 		break;
 2300              		.loc 1 701 0
 2301 062a 0120     		movs	r0, #1
 2302              	.LVL247:
 695:bluetooth_rxtx.c **** 		le.target[1] = data[4];
 2303              		.loc 1 695 0
 2304 062c 83F83820 		strb	r2, [r3, #56]
 696:bluetooth_rxtx.c **** 		le.target[2] = data[3];
 2305              		.loc 1 696 0
 2306 0630 3279     		ldrb	r2, [r6, #4]	@ zero_extendqisi2
 2307 0632 83F83920 		strb	r2, [r3, #57]
 697:bluetooth_rxtx.c **** 		le.target[3] = data[2];
 2308              		.loc 1 697 0
 2309 0636 F278     		ldrb	r2, [r6, #3]	@ zero_extendqisi2
 2310 0638 83F83A20 		strb	r2, [r3, #58]
 698:bluetooth_rxtx.c **** 		le.target[4] = data[1];
 2311              		.loc 1 698 0
 2312 063c B278     		ldrb	r2, [r6, #2]	@ zero_extendqisi2
 2313 063e 83F83B20 		strb	r2, [r3, #59]
 699:bluetooth_rxtx.c **** 		le.target[5] = data[0];
 2314              		.loc 1 699 0
 2315 0642 7278     		ldrb	r2, [r6, #1]	@ zero_extendqisi2
 2316 0644 83F83C20 		strb	r2, [r3, #60]
 700:bluetooth_rxtx.c **** 		le.target_set = 1;
 2317              		.loc 1 700 0
 2318 0648 3278     		ldrb	r2, [r6]	@ zero_extendqisi2
 2319 064a 83F83D20 		strb	r2, [r3, #61]
 2320              	.LVL248:
 2321              	.L213:
 701:bluetooth_rxtx.c **** 		break;
 2322              		.loc 1 701 0
 2323 064e 1864     		str	r0, [r3, #64]
 702:bluetooth_rxtx.c **** 
 2324              		.loc 1 702 0
 2325 0650 BDE8F081 		pop	{r4, r5, r6, r7, r8, pc}
 2326              	.LVL249:
 2327              	.L149:
 706:bluetooth_rxtx.c **** 		break;
 2328              		.loc 1 706 0
 2329 0654 0B78     		ldrb	r3, [r1]	@ zero_extendqisi2
 2330 0656 E374     		strb	r3, [r4, #19]
 2331 0658 03E0     		b	.L197
 2332              	.L150:
 715:bluetooth_rxtx.c **** 		ego_mode = request_params[0];
 2333              		.loc 1 715 0
 2334 065a 0D23     		movs	r3, #13
 2335 065c A374     		strb	r3, [r4, #18]
 716:bluetooth_rxtx.c **** 		break;
 2336              		.loc 1 716 0
 2337 065e 0B78     		ldrb	r3, [r1]	@ zero_extendqisi2
 2338 0660 2375     		strb	r3, [r4, #20]
ARM GAS  /tmp/ccUrIl19.s 			page 90


 2339              	.LVL250:
 2340              	.L197:
 722:bluetooth_rxtx.c **** }
 2341              		.loc 1 722 0
 2342 0662 0120     		movs	r0, #1
 2343 0664 BDE8F081 		pop	{r4, r5, r6, r7, r8, pc}
 2344              	.LVL251:
 2345              	.L204:
 329:bluetooth_rxtx.c **** 		}
 2346              		.loc 1 329 0
 2347 0668 0020     		movs	r0, #0
 723:bluetooth_rxtx.c **** 
 2348              		.loc 1 723 0
 2349 066a BDE8F081 		pop	{r4, r5, r6, r7, r8, pc}
 2350              	.LVL252:
 2351              	.L249:
 2352 066e 00BF     		.align	2
 2353              	.L248:
 2354 0670 00000000 		.word	tx_pkt
 2355 0674 00000000 		.word	slave_mac_address_data
 2356 0678 00000000 		.word	.LANCHOR1
 2357              		.cfi_endproc
 2358              	.LFE3:
 2360              		.section	.text.enqueue_time,"ax",%progbits
 2361              		.align	1
 2362              		.thumb
 2363              		.thumb_func
 2365              	enqueue_time:
 2366              	.LFB1:
 165:bluetooth_rxtx.c **** 	usb_time_rx* f = usb_enqueue_time();
 2367              		.loc 1 165 0
 2368              		.cfi_startproc
 2369              		@ args = 0, pretend = 0, frame = 0
 2370              		@ frame_needed = 0, uses_anonymous_args = 0
 2371              	.LVL253:
 2372 0000 10B5     		push	{r4, lr}
 2373              		.cfi_def_cfa_offset 8
 2374              		.cfi_offset 4, -8
 2375              		.cfi_offset 14, -4
 165:bluetooth_rxtx.c **** 	usb_time_rx* f = usb_enqueue_time();
 2376              		.loc 1 165 0
 2377 0002 0446     		mov	r4, r0
 166:bluetooth_rxtx.c **** 	if  (f == NULL) {
 2378              		.loc 1 166 0
 2379 0004 FFF7FEFF 		bl	usb_enqueue_time
 2380              	.LVL254:
 167:bluetooth_rxtx.c **** 		status |= FIFO_OVERFLOW;
 2381              		.loc 1 167 0
 2382 0008 28B9     		cbnz	r0, .L251
 2383              	.LVL255:
 2384              	.LBB24:
 2385              	.LBB25:
 168:bluetooth_rxtx.c **** 		return 0;
 2386              		.loc 1 168 0
 2387 000a 064B     		ldr	r3, .L253
 2388 000c 5978     		ldrb	r1, [r3, #1]	@ zero_extendqisi2
 2389 000e 41F00401 		orr	r1, r1, #4
ARM GAS  /tmp/ccUrIl19.s 			page 91


 2390 0012 5970     		strb	r1, [r3, #1]
 2391 0014 10BD     		pop	{r4, pc}
 2392              	.LVL256:
 2393              	.L251:
 2394              	.LBE25:
 2395              	.LBE24:
 171:bluetooth_rxtx.c **** 	return 1;
 2396              		.loc 1 171 0
 2397 0016 2146     		mov	r1, r4
 2398 0018 4022     		movs	r2, #64
 2399 001a FFF7FEFF 		bl	memcpy
 2400              	.LVL257:
 172:bluetooth_rxtx.c **** }
 2401              		.loc 1 172 0
 2402 001e 0120     		movs	r0, #1
 173:bluetooth_rxtx.c **** //
 2403              		.loc 1 173 0
 2404 0020 10BD     		pop	{r4, pc}
 2405              	.LVL258:
 2406              	.L254:
 2407 0022 00BF     		.align	2
 2408              	.L253:
 2409 0024 00000000 		.word	.LANCHOR0
 2410              		.cfi_endproc
 2411              	.LFE1:
 2413              		.section	.text.msleep.constprop.3,"ax",%progbits
 2414              		.align	1
 2415              		.thumb
 2416              		.thumb_func
 2418              	msleep.constprop.3:
 2419              	.LFB47:
 815:bluetooth_rxtx.c **** {
 2420              		.loc 1 815 0
 2421              		.cfi_startproc
 2422              		@ args = 0, pretend = 0, frame = 0
 2423              		@ frame_needed = 0, uses_anonymous_args = 0
 2424              		@ link register save eliminated.
 2425              	.LVL259:
 817:bluetooth_rxtx.c **** 	uint32_t stop_at = now + millis * 10000 / 3125; // millis -> clkn ticks
 2426              		.loc 1 817 0
 2427 0000 054B     		ldr	r3, .L258
 2428 0002 1A68     		ldr	r2, [r3]
 2429              	.LVL260:
 2430 0004 22F07F42 		bic	r2, r2, #-16777216
 2431              	.LVL261:
 818:bluetooth_rxtx.c **** 
 2432              		.loc 1 818 0
 2433 0008 2032     		adds	r2, r2, #32
 2434              	.LVL262:
 2435              	.L257:
 825:bluetooth_rxtx.c **** 	}
 2436              		.loc 1 825 0
 2437 000a 1968     		ldr	r1, [r3]
 2438 000c 21F07F41 		bic	r1, r1, #-16777216
 2439 0010 9142     		cmp	r1, r2
 2440 0012 FAD3     		bcc	.L257
 827:bluetooth_rxtx.c **** 
ARM GAS  /tmp/ccUrIl19.s 			page 92


 2441              		.loc 1 827 0
 2442 0014 7047     		bx	lr
 2443              	.L259:
 2444 0016 00BF     		.align	2
 2445              	.L258:
 2446 0018 00000000 		.word	clkn
 2447              		.cfi_endproc
 2448              	.LFE47:
 2450              		.section	.text.enqueue_with_ts,"ax",%progbits
 2451              		.align	1
 2452              		.global	enqueue_with_ts
 2453              		.thumb
 2454              		.thumb_func
 2456              	enqueue_with_ts:
 2457              	.LFB2:
 177:bluetooth_rxtx.c **** 	usb_pkt_rx* f = usb_enqueue();
 2458              		.loc 1 177 0
 2459              		.cfi_startproc
 2460              		@ args = 0, pretend = 0, frame = 0
 2461              		@ frame_needed = 0, uses_anonymous_args = 0
 2462              	.LVL263:
 2463 0000 2DE9F041 		push	{r4, r5, r6, r7, r8, lr}
 2464              		.cfi_def_cfa_offset 24
 2465              		.cfi_offset 4, -24
 2466              		.cfi_offset 5, -20
 2467              		.cfi_offset 6, -16
 2468              		.cfi_offset 7, -12
 2469              		.cfi_offset 8, -8
 2470              		.cfi_offset 14, -4
 177:bluetooth_rxtx.c **** 	usb_pkt_rx* f = usb_enqueue();
 2471              		.loc 1 177 0
 2472 0004 0646     		mov	r6, r0
 2473 0006 0F46     		mov	r7, r1
 2474 0008 9046     		mov	r8, r2
 178:bluetooth_rxtx.c **** 
 2475              		.loc 1 178 0
 2476 000a FFF7FEFF 		bl	usb_enqueue
 2477              	.LVL264:
 2478 000e 104D     		ldr	r5, .L263
 181:bluetooth_rxtx.c **** 		status |= FIFO_OVERFLOW;
 2479              		.loc 1 181 0
 2480 0010 0446     		mov	r4, r0
 2481 0012 28B9     		cbnz	r0, .L261
 182:bluetooth_rxtx.c **** 		return 0;
 2482              		.loc 1 182 0
 2483 0014 6B78     		ldrb	r3, [r5, #1]	@ zero_extendqisi2
 2484 0016 43F00403 		orr	r3, r3, #4
 2485 001a 6B70     		strb	r3, [r5, #1]
 183:bluetooth_rxtx.c **** 	}
 2486              		.loc 1 183 0
 2487 001c BDE8F081 		pop	{r4, r5, r6, r7, r8, pc}
 2488              	.LVL265:
 2489              	.L261:
 191:bluetooth_rxtx.c **** 	f->rssi_avg = 0;
 2490              		.loc 1 191 0
 2491 0020 0C4B     		ldr	r3, .L263+4
 186:bluetooth_rxtx.c **** 
ARM GAS  /tmp/ccUrIl19.s 			page 93


 2492              		.loc 1 186 0
 2493 0022 0670     		strb	r6, [r0]
 191:bluetooth_rxtx.c **** 	f->rssi_avg = 0;
 2494              		.loc 1 191 0
 2495 0024 1B88     		ldrh	r3, [r3]
 188:bluetooth_rxtx.c **** 	f->clk100ns = ts;
 2496              		.loc 1 188 0
 2497 0026 0026     		movs	r6, #0
 191:bluetooth_rxtx.c **** 	f->rssi_avg = 0;
 2498              		.loc 1 191 0
 2499 0028 9BB2     		uxth	r3, r3
 2500 002a 623B     		subs	r3, r3, #98
 188:bluetooth_rxtx.c **** 	f->clk100ns = ts;
 2501              		.loc 1 188 0
 2502 002c C670     		strb	r6, [r0, #3]
 189:bluetooth_rxtx.c **** 
 2503              		.loc 1 189 0
 2504 002e C0F80480 		str	r8, [r0, #4]
 191:bluetooth_rxtx.c **** 	f->rssi_avg = 0;
 2505              		.loc 1 191 0
 2506 0032 8370     		strb	r3, [r0, #2]
 192:bluetooth_rxtx.c **** 	f->rssi_count = 0;
 2507              		.loc 1 192 0
 2508 0034 8672     		strb	r6, [r0, #10]
 193:bluetooth_rxtx.c **** 
 2509              		.loc 1 193 0
 2510 0036 C672     		strb	r6, [r0, #11]
 195:bluetooth_rxtx.c **** 
 2511              		.loc 1 195 0
 2512 0038 3946     		mov	r1, r7
 2513 003a 3222     		movs	r2, #50
 2514 003c 0E30     		adds	r0, r0, #14
 2515              	.LVL266:
 2516 003e FFF7FEFF 		bl	memcpy
 2517              	.LVL267:
 197:bluetooth_rxtx.c **** 	status = 0;
 2518              		.loc 1 197 0
 2519 0042 6B78     		ldrb	r3, [r5, #1]	@ zero_extendqisi2
 198:bluetooth_rxtx.c **** 
 2520              		.loc 1 198 0
 2521 0044 6E70     		strb	r6, [r5, #1]
 197:bluetooth_rxtx.c **** 	status = 0;
 2522              		.loc 1 197 0
 2523 0046 6370     		strb	r3, [r4, #1]
 200:bluetooth_rxtx.c **** }
 2524              		.loc 1 200 0
 2525 0048 0120     		movs	r0, #1
 201:bluetooth_rxtx.c **** 
 2526              		.loc 1 201 0
 2527 004a BDE8F081 		pop	{r4, r5, r6, r7, r8, pc}
 2528              	.LVL268:
 2529              	.L264:
 2530 004e 00BF     		.align	2
 2531              	.L263:
 2532 0050 00000000 		.word	.LANCHOR0
 2533 0054 00000000 		.word	.LANCHOR1
 2534              		.cfi_endproc
ARM GAS  /tmp/ccUrIl19.s 			page 94


 2535              	.LFE2:
 2537              		.section	.text.TIMER0_IRQHandler,"ax",%progbits
 2538              		.align	1
 2539              		.global	TIMER0_IRQHandler
 2540              		.thumb
 2541              		.thumb_func
 2543              	TIMER0_IRQHandler:
 2544              	.LFB4:
 727:bluetooth_rxtx.c **** 	if (T0IR & TIR_MR0_Interrupt) {
 2545              		.loc 1 727 0
 2546              		.cfi_startproc
 2547              		@ args = 0, pretend = 0, frame = 0
 2548              		@ frame_needed = 0, uses_anonymous_args = 0
 2549 0000 70B5     		push	{r4, r5, r6, lr}
 2550              		.cfi_def_cfa_offset 16
 2551              		.cfi_offset 4, -16
 2552              		.cfi_offset 5, -12
 2553              		.cfi_offset 6, -8
 2554              		.cfi_offset 14, -4
 728:bluetooth_rxtx.c **** 
 2555              		.loc 1 728 0
 2556 0002 4FF04023 		mov	r3, #1073758208
 2557 0006 1B68     		ldr	r3, [r3]
 2558 0008 DB07     		lsls	r3, r3, #31
 2559 000a 7FD5     		bpl	.L265
 2560              	.LBB26:
 730:bluetooth_rxtx.c **** 		clkn_offset = 0;
 2561              		.loc 1 730 0
 2562 000c 4049     		ldr	r1, .L288
 2563 000e 414B     		ldr	r3, .L288+4
 2564 0010 0868     		ldr	r0, [r1]
 2565 0012 1A68     		ldr	r2, [r3]
 2566 0014 0244     		add	r2, r2, r0
 2567 0016 0132     		adds	r2, r2, #1
 2568 0018 0A60     		str	r2, [r1]
 731:bluetooth_rxtx.c **** 
 2569              		.loc 1 731 0
 2570 001a 0022     		movs	r2, #0
 2571 001c 1A60     		str	r2, [r3]
 738:bluetooth_rxtx.c **** 			if ((clkn & 0x7f) == 0)
 2572              		.loc 1 738 0
 2573 001e 3E4A     		ldr	r2, .L288+8
 733:bluetooth_rxtx.c **** 
 2574              		.loc 1 733 0
 2575 0020 0C68     		ldr	r4, [r1]
 2576 0022 3E4B     		ldr	r3, .L288+12
 738:bluetooth_rxtx.c **** 			if ((clkn & 0x7f) == 0)
 2577              		.loc 1 738 0
 2578 0024 967A     		ldrb	r6, [r2, #10]	@ zero_extendqisi2
 733:bluetooth_rxtx.c **** 
 2579              		.loc 1 733 0
 2580 0026 D869     		ldr	r0, [r3, #28]
 2581              	.LVL269:
 2582 0028 1546     		mov	r5, r2
 738:bluetooth_rxtx.c **** 			if ((clkn & 0x7f) == 0)
 2583              		.loc 1 738 0
 2584 002a 16B1     		cbz	r6, .L267
ARM GAS  /tmp/ccUrIl19.s 			page 95


 738:bluetooth_rxtx.c **** 			if ((clkn & 0x7f) == 0)
 2585              		.loc 1 738 0 is_stmt 0 discriminator 1
 2586 002c 967A     		ldrb	r6, [r2, #10]	@ zero_extendqisi2
 2587 002e 012E     		cmp	r6, #1
 2588 0030 05D1     		bne	.L268
 2589              	.L267:
 739:bluetooth_rxtx.c **** 				do_hop = 1;
 2590              		.loc 1 739 0 is_stmt 1
 2591 0032 0B68     		ldr	r3, [r1]
 2592 0034 5E06     		lsls	r6, r3, #25
 2593 0036 37D1     		bne	.L269
 740:bluetooth_rxtx.c **** 		}
 2594              		.loc 1 740 0
 2595 0038 0123     		movs	r3, #1
 2596 003a EB72     		strb	r3, [r5, #11]
 2597 003c 34E0     		b	.L269
 2598              	.L268:
 743:bluetooth_rxtx.c **** 			if ((clkn & 0x1) == 0)
 2599              		.loc 1 743 0
 2600 003e 957A     		ldrb	r5, [r2, #10]	@ zero_extendqisi2
 2601 0040 022D     		cmp	r5, #2
 2602 0042 03D1     		bne	.L270
 744:bluetooth_rxtx.c **** 				do_hop = 1;
 2603              		.loc 1 744 0
 2604 0044 0B68     		ldr	r3, [r1]
 2605 0046 DC07     		lsls	r4, r3, #31
 2606              	.LVL270:
 2607 0048 2ED4     		bmi	.L269
 2608 004a 2BE0     		b	.L286
 2609              	.LVL271:
 2610              	.L270:
 748:bluetooth_rxtx.c **** 			// Only hop if connected
 2611              		.loc 1 748 0
 2612 004c 957A     		ldrb	r5, [r2, #10]	@ zero_extendqisi2
 2613 004e 032D     		cmp	r5, #3
 2614 0050 1CD1     		bne	.L271
 750:bluetooth_rxtx.c **** 				--le.interval_timer;
 2615              		.loc 1 750 0
 2616 0052 1D7E     		ldrb	r5, [r3, #24]	@ zero_extendqisi2
 2617 0054 032D     		cmp	r5, #3
 2618 0056 27D1     		bne	.L269
 733:bluetooth_rxtx.c **** 
 2619              		.loc 1 733 0 discriminator 1
 2620 0058 201A     		subs	r0, r4, r0
 2621              	.LVL272:
 750:bluetooth_rxtx.c **** 				--le.interval_timer;
 2622              		.loc 1 750 0 discriminator 1
 2623 005a 8007     		lsls	r0, r0, #30
 2624 005c 24D1     		bne	.L269
 751:bluetooth_rxtx.c **** 				if (le.interval_timer == 0) {
 2625              		.loc 1 751 0
 2626 005e 188C     		ldrh	r0, [r3, #32]
 2627 0060 80B2     		uxth	r0, r0
 2628 0062 0138     		subs	r0, r0, #1
 2629 0064 80B2     		uxth	r0, r0
 2630 0066 1884     		strh	r0, [r3, #32]	@ movhi
 752:bluetooth_rxtx.c **** 					do_hop = 1;
ARM GAS  /tmp/ccUrIl19.s 			page 96


 2631              		.loc 1 752 0
 2632 0068 188C     		ldrh	r0, [r3, #32]
 2633 006a 80B2     		uxth	r0, r0
 2634 006c 48B9     		cbnz	r0, .L272
 753:bluetooth_rxtx.c **** 					++le.conn_count;
 2635              		.loc 1 753 0
 2636 006e 0120     		movs	r0, #1
 2637 0070 D072     		strb	r0, [r2, #11]
 754:bluetooth_rxtx.c **** 					le.interval_timer = le.conn_interval;
 2638              		.loc 1 754 0
 2639 0072 9A8C     		ldrh	r2, [r3, #36]
 2640 0074 92B2     		uxth	r2, r2
 2641 0076 0244     		add	r2, r2, r0
 2642 0078 92B2     		uxth	r2, r2
 2643 007a 9A84     		strh	r2, [r3, #36]	@ movhi
 755:bluetooth_rxtx.c **** 				} else {
 2644              		.loc 1 755 0
 2645 007c 5A8C     		ldrh	r2, [r3, #34]
 2646 007e 1A84     		strh	r2, [r3, #32]	@ movhi
 2647 0080 12E0     		b	.L269
 2648              	.L272:
 757:bluetooth_rxtx.c **** 				}
 2649              		.loc 1 757 0
 2650 0082 274B     		ldr	r3, .L288+16
 2651 0084 4FF48072 		mov	r2, #256
 2652 0088 1A60     		str	r2, [r3]
 2653 008a 0DE0     		b	.L269
 2654              	.LVL273:
 2655              	.L271:
 761:bluetooth_rxtx.c **** 			if( (last_hop + hop_timeout) == clkn ) {
 2656              		.loc 1 761 0
 2657 008c 907A     		ldrb	r0, [r2, #10]	@ zero_extendqisi2
 2658              	.LVL274:
 2659 008e 0528     		cmp	r0, #5
 2660 0090 0AD1     		bne	.L269
 762:bluetooth_rxtx.c **** 				do_hop = 1;
 2661              		.loc 1 762 0
 2662 0092 2448     		ldr	r0, .L288+20
 2663 0094 0468     		ldr	r4, [r0]
 2664              	.LVL275:
 2665 0096 B3F84800 		ldrh	r0, [r3, #72]
 2666 009a 0B68     		ldr	r3, [r1]
 2667 009c 80B2     		uxth	r0, r0
 2668 009e 2044     		add	r0, r0, r4
 2669 00a0 9842     		cmp	r0, r3
 2670 00a2 01D1     		bne	.L269
 2671              	.L286:
 763:bluetooth_rxtx.c **** 			}
 2672              		.loc 1 763 0
 2673 00a4 0123     		movs	r3, #1
 2674 00a6 D372     		strb	r3, [r2, #11]
 2675              	.L269:
 768:bluetooth_rxtx.c **** 			if(clkn >= clkn_next_drift_fix) {
 2676              		.loc 1 768 0
 2677 00a8 1F4A     		ldr	r2, .L288+24
 2678 00aa 204B     		ldr	r3, .L288+28
 2679 00ac 1068     		ldr	r0, [r2]
ARM GAS  /tmp/ccUrIl19.s 			page 97


 2680 00ae C0B1     		cbz	r0, .L273
 768:bluetooth_rxtx.c **** 			if(clkn >= clkn_next_drift_fix) {
 2681              		.loc 1 768 0 is_stmt 0 discriminator 1
 2682 00b0 1888     		ldrh	r0, [r3]
 2683 00b2 80B2     		uxth	r0, r0
 2684 00b4 A8B9     		cbnz	r0, .L273
 769:bluetooth_rxtx.c **** 
 2685              		.loc 1 769 0 is_stmt 1
 2686 00b6 0C68     		ldr	r4, [r1]
 2687 00b8 1068     		ldr	r0, [r2]
 2688 00ba 8442     		cmp	r4, r0
 2689 00bc 11D3     		bcc	.L273
 772:bluetooth_rxtx.c **** 					clk100ns_offset = 1;
 2690              		.loc 1 772 0
 2691 00be 1C48     		ldr	r0, .L288+32
 2692 00c0 0088     		ldrh	r0, [r0]
 2693 00c2 00B2     		sxth	r0, r0
 2694 00c4 0028     		cmp	r0, #0
 773:bluetooth_rxtx.c **** 				}
 2695              		.loc 1 773 0
 2696 00c6 ACBF     		ite	ge
 2697 00c8 0120     		movge	r0, #1
 778:bluetooth_rxtx.c **** 				}
 2698              		.loc 1 778 0
 2699 00ca 41F66900 		movwlt	r0, #6249
 2700 00ce 1880     		strh	r0, [r3]	@ movhi
 780:bluetooth_rxtx.c **** 				clkn_next_drift_fix = clkn_last_drift_fix + clk_drift_correction;
 2701              		.loc 1 780 0
 2702 00d0 0C68     		ldr	r4, [r1]
 2703 00d2 1848     		ldr	r0, .L288+36
 2704 00d4 0460     		str	r4, [r0]
 781:bluetooth_rxtx.c **** 			}
 2705              		.loc 1 781 0
 2706 00d6 0468     		ldr	r4, [r0]
 2707 00d8 1748     		ldr	r0, .L288+40
 2708 00da 0088     		ldrh	r0, [r0]
 2709 00dc 80B2     		uxth	r0, r0
 2710 00de 2044     		add	r0, r0, r4
 2711 00e0 1060     		str	r0, [r2]
 2712              	.L273:
 786:bluetooth_rxtx.c **** 			clkn += 2;
 2713              		.loc 1 786 0
 2714 00e2 1888     		ldrh	r0, [r3]
 2715 00e4 40F63442 		movw	r2, #3124
 2716 00e8 80B2     		uxth	r0, r0
 2717 00ea 9042     		cmp	r0, r2
 2718 00ec 02D9     		bls	.L276
 787:bluetooth_rxtx.c **** 
 2719              		.loc 1 787 0
 2720 00ee 0A68     		ldr	r2, [r1]
 2721 00f0 0232     		adds	r2, r2, #2
 2722 00f2 0A60     		str	r2, [r1]
 2723              	.L276:
 789:bluetooth_rxtx.c **** 		clk100ns_offset = 0;
 2724              		.loc 1 789 0
 2725 00f4 1988     		ldrh	r1, [r3]
 2726 00f6 114A     		ldr	r2, .L288+44
ARM GAS  /tmp/ccUrIl19.s 			page 98


 2727 00f8 89B2     		uxth	r1, r1
 2728 00fa 01F63441 		addw	r1, r1, #3124
 2729 00fe 1160     		str	r1, [r2]
 790:bluetooth_rxtx.c **** 
 2730              		.loc 1 790 0
 2731 0100 0022     		movs	r2, #0
 2732 0102 1A80     		strh	r2, [r3]	@ movhi
 793:bluetooth_rxtx.c **** 	}
 2733              		.loc 1 793 0
 2734 0104 0122     		movs	r2, #1
 2735 0106 4FF04023 		mov	r3, #1073758208
 2736 010a 1A60     		str	r2, [r3]
 2737              	.L265:
 2738 010c 70BD     		pop	{r4, r5, r6, pc}
 2739              	.L289:
 2740 010e 00BF     		.align	2
 2741              	.L288:
 2742 0110 00000000 		.word	clkn
 2743 0114 00000000 		.word	clkn_offset
 2744 0118 00000000 		.word	.LANCHOR0
 2745 011c 00000000 		.word	.LANCHOR1
 2746 0120 3CC00920 		.word	537509948
 2747 0124 00000000 		.word	last_hop
 2748 0128 00000000 		.word	clkn_next_drift_fix
 2749 012c 00000000 		.word	clk100ns_offset
 2750 0130 00000000 		.word	clk_drift_ppm
 2751 0134 00000000 		.word	clkn_last_drift_fix
 2752 0138 00000000 		.word	clk_drift_correction
 2753 013c 18400040 		.word	1073758232
 2754              	.LBE26:
 2755              		.cfi_endproc
 2756              	.LFE4:
 2758              		.section	.text.EINT3_IRQHandler,"ax",%progbits
 2759              		.align	1
 2760              		.global	EINT3_IRQHandler
 2761              		.thumb
 2762              		.thumb_func
 2764              	EINT3_IRQHandler:
 2765              	.LFB5:
 800:bluetooth_rxtx.c **** 	/* TODO - check specific source of shared interrupt */
 2766              		.loc 1 800 0
 2767              		.cfi_startproc
 2768              		@ args = 0, pretend = 0, frame = 0
 2769              		@ frame_needed = 0, uses_anonymous_args = 0
 2770              		@ link register save eliminated.
 802:bluetooth_rxtx.c **** 	DIO_SSEL_CLR;           // enable SPI
 2771              		.loc 1 802 0
 2772 0000 084B     		ldr	r3, .L292
 2773 0002 0422     		movs	r2, #4
 2774 0004 1A60     		str	r2, [r3]
 803:bluetooth_rxtx.c **** 	cs_trigger  = 1;        // signal trigger
 2775              		.loc 1 803 0
 2776 0006 084B     		ldr	r3, .L292+4
 2777 0008 4FF08052 		mov	r2, #268435456
 2778 000c 1A60     		str	r2, [r3]
 804:bluetooth_rxtx.c **** 	if (hop_mode == HOP_BLUETOOTH)
 2779              		.loc 1 804 0
ARM GAS  /tmp/ccUrIl19.s 			page 99


 2780 000e 074B     		ldr	r3, .L292+8
 2781 0010 0122     		movs	r2, #1
 2782 0012 1A70     		strb	r2, [r3]
 805:bluetooth_rxtx.c **** 		dma_discard = 0;
 2783              		.loc 1 805 0
 2784 0014 064B     		ldr	r3, .L292+12
 2785 0016 9A7A     		ldrb	r2, [r3, #10]	@ zero_extendqisi2
 2786 0018 022A     		cmp	r2, #2
 806:bluetooth_rxtx.c **** 
 2787              		.loc 1 806 0
 2788 001a 04BF     		itt	eq
 2789 001c 0022     		moveq	r2, #0
 2790 001e 1A74     		strbeq	r2, [r3, #16]
 2791 0020 7047     		bx	lr
 2792              	.L293:
 2793 0022 00BF     		.align	2
 2794              	.L292:
 2795 0024 AC800240 		.word	1073905836
 2796 0028 9CC00920 		.word	537510044
 2797 002c 00000000 		.word	cs_trigger
 2798 0030 00000000 		.word	.LANCHOR0
 2799              		.cfi_endproc
 2800              	.LFE5:
 2802              		.section	.text.DMA_IRQHandler,"ax",%progbits
 2803              		.align	1
 2804              		.global	DMA_IRQHandler
 2805              		.thumb
 2806              		.thumb_func
 2808              	DMA_IRQHandler:
 2809              	.LFB7:
 830:bluetooth_rxtx.c **** 	if ( mode == MODE_RX_SYMBOLS
 2810              		.loc 1 830 0
 2811              		.cfi_startproc
 2812              		@ args = 0, pretend = 0, frame = 0
 2813              		@ frame_needed = 0, uses_anonymous_args = 0
 2814 0000 10B5     		push	{r4, lr}
 2815              		.cfi_def_cfa_offset 8
 2816              		.cfi_offset 4, -8
 2817              		.cfi_offset 14, -4
 831:bluetooth_rxtx.c **** 	   || mode == MODE_BT_FOLLOW
 2818              		.loc 1 831 0
 2819 0002 2D4B     		ldr	r3, .L339
 2820 0004 5A7C     		ldrb	r2, [r3, #17]	@ zero_extendqisi2
 2821 0006 012A     		cmp	r2, #1
 2822 0008 1AD0     		beq	.L295
 832:bluetooth_rxtx.c **** 	   || mode == MODE_SPECAN
 2823              		.loc 1 832 0
 2824 000a 5A7C     		ldrb	r2, [r3, #17]	@ zero_extendqisi2
 2825 000c 082A     		cmp	r2, #8
 2826 000e 17D0     		beq	.L295
 833:bluetooth_rxtx.c **** 	   || mode == MODE_BT_FOLLOW_LE
 2827              		.loc 1 833 0
 2828 0010 5A7C     		ldrb	r2, [r3, #17]	@ zero_extendqisi2
 2829 0012 042A     		cmp	r2, #4
 2830 0014 14D0     		beq	.L295
 834:bluetooth_rxtx.c **** 	   || mode == MODE_BT_CFO_LE
 2831              		.loc 1 834 0
ARM GAS  /tmp/ccUrIl19.s 			page 100


 2832 0016 5A7C     		ldrb	r2, [r3, #17]	@ zero_extendqisi2
 2833 0018 092A     		cmp	r2, #9
 2834 001a 11D0     		beq	.L295
 835:bluetooth_rxtx.c **** 	   || mode == MODE_BT_RSSI_LE
 2835              		.loc 1 835 0
 2836 001c 5A7C     		ldrb	r2, [r3, #17]	@ zero_extendqisi2
 2837 001e 112A     		cmp	r2, #17
 2838 0020 0ED0     		beq	.L295
 836:bluetooth_rxtx.c **** 	   || mode == MODE_BT_PROMISC_LE
 2839              		.loc 1 836 0
 2840 0022 5A7C     		ldrb	r2, [r3, #17]	@ zero_extendqisi2
 2841 0024 122A     		cmp	r2, #18
 2842 0026 0BD0     		beq	.L295
 837:bluetooth_rxtx.c **** 	   || mode == MODE_BT_SLAVE_LE
 2843              		.loc 1 837 0
 2844 0028 5A7C     		ldrb	r2, [r3, #17]	@ zero_extendqisi2
 2845 002a 0A2A     		cmp	r2, #10
 2846 002c 08D0     		beq	.L295
 838:bluetooth_rxtx.c **** 	   || mode == MODE_BT_SYNC_LE
 2847              		.loc 1 838 0
 2848 002e 5A7C     		ldrb	r2, [r3, #17]	@ zero_extendqisi2
 2849 0030 0C2A     		cmp	r2, #12
 2850 0032 05D0     		beq	.L295
 839:bluetooth_rxtx.c **** 	   || mode == MODE_RX_GENERIC)
 2851              		.loc 1 839 0
 2852 0034 5A7C     		ldrb	r2, [r3, #17]	@ zero_extendqisi2
 2853 0036 132A     		cmp	r2, #19
 2854 0038 02D0     		beq	.L295
 840:bluetooth_rxtx.c **** 	{
 2855              		.loc 1 840 0
 2856 003a 5A7C     		ldrb	r2, [r3, #17]	@ zero_extendqisi2
 2857 003c 0F2A     		cmp	r2, #15
 2858 003e 39D1     		bne	.L294
 2859              	.L295:
 843:bluetooth_rxtx.c **** 			if (DMACIntTCStat & (1 << 0)) {
 2860              		.loc 1 843 0
 2861 0040 1E4A     		ldr	r2, .L339+4
 2862 0042 1268     		ldr	r2, [r2]
 2863 0044 D007     		lsls	r0, r2, #31
 2864 0046 35D5     		bpl	.L294
 844:bluetooth_rxtx.c **** 				DMACIntTCClear = (1 << 0);
 2865              		.loc 1 844 0
 2866 0048 1D4A     		ldr	r2, .L339+8
 2867 004a 1268     		ldr	r2, [r2]
 2868 004c D107     		lsls	r1, r2, #31
 2869 004e 26D5     		bpl	.L298
 2870              	.LBB27:
 845:bluetooth_rxtx.c **** 
 2871              		.loc 1 845 0
 2872 0050 1C4A     		ldr	r2, .L339+12
 2873 0052 0121     		movs	r1, #1
 2874 0054 1160     		str	r1, [r2]
 847:bluetooth_rxtx.c **** 					DIO_SSEL_SET;
 2875              		.loc 1 847 0
 2876 0056 9A7A     		ldrb	r2, [r3, #10]	@ zero_extendqisi2
 2877 0058 022A     		cmp	r2, #2
 2878 005a 03D1     		bne	.L299
ARM GAS  /tmp/ccUrIl19.s 			page 101


 848:bluetooth_rxtx.c **** 
 2879              		.loc 1 848 0
 2880 005c 1A4A     		ldr	r2, .L339+16
 2881 005e 4FF08051 		mov	r1, #268435456
 2882 0062 1160     		str	r1, [r2]
 2883              	.L299:
 850:bluetooth_rxtx.c **** 				idle_buf_clkn_high = (clkn >> 20) & 0xff;
 2884              		.loc 1 850 0
 2885 0064 194A     		ldr	r2, .L339+20
 2886 0066 1A48     		ldr	r0, .L339+24
 2887 0068 1168     		ldr	r1, [r2]
 2888 006a 0068     		ldr	r0, [r0]
 2889 006c C1F31301 		ubfx	r1, r1, #0, #20
 2890 0070 40F63544 		movw	r4, #3125
 2891 0074 04FB0101 		mla	r1, r4, r1, r0
 2892 0078 5960     		str	r1, [r3, #4]
 851:bluetooth_rxtx.c **** 				idle_buf_channel   = channel;
 2893              		.loc 1 851 0
 2894 007a 1268     		ldr	r2, [r2]
 2895 007c C2F30752 		ubfx	r2, r2, #20, #8
 2896 0080 9A70     		strb	r2, [r3, #2]
 852:bluetooth_rxtx.c **** 
 2897              		.loc 1 852 0
 2898 0082 144A     		ldr	r2, .L339+28
 2899 0084 1288     		ldrh	r2, [r2]
 2900 0086 92B2     		uxth	r2, r2
 2901 0088 1A81     		strh	r2, [r3, #8]	@ movhi
 855:bluetooth_rxtx.c **** 				active_rxbuf = idle_rxbuf;
 2902              		.loc 1 855 0
 2903 008a 134A     		ldr	r2, .L339+32
 856:bluetooth_rxtx.c **** 				idle_rxbuf = tmp;
 2904              		.loc 1 856 0
 2905 008c 134B     		ldr	r3, .L339+36
 855:bluetooth_rxtx.c **** 				active_rxbuf = idle_rxbuf;
 2906              		.loc 1 855 0
 2907 008e 1168     		ldr	r1, [r2]
 2908              	.LVL276:
 856:bluetooth_rxtx.c **** 				idle_rxbuf = tmp;
 2909              		.loc 1 856 0
 2910 0090 1868     		ldr	r0, [r3]
 2911 0092 1060     		str	r0, [r2]
 857:bluetooth_rxtx.c **** 
 2912              		.loc 1 857 0
 2913 0094 1960     		str	r1, [r3]
 859:bluetooth_rxtx.c **** 			}
 2914              		.loc 1 859 0
 2915 0096 124B     		ldr	r3, .L339+40
 2916 0098 1A68     		ldr	r2, [r3]
 2917 009a 0132     		adds	r2, r2, #1
 2918 009c 1A60     		str	r2, [r3]
 2919              	.LVL277:
 2920              	.L298:
 2921              	.LBE27:
 861:bluetooth_rxtx.c **** 				DMACIntErrClr = (1 << 0);
 2922              		.loc 1 861 0
 2923 009e 114B     		ldr	r3, .L339+44
 2924 00a0 1B68     		ldr	r3, [r3]
ARM GAS  /tmp/ccUrIl19.s 			page 102


 2925 00a2 DA07     		lsls	r2, r3, #31
 2926 00a4 06D5     		bpl	.L294
 862:bluetooth_rxtx.c **** 				++rx_err;
 2927              		.loc 1 862 0
 2928 00a6 104B     		ldr	r3, .L339+48
 2929 00a8 0122     		movs	r2, #1
 2930 00aa 1A60     		str	r2, [r3]
 863:bluetooth_rxtx.c **** 			}
 2931              		.loc 1 863 0
 2932 00ac 0F4B     		ldr	r3, .L339+52
 2933 00ae 1A68     		ldr	r2, [r3]
 2934 00b0 0132     		adds	r2, r2, #1
 2935 00b2 1A60     		str	r2, [r3]
 2936              	.L294:
 2937 00b4 10BD     		pop	{r4, pc}
 2938              	.L340:
 2939 00b6 00BF     		.align	2
 2940              	.L339:
 2941 00b8 00000000 		.word	.LANCHOR0
 2942 00bc 00400050 		.word	1342193664
 2943 00c0 04400050 		.word	1342193668
 2944 00c4 08400050 		.word	1342193672
 2945 00c8 98C00920 		.word	537510040
 2946 00cc 00000000 		.word	clkn
 2947 00d0 08400040 		.word	1073758216
 2948 00d4 00000000 		.word	.LANCHOR1
 2949 00d8 00000000 		.word	active_rxbuf
 2950 00dc 00000000 		.word	idle_rxbuf
 2951 00e0 00000000 		.word	rx_tc
 2952 00e4 0C400050 		.word	1342193676
 2953 00e8 10400050 		.word	1342193680
 2954 00ec 00000000 		.word	rx_err
 2955              		.cfi_endproc
 2956              	.LFE7:
 2958              		.section	.text.le_transmit,"ax",%progbits
 2959              		.align	1
 2960              		.global	le_transmit
 2961              		.thumb
 2962              		.thumb_func
 2964              	le_transmit:
 2965              	.LFB12:
1093:bluetooth_rxtx.c **** 	unsigned i, j;
 2966              		.loc 1 1093 0
 2967              		.cfi_startproc
 2968              		@ args = 0, pretend = 0, frame = 64
 2969              		@ frame_needed = 0, uses_anonymous_args = 0
 2970              	.LVL278:
 2971 0000 2DE9F047 		push	{r4, r5, r6, r7, r8, r9, r10, lr}
 2972              		.cfi_def_cfa_offset 32
 2973              		.cfi_offset 4, -32
 2974              		.cfi_offset 5, -28
 2975              		.cfi_offset 6, -24
 2976              		.cfi_offset 7, -20
 2977              		.cfi_offset 8, -16
 2978              		.cfi_offset 9, -12
 2979              		.cfi_offset 10, -8
 2980              		.cfi_offset 14, -4
ARM GAS  /tmp/ccUrIl19.s 			page 103


 2981 0004 90B0     		sub	sp, sp, #64
 2982              		.cfi_def_cfa_offset 96
1093:bluetooth_rxtx.c **** 	unsigned i, j;
 2983              		.loc 1 1093 0
 2984 0006 0546     		mov	r5, r0
 2985 0008 8946     		mov	r9, r1
 2986 000a 9246     		mov	r10, r2
 2987 000c 9846     		mov	r8, r3
 2988              	.LVL279:
 2989 000e 0DF1FF30 		add	r0, sp, #-1
 2990              	.LVL280:
 2991 0012 0DF10301 		add	r1, sp, #3
 2992              	.LVL281:
 2993              	.L345:
1109:bluetooth_rxtx.c **** 		for (j = 0; j < 8; ++j) {
 2994              		.loc 1 1109 0
 2995 0016 0022     		movs	r2, #0
1107:bluetooth_rxtx.c **** 		aa >>= 8;
 2996              		.loc 1 1107 0
 2997 0018 EBB2     		uxtb	r3, r5
 2998              	.LVL282:
1109:bluetooth_rxtx.c **** 		for (j = 0; j < 8; ++j) {
 2999              		.loc 1 1109 0
 3000 001a 4270     		strb	r2, [r0, #1]
1108:bluetooth_rxtx.c **** 		txbuf[i] = 0;
 3001              		.loc 1 1108 0
 3002 001c 2D0A     		lsrs	r5, r5, #8
 3003              	.LVL283:
1109:bluetooth_rxtx.c **** 		for (j = 0; j < 8; ++j) {
 3004              		.loc 1 1109 0
 3005 001e 0724     		movs	r4, #7
 3006              	.LVL284:
 3007              	.L343:
1111:bluetooth_rxtx.c **** 			byte >>= 1;
 3008              		.loc 1 1111 0 discriminator 2
 3009 0020 03F00106 		and	r6, r3, #1
 3010 0024 A640     		lsls	r6, r6, r4
1110:bluetooth_rxtx.c **** 			txbuf[i] |= (byte & 1) << (7 - j);
 3011              		.loc 1 1110 0 discriminator 2
 3012 0026 14F1FF34 		adds	r4, r4, #-1
 3013              	.LVL285:
1111:bluetooth_rxtx.c **** 			byte >>= 1;
 3014              		.loc 1 1111 0 discriminator 2
 3015 002a 46EA0202 		orr	r2, r6, r2
 3016 002e D2B2     		uxtb	r2, r2
1112:bluetooth_rxtx.c **** 		}
 3017              		.loc 1 1112 0 discriminator 2
 3018 0030 4FEA5303 		lsr	r3, r3, #1
 3019              	.LVL286:
1110:bluetooth_rxtx.c **** 			txbuf[i] |= (byte & 1) << (7 - j);
 3020              		.loc 1 1110 0 discriminator 2
 3021 0034 F4D2     		bcs	.L343
 3022 0036 00F8012F 		strb	r2, [r0, #1]!
 3023              	.LVL287:
1106:bluetooth_rxtx.c **** 		byte = aa & 0xff;
 3024              		.loc 1 1106 0
 3025 003a 8842     		cmp	r0, r1
ARM GAS  /tmp/ccUrIl19.s 			page 104


 3026 003c EBD1     		bne	.L345
1117:bluetooth_rxtx.c **** 	for (i = 0; i < len; ++i) {
 3027              		.loc 1 1117 0
 3028 003e A8F16200 		sub	r0, r8, #98
 3029              	.LVL288:
 3030 0042 C0B2     		uxtb	r0, r0
 3031 0044 FFF7FEFF 		bl	btle_channel_index
 3032              	.LVL289:
 3033 0048 524B     		ldr	r3, .L369
1118:bluetooth_rxtx.c **** 		byte = data[i];
 3034              		.loc 1 1118 0
 3035 004a 0024     		movs	r4, #0
1117:bluetooth_rxtx.c **** 	for (i = 0; i < len; ++i) {
 3036              		.loc 1 1117 0
 3037 004c 1E5C     		ldrb	r6, [r3, r0]	@ zero_extendqisi2
 3038              	.LVL290:
 3039              	.L346:
1118:bluetooth_rxtx.c **** 		byte = data[i];
 3040              		.loc 1 1118 0 discriminator 1
 3041 004e 4C45     		cmp	r4, r9
 3042 0050 20D2     		bcs	.L368
 3043 0052 00A9     		add	r1, sp, #0
1119:bluetooth_rxtx.c **** 		txbuf[i+4] = 0;
 3044              		.loc 1 1119 0
 3045 0054 1AF80470 		ldrb	r7, [r10, r4]	@ zero_extendqisi2
 3046              	.LVL291:
 3047 0058 2144     		add	r1, r1, r4
 3048              	.LVL292:
 3049 005a 0720     		movs	r0, #7
 3050 005c 0023     		movs	r3, #0
 3051              	.LVL293:
 3052              	.L348:
1122:bluetooth_rxtx.c **** 			idx = (idx + 1) % sizeof(whitening);
 3053              		.loc 1 1122 0 discriminator 2
 3054 005e 4D4A     		ldr	r2, .L369
 3055 0060 07F0010E 		and	lr, r7, #1
 3056 0064 3244     		add	r2, r2, r6
 3057 0066 92F82820 		ldrb	r2, [r2, #40]	@ zero_extendqisi2
1123:bluetooth_rxtx.c **** 			//bit = (byte & 1);
 3058              		.loc 1 1123 0 discriminator 2
 3059 006a 0136     		adds	r6, r6, #1
 3060              	.LVL294:
1122:bluetooth_rxtx.c **** 			idx = (idx + 1) % sizeof(whitening);
 3061              		.loc 1 1122 0 discriminator 2
 3062 006c 8EEA020E 		eor	lr, lr, r2
 3063              	.LVL295:
1123:bluetooth_rxtx.c **** 			//bit = (byte & 1);
 3064              		.loc 1 1123 0 discriminator 2
 3065 0070 7F22     		movs	r2, #127
 3066 0072 B6FBF2FC 		udiv	ip, r6, r2
 3067 0076 02FB1C66 		mls	r6, r2, ip, r6
 3068              	.LVL296:
1126:bluetooth_rxtx.c **** 		}
 3069              		.loc 1 1126 0 discriminator 2
 3070 007a 0EFA00F2 		lsl	r2, lr, r0
1121:bluetooth_rxtx.c **** 			bit = (byte & 1) ^ whitening[idx];
 3071              		.loc 1 1121 0 discriminator 2
ARM GAS  /tmp/ccUrIl19.s 			page 105


 3072 007e 10F1FF30 		adds	r0, r0, #-1
 3073              	.LVL297:
1126:bluetooth_rxtx.c **** 		}
 3074              		.loc 1 1126 0 discriminator 2
 3075 0082 42EA0303 		orr	r3, r2, r3
1125:bluetooth_rxtx.c **** 			txbuf[i+4] |= bit << (7 - j);
 3076              		.loc 1 1125 0 discriminator 2
 3077 0086 4FEA5707 		lsr	r7, r7, #1
 3078              	.LVL298:
1126:bluetooth_rxtx.c **** 		}
 3079              		.loc 1 1126 0 discriminator 2
 3080 008a DBB2     		uxtb	r3, r3
 3081              	.LVL299:
1121:bluetooth_rxtx.c **** 			bit = (byte & 1) ^ whitening[idx];
 3082              		.loc 1 1121 0 discriminator 2
 3083 008c E7D2     		bcs	.L348
 3084 008e 0B71     		strb	r3, [r1, #4]
1118:bluetooth_rxtx.c **** 		byte = data[i];
 3085              		.loc 1 1118 0
 3086 0090 0134     		adds	r4, r4, #1
 3087              	.LVL300:
 3088 0092 DCE7     		b	.L346
 3089              	.LVL301:
 3090              	.L368:
1133:bluetooth_rxtx.c **** 	cc2400_set(LMTST,   0x2b22);    // LNA and receive mixers test register
 3091              		.loc 1 1133 0
 3092 0094 0D20     		movs	r0, #13
 3093 0096 47F6FF71 		movw	r1, #32767
 3094 009a FFF7FEFF 		bl	cc2400_set
 3095              	.LVL302:
1134:bluetooth_rxtx.c **** 	cc2400_set(MDMTST0, 0x134b);    // no PRNG
 3096              		.loc 1 1134 0
 3097 009e 1220     		movs	r0, #18
 3098 00a0 42F62231 		movw	r1, #11042
 3099 00a4 FFF7FEFF 		bl	cc2400_set
 3100              	.LVL303:
1135:bluetooth_rxtx.c **** 
 3101              		.loc 1 1135 0
 3102 00a8 1420     		movs	r0, #20
 3103 00aa 41F24B31 		movw	r1, #4939
 3104 00ae FFF7FEFF 		bl	cc2400_set
 3105              	.LVL304:
1137:bluetooth_rxtx.c **** 	// 0 00 01 1 001 00 0 00 0 1
 3106              		.loc 1 1137 0
 3107 00b2 2020     		movs	r0, #32
 3108 00b4 40F60141 		movw	r1, #3073
 3109 00b8 FFF7FEFF 		bl	cc2400_set
 3110              	.LVL305:
1145:bluetooth_rxtx.c **** 	// JWHUR cc2400 data sheet about power control
 3111              		.loc 1 1145 0
 3112 00bc 0220     		movs	r0, #2
 3113 00be 4146     		mov	r1, r8
 3114 00c0 FFF7FEFF 		bl	cc2400_set
 3115              	.LVL306:
1156:bluetooth_rxtx.c **** 	//cc2400_set(FREND,   0b1011);    // amplifier level (-7 dBm, picked from hat)
 3116              		.loc 1 1156 0
 3117 00c4 0520     		movs	r0, #5
ARM GAS  /tmp/ccUrIl19.s 			page 106


 3118 00c6 0721     		movs	r1, #7
 3119 00c8 FFF7FEFF 		bl	cc2400_set
 3120              	.LVL307:
1158:bluetooth_rxtx.c **** 	cc2400_set(INT,     0x0014);    // FIFO_THRESHOLD: 20 bytes
 3121              		.loc 1 1158 0
 3122 00cc 0320     		movs	r0, #3
 3123 00ce 4021     		movs	r1, #64
 3124 00d0 FFF7FEFF 		bl	cc2400_set
 3125              	.LVL308:
1159:bluetooth_rxtx.c **** 
 3126              		.loc 1 1159 0
 3127 00d4 1421     		movs	r1, #20
 3128 00d6 2320     		movs	r0, #35
 3129 00d8 FFF7FEFF 		bl	cc2400_set
 3130              	.LVL309:
1162:bluetooth_rxtx.c **** 		cc2400_set(SYNCH,   0xaaaa);
 3131              		.loc 1 1162 0
 3132 00dc EA07     		lsls	r2, r5, #31
1163:bluetooth_rxtx.c **** 	else
 3133              		.loc 1 1163 0
 3134 00de 4CBF     		ite	mi
 3135 00e0 4AF6AA21 		movwmi	r1, #43690
1165:bluetooth_rxtx.c **** 
 3136              		.loc 1 1165 0
 3137 00e4 45F25551 		movwpl	r1, #21845
1163:bluetooth_rxtx.c **** 	else
 3138              		.loc 1 1163 0
 3139 00e8 2D20     		movs	r0, #45
1165:bluetooth_rxtx.c **** 
 3140              		.loc 1 1165 0
 3141 00ea FFF7FEFF 		bl	cc2400_set
 3142              	.LVL310:
1168:bluetooth_rxtx.c **** 	cc2400_set(IOCFG, (GIO_FIFO_FULL << 9) | (gio_save & 0x1ff));
 3143              		.loc 1 1168 0
 3144 00ee 0820     		movs	r0, #8
 3145 00f0 FFF7FEFF 		bl	cc2400_get
 3146              	.LVL311:
1169:bluetooth_rxtx.c **** 
 3147              		.loc 1 1169 0
 3148 00f4 C0F30801 		ubfx	r1, r0, #0, #9
1130:bluetooth_rxtx.c **** 
 3149              		.loc 1 1130 0
 3150 00f8 09F10409 		add	r9, r9, #4
1168:bluetooth_rxtx.c **** 	cc2400_set(IOCFG, (GIO_FIFO_FULL << 9) | (gio_save & 0x1ff));
 3151              		.loc 1 1168 0
 3152 00fc 0446     		mov	r4, r0
 3153              	.LVL312:
1169:bluetooth_rxtx.c **** 
 3154              		.loc 1 1169 0
 3155 00fe 41F49C41 		orr	r1, r1, #19968
 3156 0102 0820     		movs	r0, #8
1130:bluetooth_rxtx.c **** 
 3157              		.loc 1 1130 0
 3158 0104 5FFA89F9 		uxtb	r9, r9
 3159              	.LVL313:
1169:bluetooth_rxtx.c **** 
 3160              		.loc 1 1169 0
ARM GAS  /tmp/ccUrIl19.s 			page 107


 3161 0108 FFF7FEFF 		bl	cc2400_set
 3162              	.LVL314:
 3163              	.L353:
1171:bluetooth_rxtx.c **** 	cc2400_strobe(SFSON);
 3164              		.loc 1 1171 0 discriminator 1
 3165 010c FFF7FEFF 		bl	cc2400_status
 3166              	.LVL315:
 3167 0110 4306     		lsls	r3, r0, #25
 3168 0112 FBD5     		bpl	.L353
1172:bluetooth_rxtx.c **** 	while (!(cc2400_status() & FS_LOCK));
 3169              		.loc 1 1172 0
 3170 0114 6120     		movs	r0, #97
 3171 0116 FFF7FEFF 		bl	cc2400_strobe
 3172              	.LVL316:
 3173              	.L355:
1173:bluetooth_rxtx.c **** 	TXLED_SET;
 3174              		.loc 1 1173 0 discriminator 1
 3175 011a FFF7FEFF 		bl	cc2400_status
 3176              	.LVL317:
 3177 011e 4707     		lsls	r7, r0, #29
 3178 0120 FBD5     		bpl	.L355
1174:bluetooth_rxtx.c **** #ifdef UBERTOOTH_ONE
 3179              		.loc 1 1174 0
 3180 0122 1D4B     		ldr	r3, .L369+4
 3181 0124 4FF48072 		mov	r2, #256
 3182 0128 1A60     		str	r2, [r3]
1176:bluetooth_rxtx.c **** #endif
 3183              		.loc 1 1176 0
 3184 012a 8022     		movs	r2, #128
 3185 012c 1A62     		str	r2, [r3, #32]
 3186              	.L357:
1178:bluetooth_rxtx.c **** 	cc2400_strobe(STX);
 3187              		.loc 1 1178 0 discriminator 1
 3188 012e 0E20     		movs	r0, #14
 3189 0130 FFF7FEFF 		bl	cc2400_get
 3190              	.LVL318:
 3191 0134 00F01F00 		and	r0, r0, #31
 3192 0138 0F28     		cmp	r0, #15
 3193 013a F8D1     		bne	.L357
1179:bluetooth_rxtx.c **** 
 3194              		.loc 1 1179 0
 3195 013c 6320     		movs	r0, #99
 3196 013e FFF7FEFF 		bl	cc2400_strobe
 3197              	.LVL319:
 3198              	.L359:
1192:bluetooth_rxtx.c **** 	if (len > 46) len = 46;
 3199              		.loc 1 1192 0 discriminator 1
 3200 0142 164B     		ldr	r3, .L369+8
 3201 0144 1B68     		ldr	r3, [r3]
 3202 0146 5E07     		lsls	r6, r3, #29
 3203 0148 FBD4     		bmi	.L359
 3204              	.LVL320:
1194:bluetooth_rxtx.c **** 
 3205              		.loc 1 1194 0
 3206 014a B9F12E0F 		cmp	r9, #46
 3207 014e 34BF     		ite	cc
 3208 0150 4846     		movcc	r0, r9
ARM GAS  /tmp/ccUrIl19.s 			page 108


 3209 0152 2E20     		movcs	r0, #46
 3210 0154 6946     		mov	r1, sp
 3211 0156 FFF7FEFF 		bl	cc2400_fifo_write
 3212              	.LVL321:
 3213              	.L361:
1196:bluetooth_rxtx.c **** 	TXLED_CLR;
 3214              		.loc 1 1196 0 discriminator 1
 3215 015a 0E20     		movs	r0, #14
 3216 015c FFF7FEFF 		bl	cc2400_get
 3217              	.LVL322:
 3218 0160 00F01F00 		and	r0, r0, #31
 3219 0164 0F28     		cmp	r0, #15
 3220 0166 F8D1     		bne	.L361
1197:bluetooth_rxtx.c **** 
 3221              		.loc 1 1197 0
 3222 0168 0D4B     		ldr	r3, .L369+12
 3223 016a 4FF48072 		mov	r2, #256
 3224 016e 1A60     		str	r2, [r3]
1199:bluetooth_rxtx.c **** 	while ((cc2400_status() & FS_LOCK));
 3225              		.loc 1 1199 0
 3226 0170 6420     		movs	r0, #100
 3227 0172 FFF7FEFF 		bl	cc2400_strobe
 3228              	.LVL323:
 3229              	.L363:
1200:bluetooth_rxtx.c **** 
 3230              		.loc 1 1200 0 discriminator 1
 3231 0176 FFF7FEFF 		bl	cc2400_status
 3232              	.LVL324:
 3233 017a 4507     		lsls	r5, r0, #29
 3234 017c FBD4     		bmi	.L363
1203:bluetooth_rxtx.c **** #endif
 3235              		.loc 1 1203 0
 3236 017e 094B     		ldr	r3, .L369+16
 3237 0180 8022     		movs	r2, #128
 3238 0182 1A60     		str	r2, [r3]
1207:bluetooth_rxtx.c **** }
 3239              		.loc 1 1207 0
 3240 0184 0820     		movs	r0, #8
 3241 0186 2146     		mov	r1, r4
 3242 0188 FFF7FEFF 		bl	cc2400_set
 3243              	.LVL325:
1208:bluetooth_rxtx.c **** 
 3244              		.loc 1 1208 0
 3245 018c 10B0     		add	sp, sp, #64
 3246              		@ sp needed
 3247 018e BDE8F087 		pop	{r4, r5, r6, r7, r8, r9, r10, pc}
 3248              	.LVL326:
 3249              	.L370:
 3250 0192 00BF     		.align	2
 3251              	.L369:
 3252 0194 00000000 		.word	.LANCHOR2
 3253 0198 38C00920 		.word	537509944
 3254 019c 54C00920 		.word	537509972
 3255 01a0 3CC00920 		.word	537509948
 3256 01a4 5CC00920 		.word	537509980
 3257              		.cfi_endproc
 3258              	.LFE12:
ARM GAS  /tmp/ccUrIl19.s 			page 109


 3260              		.section	.text.le_jam,"ax",%progbits
 3261              		.align	1
 3262              		.global	le_jam
 3263              		.thumb
 3264              		.thumb_func
 3266              	le_jam:
 3267              	.LFB13:
1210:bluetooth_rxtx.c **** #ifdef TX_ENABLE
 3268              		.loc 1 1210 0
 3269              		.cfi_startproc
 3270              		@ args = 0, pretend = 0, frame = 0
 3271              		@ frame_needed = 0, uses_anonymous_args = 0
 3272 0000 08B5     		push	{r3, lr}
 3273              		.cfi_def_cfa_offset 8
 3274              		.cfi_offset 3, -8
 3275              		.cfi_offset 14, -4
1212:bluetooth_rxtx.c **** 	cc2400_set(LMTST,   0x2b22);    // LNA and receive mixers test register
 3276              		.loc 1 1212 0
 3277 0002 0D20     		movs	r0, #13
 3278 0004 47F6FF71 		movw	r1, #32767
 3279 0008 FFF7FEFF 		bl	cc2400_set
 3280              	.LVL327:
1213:bluetooth_rxtx.c **** 	cc2400_set(MDMTST0, 0x234b);    // PRNG, 1 MHz offset
 3281              		.loc 1 1213 0
 3282 000c 1220     		movs	r0, #18
 3283 000e 42F62231 		movw	r1, #11042
 3284 0012 FFF7FEFF 		bl	cc2400_set
 3285              	.LVL328:
1214:bluetooth_rxtx.c **** 
 3286              		.loc 1 1214 0
 3287 0016 1420     		movs	r0, #20
 3288 0018 42F24B31 		movw	r1, #9035
 3289 001c FFF7FEFF 		bl	cc2400_set
 3290              	.LVL329:
1216:bluetooth_rxtx.c **** 	// 0 00 01 1 000 00 0 00 0 1
 3291              		.loc 1 1216 0
 3292 0020 2020     		movs	r0, #32
 3293 0022 40F60141 		movw	r1, #3073
 3294 0026 FFF7FEFF 		bl	cc2400_set
 3295              	.LVL330:
1225:bluetooth_rxtx.c **** 	cc2400_set(MDMCTRL, 0x0040);    // 250 kHz frequency deviation
 3296              		.loc 1 1225 0
 3297 002a 0520     		movs	r0, #5
 3298 002c 0B21     		movs	r1, #11
 3299 002e FFF7FEFF 		bl	cc2400_set
 3300              	.LVL331:
1226:bluetooth_rxtx.c **** 
 3301              		.loc 1 1226 0
 3302 0032 0320     		movs	r0, #3
 3303 0034 4021     		movs	r1, #64
 3304 0036 FFF7FEFF 		bl	cc2400_set
 3305              	.LVL332:
 3306              	.L373:
1228:bluetooth_rxtx.c **** 	cc2400_strobe(SFSON);
 3307              		.loc 1 1228 0 discriminator 1
 3308 003a FFF7FEFF 		bl	cc2400_status
 3309              	.LVL333:
ARM GAS  /tmp/ccUrIl19.s 			page 110


 3310 003e 4006     		lsls	r0, r0, #25
 3311 0040 FBD5     		bpl	.L373
1229:bluetooth_rxtx.c **** 	while (!(cc2400_status() & FS_LOCK));
 3312              		.loc 1 1229 0
 3313 0042 6120     		movs	r0, #97
 3314 0044 FFF7FEFF 		bl	cc2400_strobe
 3315              	.LVL334:
 3316              	.L375:
1230:bluetooth_rxtx.c **** 	TXLED_SET;
 3317              		.loc 1 1230 0 discriminator 1
 3318 0048 FFF7FEFF 		bl	cc2400_status
 3319              	.LVL335:
 3320 004c 4107     		lsls	r1, r0, #29
 3321 004e FBD5     		bpl	.L375
1231:bluetooth_rxtx.c **** #ifdef UBERTOOTH_ONE
 3322              		.loc 1 1231 0
 3323 0050 084B     		ldr	r3, .L378
 3324 0052 4FF48072 		mov	r2, #256
 3325 0056 1A60     		str	r2, [r3]
1233:bluetooth_rxtx.c **** #endif
 3326              		.loc 1 1233 0
 3327 0058 8022     		movs	r2, #128
 3328 005a 1A62     		str	r2, [r3, #32]
 3329              	.L377:
1235:bluetooth_rxtx.c **** 	cc2400_strobe(STX);
 3330              		.loc 1 1235 0 discriminator 1
 3331 005c 0E20     		movs	r0, #14
 3332 005e FFF7FEFF 		bl	cc2400_get
 3333              	.LVL336:
 3334 0062 00F01F00 		and	r0, r0, #31
 3335 0066 0F28     		cmp	r0, #15
 3336 0068 F8D1     		bne	.L377
1236:bluetooth_rxtx.c **** #endif
 3337              		.loc 1 1236 0
 3338 006a 6320     		movs	r0, #99
1238:bluetooth_rxtx.c **** 
 3339              		.loc 1 1238 0
 3340 006c BDE80840 		pop	{r3, lr}
1236:bluetooth_rxtx.c **** #endif
 3341              		.loc 1 1236 0
 3342 0070 FFF7FEBF 		b	cc2400_strobe
 3343              	.LVL337:
 3344              	.L379:
 3345              		.align	2
 3346              	.L378:
 3347 0074 38C00920 		.word	537509944
 3348              		.cfi_endproc
 3349              	.LFE13:
 3351              		.section	.text.hop,"ax",%progbits
 3352              		.align	1
 3353              		.global	hop
 3354              		.thumb
 3355              		.thumb_func
 3357              	hop:
 3358              	.LFB14:
1243:bluetooth_rxtx.c **** 	do_hop = 0;
 3359              		.loc 1 1243 0
ARM GAS  /tmp/ccUrIl19.s 			page 111


 3360              		.cfi_startproc
 3361              		@ args = 0, pretend = 0, frame = 0
 3362              		@ frame_needed = 0, uses_anonymous_args = 0
 3363 0000 38B5     		push	{r3, r4, r5, lr}
 3364              		.cfi_def_cfa_offset 16
 3365              		.cfi_offset 3, -16
 3366              		.cfi_offset 4, -12
 3367              		.cfi_offset 5, -8
 3368              		.cfi_offset 14, -4
1244:bluetooth_rxtx.c **** 	last_hop = clkn;
 3369              		.loc 1 1244 0
 3370 0002 5F4C     		ldr	r4, .L420
 3371 0004 0023     		movs	r3, #0
 3372 0006 E372     		strb	r3, [r4, #11]
1245:bluetooth_rxtx.c **** 
 3373              		.loc 1 1245 0
 3374 0008 5E4B     		ldr	r3, .L420+4
 3375 000a 5F4A     		ldr	r2, .L420+8
 3376 000c 1968     		ldr	r1, [r3]
 3377 000e 1160     		str	r1, [r2]
1248:bluetooth_rxtx.c **** 		if (cc2400_get(FSDIV) == (channel - 1))
 3378              		.loc 1 1248 0
 3379 0010 A27A     		ldrb	r2, [r4, #10]	@ zero_extendqisi2
 3380 0012 4AB9     		cbnz	r2, .L381
1249:bluetooth_rxtx.c **** 			return;
 3381              		.loc 1 1249 0
 3382 0014 0220     		movs	r0, #2
 3383 0016 FFF7FEFF 		bl	cc2400_get
 3384              	.LVL338:
 3385 001a 5C4B     		ldr	r3, .L420+12
 3386 001c 1B88     		ldrh	r3, [r3]
 3387 001e 9BB2     		uxth	r3, r3
 3388 0020 013B     		subs	r3, r3, #1
 3389 0022 9842     		cmp	r0, r3
 3390 0024 7FD1     		bne	.L383
 3391 0026 38BD     		pop	{r3, r4, r5, pc}
 3392              	.L381:
1255:bluetooth_rxtx.c **** 		do {
 3393              		.loc 1 1255 0
 3394 0028 A27A     		ldrb	r2, [r4, #10]	@ zero_extendqisi2
 3395 002a 012A     		cmp	r2, #1
 3396 002c 31D1     		bne	.L384
1260:bluetooth_rxtx.c **** 	}
 3397              		.loc 1 1260 0
 3398 002e 584B     		ldr	r3, .L420+16
 3399 0030 1978     		ldrb	r1, [r3]	@ zero_extendqisi2
 3400 0032 584B     		ldr	r3, .L420+20
 3401 0034 1878     		ldrb	r0, [r3]	@ zero_extendqisi2
 3402              	.L388:
1257:bluetooth_rxtx.c **** 			if (channel > 2480)
 3403              		.loc 1 1257 0
 3404 0036 554B     		ldr	r3, .L420+12
 3405 0038 1A88     		ldrh	r2, [r3]
 3406 003a 92B2     		uxth	r2, r2
 3407 003c 2032     		adds	r2, r2, #32
 3408 003e 92B2     		uxth	r2, r2
 3409 0040 1A80     		strh	r2, [r3]	@ movhi
ARM GAS  /tmp/ccUrIl19.s 			page 112


1258:bluetooth_rxtx.c **** 				channel -= 79;
 3410              		.loc 1 1258 0
 3411 0042 1A88     		ldrh	r2, [r3]
 3412 0044 92B2     		uxth	r2, r2
 3413 0046 B2F51B6F 		cmp	r2, #2480
 3414 004a 04D9     		bls	.L385
1259:bluetooth_rxtx.c **** 		} while ( used_channels != 0 && afh_enabled && !( afh_map[(channel-2402)/8] & 0x1<<((channel-2402
 3415              		.loc 1 1259 0
 3416 004c 1A88     		ldrh	r2, [r3]
 3417 004e 92B2     		uxth	r2, r2
 3418 0050 4F3A     		subs	r2, r2, #79
 3419 0052 92B2     		uxth	r2, r2
 3420 0054 1A80     		strh	r2, [r3]	@ movhi
 3421              	.L385:
1260:bluetooth_rxtx.c **** 	}
 3422              		.loc 1 1260 0
 3423 0056 0029     		cmp	r1, #0
 3424 0058 65D0     		beq	.L383
1260:bluetooth_rxtx.c **** 	}
 3425              		.loc 1 1260 0 is_stmt 0 discriminator 1
 3426 005a 0028     		cmp	r0, #0
 3427 005c 63D0     		beq	.L383
 3428 005e 1A88     		ldrh	r2, [r3]
 3429 0060 1D88     		ldrh	r5, [r3]
 3430 0062 92B2     		uxth	r2, r2
 3431 0064 A2F66213 		subw	r3, r2, #2402
 3432 0068 0822     		movs	r2, #8
 3433 006a 93FBF2F3 		sdiv	r3, r3, r2
 3434 006e 4A4A     		ldr	r2, .L420+24
 3435 0070 ADB2     		uxth	r5, r5
 3436 0072 D25C     		ldrb	r2, [r2, r3]	@ zero_extendqisi2
 3437 0074 494B     		ldr	r3, .L420+28
 3438 0076 A5F66215 		subw	r5, r5, #2402
 3439 007a 2B40     		ands	r3, r3, r5
 3440 007c 002B     		cmp	r3, #0
 3441 007e 03DA     		bge	.L387
 3442 0080 013B     		subs	r3, r3, #1
 3443 0082 63F00703 		orn	r3, r3, #7
 3444 0086 0133     		adds	r3, r3, #1
 3445              	.L387:
 3446 0088 42FA03F3 		asr	r3, r2, r3
 3447 008c DD07     		lsls	r5, r3, #31
 3448 008e D2D5     		bpl	.L388
 3449 0090 49E0     		b	.L383
 3450              	.L384:
1266:bluetooth_rxtx.c **** 		do {
 3451              		.loc 1 1266 0 is_stmt 1
 3452 0092 A27A     		ldrb	r2, [r4, #10]	@ zero_extendqisi2
 3453 0094 052A     		cmp	r2, #5
 3454 0096 2DD1     		bne	.L389
1271:bluetooth_rxtx.c **** 	}
 3455              		.loc 1 1271 0
 3456 0098 3D4B     		ldr	r3, .L420+16
 3457 009a 1978     		ldrb	r1, [r3]	@ zero_extendqisi2
 3458              	.L392:
1268:bluetooth_rxtx.c **** 			if (channel > 2480)
 3459              		.loc 1 1268 0
ARM GAS  /tmp/ccUrIl19.s 			page 113


 3460 009c 3B4B     		ldr	r3, .L420+12
 3461 009e 1A88     		ldrh	r2, [r3]
 3462 00a0 92B2     		uxth	r2, r2
 3463 00a2 2032     		adds	r2, r2, #32
 3464 00a4 92B2     		uxth	r2, r2
 3465 00a6 1A80     		strh	r2, [r3]	@ movhi
1269:bluetooth_rxtx.c **** 				channel -= 79;
 3466              		.loc 1 1269 0
 3467 00a8 1A88     		ldrh	r2, [r3]
 3468 00aa 92B2     		uxth	r2, r2
 3469 00ac B2F51B6F 		cmp	r2, #2480
 3470 00b0 04D9     		bls	.L390
1270:bluetooth_rxtx.c **** 		} while( used_channels != 79 && (afh_map[(channel-2402)/8] & 0x1<<((channel-2402)%8)) );
 3471              		.loc 1 1270 0
 3472 00b2 1A88     		ldrh	r2, [r3]
 3473 00b4 92B2     		uxth	r2, r2
 3474 00b6 4F3A     		subs	r2, r2, #79
 3475 00b8 92B2     		uxth	r2, r2
 3476 00ba 1A80     		strh	r2, [r3]	@ movhi
 3477              	.L390:
1271:bluetooth_rxtx.c **** 	}
 3478              		.loc 1 1271 0
 3479 00bc 4F29     		cmp	r1, #79
 3480 00be 32D0     		beq	.L383
1271:bluetooth_rxtx.c **** 	}
 3481              		.loc 1 1271 0 is_stmt 0 discriminator 1
 3482 00c0 1A88     		ldrh	r2, [r3]
 3483 00c2 1888     		ldrh	r0, [r3]
 3484 00c4 92B2     		uxth	r2, r2
 3485 00c6 A2F66213 		subw	r3, r2, #2402
 3486 00ca 0822     		movs	r2, #8
 3487 00cc 93FBF2F3 		sdiv	r3, r3, r2
 3488 00d0 314A     		ldr	r2, .L420+24
 3489 00d2 80B2     		uxth	r0, r0
 3490 00d4 D25C     		ldrb	r2, [r2, r3]	@ zero_extendqisi2
 3491 00d6 314B     		ldr	r3, .L420+28
 3492 00d8 A0F66210 		subw	r0, r0, #2402
 3493 00dc 0340     		ands	r3, r3, r0
 3494 00de 002B     		cmp	r3, #0
 3495 00e0 03DA     		bge	.L391
 3496 00e2 013B     		subs	r3, r3, #1
 3497 00e4 63F00703 		orn	r3, r3, #7
 3498 00e8 0133     		adds	r3, r3, #1
 3499              	.L391:
 3500 00ea 42FA03F3 		asr	r3, r2, r3
 3501 00ee DA07     		lsls	r2, r3, #31
 3502 00f0 D4D4     		bmi	.L392
 3503 00f2 18E0     		b	.L383
 3504              	.L389:
1274:bluetooth_rxtx.c **** 		channel = next_hop(clkn);
 3505              		.loc 1 1274 0 is_stmt 1
 3506 00f4 A27A     		ldrb	r2, [r4, #10]	@ zero_extendqisi2
 3507 00f6 022A     		cmp	r2, #2
 3508 00f8 05D1     		bne	.L393
1275:bluetooth_rxtx.c **** 	}
 3509              		.loc 1 1275 0
 3510 00fa 1868     		ldr	r0, [r3]
ARM GAS  /tmp/ccUrIl19.s 			page 114


 3511 00fc FFF7FEFF 		bl	next_hop
 3512              	.LVL339:
 3513 0100 224B     		ldr	r3, .L420+12
 3514 0102 1880     		strh	r0, [r3]	@ movhi
 3515 0104 0FE0     		b	.L383
 3516              	.L393:
1278:bluetooth_rxtx.c **** 		channel = btle_next_hop(&le);
 3517              		.loc 1 1278 0
 3518 0106 A37A     		ldrb	r3, [r4, #10]	@ zero_extendqisi2
 3519 0108 032B     		cmp	r3, #3
 3520 010a 05D1     		bne	.L394
1279:bluetooth_rxtx.c **** 	}
 3521              		.loc 1 1279 0
 3522 010c 1F4D     		ldr	r5, .L420+12
 3523 010e 281D     		adds	r0, r5, #4
 3524 0110 FFF7FEFF 		bl	btle_next_hop
 3525              	.LVL340:
 3526 0114 2880     		strh	r0, [r5]	@ movhi
 3527 0116 06E0     		b	.L383
 3528              	.L394:
1282:bluetooth_rxtx.c **** 		channel = hop_direct_channel;
 3529              		.loc 1 1282 0
 3530 0118 A37A     		ldrb	r3, [r4, #10]	@ zero_extendqisi2
 3531 011a 042B     		cmp	r3, #4
 3532 011c 03D1     		bne	.L383
1283:bluetooth_rxtx.c **** 	}
 3533              		.loc 1 1283 0
 3534 011e A289     		ldrh	r2, [r4, #12]
 3535 0120 1A4B     		ldr	r3, .L420+12
 3536 0122 92B2     		uxth	r2, r2
 3537 0124 1A80     		strh	r2, [r3]	@ movhi
 3538              	.L383:
1286:bluetooth_rxtx.c **** 	while ((cc2400_status() & FS_LOCK)); // need to wait for unlock?
 3539              		.loc 1 1286 0
 3540 0126 6420     		movs	r0, #100
 3541 0128 FFF7FEFF 		bl	cc2400_strobe
 3542              	.LVL341:
 3543              	.L396:
1287:bluetooth_rxtx.c **** 
 3544              		.loc 1 1287 0 discriminator 1
 3545 012c FFF7FEFF 		bl	cc2400_status
 3546              	.LVL342:
 3547 0130 4307     		lsls	r3, r0, #29
 3548 0132 FBD4     		bmi	.L396
 3549 0134 154D     		ldr	r5, .L420+12
1290:bluetooth_rxtx.c **** 		cc2400_set(FSDIV, channel);
 3550              		.loc 1 1290 0
 3551 0136 607C     		ldrb	r0, [r4, #17]	@ zero_extendqisi2
1291:bluetooth_rxtx.c **** 	else
 3552              		.loc 1 1291 0
 3553 0138 2988     		ldrh	r1, [r5]
1290:bluetooth_rxtx.c **** 		cc2400_set(FSDIV, channel);
 3554              		.loc 1 1290 0
 3555 013a C0B2     		uxtb	r0, r0
 3556 013c 0228     		cmp	r0, #2
1291:bluetooth_rxtx.c **** 	else
 3557              		.loc 1 1291 0
ARM GAS  /tmp/ccUrIl19.s 			page 115


 3558 013e 89B2     		uxth	r1, r1
1293:bluetooth_rxtx.c **** 
 3559              		.loc 1 1293 0
 3560 0140 1EBF     		ittt	ne
 3561 0142 01F1FF31 		addne	r1, r1, #-1
 3562 0146 0220     		movne	r0, #2
 3563 0148 89B2     		uxthne	r1, r1
 3564 014a FFF7FEFF 		bl	cc2400_set
 3565              	.LVL343:
1296:bluetooth_rxtx.c **** 		cs_threshold_calc_and_set(channel);
 3566              		.loc 1 1296 0
 3567 014e A37A     		ldrb	r3, [r4, #10]	@ zero_extendqisi2
 3568 0150 1BB1     		cbz	r3, .L399
1297:bluetooth_rxtx.c **** 	}
 3569              		.loc 1 1297 0
 3570 0152 2888     		ldrh	r0, [r5]
 3571 0154 80B2     		uxth	r0, r0
 3572 0156 FFF7FEFF 		bl	cs_threshold_calc_and_set
 3573              	.LVL344:
 3574              	.L399:
1301:bluetooth_rxtx.c **** 	while (!(cc2400_status() & FS_LOCK));
 3575              		.loc 1 1301 0
 3576 015a 6120     		movs	r0, #97
 3577 015c FFF7FEFF 		bl	cc2400_strobe
 3578              	.LVL345:
 3579              	.L401:
1302:bluetooth_rxtx.c **** 
 3580              		.loc 1 1302 0 discriminator 1
 3581 0160 FFF7FEFF 		bl	cc2400_status
 3582              	.LVL346:
 3583 0164 4507     		lsls	r5, r0, #29
 3584 0166 FBD5     		bpl	.L401
1304:bluetooth_rxtx.c **** 
 3585              		.loc 1 1304 0
 3586 0168 0123     		movs	r3, #1
 3587 016a 2374     		strb	r3, [r4, #16]
1306:bluetooth_rxtx.c **** 		cc2400_strobe(STX);
 3588              		.loc 1 1306 0
 3589 016c 637C     		ldrb	r3, [r4, #17]	@ zero_extendqisi2
 3590 016e 022B     		cmp	r3, #2
1307:bluetooth_rxtx.c **** 	else
 3591              		.loc 1 1307 0
 3592 0170 0CBF     		ite	eq
 3593 0172 6320     		moveq	r0, #99
1309:bluetooth_rxtx.c **** }
 3594              		.loc 1 1309 0
 3595 0174 6220     		movne	r0, #98
1310:bluetooth_rxtx.c **** 
 3596              		.loc 1 1310 0
 3597 0176 BDE83840 		pop	{r3, r4, r5, lr}
1309:bluetooth_rxtx.c **** }
 3598              		.loc 1 1309 0
 3599 017a FFF7FEBF 		b	cc2400_strobe
 3600              	.LVL347:
 3601              	.L421:
 3602 017e 00BF     		.align	2
 3603              	.L420:
ARM GAS  /tmp/ccUrIl19.s 			page 116


 3604 0180 00000000 		.word	.LANCHOR0
 3605 0184 00000000 		.word	clkn
 3606 0188 00000000 		.word	last_hop
 3607 018c 00000000 		.word	.LANCHOR1
 3608 0190 00000000 		.word	used_channels
 3609 0194 00000000 		.word	afh_enabled
 3610 0198 00000000 		.word	afh_map
 3611 019c 07000080 		.word	-2147483641
 3612              		.cfi_endproc
 3613              	.LFE14:
 3615              		.section	.text.bt_stream_rx,"ax",%progbits
 3616              		.align	1
 3617              		.global	bt_stream_rx
 3618              		.thumb
 3619              		.thumb_func
 3621              	bt_stream_rx:
 3622              	.LFB15:
1314:bluetooth_rxtx.c **** 	int8_t rssi;
 3623              		.loc 1 1314 0
 3624              		.cfi_startproc
 3625              		@ args = 0, pretend = 0, frame = 0
 3626              		@ frame_needed = 0, uses_anonymous_args = 0
 3627 0000 2DE9F843 		push	{r3, r4, r5, r6, r7, r8, r9, lr}
 3628              		.cfi_def_cfa_offset 32
 3629              		.cfi_offset 3, -32
 3630              		.cfi_offset 4, -28
 3631              		.cfi_offset 5, -24
 3632              		.cfi_offset 6, -20
 3633              		.cfi_offset 7, -16
 3634              		.cfi_offset 8, -12
 3635              		.cfi_offset 9, -8
 3636              		.cfi_offset 14, -4
1318:bluetooth_rxtx.c **** 
 3637              		.loc 1 1318 0
 3638 0004 494B     		ldr	r3, .L456
 3639 0006 1022     		movs	r2, #16
 3640 0008 1A60     		str	r2, [r3]
1320:bluetooth_rxtx.c **** 	dio_ssp_init();
 3641              		.loc 1 1320 0
 3642 000a FFF7FEFF 		bl	queue_init
 3643              	.LVL348:
1321:bluetooth_rxtx.c **** 	dma_init();
 3644              		.loc 1 1321 0
 3645 000e FFF7FEFF 		bl	dio_ssp_init
 3646              	.LVL349:
1322:bluetooth_rxtx.c **** 	dio_ssp_start();
 3647              		.loc 1 1322 0
 3648 0012 FFF7FEFF 		bl	dma_init
 3649              	.LVL350:
1323:bluetooth_rxtx.c **** 
 3650              		.loc 1 1323 0
 3651 0016 FFF7FEFF 		bl	dio_ssp_start
 3652              	.LVL351:
1325:bluetooth_rxtx.c **** 
 3653              		.loc 1 1325 0
 3654 001a FFF7FEFF 		bl	cc2400_rx
 3655              	.LVL352:
ARM GAS  /tmp/ccUrIl19.s 			page 117


1327:bluetooth_rxtx.c **** 
 3656              		.loc 1 1327 0
 3657 001e FFF7FEFF 		bl	cs_trigger_enable
 3658              	.LVL353:
 3659              	.L423:
1329:bluetooth_rxtx.c **** 	{
 3660              		.loc 1 1329 0 discriminator 1
 3661 0022 434C     		ldr	r4, .L456+4
 3662 0024 A37C     		ldrb	r3, [r4, #18]	@ zero_extendqisi2
 3663 0026 A146     		mov	r9, r4
 3664 0028 012B     		cmp	r3, #1
 3665 002a 75D1     		bne	.L454
 3666              	.L435:
1332:bluetooth_rxtx.c **** 
 3667              		.loc 1 1332 0
 3668 002c 3F4B     		ldr	r3, .L456
 3669 002e 1022     		movs	r2, #16
 3670 0030 1A60     		str	r2, [r3]
1344:bluetooth_rxtx.c **** 		rssi_at_trigger = INT8_MIN;
 3671              		.loc 1 1344 0
 3672 0032 FFF7FEFF 		bl	rssi_reset
 3673              	.LVL354:
1345:bluetooth_rxtx.c **** 		while (!rx_tc) {
 3674              		.loc 1 1345 0
 3675 0036 8025     		movs	r5, #128
 3676              	.LVL355:
 3677              	.L424:
1346:bluetooth_rxtx.c **** 			rssi = (int8_t)(cc2400_get(RSSI) >> 8);
 3678              		.loc 1 1346 0 discriminator 1
 3679 0038 3E4F     		ldr	r7, .L456+8
 3680 003a 3F4E     		ldr	r6, .L456+12
 3681 003c 3B68     		ldr	r3, [r7]
 3682 003e DFF81881 		ldr	r8, .L456+44
 3683 0042 2BBB     		cbnz	r3, .L455
1347:bluetooth_rxtx.c **** 			if (cs_trigger && (rssi_at_trigger == INT8_MIN)) {
 3684              		.loc 1 1347 0
 3685 0044 0620     		movs	r0, #6
 3686 0046 FFF7FEFF 		bl	cc2400_get
 3687              	.LVL356:
1348:bluetooth_rxtx.c **** 				rssi = MAX(rssi,(cs_threshold_cur+54));
 3688              		.loc 1 1348 0
 3689 004a 3378     		ldrb	r3, [r6]	@ zero_extendqisi2
1347:bluetooth_rxtx.c **** 			if (cs_trigger && (rssi_at_trigger == INT8_MIN)) {
 3690              		.loc 1 1347 0
 3691 004c C0F30720 		ubfx	r0, r0, #8, #8
 3692              	.LVL357:
1348:bluetooth_rxtx.c **** 				rssi = MAX(rssi,(cs_threshold_cur+54));
 3693              		.loc 1 1348 0
 3694 0050 63B1     		cbz	r3, .L425
1348:bluetooth_rxtx.c **** 				rssi = MAX(rssi,(cs_threshold_cur+54));
 3695              		.loc 1 1348 0 is_stmt 0 discriminator 1
 3696 0052 6BB2     		sxtb	r3, r5
 3697 0054 8033     		adds	r3, r3, #128
 3698 0056 09D1     		bne	.L425
1349:bluetooth_rxtx.c **** 				rssi_at_trigger = rssi;
 3699              		.loc 1 1349 0 is_stmt 1
 3700 0058 384B     		ldr	r3, .L456+16
ARM GAS  /tmp/ccUrIl19.s 			page 118


 3701 005a 40B2     		sxtb	r0, r0
 3702              	.LVL358:
 3703 005c 93F90050 		ldrsb	r5, [r3]
 3704              	.LVL359:
 3705 0060 3635     		adds	r5, r5, #54
 3706 0062 A842     		cmp	r0, r5
 3707 0064 A8BF     		it	ge
 3708 0066 0546     		movge	r5, r0
 3709 0068 EDB2     		uxtb	r5, r5
1350:bluetooth_rxtx.c **** 			}
 3710              		.loc 1 1350 0
 3711 006a 2846     		mov	r0, r5
 3712              	.L425:
 3713              	.LVL360:
1352:bluetooth_rxtx.c **** 
 3714              		.loc 1 1352 0
 3715 006c 40B2     		sxtb	r0, r0
 3716              	.LVL361:
 3717 006e FFF7FEFF 		bl	rssi_add
 3718              	.LVL362:
1354:bluetooth_rxtx.c **** 
 3719              		.loc 1 1354 0
 3720 0072 D8F80000 		ldr	r0, [r8]
 3721 0076 FFF7FEFF 		bl	handle_usb
 3722              	.LVL363:
1357:bluetooth_rxtx.c **** 				hop();
 3723              		.loc 1 1357 0
 3724 007a 99F80B30 		ldrb	r3, [r9, #11]	@ zero_extendqisi2
 3725 007e 13B1     		cbz	r3, .L426
1358:bluetooth_rxtx.c **** 			} else {
 3726              		.loc 1 1358 0
 3727 0080 FFF7FEFF 		bl	hop
 3728              	.LVL364:
 3729 0084 D8E7     		b	.L424
 3730              	.L426:
1360:bluetooth_rxtx.c **** 			}
 3731              		.loc 1 1360 0
 3732 0086 294B     		ldr	r3, .L456
 3733 0088 4FF48072 		mov	r2, #256
 3734 008c 1A60     		str	r2, [r3]
 3735 008e D3E7     		b	.L424
 3736              	.L455:
1366:bluetooth_rxtx.c **** 
 3737              		.loc 1 1366 0
 3738 0090 2B4B     		ldr	r3, .L456+20
 3739 0092 1022     		movs	r2, #16
1368:bluetooth_rxtx.c **** 			status |= DMA_ERROR;
 3740              		.loc 1 1368 0
 3741 0094 2B4D     		ldr	r5, .L456+24
 3742              	.LVL365:
1366:bluetooth_rxtx.c **** 
 3743              		.loc 1 1366 0
 3744 0096 1A60     		str	r2, [r3]
1368:bluetooth_rxtx.c **** 			status |= DMA_ERROR;
 3745              		.loc 1 1368 0
 3746 0098 2B68     		ldr	r3, [r5]
 3747 009a 1BB1     		cbz	r3, .L429
ARM GAS  /tmp/ccUrIl19.s 			page 119


1369:bluetooth_rxtx.c **** 		}
 3748              		.loc 1 1369 0
 3749 009c 6378     		ldrb	r3, [r4, #1]	@ zero_extendqisi2
 3750 009e 43F00203 		orr	r3, r3, #2
 3751 00a2 6370     		strb	r3, [r4, #1]
 3752              	.L429:
1373:bluetooth_rxtx.c **** 			status |= DMA_OVERFLOW;
 3753              		.loc 1 1373 0
 3754 00a4 3B68     		ldr	r3, [r7]
 3755 00a6 012B     		cmp	r3, #1
 3756 00a8 03D9     		bls	.L430
1374:bluetooth_rxtx.c **** 
 3757              		.loc 1 1374 0
 3758 00aa 6378     		ldrb	r3, [r4, #1]	@ zero_extendqisi2
 3759 00ac 43F00103 		orr	r3, r3, #1
 3760 00b0 6370     		strb	r3, [r4, #1]
 3761              	.L430:
1376:bluetooth_rxtx.c **** 			status |= DISCARD;
 3762              		.loc 1 1376 0
 3763 00b2 227C     		ldrb	r2, [r4, #16]	@ zero_extendqisi2
 3764 00b4 1E4B     		ldr	r3, .L456+4
 3765 00b6 2AB1     		cbz	r2, .L431
1377:bluetooth_rxtx.c **** 			dma_discard = 0;
 3766              		.loc 1 1377 0
 3767 00b8 5A78     		ldrb	r2, [r3, #1]	@ zero_extendqisi2
 3768 00ba 42F02002 		orr	r2, r2, #32
 3769 00be 5A70     		strb	r2, [r3, #1]
1378:bluetooth_rxtx.c **** 		}
 3770              		.loc 1 1378 0
 3771 00c0 0022     		movs	r2, #0
 3772 00c2 1A74     		strb	r2, [r3, #16]
 3773              	.L431:
1381:bluetooth_rxtx.c **** 
 3774              		.loc 1 1381 0
 3775 00c4 204B     		ldr	r3, .L456+28
 3776 00c6 1888     		ldrh	r0, [r3]
 3777 00c8 80B2     		uxth	r0, r0
 3778 00ca FFF7FEFF 		bl	rssi_iir_update
 3779              	.LVL366:
1387:bluetooth_rxtx.c **** 			status |= CS_TRIGGER;
 3780              		.loc 1 1387 0
 3781 00ce 3378     		ldrb	r3, [r6]	@ zero_extendqisi2
 3782 00d0 13B9     		cbnz	r3, .L432
1387:bluetooth_rxtx.c **** 			status |= CS_TRIGGER;
 3783              		.loc 1 1387 0 is_stmt 0 discriminator 1
 3784 00d2 1E4B     		ldr	r3, .L456+32
 3785 00d4 1B78     		ldrb	r3, [r3]	@ zero_extendqisi2
 3786 00d6 2BB1     		cbz	r3, .L433
 3787              	.L432:
1388:bluetooth_rxtx.c **** 			cs_trigger = 0;
 3788              		.loc 1 1388 0 is_stmt 1
 3789 00d8 6378     		ldrb	r3, [r4, #1]	@ zero_extendqisi2
 3790 00da 43F00803 		orr	r3, r3, #8
 3791 00de 6370     		strb	r3, [r4, #1]
1389:bluetooth_rxtx.c **** 		}
 3792              		.loc 1 1389 0
 3793 00e0 0023     		movs	r3, #0
ARM GAS  /tmp/ccUrIl19.s 			page 120


 3794 00e2 3370     		strb	r3, [r6]
 3795              	.L433:
1392:bluetooth_rxtx.c **** 			status |= RSSI_TRIGGER;
 3796              		.loc 1 1392 0
 3797 00e4 154B     		ldr	r3, .L456+16
 3798 00e6 93F90020 		ldrsb	r2, [r3]
 3799 00ea 194B     		ldr	r3, .L456+36
 3800 00ec 3532     		adds	r2, r2, #53
 3801 00ee 93F90030 		ldrsb	r3, [r3]
 3802 00f2 9A42     		cmp	r2, r3
 3803 00f4 03DA     		bge	.L434
1393:bluetooth_rxtx.c **** 		}
 3804              		.loc 1 1393 0
 3805 00f6 6378     		ldrb	r3, [r4, #1]	@ zero_extendqisi2
 3806 00f8 43F01003 		orr	r3, r3, #16
 3807 00fc 6370     		strb	r3, [r4, #1]
 3808              	.L434:
1396:bluetooth_rxtx.c **** 
 3809              		.loc 1 1396 0
 3810 00fe 154B     		ldr	r3, .L456+40
 3811 0100 0020     		movs	r0, #0
 3812 0102 1968     		ldr	r1, [r3]
 3813 0104 FFF7FEFF 		bl	enqueue
 3814              	.LVL367:
1398:bluetooth_rxtx.c **** 		rx_tc = 0;
 3815              		.loc 1 1398 0
 3816 0108 D8F80000 		ldr	r0, [r8]
 3817 010c FFF7FEFF 		bl	handle_usb
 3818              	.LVL368:
1399:bluetooth_rxtx.c **** 		rx_err = 0;
 3819              		.loc 1 1399 0
 3820 0110 0023     		movs	r3, #0
 3821 0112 3B60     		str	r3, [r7]
1400:bluetooth_rxtx.c **** 	}
 3822              		.loc 1 1400 0
 3823 0114 2B60     		str	r3, [r5]
 3824 0116 84E7     		b	.L423
 3825              	.L454:
1329:bluetooth_rxtx.c **** 	{
 3826              		.loc 1 1329 0 discriminator 2
 3827 0118 A37C     		ldrb	r3, [r4, #18]	@ zero_extendqisi2
 3828 011a 082B     		cmp	r3, #8
 3829 011c 86D0     		beq	.L435
1407:bluetooth_rxtx.c **** 	cs_trigger_disable();
 3830              		.loc 1 1407 0
 3831 011e FFF7FEFF 		bl	dio_ssp_stop
 3832              	.LVL369:
1409:bluetooth_rxtx.c **** 
 3833              		.loc 1 1409 0
 3834 0122 BDE8F843 		pop	{r3, r4, r5, r6, r7, r8, r9, lr}
1408:bluetooth_rxtx.c **** }
 3835              		.loc 1 1408 0
 3836 0126 FFF7FEBF 		b	cs_trigger_disable
 3837              	.LVL370:
 3838              	.L457:
 3839 012a 00BF     		.align	2
 3840              	.L456:
ARM GAS  /tmp/ccUrIl19.s 			page 121


 3841 012c 3CC00920 		.word	537509948
 3842 0130 00000000 		.word	.LANCHOR0
 3843 0134 00000000 		.word	rx_tc
 3844 0138 00000000 		.word	cs_trigger
 3845 013c 00000000 		.word	cs_threshold_cur
 3846 0140 38C00920 		.word	537509944
 3847 0144 00000000 		.word	rx_err
 3848 0148 00000000 		.word	.LANCHOR1
 3849 014c 00000000 		.word	cs_no_squelch
 3850 0150 00000000 		.word	rssi_max
 3851 0154 00000000 		.word	idle_rxbuf
 3852 0158 00000000 		.word	clkn
 3853              		.cfi_endproc
 3854              	.LFE15:
 3856              		.section	.text.br_transmit,"ax",%progbits
 3857              		.align	1
 3858              		.global	br_transmit
 3859              		.thumb
 3860              		.thumb_func
 3862              	br_transmit:
 3863              	.LFB18:
1441:bluetooth_rxtx.c **** 	uint16_t gio_save;
 3864              		.loc 1 1441 0
 3865              		.cfi_startproc
 3866              		@ args = 0, pretend = 0, frame = 16
 3867              		@ frame_needed = 0, uses_anonymous_args = 0
 3868 0000 2DE9FF41 		push	{r0, r1, r2, r3, r4, r5, r6, r7, r8, lr}
 3869              		.cfi_def_cfa_offset 40
 3870              		.cfi_offset 0, -40
 3871              		.cfi_offset 1, -36
 3872              		.cfi_offset 2, -32
 3873              		.cfi_offset 3, -28
 3874              		.cfi_offset 4, -24
 3875              		.cfi_offset 5, -20
 3876              		.cfi_offset 6, -16
 3877              		.cfi_offset 7, -12
 3878              		.cfi_offset 8, -8
 3879              		.cfi_offset 14, -4
 3880              	.LVL371:
1446:bluetooth_rxtx.c **** 	uint8_t trailer = ((target.syncword >> 63) & 1) == 1 ? 0xaa : 0x55;
 3881              		.loc 1 1446 0
 3882 0004 954B     		ldr	r3, .L494
 3883 0006 0122     		movs	r2, #1
 3884 0008 D3E90245 		ldrd	r4, [r3, #8]
 3885 000c 0023     		movs	r3, #0
 3886 000e 2240     		ands	r2, r2, r4
 3887 0010 2B40     		ands	r3, r3, r5
 3888 0012 52EA0301 		orrs	r1, r2, r3
1447:bluetooth_rxtx.c **** 
 3889              		.loc 1 1447 0
 3890 0016 4FF00007 		mov	r7, #0
1446:bluetooth_rxtx.c **** 	uint8_t trailer = ((target.syncword >> 63) & 1) == 1 ? 0xaa : 0x55;
 3891              		.loc 1 1446 0
 3892 001a 45F25553 		movw	r3, #21845
1447:bluetooth_rxtx.c **** 
 3893              		.loc 1 1447 0
 3894 001e 4FEAD576 		lsr	r6, r5, #31
ARM GAS  /tmp/ccUrIl19.s 			page 122


1446:bluetooth_rxtx.c **** 	uint8_t trailer = ((target.syncword >> 63) & 1) == 1 ? 0xaa : 0x55;
 3895              		.loc 1 1446 0
 3896 0022 4AF6AA28 		movw	r8, #43690
 3897 0026 18BF     		it	ne
 3898 0028 9846     		movne	r8, r3
 3899              	.LVL372:
1450:bluetooth_rxtx.c **** 		reverse8((target.syncword >> 8) & 0xFF),
 3900              		.loc 1 1450 0
 3901 002a E0B2     		uxtb	r0, r4
1447:bluetooth_rxtx.c **** 
 3902              		.loc 1 1447 0
 3903 002c 002F     		cmp	r7, #0
 3904 002e 08BF     		it eq
 3905 0030 012E     		cmpeq	r6, #1
 3906 0032 14BF     		ite	ne
 3907 0034 5526     		movne	r6, #85
 3908 0036 AA26     		moveq	r6, #170
 3909              	.LVL373:
1450:bluetooth_rxtx.c **** 		reverse8((target.syncword >> 8) & 0xFF),
 3910              		.loc 1 1450 0
 3911 0038 FFF7FEFF 		bl	reverse8
 3912              	.LVL374:
1449:bluetooth_rxtx.c **** 		reverse8((target.syncword >> 0) & 0xFF),
 3913              		.loc 1 1449 0
 3914 003c 8DF80000 		strb	r0, [sp]
1451:bluetooth_rxtx.c **** 		reverse8((target.syncword >> 16) & 0xFF),
 3915              		.loc 1 1451 0
 3916 0040 C4F30720 		ubfx	r0, r4, #8, #8
 3917 0044 FFF7FEFF 		bl	reverse8
 3918              	.LVL375:
1449:bluetooth_rxtx.c **** 		reverse8((target.syncword >> 0) & 0xFF),
 3919              		.loc 1 1449 0
 3920 0048 8DF80100 		strb	r0, [sp, #1]
1452:bluetooth_rxtx.c **** 		reverse8((target.syncword >> 24) & 0xFF),
 3921              		.loc 1 1452 0
 3922 004c C4F30740 		ubfx	r0, r4, #16, #8
 3923 0050 FFF7FEFF 		bl	reverse8
 3924              	.LVL376:
1449:bluetooth_rxtx.c **** 		reverse8((target.syncword >> 0) & 0xFF),
 3925              		.loc 1 1449 0
 3926 0054 8DF80200 		strb	r0, [sp, #2]
1453:bluetooth_rxtx.c **** 		reverse8((target.syncword >> 32) & 0xFF),
 3927              		.loc 1 1453 0
 3928 0058 200E     		lsrs	r0, r4, #24
 3929 005a FFF7FEFF 		bl	reverse8
 3930              	.LVL377:
1449:bluetooth_rxtx.c **** 		reverse8((target.syncword >> 0) & 0xFF),
 3931              		.loc 1 1449 0
 3932 005e 8DF80300 		strb	r0, [sp, #3]
1454:bluetooth_rxtx.c **** 		reverse8((target.syncword >> 40) & 0xFF),
 3933              		.loc 1 1454 0
 3934 0062 E8B2     		uxtb	r0, r5
 3935 0064 FFF7FEFF 		bl	reverse8
 3936              	.LVL378:
1449:bluetooth_rxtx.c **** 		reverse8((target.syncword >> 0) & 0xFF),
 3937              		.loc 1 1449 0
 3938 0068 8DF80400 		strb	r0, [sp, #4]
ARM GAS  /tmp/ccUrIl19.s 			page 123


1455:bluetooth_rxtx.c **** 		reverse8((target.syncword >> 48) & 0xFF),
 3939              		.loc 1 1455 0
 3940 006c C5F30720 		ubfx	r0, r5, #8, #8
 3941 0070 FFF7FEFF 		bl	reverse8
 3942              	.LVL379:
1449:bluetooth_rxtx.c **** 		reverse8((target.syncword >> 0) & 0xFF),
 3943              		.loc 1 1449 0
 3944 0074 8DF80500 		strb	r0, [sp, #5]
1456:bluetooth_rxtx.c **** 		reverse8((target.syncword >> 56) & 0xFF),
 3945              		.loc 1 1456 0
 3946 0078 C5F30740 		ubfx	r0, r5, #16, #8
 3947 007c FFF7FEFF 		bl	reverse8
 3948              	.LVL380:
1449:bluetooth_rxtx.c **** 		reverse8((target.syncword >> 0) & 0xFF),
 3949              		.loc 1 1449 0
 3950 0080 8DF80600 		strb	r0, [sp, #6]
1457:bluetooth_rxtx.c **** 		reverse8(trailer),
 3951              		.loc 1 1457 0
 3952 0084 280E     		lsrs	r0, r5, #24
 3953 0086 FFF7FEFF 		bl	reverse8
 3954              	.LVL381:
1449:bluetooth_rxtx.c **** 		reverse8((target.syncword >> 0) & 0xFF),
 3955              		.loc 1 1449 0
 3956 008a 8DF80700 		strb	r0, [sp, #7]
1458:bluetooth_rxtx.c **** 		reverse8(0x77),
 3957              		.loc 1 1458 0
 3958 008e 3046     		mov	r0, r6
 3959 0090 FFF7FEFF 		bl	reverse8
 3960              	.LVL382:
1449:bluetooth_rxtx.c **** 		reverse8((target.syncword >> 0) & 0xFF),
 3961              		.loc 1 1449 0
 3962 0094 8DF80800 		strb	r0, [sp, #8]
1459:bluetooth_rxtx.c **** 		reverse8(0x66),
 3963              		.loc 1 1459 0
 3964 0098 7720     		movs	r0, #119
 3965 009a FFF7FEFF 		bl	reverse8
 3966              	.LVL383:
1449:bluetooth_rxtx.c **** 		reverse8((target.syncword >> 0) & 0xFF),
 3967              		.loc 1 1449 0
 3968 009e 8DF80900 		strb	r0, [sp, #9]
1460:bluetooth_rxtx.c **** 		reverse8(0x55),
 3969              		.loc 1 1460 0
 3970 00a2 6620     		movs	r0, #102
 3971 00a4 FFF7FEFF 		bl	reverse8
 3972              	.LVL384:
1449:bluetooth_rxtx.c **** 		reverse8((target.syncword >> 0) & 0xFF),
 3973              		.loc 1 1449 0
 3974 00a8 8DF80A00 		strb	r0, [sp, #10]
1461:bluetooth_rxtx.c **** 		reverse8(0x44),
 3975              		.loc 1 1461 0
 3976 00ac 5520     		movs	r0, #85
 3977 00ae FFF7FEFF 		bl	reverse8
 3978              	.LVL385:
1449:bluetooth_rxtx.c **** 		reverse8((target.syncword >> 0) & 0xFF),
 3979              		.loc 1 1449 0
 3980 00b2 8DF80B00 		strb	r0, [sp, #11]
1462:bluetooth_rxtx.c **** 		reverse8(0x33),
ARM GAS  /tmp/ccUrIl19.s 			page 124


 3981              		.loc 1 1462 0
 3982 00b6 4420     		movs	r0, #68
 3983 00b8 FFF7FEFF 		bl	reverse8
 3984              	.LVL386:
1449:bluetooth_rxtx.c **** 		reverse8((target.syncword >> 0) & 0xFF),
 3985              		.loc 1 1449 0
 3986 00bc 8DF80C00 		strb	r0, [sp, #12]
1463:bluetooth_rxtx.c **** 		reverse8(0x22),
 3987              		.loc 1 1463 0
 3988 00c0 3320     		movs	r0, #51
 3989 00c2 FFF7FEFF 		bl	reverse8
 3990              	.LVL387:
1449:bluetooth_rxtx.c **** 		reverse8((target.syncword >> 0) & 0xFF),
 3991              		.loc 1 1449 0
 3992 00c6 8DF80D00 		strb	r0, [sp, #13]
1464:bluetooth_rxtx.c **** 		reverse8(0x11)
 3993              		.loc 1 1464 0
 3994 00ca 2220     		movs	r0, #34
 3995 00cc FFF7FEFF 		bl	reverse8
 3996              	.LVL388:
1449:bluetooth_rxtx.c **** 		reverse8((target.syncword >> 0) & 0xFF),
 3997              		.loc 1 1449 0
 3998 00d0 8DF80E00 		strb	r0, [sp, #14]
1465:bluetooth_rxtx.c **** 	};
 3999              		.loc 1 1465 0
 4000 00d4 1120     		movs	r0, #17
 4001 00d6 FFF7FEFF 		bl	reverse8
 4002              	.LVL389:
 4003              	.LBB33:
 4004              	.LBB34:
1425:bluetooth_rxtx.c **** 
 4005              		.loc 1 1425 0
 4006 00da 3C46     		mov	r4, r7
 4007              	.LBE34:
 4008              	.LBE33:
1449:bluetooth_rxtx.c **** 		reverse8((target.syncword >> 0) & 0xFF),
 4009              		.loc 1 1449 0
 4010 00dc 8DF80F00 		strb	r0, [sp, #15]
 4011              	.LVL390:
 4012              	.LBB37:
 4013              	.LBB36:
 4014              	.LBB35:
1427:bluetooth_rxtx.c **** 	{
 4015              		.loc 1 1427 0
 4016 00e0 3B46     		mov	r3, r7
 4017              	.LVL391:
 4018              	.L462:
1429:bluetooth_rxtx.c **** 	}
 4019              		.loc 1 1429 0
 4020 00e2 48FA03F2 		asr	r2, r8, r3
 4021 00e6 C3F10F01 		rsb	r1, r3, #15
 4022 00ea 02F00102 		and	r2, r2, #1
 4023 00ee 8A40     		lsls	r2, r2, r1
1427:bluetooth_rxtx.c **** 	{
 4024              		.loc 1 1427 0
 4025 00f0 0133     		adds	r3, r3, #1
 4026              	.LVL392:
ARM GAS  /tmp/ccUrIl19.s 			page 125


1429:bluetooth_rxtx.c **** 	}
 4027              		.loc 1 1429 0
 4028 00f2 1443     		orrs	r4, r4, r2
 4029              	.LVL393:
1427:bluetooth_rxtx.c **** 	{
 4030              		.loc 1 1427 0
 4031 00f4 102B     		cmp	r3, #16
1429:bluetooth_rxtx.c **** 	}
 4032              		.loc 1 1429 0
 4033 00f6 A4B2     		uxth	r4, r4
 4034              	.LVL394:
1427:bluetooth_rxtx.c **** 	{
 4035              		.loc 1 1427 0
 4036 00f8 F3D1     		bne	.L462
 4037              	.LVL395:
 4038              	.LBE35:
 4039              	.LBE36:
 4040              	.LBE37:
 4041              	.LBB38:
 4042              	.LBB39:
1042:bluetooth_rxtx.c **** 	cc2400_set(LMTST,   0x2b22);    // LNA and receive mixers test register
 4043              		.loc 1 1042 0
 4044 00fa 0D20     		movs	r0, #13
 4045 00fc 47F6FF71 		movw	r1, #32767
 4046 0100 FFF7FEFF 		bl	cc2400_set
 4047              	.LVL396:
1043:bluetooth_rxtx.c **** 	cc2400_set(MDMTST0, 0x134b);    // no PRNG
 4048              		.loc 1 1043 0
 4049 0104 1220     		movs	r0, #18
 4050 0106 42F62231 		movw	r1, #11042
 4051 010a FFF7FEFF 		bl	cc2400_set
 4052              	.LVL397:
1044:bluetooth_rxtx.c **** 
 4053              		.loc 1 1044 0
 4054 010e 1420     		movs	r0, #20
 4055 0110 41F24B31 		movw	r1, #4939
 4056 0114 FFF7FEFF 		bl	cc2400_set
 4057              	.LVL398:
1046:bluetooth_rxtx.c **** 	// 0 00 01 1 000 00 0 00 0 1
 4058              		.loc 1 1046 0
 4059 0118 2020     		movs	r0, #32
 4060 011a 40F60141 		movw	r1, #3073
 4061 011e FFF7FEFF 		bl	cc2400_set
 4062              	.LVL399:
1054:bluetooth_rxtx.c **** 	cc2400_set(SYNCH,   (sync >> 16) & 0xffff);
 4063              		.loc 1 1054 0
 4064 0122 2146     		mov	r1, r4
 4065 0124 2C20     		movs	r0, #44
 4066 0126 FFF7FEFF 		bl	cc2400_set
 4067              	.LVL400:
1055:bluetooth_rxtx.c **** 
 4068              		.loc 1 1055 0
 4069 012a 2D20     		movs	r0, #45
 4070 012c 0021     		movs	r1, #0
 4071 012e FFF7FEFF 		bl	cc2400_set
 4072              	.LVL401:
1057:bluetooth_rxtx.c **** 	cc2400_set(FREND,   0b1011);    // amplifier level (-7 dBm, picked from hat)
ARM GAS  /tmp/ccUrIl19.s 			page 126


 4073              		.loc 1 1057 0
 4074 0132 4B4B     		ldr	r3, .L494+4
 4075 0134 0220     		movs	r0, #2
 4076 0136 1988     		ldrh	r1, [r3]
1060:bluetooth_rxtx.c **** 		cc2400_set(MDMCTRL, 0x0029);    // 160 kHz frequency deviation
 4077              		.loc 1 1060 0
 4078 0138 4A4C     		ldr	r4, .L494+8
 4079              	.LVL402:
1057:bluetooth_rxtx.c **** 	cc2400_set(FREND,   0b1011);    // amplifier level (-7 dBm, picked from hat)
 4080              		.loc 1 1057 0
 4081 013a 89B2     		uxth	r1, r1
 4082 013c FFF7FEFF 		bl	cc2400_set
 4083              	.LVL403:
1058:bluetooth_rxtx.c **** 
 4084              		.loc 1 1058 0
 4085 0140 0520     		movs	r0, #5
 4086 0142 0B21     		movs	r1, #11
 4087 0144 FFF7FEFF 		bl	cc2400_set
 4088              	.LVL404:
1060:bluetooth_rxtx.c **** 		cc2400_set(MDMCTRL, 0x0029);    // 160 kHz frequency deviation
 4089              		.loc 1 1060 0
 4090 0148 2378     		ldrb	r3, [r4]	@ zero_extendqisi2
 4091 014a 13B9     		cbnz	r3, .L463
1061:bluetooth_rxtx.c **** 	} else if (modulation == MOD_BT_LOW_ENERGY) {
 4092              		.loc 1 1061 0
 4093 014c 0320     		movs	r0, #3
 4094 014e 2921     		movs	r1, #41
 4095 0150 04E0     		b	.L492
 4096              	.L463:
1062:bluetooth_rxtx.c **** 		cc2400_set(MDMCTRL, 0x0040);    // 250 kHz frequency deviation
 4097              		.loc 1 1062 0
 4098 0152 2378     		ldrb	r3, [r4]	@ zero_extendqisi2
 4099 0154 012B     		cmp	r3, #1
 4100 0156 1DD1     		bne	.L465
1063:bluetooth_rxtx.c **** 	} else {
 4101              		.loc 1 1063 0
 4102 0158 0320     		movs	r0, #3
 4103 015a 4021     		movs	r1, #64
 4104              	.L492:
 4105 015c FFF7FEFF 		bl	cc2400_set
 4106              	.LVL405:
1069:bluetooth_rxtx.c **** 
 4107              		.loc 1 1069 0
 4108 0160 FFF7FEFF 		bl	clkn_start
 4109              	.LVL406:
 4110              	.L467:
1071:bluetooth_rxtx.c **** 	cc2400_strobe(SFSON);
 4111              		.loc 1 1071 0
 4112 0164 FFF7FEFF 		bl	cc2400_status
 4113              	.LVL407:
 4114 0168 4506     		lsls	r5, r0, #25
 4115 016a FBD5     		bpl	.L467
1072:bluetooth_rxtx.c **** 	while (!(cc2400_status() & FS_LOCK));
 4116              		.loc 1 1072 0
 4117 016c 6120     		movs	r0, #97
 4118 016e FFF7FEFF 		bl	cc2400_strobe
 4119              	.LVL408:
ARM GAS  /tmp/ccUrIl19.s 			page 127


 4120              	.L469:
1073:bluetooth_rxtx.c **** 
 4121              		.loc 1 1073 0
 4122 0172 FFF7FEFF 		bl	cc2400_status
 4123              	.LVL409:
 4124 0176 4007     		lsls	r0, r0, #29
 4125 0178 FBD5     		bpl	.L469
1076:bluetooth_rxtx.c **** #endif
 4126              		.loc 1 1076 0
 4127 017a 3B4B     		ldr	r3, .L494+12
 4128 017c 8022     		movs	r2, #128
 4129 017e 1A60     		str	r2, [r3]
 4130              	.L471:
1079:bluetooth_rxtx.c **** 	cc2400_strobe(STX);
 4131              		.loc 1 1079 0
 4132 0180 0E20     		movs	r0, #14
 4133 0182 FFF7FEFF 		bl	cc2400_get
 4134              	.LVL410:
 4135 0186 00F01F00 		and	r0, r0, #31
 4136 018a 0F28     		cmp	r0, #15
 4137 018c F8D1     		bne	.L471
1080:bluetooth_rxtx.c **** 
 4138              		.loc 1 1080 0
 4139 018e 6320     		movs	r0, #99
 4140 0190 FFF7FEFF 		bl	cc2400_strobe
 4141              	.LVL411:
 4142              	.L465:
 4143              	.LBE39:
 4144              	.LBE38:
1470:bluetooth_rxtx.c **** 
 4145              		.loc 1 1470 0 discriminator 3
 4146 0194 1421     		movs	r1, #20
 4147 0196 2320     		movs	r0, #35
 4148 0198 FFF7FEFF 		bl	cc2400_set
 4149              	.LVL412:
1473:bluetooth_rxtx.c **** 	cc2400_set(IOCFG, (GIO_FIFO_FULL << 9) | (gio_save & 0x1ff));
 4150              		.loc 1 1473 0 discriminator 3
 4151 019c 0820     		movs	r0, #8
 4152 019e FFF7FEFF 		bl	cc2400_get
 4153              	.LVL413:
1474:bluetooth_rxtx.c **** 
 4154              		.loc 1 1474 0 discriminator 3
 4155 01a2 C0F30801 		ubfx	r1, r0, #0, #9
1473:bluetooth_rxtx.c **** 	cc2400_set(IOCFG, (GIO_FIFO_FULL << 9) | (gio_save & 0x1ff));
 4156              		.loc 1 1473 0 discriminator 3
 4157 01a6 0546     		mov	r5, r0
 4158              	.LVL414:
1474:bluetooth_rxtx.c **** 
 4159              		.loc 1 1474 0 discriminator 3
 4160 01a8 41F49C41 		orr	r1, r1, #19968
 4161 01ac 0820     		movs	r0, #8
 4162              	.LVL415:
 4163 01ae FFF7FEFF 		bl	cc2400_set
 4164              	.LVL416:
1444:bluetooth_rxtx.c **** 
 4165              		.loc 1 1444 0 discriminator 3
 4166 01b2 0026     		movs	r6, #0
ARM GAS  /tmp/ccUrIl19.s 			page 128


 4167              	.LVL417:
 4168              	.L472:
1476:bluetooth_rxtx.c **** 	{
 4169              		.loc 1 1476 0 discriminator 1
 4170 01b4 A37C     		ldrb	r3, [r4, #18]	@ zero_extendqisi2
 4171 01b6 022B     		cmp	r3, #2
 4172 01b8 45D1     		bne	.L486
1479:bluetooth_rxtx.c **** 
 4173              		.loc 1 1479 0
 4174 01ba 7608     		lsrs	r6, r6, #1
 4175              	.LVL418:
 4176              	.L474:
1479:bluetooth_rxtx.c **** 
 4177              		.loc 1 1479 0 is_stmt 0 discriminator 1
 4178 01bc 2B4F     		ldr	r7, .L494+16
 4179 01be 3B68     		ldr	r3, [r7]
 4180 01c0 B6EB530F 		cmp	r6, r3, lsr #1
 4181 01c4 05D1     		bne	.L493
 4182              	.L475:
1482:bluetooth_rxtx.c **** 				hop();
 4183              		.loc 1 1482 0 is_stmt 1
 4184 01c6 E37A     		ldrb	r3, [r4, #11]	@ zero_extendqisi2
 4185 01c8 002B     		cmp	r3, #0
 4186 01ca F7D0     		beq	.L474
1483:bluetooth_rxtx.c **** 			}
 4187              		.loc 1 1483 0
 4188 01cc FFF7FEFF 		bl	hop
 4189              	.LVL419:
 4190 01d0 F4E7     		b	.L474
 4191              	.L493:
1479:bluetooth_rxtx.c **** 
 4192              		.loc 1 1479 0 discriminator 2
 4193 01d2 274B     		ldr	r3, .L494+20
 4194 01d4 1A68     		ldr	r2, [r3]
 4195 01d6 40F6C903 		movw	r3, #2249
 4196 01da 9A42     		cmp	r2, r3
 4197 01dc F3D9     		bls	.L475
1489:bluetooth_rxtx.c **** 
 4198              		.loc 1 1489 0
 4199 01de 254B     		ldr	r3, .L494+24
 4200 01e0 4FF48072 		mov	r2, #256
1487:bluetooth_rxtx.c **** 
 4201              		.loc 1 1487 0
 4202 01e4 3E68     		ldr	r6, [r7]
 4203              	.LVL420:
1491:bluetooth_rxtx.c **** 
 4204              		.loc 1 1491 0
 4205 01e6 1020     		movs	r0, #16
1489:bluetooth_rxtx.c **** 
 4206              		.loc 1 1489 0
 4207 01e8 1A60     		str	r2, [r3]
1491:bluetooth_rxtx.c **** 
 4208              		.loc 1 1491 0
 4209 01ea 6946     		mov	r1, sp
 4210 01ec FFF7FEFF 		bl	cc2400_fifo_write
 4211              	.LVL421:
 4212              	.L477:
ARM GAS  /tmp/ccUrIl19.s 			page 129


1493:bluetooth_rxtx.c **** 		TXLED_CLR;
 4213              		.loc 1 1493 0 discriminator 1
 4214 01f0 0E20     		movs	r0, #14
 4215 01f2 FFF7FEFF 		bl	cc2400_get
 4216              	.LVL422:
 4217 01f6 00F01F00 		and	r0, r0, #31
 4218 01fa 0F28     		cmp	r0, #15
 4219 01fc F8D1     		bne	.L477
1494:bluetooth_rxtx.c **** 
 4220              		.loc 1 1494 0
 4221 01fe 1E4B     		ldr	r3, .L494+28
 4222 0200 4FF48072 		mov	r2, #256
 4223 0204 1A60     		str	r2, [r3]
1496:bluetooth_rxtx.c **** 		while ((cc2400_status() & FS_LOCK));
 4224              		.loc 1 1496 0
 4225 0206 6420     		movs	r0, #100
 4226 0208 FFF7FEFF 		bl	cc2400_strobe
 4227              	.LVL423:
 4228              	.L479:
1497:bluetooth_rxtx.c **** 
 4229              		.loc 1 1497 0 discriminator 1
 4230 020c FFF7FEFF 		bl	cc2400_status
 4231              	.LVL424:
 4232 0210 4107     		lsls	r1, r0, #29
 4233 0212 FBD4     		bmi	.L479
 4234              	.L481:
1499:bluetooth_rxtx.c **** 		cc2400_strobe(SFSON);
 4235              		.loc 1 1499 0
 4236 0214 FFF7FEFF 		bl	cc2400_status
 4237              	.LVL425:
 4238 0218 4206     		lsls	r2, r0, #25
 4239 021a FBD5     		bpl	.L481
1500:bluetooth_rxtx.c **** 		while (!(cc2400_status() & FS_LOCK));
 4240              		.loc 1 1500 0
 4241 021c 6120     		movs	r0, #97
 4242 021e FFF7FEFF 		bl	cc2400_strobe
 4243              	.LVL426:
 4244              	.L483:
1501:bluetooth_rxtx.c **** 
 4245              		.loc 1 1501 0 discriminator 1
 4246 0222 FFF7FEFF 		bl	cc2400_status
 4247              	.LVL427:
 4248 0226 4307     		lsls	r3, r0, #29
 4249 0228 FBD5     		bpl	.L483
 4250              	.L485:
1503:bluetooth_rxtx.c **** 		cc2400_strobe(STX);
 4251              		.loc 1 1503 0
 4252 022a 0E20     		movs	r0, #14
 4253 022c FFF7FEFF 		bl	cc2400_get
 4254              	.LVL428:
 4255 0230 00F01F00 		and	r0, r0, #31
 4256 0234 0F28     		cmp	r0, #15
 4257 0236 F8D1     		bne	.L485
1504:bluetooth_rxtx.c **** 
 4258              		.loc 1 1504 0
 4259 0238 6320     		movs	r0, #99
 4260 023a FFF7FEFF 		bl	cc2400_strobe
ARM GAS  /tmp/ccUrIl19.s 			page 130


 4261              	.LVL429:
1506:bluetooth_rxtx.c **** 	}
 4262              		.loc 1 1506 0
 4263 023e 3868     		ldr	r0, [r7]
 4264 0240 FFF7FEFF 		bl	handle_usb
 4265              	.LVL430:
 4266 0244 B6E7     		b	.L472
 4267              	.L486:
1510:bluetooth_rxtx.c **** #endif
 4268              		.loc 1 1510 0
 4269 0246 0D4B     		ldr	r3, .L494+32
 4270 0248 8022     		movs	r2, #128
 4271 024a 1A60     		str	r2, [r3]
1514:bluetooth_rxtx.c **** }
 4272              		.loc 1 1514 0
 4273 024c 0820     		movs	r0, #8
 4274 024e 2946     		mov	r1, r5
 4275 0250 FFF7FEFF 		bl	cc2400_set
 4276              	.LVL431:
1515:bluetooth_rxtx.c **** 
 4277              		.loc 1 1515 0
 4278 0254 04B0     		add	sp, sp, #16
 4279              		@ sp needed
 4280 0256 BDE8F081 		pop	{r4, r5, r6, r7, r8, pc}
 4281              	.LVL432:
 4282              	.L495:
 4283 025a 00BF     		.align	2
 4284              	.L494:
 4285 025c 00000000 		.word	target
 4286 0260 00000000 		.word	.LANCHOR1
 4287 0264 00000000 		.word	.LANCHOR0
 4288 0268 58C00920 		.word	537509976
 4289 026c 00000000 		.word	clkn
 4290 0270 08400040 		.word	1073758216
 4291 0274 38C00920 		.word	537509944
 4292 0278 3CC00920 		.word	537509948
 4293 027c 5CC00920 		.word	537509980
 4294              		.cfi_endproc
 4295              	.LFE18:
 4297              		.section	.text.reset_le,"ax",%progbits
 4298              		.align	1
 4299              		.global	reset_le
 4300              		.thumb
 4301              		.thumb_func
 4303              	reset_le:
 4304              	.LFB20:
1528:bluetooth_rxtx.c **** 	le_set_access_address(0x8e89bed6);     // advertising channel access address
 4305              		.loc 1 1528 0
 4306              		.cfi_startproc
 4307              		@ args = 0, pretend = 0, frame = 0
 4308              		@ frame_needed = 0, uses_anonymous_args = 0
 4309 0000 08B5     		push	{r3, lr}
 4310              		.cfi_def_cfa_offset 8
 4311              		.cfi_offset 3, -8
 4312              		.cfi_offset 14, -4
1529:bluetooth_rxtx.c **** 	le.crc_init  = 0x555555;               // advertising channel CRCInit
 4313              		.loc 1 1529 0
ARM GAS  /tmp/ccUrIl19.s 			page 131


 4314 0002 0F48     		ldr	r0, .L497
 4315 0004 FFF7FEFF 		bl	le_set_access_address
 4316              	.LVL433:
1530:bluetooth_rxtx.c **** 	le.crc_init_reversed = 0xAAAAAA;
 4317              		.loc 1 1530 0
 4318 0008 0E4B     		ldr	r3, .L497+4
 4319 000a 0F4A     		ldr	r2, .L497+8
 4320 000c DA60     		str	r2, [r3, #12]
1531:bluetooth_rxtx.c **** 	//JWHUR crc verify on
 4321              		.loc 1 1531 0
 4322 000e 0F4A     		ldr	r2, .L497+12
 4323 0010 1A61     		str	r2, [r3, #16]
1533:bluetooth_rxtx.c **** 	le.last_packet = 0;
 4324              		.loc 1 1533 0
 4325 0012 0122     		movs	r2, #1
 4326 0014 5A61     		str	r2, [r3, #20]
1534:bluetooth_rxtx.c **** 
 4327              		.loc 1 1534 0
 4328 0016 0022     		movs	r2, #0
1542:bluetooth_rxtx.c **** 	le.conn_interval = 0;
 4329              		.loc 1 1542 0
 4330 0018 1A84     		strh	r2, [r3, #32]	@ movhi
1534:bluetooth_rxtx.c **** 
 4331              		.loc 1 1534 0
 4332 001a 5A64     		str	r2, [r3, #68]
1545:bluetooth_rxtx.c **** 
 4333              		.loc 1 1545 0
 4334 001c 9A84     		strh	r2, [r3, #36]	@ movhi
1536:bluetooth_rxtx.c **** 
 4335              		.loc 1 1536 0
 4336 001e 1A76     		strb	r2, [r3, #24]
1538:bluetooth_rxtx.c **** 	le.channel_increment = 0;
 4337              		.loc 1 1538 0
 4338 0020 5A76     		strb	r2, [r3, #25]
1539:bluetooth_rxtx.c **** 
 4339              		.loc 1 1539 0
 4340 0022 9A76     		strb	r2, [r3, #26]
1541:bluetooth_rxtx.c **** 	le.interval_timer = 0;
 4341              		.loc 1 1541 0
 4342 0024 DA61     		str	r2, [r3, #28]
1543:bluetooth_rxtx.c **** 	le.conn_interval = 0;
 4343              		.loc 1 1543 0
 4344 0026 5A84     		strh	r2, [r3, #34]	@ movhi
1547:bluetooth_rxtx.c **** 	le.win_offset = 0;
 4345              		.loc 1 1547 0
 4346 0028 83F82620 		strb	r2, [r3, #38]
1548:bluetooth_rxtx.c **** 
 4347              		.loc 1 1548 0
 4348 002c 1A85     		strh	r2, [r3, #40]	@ movhi
1550:bluetooth_rxtx.c **** 	le.update_instant = 0;
 4349              		.loc 1 1550 0
 4350 002e DA62     		str	r2, [r3, #44]
1551:bluetooth_rxtx.c **** 	le.interval_update = 0;
 4351              		.loc 1 1551 0
 4352 0030 1A86     		strh	r2, [r3, #48]	@ movhi
1552:bluetooth_rxtx.c **** 	le.win_size_update = 0;
 4353              		.loc 1 1552 0
ARM GAS  /tmp/ccUrIl19.s 			page 132


 4354 0032 5A86     		strh	r2, [r3, #50]	@ movhi
1553:bluetooth_rxtx.c **** 	le.win_offset_update = 0;
 4355              		.loc 1 1553 0
 4356 0034 83F83420 		strb	r2, [r3, #52]
1554:bluetooth_rxtx.c **** 
 4357              		.loc 1 1554 0
 4358 0038 DA86     		strh	r2, [r3, #54]	@ movhi
1556:bluetooth_rxtx.c **** }
 4359              		.loc 1 1556 0
 4360 003a 054B     		ldr	r3, .L497+16
 4361 003c DA72     		strb	r2, [r3, #11]
 4362 003e 08BD     		pop	{r3, pc}
 4363              	.L498:
 4364              		.align	2
 4365              	.L497:
 4366 0040 D6BE898E 		.word	-1903575338
 4367 0044 00000000 		.word	.LANCHOR1
 4368 0048 55555500 		.word	5592405
 4369 004c AAAAAA00 		.word	11184810
 4370 0050 00000000 		.word	.LANCHOR0
 4371              		.cfi_endproc
 4372              	.LFE20:
 4374              		.section	.text.reset_le_promisc,"ax",%progbits
 4375              		.align	1
 4376              		.global	reset_le_promisc
 4377              		.thumb
 4378              		.thumb_func
 4380              	reset_le_promisc:
 4381              	.LFB21:
1560:bluetooth_rxtx.c **** 	memset(&le_promisc, 0, sizeof(le_promisc));
 4382              		.loc 1 1560 0
 4383              		.cfi_startproc
 4384              		@ args = 0, pretend = 0, frame = 0
 4385              		@ frame_needed = 0, uses_anonymous_args = 0
 4386 0000 10B5     		push	{r4, lr}
 4387              		.cfi_def_cfa_offset 8
 4388              		.cfi_offset 4, -8
 4389              		.cfi_offset 14, -4
1561:bluetooth_rxtx.c **** 	le_promisc.smallest_hop_interval = 0xffffffff;
 4390              		.loc 1 1561 0
 4391 0002 064C     		ldr	r4, .L500
 4392 0004 0021     		movs	r1, #0
 4393 0006 2046     		mov	r0, r4
 4394 0008 4FF48472 		mov	r2, #264
 4395 000c FFF7FEFF 		bl	memset
 4396              	.LVL434:
1562:bluetooth_rxtx.c **** }
 4397              		.loc 1 1562 0
 4398 0010 4FF0FF33 		mov	r3, #-1
 4399 0014 C4F80031 		str	r3, [r4, #256]
 4400 0018 10BD     		pop	{r4, pc}
 4401              	.L501:
 4402 001a 00BF     		.align	2
 4403              	.L500:
 4404 001c 00000000 		.word	le_promisc
 4405              		.cfi_endproc
 4406              	.LFE21:
ARM GAS  /tmp/ccUrIl19.s 			page 133


 4408              		.section	.text.bt_generic_le,"ax",%progbits
 4409              		.align	1
 4410              		.global	bt_generic_le
 4411              		.thumb
 4412              		.thumb_func
 4414              	bt_generic_le:
 4415              	.LFB22:
1567:bluetooth_rxtx.c **** 	u8 hold;
 4416              		.loc 1 1567 0
 4417              		.cfi_startproc
 4418              		@ args = 0, pretend = 0, frame = 0
 4419              		@ frame_needed = 0, uses_anonymous_args = 0
 4420              	.LVL435:
 4421 0000 2DE9F843 		push	{r3, r4, r5, r6, r7, r8, r9, lr}
 4422              		.cfi_def_cfa_offset 32
 4423              		.cfi_offset 3, -32
 4424              		.cfi_offset 4, -28
 4425              		.cfi_offset 5, -24
 4426              		.cfi_offset 6, -20
 4427              		.cfi_offset 7, -16
 4428              		.cfi_offset 8, -12
 4429              		.cfi_offset 9, -8
 4430              		.cfi_offset 14, -4
1572:bluetooth_rxtx.c **** 	mode = active_mode;
 4431              		.loc 1 1572 0
 4432 0004 694C     		ldr	r4, .L547
 4433 0006 0123     		movs	r3, #1
1567:bluetooth_rxtx.c **** 	u8 hold;
 4434              		.loc 1 1567 0
 4435 0008 8046     		mov	r8, r0
1572:bluetooth_rxtx.c **** 	mode = active_mode;
 4436              		.loc 1 1572 0
 4437 000a 2370     		strb	r3, [r4]
1573:bluetooth_rxtx.c **** 
 4438              		.loc 1 1573 0
 4439 000c 6074     		strb	r0, [r4, #17]
1575:bluetooth_rxtx.c **** 
 4440              		.loc 1 1575 0
 4441 000e FFF7FEFF 		bl	reset_le
 4442              	.LVL436:
1578:bluetooth_rxtx.c **** 
 4443              		.loc 1 1578 0
 4444 0012 674B     		ldr	r3, .L547+4
 4445 0014 4FF08072 		mov	r2, #16777216
 4446 0018 1A60     		str	r2, [r3]
1580:bluetooth_rxtx.c **** 
 4447              		.loc 1 1580 0
 4448 001a 664B     		ldr	r3, .L547+8
 4449 001c 1022     		movs	r2, #16
 4450 001e 1A60     		str	r2, [r3]
1582:bluetooth_rxtx.c **** 	dio_ssp_init();
 4451              		.loc 1 1582 0
 4452 0020 FFF7FEFF 		bl	queue_init
 4453              	.LVL437:
1583:bluetooth_rxtx.c **** 	dma_init();
 4454              		.loc 1 1583 0
 4455 0024 FFF7FEFF 		bl	dio_ssp_init
ARM GAS  /tmp/ccUrIl19.s 			page 134


 4456              	.LVL438:
1584:bluetooth_rxtx.c **** 	dio_ssp_start();
 4457              		.loc 1 1584 0
 4458 0028 FFF7FEFF 		bl	dma_init
 4459              	.LVL439:
1585:bluetooth_rxtx.c **** 	cc2400_rx();
 4460              		.loc 1 1585 0
 4461 002c FFF7FEFF 		bl	dio_ssp_start
 4462              	.LVL440:
1586:bluetooth_rxtx.c **** 
 4463              		.loc 1 1586 0
 4464 0030 FFF7FEFF 		bl	cc2400_rx
 4465              	.LVL441:
1588:bluetooth_rxtx.c **** 
 4466              		.loc 1 1588 0
 4467 0034 FFF7FEFF 		bl	cs_trigger_enable
 4468              	.LVL442:
1590:bluetooth_rxtx.c **** 
 4469              		.loc 1 1590 0
 4470 0038 0025     		movs	r5, #0
 4471              	.LVL443:
 4472              	.L503:
1592:bluetooth_rxtx.c **** 		if (requested_channel != 0) {
 4473              		.loc 1 1592 0 discriminator 1
 4474 003a A37C     		ldrb	r3, [r4, #18]	@ zero_extendqisi2
 4475 003c 4345     		cmp	r3, r8
 4476 003e 40F0A380 		bne	.L527
 4477              	.LBB40:
1593:bluetooth_rxtx.c **** 			cc2400_strobe(SRFOFF);
 4478              		.loc 1 1593 0
 4479 0042 5A4B     		ldr	r3, .L547
 4480 0044 DB89     		ldrh	r3, [r3, #14]
 4481 0046 9BB2     		uxth	r3, r3
 4482 0048 D3B1     		cbz	r3, .L504
1594:bluetooth_rxtx.c **** 			while ((cc2400_status() & FS_LOCK)); // need to wait for unlock?
 4483              		.loc 1 1594 0
 4484 004a 6420     		movs	r0, #100
 4485 004c FFF7FEFF 		bl	cc2400_strobe
 4486              	.LVL444:
 4487              	.L506:
1595:bluetooth_rxtx.c **** 
 4488              		.loc 1 1595 0 discriminator 1
 4489 0050 FFF7FEFF 		bl	cc2400_status
 4490              	.LVL445:
 4491 0054 4707     		lsls	r7, r0, #29
 4492 0056 FBD4     		bmi	.L506
1598:bluetooth_rxtx.c **** 
 4493              		.loc 1 1598 0
 4494 0058 574B     		ldr	r3, .L547+12
 4495 005a 0220     		movs	r0, #2
 4496 005c 1988     		ldrh	r1, [r3]
 4497 005e 89B2     		uxth	r1, r1
 4498 0060 0139     		subs	r1, r1, #1
 4499 0062 89B2     		uxth	r1, r1
 4500 0064 FFF7FEFF 		bl	cc2400_set
 4501              	.LVL446:
1601:bluetooth_rxtx.c **** 			while (!(cc2400_status() & FS_LOCK));
ARM GAS  /tmp/ccUrIl19.s 			page 135


 4502              		.loc 1 1601 0
 4503 0068 6120     		movs	r0, #97
 4504 006a FFF7FEFF 		bl	cc2400_strobe
 4505              	.LVL447:
 4506              	.L508:
1602:bluetooth_rxtx.c **** 
 4507              		.loc 1 1602 0 discriminator 1
 4508 006e FFF7FEFF 		bl	cc2400_status
 4509              	.LVL448:
 4510 0072 4607     		lsls	r6, r0, #29
 4511 0074 FBD5     		bpl	.L508
1605:bluetooth_rxtx.c **** 
 4512              		.loc 1 1605 0
 4513 0076 6220     		movs	r0, #98
 4514 0078 FFF7FEFF 		bl	cc2400_strobe
 4515              	.LVL449:
1607:bluetooth_rxtx.c **** 		}
 4516              		.loc 1 1607 0
 4517 007c 0023     		movs	r3, #0
 4518 007e E381     		strh	r3, [r4, #14]	@ movhi
 4519              	.L504:
1610:bluetooth_rxtx.c **** 			hop();
 4520              		.loc 1 1610 0
 4521 0080 E37A     		ldrb	r3, [r4, #11]	@ zero_extendqisi2
 4522 0082 4C4E     		ldr	r6, .L547+8
 4523 0084 13B1     		cbz	r3, .L509
1611:bluetooth_rxtx.c **** 		} else {
 4524              		.loc 1 1611 0
 4525 0086 FFF7FEFF 		bl	hop
 4526              	.LVL450:
 4527 008a 02E0     		b	.L510
 4528              	.L509:
1613:bluetooth_rxtx.c **** 		}
 4529              		.loc 1 1613 0
 4530 008c 4FF48073 		mov	r3, #256
 4531 0090 3360     		str	r3, [r6]
 4532              	.L510:
1616:bluetooth_rxtx.c **** 
 4533              		.loc 1 1616 0
 4534 0092 1023     		movs	r3, #16
 4535 0094 3360     		str	r3, [r6]
1619:bluetooth_rxtx.c **** 		rssi_at_trigger = INT8_MIN;
 4536              		.loc 1 1619 0
 4537 0096 FFF7FEFF 		bl	rssi_reset
 4538              	.LVL451:
1620:bluetooth_rxtx.c **** 		while ((rx_tc == 0) && (rx_err == 0))
 4539              		.loc 1 1620 0
 4540 009a 8027     		movs	r7, #128
 4541              	.LVL452:
 4542              	.L511:
1621:bluetooth_rxtx.c **** 		{
 4543              		.loc 1 1621 0 discriminator 1
 4544 009c 474B     		ldr	r3, .L547+16
 4545 009e 484E     		ldr	r6, .L547+20
 4546 00a0 1A68     		ldr	r2, [r3]
 4547 00a2 9946     		mov	r9, r3
 4548 00a4 D2B9     		cbnz	r2, .L513
ARM GAS  /tmp/ccUrIl19.s 			page 136


1621:bluetooth_rxtx.c **** 		{
 4549              		.loc 1 1621 0 is_stmt 0 discriminator 2
 4550 00a6 3368     		ldr	r3, [r6]
 4551 00a8 C3B9     		cbnz	r3, .L513
1623:bluetooth_rxtx.c **** 			if (cs_trigger && (rssi_at_trigger == INT8_MIN)) {
 4552              		.loc 1 1623 0 is_stmt 1
 4553 00aa 0620     		movs	r0, #6
 4554 00ac FFF7FEFF 		bl	cc2400_get
 4555              	.LVL453:
1624:bluetooth_rxtx.c **** 				rssi = MAX(rssi,(cs_threshold_cur+54));
 4556              		.loc 1 1624 0
 4557 00b0 444B     		ldr	r3, .L547+24
1623:bluetooth_rxtx.c **** 			if (cs_trigger && (rssi_at_trigger == INT8_MIN)) {
 4558              		.loc 1 1623 0
 4559 00b2 C0F30720 		ubfx	r0, r0, #8, #8
 4560              	.LVL454:
1624:bluetooth_rxtx.c **** 				rssi = MAX(rssi,(cs_threshold_cur+54));
 4561              		.loc 1 1624 0
 4562 00b6 1B78     		ldrb	r3, [r3]	@ zero_extendqisi2
 4563 00b8 63B1     		cbz	r3, .L512
1624:bluetooth_rxtx.c **** 				rssi = MAX(rssi,(cs_threshold_cur+54));
 4564              		.loc 1 1624 0 is_stmt 0 discriminator 1
 4565 00ba 7BB2     		sxtb	r3, r7
 4566 00bc 8033     		adds	r3, r3, #128
 4567 00be 09D1     		bne	.L512
1625:bluetooth_rxtx.c **** 				rssi_at_trigger = rssi;
 4568              		.loc 1 1625 0 is_stmt 1
 4569 00c0 414B     		ldr	r3, .L547+28
 4570 00c2 40B2     		sxtb	r0, r0
 4571              	.LVL455:
 4572 00c4 93F90070 		ldrsb	r7, [r3]
 4573              	.LVL456:
 4574 00c8 3637     		adds	r7, r7, #54
 4575 00ca B842     		cmp	r0, r7
 4576 00cc A8BF     		it	ge
 4577 00ce 0746     		movge	r7, r0
 4578 00d0 FFB2     		uxtb	r7, r7
1626:bluetooth_rxtx.c **** 			}
 4579              		.loc 1 1626 0
 4580 00d2 3846     		mov	r0, r7
 4581              	.L512:
 4582              	.LVL457:
1628:bluetooth_rxtx.c **** 		}
 4583              		.loc 1 1628 0
 4584 00d4 40B2     		sxtb	r0, r0
 4585              	.LVL458:
 4586 00d6 FFF7FEFF 		bl	rssi_add
 4587              	.LVL459:
 4588 00da DFE7     		b	.L511
 4589              	.L513:
1631:bluetooth_rxtx.c **** 			status |= DMA_ERROR;
 4590              		.loc 1 1631 0
 4591 00dc 3368     		ldr	r3, [r6]
 4592 00de 1BB1     		cbz	r3, .L515
1632:bluetooth_rxtx.c **** 		}
 4593              		.loc 1 1632 0
 4594 00e0 6378     		ldrb	r3, [r4, #1]	@ zero_extendqisi2
ARM GAS  /tmp/ccUrIl19.s 			page 137


 4595 00e2 43F00203 		orr	r3, r3, #2
 4596 00e6 6370     		strb	r3, [r4, #1]
 4597              	.L515:
1636:bluetooth_rxtx.c **** 			goto rx_continue;
 4598              		.loc 1 1636 0
 4599 00e8 D9F80030 		ldr	r3, [r9]
 4600 00ec 002B     		cmp	r3, #0
 4601 00ee 57D0     		beq	.L516
1640:bluetooth_rxtx.c **** 			status |= DMA_OVERFLOW;
 4602              		.loc 1 1640 0
 4603 00f0 324B     		ldr	r3, .L547+16
 4604 00f2 1B68     		ldr	r3, [r3]
 4605 00f4 012B     		cmp	r3, #1
 4606 00f6 03D9     		bls	.L517
1641:bluetooth_rxtx.c **** 
 4607              		.loc 1 1641 0
 4608 00f8 6378     		ldrb	r3, [r4, #1]	@ zero_extendqisi2
 4609 00fa 43F00103 		orr	r3, r3, #1
 4610 00fe 6370     		strb	r3, [r4, #1]
 4611              	.L517:
1643:bluetooth_rxtx.c **** 
 4612              		.loc 1 1643 0
 4613 0100 2D4B     		ldr	r3, .L547+12
 4614 0102 1888     		ldrh	r0, [r3]
 4615 0104 80B2     		uxth	r0, r0
 4616 0106 FFF7FEFF 		bl	rssi_iir_update
 4617              	.LVL460:
1649:bluetooth_rxtx.c **** 			status |= CS_TRIGGER;
 4618              		.loc 1 1649 0
 4619 010a 2E4B     		ldr	r3, .L547+24
 4620 010c 1A78     		ldrb	r2, [r3]	@ zero_extendqisi2
 4621 010e 12B9     		cbnz	r2, .L518
1649:bluetooth_rxtx.c **** 			status |= CS_TRIGGER;
 4622              		.loc 1 1649 0 is_stmt 0 discriminator 1
 4623 0110 2E4A     		ldr	r2, .L547+32
 4624 0112 1278     		ldrb	r2, [r2]	@ zero_extendqisi2
 4625 0114 32B1     		cbz	r2, .L519
 4626              	.L518:
1650:bluetooth_rxtx.c **** 			hold = CS_HOLD_TIME;
 4627              		.loc 1 1650 0 is_stmt 1
 4628 0116 6278     		ldrb	r2, [r4, #1]	@ zero_extendqisi2
1651:bluetooth_rxtx.c **** 			cs_trigger = 0;
 4629              		.loc 1 1651 0
 4630 0118 0225     		movs	r5, #2
 4631              	.LVL461:
1650:bluetooth_rxtx.c **** 			hold = CS_HOLD_TIME;
 4632              		.loc 1 1650 0
 4633 011a 42F00802 		orr	r2, r2, #8
 4634 011e 6270     		strb	r2, [r4, #1]
 4635              	.LVL462:
1652:bluetooth_rxtx.c **** 		}
 4636              		.loc 1 1652 0
 4637 0120 0022     		movs	r2, #0
 4638 0122 1A70     		strb	r2, [r3]
 4639              	.LVL463:
 4640              	.L519:
1655:bluetooth_rxtx.c **** 			status |= RSSI_TRIGGER;
ARM GAS  /tmp/ccUrIl19.s 			page 138


 4641              		.loc 1 1655 0
 4642 0124 284B     		ldr	r3, .L547+28
 4643 0126 93F90020 		ldrsb	r2, [r3]
 4644 012a 294B     		ldr	r3, .L547+36
 4645 012c 3532     		adds	r2, r2, #53
 4646 012e 93F90030 		ldrsb	r3, [r3]
 4647 0132 9A42     		cmp	r2, r3
 4648 0134 05DA     		bge	.L520
1656:bluetooth_rxtx.c **** 			hold = CS_HOLD_TIME;
 4649              		.loc 1 1656 0
 4650 0136 6378     		ldrb	r3, [r4, #1]	@ zero_extendqisi2
1657:bluetooth_rxtx.c **** 		}
 4651              		.loc 1 1657 0
 4652 0138 0225     		movs	r5, #2
 4653              	.LVL464:
1656:bluetooth_rxtx.c **** 			hold = CS_HOLD_TIME;
 4654              		.loc 1 1656 0
 4655 013a 43F01003 		orr	r3, r3, #16
 4656 013e 6370     		strb	r3, [r4, #1]
 4657              	.LVL465:
 4658 0140 00E0     		b	.L521
 4659              	.LVL466:
 4660              	.L520:
1661:bluetooth_rxtx.c **** 			goto rx_continue;
 4661              		.loc 1 1661 0
 4662 0142 6DB3     		cbz	r5, .L516
 4663              	.LVL467:
 4664              	.L521:
1667:bluetooth_rxtx.c **** 
 4665              		.loc 1 1667 0
 4666 0144 2348     		ldr	r0, .L547+40
1664:bluetooth_rxtx.c **** 
 4667              		.loc 1 1664 0
 4668 0146 013D     		subs	r5, r5, #1
 4669              	.LVL468:
1667:bluetooth_rxtx.c **** 
 4670              		.loc 1 1667 0
 4671 0148 00F5C871 		add	r1, r0, #400
 4672 014c 4FF4C872 		mov	r2, #400
 4673 0150 FFF7FEFF 		bl	memcpy
 4674              	.LVL469:
1664:bluetooth_rxtx.c **** 
 4675              		.loc 1 1664 0
 4676 0154 EDB2     		uxtb	r5, r5
 4677              	.LVL470:
1670:bluetooth_rxtx.c **** 			/* output one byte for each received symbol (0x00 or 0x01) */
 4678              		.loc 1 1670 0
 4679 0156 0023     		movs	r3, #0
 4680              	.LVL471:
 4681              	.L522:
 4682 0158 1F48     		ldr	r0, .L547+44
1657:bluetooth_rxtx.c **** 		}
 4683              		.loc 1 1657 0 discriminator 1
 4684 015a 0022     		movs	r2, #0
 4685 015c 00EBC300 		add	r0, r0, r3, lsl #3
 4686              	.LVL472:
 4687              	.L525:
ARM GAS  /tmp/ccUrIl19.s 			page 139


1673:bluetooth_rxtx.c **** 				idle_rxbuf[i] <<= 1;
 4688              		.loc 1 1673 0 discriminator 2
 4689 0160 1E49     		ldr	r1, .L547+48
 4690 0162 0F68     		ldr	r7, [r1]
 4691 0164 FF5C     		ldrb	r7, [r7, r3]	@ zero_extendqisi2
1674:bluetooth_rxtx.c **** 			}
 4692              		.loc 1 1674 0 discriminator 2
 4693 0166 0968     		ldr	r1, [r1]
1673:bluetooth_rxtx.c **** 				idle_rxbuf[i] <<= 1;
 4694              		.loc 1 1673 0 discriminator 2
 4695 0168 FF09     		lsrs	r7, r7, #7
 4696 016a 8754     		strb	r7, [r0, r2]
1674:bluetooth_rxtx.c **** 			}
 4697              		.loc 1 1674 0 discriminator 2
 4698 016c CF5C     		ldrb	r7, [r1, r3]	@ zero_extendqisi2
1672:bluetooth_rxtx.c **** 				unpacked[DMA_SIZE*8 + i * 8 + j] = (idle_rxbuf[i] & 0x80) >> 7;
 4699              		.loc 1 1672 0 discriminator 2
 4700 016e 0132     		adds	r2, r2, #1
 4701              	.LVL473:
1674:bluetooth_rxtx.c **** 			}
 4702              		.loc 1 1674 0 discriminator 2
 4703 0170 7F00     		lsls	r7, r7, #1
 4704 0172 FFB2     		uxtb	r7, r7
1672:bluetooth_rxtx.c **** 				unpacked[DMA_SIZE*8 + i * 8 + j] = (idle_rxbuf[i] & 0x80) >> 7;
 4705              		.loc 1 1672 0 discriminator 2
 4706 0174 082A     		cmp	r2, #8
1674:bluetooth_rxtx.c **** 			}
 4707              		.loc 1 1674 0 discriminator 2
 4708 0176 CF54     		strb	r7, [r1, r3]
1672:bluetooth_rxtx.c **** 				unpacked[DMA_SIZE*8 + i * 8 + j] = (idle_rxbuf[i] & 0x80) >> 7;
 4709              		.loc 1 1672 0 discriminator 2
 4710 0178 F2D1     		bne	.L525
1670:bluetooth_rxtx.c **** 			/* output one byte for each received symbol (0x00 or 0x01) */
 4711              		.loc 1 1670 0
 4712 017a 0133     		adds	r3, r3, #1
 4713              	.LVL474:
 4714 017c 322B     		cmp	r3, #50
 4715 017e EBD1     		bne	.L522
1678:bluetooth_rxtx.c **** 		if (!ret) break;
 4716              		.loc 1 1678 0
 4717 0180 636A     		ldr	r3, [r4, #36]
 4718              	.LVL475:
 4719 0182 1448     		ldr	r0, .L547+40
 4720 0184 9847     		blx	r3
 4721              	.LVL476:
1679:bluetooth_rxtx.c **** 
 4722              		.loc 1 1679 0
 4723 0186 58B9     		cbnz	r0, .L516
 4724              	.LVL477:
 4725              	.L527:
 4726              	.LBE40:
1687:bluetooth_rxtx.c **** 
 4727              		.loc 1 1687 0
 4728 0188 154B     		ldr	r3, .L547+52
 4729 018a 4FF08072 		mov	r2, #16777216
 4730 018e 1A60     		str	r2, [r3]
1690:bluetooth_rxtx.c **** 	dio_ssp_stop();
ARM GAS  /tmp/ccUrIl19.s 			page 140


 4731              		.loc 1 1690 0
 4732 0190 FFF7FEFF 		bl	cc2400_idle
 4733              	.LVL478:
1691:bluetooth_rxtx.c **** 	cs_trigger_disable();
 4734              		.loc 1 1691 0
 4735 0194 FFF7FEFF 		bl	dio_ssp_stop
 4736              	.LVL479:
1693:bluetooth_rxtx.c **** 
 4737              		.loc 1 1693 0
 4738 0198 BDE8F843 		pop	{r3, r4, r5, r6, r7, r8, r9, lr}
1692:bluetooth_rxtx.c **** }
 4739              		.loc 1 1692 0
 4740 019c FFF7FEBF 		b	cs_trigger_disable
 4741              	.LVL480:
 4742              	.L516:
 4743              	.LBB41:
1682:bluetooth_rxtx.c **** 		rx_err = 0;
 4744              		.loc 1 1682 0
 4745 01a0 0023     		movs	r3, #0
 4746 01a2 C9F80030 		str	r3, [r9]
1683:bluetooth_rxtx.c **** 	}
 4747              		.loc 1 1683 0
 4748 01a6 3360     		str	r3, [r6]
 4749 01a8 47E7     		b	.L503
 4750              	.L548:
 4751 01aa 00BF     		.align	2
 4752              	.L547:
 4753 01ac 00000000 		.word	.LANCHOR0
 4754 01b0 00E100E0 		.word	-536813312
 4755 01b4 3CC00920 		.word	537509948
 4756 01b8 00000000 		.word	.LANCHOR1
 4757 01bc 00000000 		.word	rx_tc
 4758 01c0 00000000 		.word	rx_err
 4759 01c4 00000000 		.word	cs_trigger
 4760 01c8 00000000 		.word	cs_threshold_cur
 4761 01cc 00000000 		.word	cs_no_squelch
 4762 01d0 00000000 		.word	rssi_max
 4763 01d4 00000000 		.word	unpacked
 4764 01d8 90010000 		.word	unpacked+400
 4765 01dc 00000000 		.word	idle_rxbuf
 4766 01e0 80E100E0 		.word	-536813184
 4767              	.LBE41:
 4768              		.cfi_endproc
 4769              	.LFE22:
 4771              		.section	.text.bt_le_sync_rssi,"ax",%progbits
 4772              		.align	1
 4773              		.global	bt_le_sync_rssi
 4774              		.thumb
 4775              		.thumb_func
 4777              	bt_le_sync_rssi:
 4778              	.LFB23:
1697:bluetooth_rxtx.c **** 	int i;
 4779              		.loc 1 1697 0
 4780              		.cfi_startproc
 4781              		@ args = 0, pretend = 0, frame = 312
 4782              		@ frame_needed = 0, uses_anonymous_args = 0
 4783              	.LVL481:
ARM GAS  /tmp/ccUrIl19.s 			page 141


 4784 0000 2DE9F04F 		push	{r4, r5, r6, r7, r8, r9, r10, fp, lr}
 4785              		.cfi_def_cfa_offset 36
 4786              		.cfi_offset 4, -36
 4787              		.cfi_offset 5, -32
 4788              		.cfi_offset 6, -28
 4789              		.cfi_offset 7, -24
 4790              		.cfi_offset 8, -20
 4791              		.cfi_offset 9, -16
 4792              		.cfi_offset 10, -12
 4793              		.cfi_offset 11, -8
 4794              		.cfi_offset 14, -4
 4795 0004 CFB0     		sub	sp, sp, #316
 4796              		.cfi_def_cfa_offset 352
1703:bluetooth_rxtx.c **** 		start_sync -= ((uint32_t)1<<28);
 4797              		.loc 1 1703 0
 4798 0006 864E     		ldr	r6, .L575
1701:bluetooth_rxtx.c **** 
 4799              		.loc 1 1701 0
 4800 0008 0DF10408 		add	r8, sp, #4
1697:bluetooth_rxtx.c **** 	int i;
 4801              		.loc 1 1697 0
 4802 000c 0746     		mov	r7, r0
1701:bluetooth_rxtx.c **** 
 4803              		.loc 1 1701 0
 4804 000e 0021     		movs	r1, #0
 4805 0010 4046     		mov	r0, r8
 4806              	.LVL482:
 4807 0012 3222     		movs	r2, #50
 4808 0014 FFF7FEFF 		bl	memset
 4809              	.LVL483:
1703:bluetooth_rxtx.c **** 		start_sync -= ((uint32_t)1<<28);
 4810              		.loc 1 1703 0
 4811 0018 B36A     		ldr	r3, [r6, #40]
 4812 001a 824C     		ldr	r4, .L575+4
 4813 001c B3F1805F 		cmp	r3, #268435456
 4814 0020 2DD3     		bcc	.L555
1704:bluetooth_rxtx.c **** 		while ((clkn & 0xffffff) >= now_sync || (clkn & 0xffffff) < start_sync);
 4815              		.loc 1 1704 0
 4816 0022 03F17043 		add	r3, r3, #-268435456
1705:bluetooth_rxtx.c **** 	} else {
 4817              		.loc 1 1705 0
 4818 0026 F16A     		ldr	r1, [r6, #44]
1704:bluetooth_rxtx.c **** 		while ((clkn & 0xffffff) >= now_sync || (clkn & 0xffffff) < start_sync);
 4819              		.loc 1 1704 0
 4820 0028 B362     		str	r3, [r6, #40]
 4821              	.L551:
1705:bluetooth_rxtx.c **** 	} else {
 4822              		.loc 1 1705 0 discriminator 1
 4823 002a 2268     		ldr	r2, [r4]
 4824 002c 22F07F42 		bic	r2, r2, #-16777216
 4825 0030 8A42     		cmp	r2, r1
 4826 0032 FAD2     		bcs	.L551
1705:bluetooth_rxtx.c **** 	} else {
 4827              		.loc 1 1705 0 is_stmt 0 discriminator 2
 4828 0034 7B4A     		ldr	r2, .L575+4
 4829 0036 1268     		ldr	r2, [r2]
 4830 0038 22F07F42 		bic	r2, r2, #-16777216
ARM GAS  /tmp/ccUrIl19.s 			page 142


 4831 003c 9A42     		cmp	r2, r3
 4832 003e F4D3     		bcc	.L551
 4833              	.L554:
1711:bluetooth_rxtx.c **** 	uint32_t stop_at = now + 100 * 10000 / 3125; // millis -> clkn ticks
 4834              		.loc 1 1711 0 is_stmt 1
 4835 0040 2368     		ldr	r3, [r4]
 4836              	.LVL484:
1723:bluetooth_rxtx.c **** 
 4837              		.loc 1 1723 0
 4838 0042 794D     		ldr	r5, .L575+8
1711:bluetooth_rxtx.c **** 	uint32_t stop_at = now + 100 * 10000 / 3125; // millis -> clkn ticks
 4839              		.loc 1 1711 0
 4840 0044 23F07F4A 		bic	r10, r3, #-16777216
 4841              	.LVL485:
1720:bluetooth_rxtx.c **** 	mode = active_mode;
 4842              		.loc 1 1720 0
 4843 0048 0123     		movs	r3, #1
 4844 004a 3370     		strb	r3, [r6]
1723:bluetooth_rxtx.c **** 
 4845              		.loc 1 1723 0
 4846 004c 2B76     		strb	r3, [r5, #24]
1725:bluetooth_rxtx.c **** 	RXLED_CLR;
 4847              		.loc 1 1725 0
 4848 004e 774B     		ldr	r3, .L575+12
 4849 0050 4FF08072 		mov	r2, #16777216
1721:bluetooth_rxtx.c **** 
 4850              		.loc 1 1721 0
 4851 0054 7774     		strb	r7, [r6, #17]
1725:bluetooth_rxtx.c **** 	RXLED_CLR;
 4852              		.loc 1 1725 0
 4853 0056 1A60     		str	r2, [r3]
1726:bluetooth_rxtx.c **** 	queue_init();
 4854              		.loc 1 1726 0
 4855 0058 754B     		ldr	r3, .L575+16
 4856 005a 1022     		movs	r2, #16
 4857 005c 1A60     		str	r2, [r3]
1727:bluetooth_rxtx.c **** 	dio_ssp_init();
 4858              		.loc 1 1727 0
 4859 005e FFF7FEFF 		bl	queue_init
 4860              	.LVL486:
1728:bluetooth_rxtx.c **** 	dma_init_le();
 4861              		.loc 1 1728 0
 4862 0062 FFF7FEFF 		bl	dio_ssp_init
 4863              	.LVL487:
1729:bluetooth_rxtx.c **** 	dio_ssp_start();
 4864              		.loc 1 1729 0
 4865 0066 FFF7FEFF 		bl	dma_init_le
 4866              	.LVL488:
1730:bluetooth_rxtx.c **** 
 4867              		.loc 1 1730 0
 4868 006a FFF7FEFF 		bl	dio_ssp_start
 4869              	.LVL489:
1732:bluetooth_rxtx.c **** 	
 4870              		.loc 1 1732 0
 4871 006e 6868     		ldr	r0, [r5, #4]
1712:bluetooth_rxtx.c **** 	int overflow = 0;
 4872              		.loc 1 1712 0
ARM GAS  /tmp/ccUrIl19.s 			page 143


 4873 0070 0AF5A07A 		add	r10, r10, #320
 4874              	.LVL490:
1732:bluetooth_rxtx.c **** 	
 4875              		.loc 1 1732 0
 4876 0074 FFF7FEFF 		bl	rbit
 4877              	.LVL491:
 4878 0078 FFF7FEFF 		bl	cc2400_rx_sync
 4879              	.LVL492:
1734:bluetooth_rxtx.c **** 		if (requested_channel != 0) {
 4880              		.loc 1 1734 0
 4881 007c ADE0     		b	.L553
 4882              	.LVL493:
 4883              	.L555:
1707:bluetooth_rxtx.c **** 	}
 4884              		.loc 1 1707 0
 4885 007e 2268     		ldr	r2, [r4]
 4886 0080 22F07F42 		bic	r2, r2, #-16777216
 4887 0084 9A42     		cmp	r2, r3
 4888 0086 FAD3     		bcc	.L555
 4889 0088 DAE7     		b	.L554
 4890              	.LVL494:
 4891              	.L571:
 4892              	.LBB42:
1735:bluetooth_rxtx.c **** 			cc2400_strobe(SRFOFF);
 4893              		.loc 1 1735 0
 4894 008a 654B     		ldr	r3, .L575
 4895 008c DB89     		ldrh	r3, [r3, #14]
 4896 008e 9BB2     		uxth	r3, r3
 4897 0090 D3B1     		cbz	r3, .L556
1736:bluetooth_rxtx.c **** 			while ((cc2400_status() & FS_LOCK));
 4898              		.loc 1 1736 0
 4899 0092 6420     		movs	r0, #100
 4900 0094 FFF7FEFF 		bl	cc2400_strobe
 4901              	.LVL495:
 4902              	.L558:
1737:bluetooth_rxtx.c **** 			cc2400_set(FSDIV, channel - 1);
 4903              		.loc 1 1737 0 discriminator 1
 4904 0098 FFF7FEFF 		bl	cc2400_status
 4905              	.LVL496:
 4906 009c 4207     		lsls	r2, r0, #29
 4907 009e FBD4     		bmi	.L558
1738:bluetooth_rxtx.c **** 			cc2400_strobe(SFSON);
 4908              		.loc 1 1738 0
 4909 00a0 614B     		ldr	r3, .L575+8
 4910 00a2 0220     		movs	r0, #2
 4911 00a4 1988     		ldrh	r1, [r3]
 4912 00a6 89B2     		uxth	r1, r1
 4913 00a8 0139     		subs	r1, r1, #1
 4914 00aa 89B2     		uxth	r1, r1
 4915 00ac FFF7FEFF 		bl	cc2400_set
 4916              	.LVL497:
1739:bluetooth_rxtx.c **** 			while (!(cc2400_status() & FS_LOCK));
 4917              		.loc 1 1739 0
 4918 00b0 6120     		movs	r0, #97
 4919 00b2 FFF7FEFF 		bl	cc2400_strobe
 4920              	.LVL498:
 4921              	.L560:
ARM GAS  /tmp/ccUrIl19.s 			page 144


1740:bluetooth_rxtx.c **** 			cc2400_strobe(SRX);
 4922              		.loc 1 1740 0 discriminator 1
 4923 00b6 FFF7FEFF 		bl	cc2400_status
 4924              	.LVL499:
 4925 00ba 4307     		lsls	r3, r0, #29
 4926 00bc FBD5     		bpl	.L560
1741:bluetooth_rxtx.c **** 			requested_channel = 0;
 4927              		.loc 1 1741 0
 4928 00be 6220     		movs	r0, #98
 4929 00c0 FFF7FEFF 		bl	cc2400_strobe
 4930              	.LVL500:
1742:bluetooth_rxtx.c **** 		}
 4931              		.loc 1 1742 0
 4932 00c4 0023     		movs	r3, #0
 4933 00c6 F381     		strh	r3, [r6, #14]	@ movhi
 4934              	.L556:
1744:bluetooth_rxtx.c **** 		
 4935              		.loc 1 1744 0
 4936 00c8 594B     		ldr	r3, .L575+16
 4937 00ca 1022     		movs	r2, #16
 4938 00cc 1A60     		str	r2, [r3]
1746:bluetooth_rxtx.c **** 			goto cleanup;
 4939              		.loc 1 1746 0
 4940 00ce B37C     		ldrb	r3, [r6, #18]	@ zero_extendqisi2
 4941 00d0 BB42     		cmp	r3, r7
 4942 00d2 40F09780 		bne	.L570
1751:bluetooth_rxtx.c **** 		u32 time_buf2[16] = {0, };
 4943              		.loc 1 1751 0
 4944 00d6 0DF13809 		add	r9, sp, #56
 4945 00da 0021     		movs	r1, #0
 4946 00dc 4022     		movs	r2, #64
 4947 00de 4846     		mov	r0, r9
 4948 00e0 FFF7FEFF 		bl	memset
 4949              	.LVL501:
1752:bluetooth_rxtx.c **** 		u32 time_buf3[16] = {0, };
 4950              		.loc 1 1752 0
 4951 00e4 0021     		movs	r1, #0
 4952 00e6 4022     		movs	r2, #64
 4953 00e8 1EA8     		add	r0, sp, #120
 4954 00ea FFF7FEFF 		bl	memset
 4955              	.LVL502:
1753:bluetooth_rxtx.c **** 		u32 time_buf4[16] = {0, };
 4956              		.loc 1 1753 0
 4957 00ee 0021     		movs	r1, #0
 4958 00f0 4022     		movs	r2, #64
 4959 00f2 2EA8     		add	r0, sp, #184
 4960 00f4 FFF7FEFF 		bl	memset
 4961              	.LVL503:
1754:bluetooth_rxtx.c **** 		for (i = 0; i < DMA_SIZE; i++) {
 4962              		.loc 1 1754 0
 4963 00f8 3EA8     		add	r0, sp, #248
 4964 00fa 0021     		movs	r1, #0
 4965 00fc 4022     		movs	r2, #64
 4966 00fe FFF7FEFF 		bl	memset
 4967              	.LVL504:
 4968 0102 4FF0000B 		mov	fp, #0
1755:bluetooth_rxtx.c **** 			if (i<16) time_buf1[i] = CLK100NS;
ARM GAS  /tmp/ccUrIl19.s 			page 145


 4969              		.loc 1 1755 0
 4970 0106 5D46     		mov	r5, fp
 4971              	.LVL505:
 4972              	.L569:
 4973              	.LBB43:
1756:bluetooth_rxtx.c **** 			if (15<i && i<32) time_buf2[i-16] = CLK100NS;
 4974              		.loc 1 1756 0
 4975 0108 0F2D     		cmp	r5, #15
 4976 010a 0ADC     		bgt	.L562
1756:bluetooth_rxtx.c **** 			if (15<i && i<32) time_buf2[i-16] = CLK100NS;
 4977              		.loc 1 1756 0 is_stmt 0 discriminator 1
 4978 010c 4949     		ldr	r1, .L575+20
 4979 010e 2268     		ldr	r2, [r4]
 4980 0110 0968     		ldr	r1, [r1]
 4981 0112 C2F31302 		ubfx	r2, r2, #0, #20
 4982 0116 40F63540 		movw	r0, #3125
 4983 011a 00FB0212 		mla	r2, r0, r2, r1
 4984 011e 49F80B20 		str	r2, [r9, fp]
 4985              	.L562:
 4986 0122 A5F11002 		sub	r2, r5, #16
1757:bluetooth_rxtx.c **** 			if (31<i && i<48) time_buf3[i-32] = CLK100NS;
 4987              		.loc 1 1757 0 is_stmt 1
 4988 0126 0F2A     		cmp	r2, #15
 4989 0128 0CD8     		bhi	.L563
1757:bluetooth_rxtx.c **** 			if (31<i && i<48) time_buf3[i-32] = CLK100NS;
 4990              		.loc 1 1757 0 is_stmt 0 discriminator 1
 4991 012a 424A     		ldr	r2, .L575+20
 4992 012c 2168     		ldr	r1, [r4]
 4993 012e 1068     		ldr	r0, [r2]
 4994 0130 C1F31301 		ubfx	r1, r1, #0, #20
 4995 0134 40F6354E 		movw	lr, #3125
 4996 0138 0EFB0101 		mla	r1, lr, r1, r0
 4997 013c 1EAA     		add	r2, sp, #120
 4998 013e 5A44     		add	r2, r2, fp
 4999 0140 42F8401C 		str	r1, [r2, #-64]
 5000              	.L563:
 5001 0144 A5F12002 		sub	r2, r5, #32
1758:bluetooth_rxtx.c **** 			if (47<i) time_buf4[i-48] = CLK100NS;
 5002              		.loc 1 1758 0 is_stmt 1
 5003 0148 0F2A     		cmp	r2, #15
 5004 014a 4BD8     		bhi	.L564
1758:bluetooth_rxtx.c **** 			if (47<i) time_buf4[i-48] = CLK100NS;
 5005              		.loc 1 1758 0 is_stmt 0 discriminator 1
 5006 014c 394A     		ldr	r2, .L575+20
 5007 014e 2168     		ldr	r1, [r4]
 5008 0150 1068     		ldr	r0, [r2]
 5009 0152 C1F31301 		ubfx	r1, r1, #0, #20
 5010 0156 40F6354E 		movw	lr, #3125
 5011 015a 0EFB0101 		mla	r1, lr, r1, r0
 5012 015e 2EAA     		add	r2, sp, #184
 5013 0160 5A44     		add	r2, r2, fp
 5014 0162 42F8801C 		str	r1, [r2, #-128]
 5015              	.L565:
1760:bluetooth_rxtx.c **** 			volatile u32 j = 598; while (--j); // empty for loop ~= 70ns, 598 empty while loop ~= 41.8us
 5016              		.loc 1 1760 0 is_stmt 1
 5017 0166 0620     		movs	r0, #6
 5018 0168 FFF7FEFF 		bl	cc2400_get
ARM GAS  /tmp/ccUrIl19.s 			page 146


 5019              	.LVL506:
1761:bluetooth_rxtx.c **** 		}
 5020              		.loc 1 1761 0
 5021 016c 40F25622 		movw	r2, #598
1760:bluetooth_rxtx.c **** 			volatile u32 j = 598; while (--j); // empty for loop ~= 70ns, 598 empty while loop ~= 41.8us
 5022              		.loc 1 1760 0
 5023 0170 000A     		lsrs	r0, r0, #8
 5024 0172 08F80500 		strb	r0, [r8, r5]
1761:bluetooth_rxtx.c **** 		}
 5025              		.loc 1 1761 0
 5026 0176 0092     		str	r2, [sp]
 5027              	.L567:
1761:bluetooth_rxtx.c **** 		}
 5028              		.loc 1 1761 0 is_stmt 0 discriminator 1
 5029 0178 009A     		ldr	r2, [sp]
 5030 017a 013A     		subs	r2, r2, #1
 5031 017c 0092     		str	r2, [sp]
 5032 017e 002A     		cmp	r2, #0
 5033 0180 FAD1     		bne	.L567
 5034              	.LBE43:
1755:bluetooth_rxtx.c **** 			if (i<16) time_buf1[i] = CLK100NS;
 5035              		.loc 1 1755 0 is_stmt 1
 5036 0182 0135     		adds	r5, r5, #1
 5037              	.LVL507:
 5038 0184 322D     		cmp	r5, #50
 5039 0186 0BF1040B 		add	fp, fp, #4
 5040 018a BDD1     		bne	.L569
1764:bluetooth_rxtx.c **** 
 5041              		.loc 1 1764 0
 5042 018c 2A4B     		ldr	r3, .L575+24
 5043 018e 1022     		movs	r2, #16
 5044 0190 1A60     		str	r2, [r3]
1766:bluetooth_rxtx.c **** 		enqueue_with_ts(RSSI_TRACK, (uint8_t *)rssi_buf, CLK100NS);
 5045              		.loc 1 1766 0
 5046 0192 2A4B     		ldr	r3, .L575+28
 5047 0194 4FF08075 		mov	r5, #16777216
 5048              	.LVL508:
 5049 0198 1D60     		str	r5, [r3]
1767:bluetooth_rxtx.c **** 		enqueue_time((uint8_t *) time_buf1);
 5050              		.loc 1 1767 0
 5051 019a 264B     		ldr	r3, .L575+20
 5052 019c 2268     		ldr	r2, [r4]
 5053 019e 1B68     		ldr	r3, [r3]
 5054 01a0 40F6354E 		movw	lr, #3125
 5055 01a4 C2F31302 		ubfx	r2, r2, #0, #20
 5056 01a8 0EFB0232 		mla	r2, lr, r2, r3
 5057 01ac 4146     		mov	r1, r8
 5058 01ae 0820     		movs	r0, #8
 5059 01b0 FFF7FEFF 		bl	enqueue_with_ts
 5060              	.LVL509:
1768:bluetooth_rxtx.c **** 		enqueue_time((uint8_t *) time_buf2);
 5061              		.loc 1 1768 0
 5062 01b4 4846     		mov	r0, r9
 5063 01b6 FFF7FEFF 		bl	enqueue_time
 5064              	.LVL510:
1769:bluetooth_rxtx.c **** 		enqueue_time((uint8_t *) time_buf3);
 5065              		.loc 1 1769 0
ARM GAS  /tmp/ccUrIl19.s 			page 147


 5066 01ba 1EA8     		add	r0, sp, #120
 5067 01bc FFF7FEFF 		bl	enqueue_time
 5068              	.LVL511:
1770:bluetooth_rxtx.c **** 		enqueue_time((uint8_t *) time_buf4);
 5069              		.loc 1 1770 0
 5070 01c0 2EA8     		add	r0, sp, #184
 5071 01c2 FFF7FEFF 		bl	enqueue_time
 5072              	.LVL512:
1771:bluetooth_rxtx.c **** 		ISER0 = ISER0_ISE_USB;
 5073              		.loc 1 1771 0
 5074 01c6 3EA8     		add	r0, sp, #248
 5075 01c8 FFF7FEFF 		bl	enqueue_time
 5076              	.LVL513:
1772:bluetooth_rxtx.c **** 		
 5077              		.loc 1 1772 0
 5078 01cc 174B     		ldr	r3, .L575+12
 5079 01ce 1D60     		str	r5, [r3]
1775:bluetooth_rxtx.c **** 				goto cleanup;
 5080              		.loc 1 1775 0
 5081 01d0 2368     		ldr	r3, [r4]
 5082 01d2 23F07F43 		bic	r3, r3, #-16777216
 5083 01d6 5345     		cmp	r3, r10
 5084 01d8 14D8     		bhi	.L570
 5085              	.L553:
 5086              	.LBE42:
1734:bluetooth_rxtx.c **** 		if (requested_channel != 0) {
 5087              		.loc 1 1734 0 discriminator 1
 5088 01da B37C     		ldrb	r3, [r6, #18]	@ zero_extendqisi2
 5089 01dc BB42     		cmp	r3, r7
 5090 01de 3FF454AF 		beq	.L571
 5091 01e2 0FE0     		b	.L570
 5092              	.LVL514:
 5093              	.L564:
 5094              	.LBB45:
 5095              	.LBB44:
1759:bluetooth_rxtx.c **** 			rssi_buf[i] = (u8)(cc2400_get(RSSI) >> 8);
 5096              		.loc 1 1759 0
 5097 01e4 2F2D     		cmp	r5, #47
 5098 01e6 BEDD     		ble	.L565
1759:bluetooth_rxtx.c **** 			rssi_buf[i] = (u8)(cc2400_get(RSSI) >> 8);
 5099              		.loc 1 1759 0 is_stmt 0 discriminator 1
 5100 01e8 124A     		ldr	r2, .L575+20
 5101 01ea 2168     		ldr	r1, [r4]
 5102 01ec 1068     		ldr	r0, [r2]
 5103 01ee C1F31301 		ubfx	r1, r1, #0, #20
 5104 01f2 40F6354E 		movw	lr, #3125
 5105 01f6 0EFB0101 		mla	r1, lr, r1, r0
 5106 01fa 3EAA     		add	r2, sp, #248
 5107 01fc 5A44     		add	r2, r2, fp
 5108 01fe 42F8C01C 		str	r1, [r2, #-192]
 5109 0202 B0E7     		b	.L565
 5110              	.LVL515:
 5111              	.L570:
 5112              	.LBE44:
 5113              	.LBE45:
1784:bluetooth_rxtx.c **** 	cc2400_idle();
 5114              		.loc 1 1784 0 is_stmt 1
ARM GAS  /tmp/ccUrIl19.s 			page 148


 5115 0204 0D4B     		ldr	r3, .L575+28
 5116 0206 4FF08072 		mov	r2, #16777216
 5117 020a 1A60     		str	r2, [r3]
1785:bluetooth_rxtx.c **** 	dio_ssp_stop ();
 5118              		.loc 1 1785 0
 5119 020c FFF7FEFF 		bl	cc2400_idle
 5120              	.LVL516:
1786:bluetooth_rxtx.c **** 	cs_trigger_disable();
 5121              		.loc 1 1786 0
 5122 0210 FFF7FEFF 		bl	dio_ssp_stop
 5123              	.LVL517:
1787:bluetooth_rxtx.c **** }
 5124              		.loc 1 1787 0
 5125 0214 FFF7FEFF 		bl	cs_trigger_disable
 5126              	.LVL518:
1788:bluetooth_rxtx.c **** 
 5127              		.loc 1 1788 0
 5128 0218 4FB0     		add	sp, sp, #316
 5129              		@ sp needed
 5130 021a BDE8F08F 		pop	{r4, r5, r6, r7, r8, r9, r10, fp, pc}
 5131              	.LVL519:
 5132              	.L576:
 5133 021e 00BF     		.align	2
 5134              	.L575:
 5135 0220 00000000 		.word	.LANCHOR0
 5136 0224 00000000 		.word	clkn
 5137 0228 00000000 		.word	.LANCHOR1
 5138 022c 00E100E0 		.word	-536813312
 5139 0230 3CC00920 		.word	537509948
 5140 0234 08400040 		.word	1073758216
 5141 0238 38C00920 		.word	537509944
 5142 023c 80E100E0 		.word	-536813184
 5143              		.cfi_endproc
 5144              	.LFE23:
 5146              		.section	.text.bt_le_sync,"ax",%progbits
 5147              		.align	1
 5148              		.global	bt_le_sync
 5149              		.thumb
 5150              		.thumb_func
 5152              	bt_le_sync:
 5153              	.LFB24:
1792:bluetooth_rxtx.c **** 	int i;
 5154              		.loc 1 1792 0
 5155              		.cfi_startproc
 5156              		@ args = 0, pretend = 0, frame = 64
 5157              		@ frame_needed = 0, uses_anonymous_args = 0
 5158              	.LVL520:
 5159 0000 2DE9F04F 		push	{r4, r5, r6, r7, r8, r9, r10, fp, lr}
 5160              		.cfi_def_cfa_offset 36
 5161              		.cfi_offset 4, -36
 5162              		.cfi_offset 5, -32
 5163              		.cfi_offset 6, -28
 5164              		.cfi_offset 7, -24
 5165              		.cfi_offset 8, -20
 5166              		.cfi_offset 9, -16
 5167              		.cfi_offset 10, -12
 5168              		.cfi_offset 11, -8
ARM GAS  /tmp/ccUrIl19.s 			page 149


 5169              		.cfi_offset 14, -4
 5170 0004 91B0     		sub	sp, sp, #68
 5171              		.cfi_def_cfa_offset 104
 5172              	.LVL521:
1798:bluetooth_rxtx.c **** 	mode = active_mode;
 5173              		.loc 1 1798 0
 5174 0006 AA4C     		ldr	r4, .L641
1801:bluetooth_rxtx.c **** 
 5175              		.loc 1 1801 0
 5176 0008 AA4D     		ldr	r5, .L641+4
1798:bluetooth_rxtx.c **** 	mode = active_mode;
 5177              		.loc 1 1798 0
 5178 000a 0123     		movs	r3, #1
 5179 000c 2370     		strb	r3, [r4]
1801:bluetooth_rxtx.c **** 
 5180              		.loc 1 1801 0
 5181 000e 2B76     		strb	r3, [r5, #24]
1804:bluetooth_rxtx.c **** 
 5182              		.loc 1 1804 0
 5183 0010 A94B     		ldr	r3, .L641+8
 5184 0012 4FF08072 		mov	r2, #16777216
1799:bluetooth_rxtx.c **** 
 5185              		.loc 1 1799 0
 5186 0016 6074     		strb	r0, [r4, #17]
1804:bluetooth_rxtx.c **** 
 5187              		.loc 1 1804 0
 5188 0018 1A60     		str	r2, [r3]
1806:bluetooth_rxtx.c **** 
 5189              		.loc 1 1806 0
 5190 001a A84B     		ldr	r3, .L641+12
 5191 001c 1022     		movs	r2, #16
 5192 001e 1A60     		str	r2, [r3]
1792:bluetooth_rxtx.c **** 	int i;
 5193              		.loc 1 1792 0
 5194 0020 0646     		mov	r6, r0
1808:bluetooth_rxtx.c **** 	dio_ssp_init();
 5195              		.loc 1 1808 0
 5196 0022 FFF7FEFF 		bl	queue_init
 5197              	.LVL522:
1809:bluetooth_rxtx.c **** 	dma_init_le();
 5198              		.loc 1 1809 0
 5199 0026 FFF7FEFF 		bl	dio_ssp_init
 5200              	.LVL523:
1810:bluetooth_rxtx.c **** 	dio_ssp_start();
 5201              		.loc 1 1810 0
 5202 002a FFF7FEFF 		bl	dma_init_le
 5203              	.LVL524:
1811:bluetooth_rxtx.c **** 
 5204              		.loc 1 1811 0
 5205 002e FFF7FEFF 		bl	dio_ssp_start
 5206              	.LVL525:
1813:bluetooth_rxtx.c **** 
 5207              		.loc 1 1813 0
 5208 0032 6868     		ldr	r0, [r5, #4]
 5209 0034 FFF7FEFF 		bl	rbit
 5210              	.LVL526:
 5211 0038 FFF7FEFF 		bl	cc2400_rx_sync
ARM GAS  /tmp/ccUrIl19.s 			page 150


 5212              	.LVL527:
1796:bluetooth_rxtx.c **** 
 5213              		.loc 1 1796 0
 5214 003c 4FF00008 		mov	r8, #0
 5215              	.LVL528:
 5216              	.L578:
1815:bluetooth_rxtx.c **** 		if (requested_channel != 0) {
 5217              		.loc 1 1815 0 discriminator 1
 5218 0040 A37C     		ldrb	r3, [r4, #18]	@ zero_extendqisi2
 5219 0042 B342     		cmp	r3, r6
 5220 0044 40F0D281 		bne	.L618
 5221              	.LBB46:
1816:bluetooth_rxtx.c **** 			cc2400_strobe(SRFOFF);
 5222              		.loc 1 1816 0
 5223 0048 994B     		ldr	r3, .L641
 5224 004a DB89     		ldrh	r3, [r3, #14]
 5225 004c 9BB2     		uxth	r3, r3
 5226 004e CBB1     		cbz	r3, .L579
1817:bluetooth_rxtx.c **** 			while ((cc2400_status() & FS_LOCK)); // need to wait for unlock?
 5227              		.loc 1 1817 0
 5228 0050 6420     		movs	r0, #100
 5229 0052 FFF7FEFF 		bl	cc2400_strobe
 5230              	.LVL529:
 5231              	.L581:
1818:bluetooth_rxtx.c **** 
 5232              		.loc 1 1818 0 discriminator 1
 5233 0056 FFF7FEFF 		bl	cc2400_status
 5234              	.LVL530:
 5235 005a 4107     		lsls	r1, r0, #29
 5236 005c FBD4     		bmi	.L581
1821:bluetooth_rxtx.c **** 
 5237              		.loc 1 1821 0
 5238 005e 2988     		ldrh	r1, [r5]
 5239 0060 0220     		movs	r0, #2
 5240 0062 89B2     		uxth	r1, r1
 5241 0064 0139     		subs	r1, r1, #1
 5242 0066 89B2     		uxth	r1, r1
 5243 0068 FFF7FEFF 		bl	cc2400_set
 5244              	.LVL531:
1824:bluetooth_rxtx.c **** 			while (!(cc2400_status() & FS_LOCK));
 5245              		.loc 1 1824 0
 5246 006c 6120     		movs	r0, #97
 5247 006e FFF7FEFF 		bl	cc2400_strobe
 5248              	.LVL532:
 5249              	.L583:
1825:bluetooth_rxtx.c **** 
 5250              		.loc 1 1825 0 discriminator 1
 5251 0072 FFF7FEFF 		bl	cc2400_status
 5252              	.LVL533:
 5253 0076 4207     		lsls	r2, r0, #29
 5254 0078 FBD5     		bpl	.L583
1828:bluetooth_rxtx.c **** 
 5255              		.loc 1 1828 0
 5256 007a 6220     		movs	r0, #98
 5257 007c FFF7FEFF 		bl	cc2400_strobe
 5258              	.LVL534:
1830:bluetooth_rxtx.c **** 		}
ARM GAS  /tmp/ccUrIl19.s 			page 151


 5259              		.loc 1 1830 0
 5260 0080 0023     		movs	r3, #0
 5261 0082 E381     		strh	r3, [r4, #14]	@ movhi
 5262              	.L579:
1833:bluetooth_rxtx.c **** 
 5263              		.loc 1 1833 0
 5264 0084 8D4B     		ldr	r3, .L641+12
 5265 0086 1022     		movs	r2, #16
 5266 0088 1A60     		str	r2, [r3]
1836:bluetooth_rxtx.c **** 		while ((rx_tc == 0) && (rx_err == 0) && (do_hop == 0) && requested_mode == active_mode)	;
 5267              		.loc 1 1836 0
 5268 008a FFF7FEFF 		bl	rssi_reset
 5269              	.LVL535:
 5270              	.L585:
1837:bluetooth_rxtx.c **** 
 5271              		.loc 1 1837 0 discriminator 1
 5272 008e 8C4B     		ldr	r3, .L641+16
 5273 0090 1A68     		ldr	r2, [r3]
 5274 0092 9946     		mov	r9, r3
 5275 0094 42B9     		cbnz	r2, .L584
1837:bluetooth_rxtx.c **** 
 5276              		.loc 1 1837 0 is_stmt 0 discriminator 2
 5277 0096 8B4B     		ldr	r3, .L641+20
 5278 0098 1B68     		ldr	r3, [r3]
 5279 009a 2BB9     		cbnz	r3, .L584
1837:bluetooth_rxtx.c **** 
 5280              		.loc 1 1837 0 discriminator 1
 5281 009c E37A     		ldrb	r3, [r4, #11]	@ zero_extendqisi2
 5282 009e 1BB9     		cbnz	r3, .L584
 5283 00a0 834B     		ldr	r3, .L641
 5284 00a2 9B7C     		ldrb	r3, [r3, #18]	@ zero_extendqisi2
 5285 00a4 B342     		cmp	r3, r6
 5286 00a6 F2D0     		beq	.L585
 5287              	.L584:
1839:bluetooth_rxtx.c **** 		rssi_min = rssi_max = rssi;
 5288              		.loc 1 1839 0 is_stmt 1
 5289 00a8 0620     		movs	r0, #6
 5290 00aa FFF7FEFF 		bl	cc2400_get
 5291              	.LVL536:
1840:bluetooth_rxtx.c **** 
 5292              		.loc 1 1840 0
 5293 00ae 864B     		ldr	r3, .L641+24
1839:bluetooth_rxtx.c **** 		rssi_min = rssi_max = rssi;
 5294              		.loc 1 1839 0
 5295 00b0 C0F30720 		ubfx	r0, r0, #8, #8
 5296              	.LVL537:
1842:bluetooth_rxtx.c **** 			goto cleanup;
 5297              		.loc 1 1842 0
 5298 00b4 A27C     		ldrb	r2, [r4, #18]	@ zero_extendqisi2
1840:bluetooth_rxtx.c **** 
 5299              		.loc 1 1840 0
 5300 00b6 1870     		strb	r0, [r3]
 5301 00b8 844B     		ldr	r3, .L641+28
1842:bluetooth_rxtx.c **** 			goto cleanup;
 5302              		.loc 1 1842 0
 5303 00ba B242     		cmp	r2, r6
1840:bluetooth_rxtx.c **** 
ARM GAS  /tmp/ccUrIl19.s 			page 152


 5304              		.loc 1 1840 0
 5305 00bc 1870     		strb	r0, [r3]
1842:bluetooth_rxtx.c **** 			goto cleanup;
 5306              		.loc 1 1842 0
 5307 00be 7C4B     		ldr	r3, .L641
 5308 00c0 40F09481 		bne	.L618
1846:bluetooth_rxtx.c **** 			status |= DMA_ERROR;
 5309              		.loc 1 1846 0
 5310 00c4 7F4A     		ldr	r2, .L641+20
 5311 00c6 1168     		ldr	r1, [r2]
 5312 00c8 9346     		mov	fp, r2
 5313 00ca 19B1     		cbz	r1, .L587
1847:bluetooth_rxtx.c **** 		}
 5314              		.loc 1 1847 0
 5315 00cc 5A78     		ldrb	r2, [r3, #1]	@ zero_extendqisi2
 5316 00ce 42F00202 		orr	r2, r2, #2
 5317 00d2 5A70     		strb	r2, [r3, #1]
 5318              	.L587:
1850:bluetooth_rxtx.c **** 			goto rx_flush;
 5319              		.loc 1 1850 0
 5320 00d4 E37A     		ldrb	r3, [r4, #11]	@ zero_extendqisi2
 5321 00d6 03F0FF01 		and	r1, r3, #255
 5322 00da 002B     		cmp	r3, #0
 5323 00dc 40F0D980 		bne	.L588
1854:bluetooth_rxtx.c **** 			continue;
 5324              		.loc 1 1854 0
 5325 00e0 D9F80030 		ldr	r3, [r9]
 5326 00e4 002B     		cmp	r3, #0
 5327 00e6 ABD0     		beq	.L578
1860:bluetooth_rxtx.c **** 		u8 *p = (u8 *)packet;
 5328              		.loc 1 1860 0
 5329 00e8 3422     		movs	r2, #52
 5330 00ea 03A8     		add	r0, sp, #12
 5331              	.LVL538:
 5332 00ec FFF7FEFF 		bl	memset
 5333              	.LVL539:
1864:bluetooth_rxtx.c **** 		for (i = 0; i < 4; i+= 4) {
 5334              		.loc 1 1864 0
 5335 00f0 2888     		ldrh	r0, [r5]
1862:bluetooth_rxtx.c **** 
 5336              		.loc 1 1862 0
 5337 00f2 6B68     		ldr	r3, [r5, #4]
1864:bluetooth_rxtx.c **** 		for (i = 0; i < 4; i+= 4) {
 5338              		.loc 1 1864 0
 5339 00f4 80B2     		uxth	r0, r0
 5340 00f6 6238     		subs	r0, r0, #98
 5341 00f8 C0B2     		uxtb	r0, r0
1862:bluetooth_rxtx.c **** 
 5342              		.loc 1 1862 0
 5343 00fa 0393     		str	r3, [sp, #12]
1864:bluetooth_rxtx.c **** 		for (i = 0; i < 4; i+= 4) {
 5344              		.loc 1 1864 0
 5345 00fc FFF7FEFF 		bl	btle_channel_index
 5346              	.LVL540:
 5347 0100 3027     		movs	r7, #48
 5348 0102 4743     		muls	r7, r0, r7
 5349 0104 DFF8F0A1 		ldr	r10, .L641+72
ARM GAS  /tmp/ccUrIl19.s 			page 153


 5350 0108 0AEB0703 		add	r3, r10, r7
 5351 010c 0193     		str	r3, [sp, #4]
 5352              	.LVL541:
 5353              	.LBB47:
1866:bluetooth_rxtx.c **** 					   | rxbuf1[i+1] << 16
 5354              		.loc 1 1866 0
 5355 010e 704B     		ldr	r3, .L641+32
 5356              	.LVL542:
 5357 0110 93F800E0 		ldrb	lr, [r3]	@ zero_extendqisi2
1867:bluetooth_rxtx.c **** 					   | rxbuf1[i+2] << 8
 5358              		.loc 1 1867 0
 5359 0114 5A78     		ldrb	r2, [r3, #1]	@ zero_extendqisi2
1868:bluetooth_rxtx.c **** 					   | rxbuf1[i+3] << 0;
 5360              		.loc 1 1868 0
 5361 0116 9878     		ldrb	r0, [r3, #2]	@ zero_extendqisi2
1867:bluetooth_rxtx.c **** 					   | rxbuf1[i+2] << 8
 5362              		.loc 1 1867 0
 5363 0118 1204     		lsls	r2, r2, #16
1869:bluetooth_rxtx.c **** 			packet[i/4+1] = rbit(v) ^ whit[i/4];
 5364              		.loc 1 1869 0
 5365 011a D978     		ldrb	r1, [r3, #3]	@ zero_extendqisi2
 5366              	.LVL543:
1867:bluetooth_rxtx.c **** 					   | rxbuf1[i+2] << 8
 5367              		.loc 1 1867 0
 5368 011c 42EA0E62 		orr	r2, r2, lr, lsl #24
1868:bluetooth_rxtx.c **** 					   | rxbuf1[i+3] << 0;
 5369              		.loc 1 1868 0
 5370 0120 0A43     		orrs	r2, r2, r1
1870:bluetooth_rxtx.c **** 		}
 5371              		.loc 1 1870 0
 5372 0122 42EA0020 		orr	r0, r2, r0, lsl #8
 5373 0126 0093     		str	r3, [sp]
 5374 0128 FFF7FEFF 		bl	rbit
 5375              	.LVL544:
 5376 012c 5AF80720 		ldr	r2, [r10, r7]
 5377              	.LBE47:
1874:bluetooth_rxtx.c **** 			goto rx_flush;
 5378              		.loc 1 1874 0
 5379 0130 009B     		ldr	r3, [sp]
 5380              	.LBB48:
1870:bluetooth_rxtx.c **** 		}
 5381              		.loc 1 1870 0
 5382 0132 5040     		eors	r0, r0, r2
 5383              	.LBE48:
1873:bluetooth_rxtx.c **** 		if (len > 39)
 5384              		.loc 1 1873 0
 5385 0134 C0F3052A 		ubfx	r10, r0, #8, #6
 5386 0138 0AF10207 		add	r7, r10, #2
1874:bluetooth_rxtx.c **** 			goto rx_flush;
 5387              		.loc 1 1874 0
 5388 013c 272F     		cmp	r7, #39
 5389              	.LBB49:
1870:bluetooth_rxtx.c **** 		}
 5390              		.loc 1 1870 0
 5391 013e 0490     		str	r0, [sp, #16]
 5392              	.LVL545:
 5393              	.LBE49:
ARM GAS  /tmp/ccUrIl19.s 			page 154


1874:bluetooth_rxtx.c **** 			goto rx_flush;
 5394              		.loc 1 1874 0
 5395 0140 00F2A780 		bhi	.L588
1879:bluetooth_rxtx.c **** 		if (total_transfers < 11) {
 5396              		.loc 1 1879 0
 5397 0144 0AF1080A 		add	r10, r10, #8
 5398 0148 4FEA9A02 		lsr	r2, r10, #2
 5399              	.LVL546:
1880:bluetooth_rxtx.c **** 			while (DMACC0DestAddr < (uint32_t)rxbuf1 + 4 * total_transfers && rx_err == 0)
 5400              		.loc 1 1880 0
 5401 014c 0B2A     		cmp	r2, #11
 5402 014e 0DD0     		beq	.L594
1881:bluetooth_rxtx.c **** 				;
 5403              		.loc 1 1881 0
 5404 0150 03EB8203 		add	r3, r3, r2, lsl #2
 5405              	.LVL547:
 5406              	.L593:
 5407 0154 5F4A     		ldr	r2, .L641+36
 5408 0156 1268     		ldr	r2, [r2]
 5409 0158 9A42     		cmp	r2, r3
 5410 015a 0BD2     		bcs	.L592
1881:bluetooth_rxtx.c **** 				;
 5411              		.loc 1 1881 0 is_stmt 0 discriminator 2
 5412 015c DBF80010 		ldr	r1, [fp]
 5413 0160 0029     		cmp	r1, #0
 5414 0162 F7D0     		beq	.L593
 5415 0164 06E0     		b	.L592
 5416              	.LVL548:
 5417              	.L638:
1884:bluetooth_rxtx.c **** 				;
 5418              		.loc 1 1884 0 is_stmt 1 discriminator 2
 5419 0166 DBF80030 		ldr	r3, [fp]
 5420 016a 1BB9     		cbnz	r3, .L592
 5421              	.L594:
1884:bluetooth_rxtx.c **** 				;
 5422              		.loc 1 1884 0 is_stmt 0
 5423 016c 5A4B     		ldr	r3, .L641+40
 5424 016e 1B68     		ldr	r3, [r3]
 5425 0170 DB07     		lsls	r3, r3, #31
 5426 0172 F8D4     		bmi	.L638
 5427              	.LVL549:
 5428              	.L592:
1887:bluetooth_rxtx.c **** 
 5429              		.loc 1 1887 0 is_stmt 1
 5430 0174 594B     		ldr	r3, .L641+44
1890:bluetooth_rxtx.c **** 
 5431              		.loc 1 1890 0
 5432 0176 6120     		movs	r0, #97
1887:bluetooth_rxtx.c **** 
 5433              		.loc 1 1887 0
 5434 0178 1A68     		ldr	r2, [r3]
1893:bluetooth_rxtx.c **** 			uint32_t v = rxbuf1[i+0] << 24
 5435              		.loc 1 1893 0
 5436 017a 4FF0040B 		mov	fp, #4
1887:bluetooth_rxtx.c **** 
 5437              		.loc 1 1887 0
 5438 017e 22F00102 		bic	r2, r2, #1
ARM GAS  /tmp/ccUrIl19.s 			page 155


 5439 0182 1A60     		str	r2, [r3]
1890:bluetooth_rxtx.c **** 
 5440              		.loc 1 1890 0
 5441 0184 FFF7FEFF 		bl	cc2400_strobe
 5442              	.LVL550:
 5443              	.L596:
 5444              	.LBB50:
1894:bluetooth_rxtx.c **** 					   | rxbuf1[i+1] << 16
 5445              		.loc 1 1894 0 discriminator 2
 5446 0188 514A     		ldr	r2, .L641+32
 5447 018a 0BF10100 		add	r0, fp, #1
 5448 018e 12F80B10 		ldrb	r1, [r2, fp]	@ zero_extendqisi2
 5449 0192 0BF1030C 		add	ip, fp, #3
1895:bluetooth_rxtx.c **** 					   | rxbuf1[i+2] << 8
 5450              		.loc 1 1895 0 discriminator 2
 5451 0196 12F800E0 		ldrb	lr, [r2, r0]	@ zero_extendqisi2
 5452 019a 0BF10200 		add	r0, fp, #2
1896:bluetooth_rxtx.c **** 					   | rxbuf1[i+3] << 0;
 5453              		.loc 1 1896 0 discriminator 2
 5454 019e 105C     		ldrb	r0, [r2, r0]	@ zero_extendqisi2
1897:bluetooth_rxtx.c **** 			packet[i/4+1] = rbit(v) ^ whit[i/4];
 5455              		.loc 1 1897 0 discriminator 2
 5456 01a0 12F80CC0 		ldrb	ip, [r2, ip]	@ zero_extendqisi2
 5457              	.LVL551:
1898:bluetooth_rxtx.c **** 		}
 5458              		.loc 1 1898 0 discriminator 2
 5459 01a4 4FEAAB02 		asr	r2, fp, #2
1895:bluetooth_rxtx.c **** 					   | rxbuf1[i+2] << 8
 5460              		.loc 1 1895 0 discriminator 2
 5461 01a8 4CEA0161 		orr	r1, ip, r1, lsl #24
 5462              	.LVL552:
1896:bluetooth_rxtx.c **** 					   | rxbuf1[i+3] << 0;
 5463              		.loc 1 1896 0 discriminator 2
 5464 01ac 41EA0E41 		orr	r1, r1, lr, lsl #16
1898:bluetooth_rxtx.c **** 		}
 5465              		.loc 1 1898 0 discriminator 2
 5466 01b0 41EA0020 		orr	r0, r1, r0, lsl #8
 5467 01b4 0092     		str	r2, [sp]
 5468 01b6 FFF7FEFF 		bl	rbit
 5469              	.LVL553:
 5470 01ba 009A     		ldr	r2, [sp]
 5471 01bc 10AB     		add	r3, sp, #64
 5472 01be 03EB8201 		add	r1, r3, r2, lsl #2
 5473 01c2 019B     		ldr	r3, [sp, #4]
 5474              	.LBE50:
1893:bluetooth_rxtx.c **** 			uint32_t v = rxbuf1[i+0] << 24
 5475              		.loc 1 1893 0 discriminator 2
 5476 01c4 0BF1040B 		add	fp, fp, #4
 5477              	.LVL554:
 5478              	.LBB51:
1898:bluetooth_rxtx.c **** 		}
 5479              		.loc 1 1898 0 discriminator 2
 5480 01c8 53F82220 		ldr	r2, [r3, r2, lsl #2]
 5481              	.LBE51:
1893:bluetooth_rxtx.c **** 			uint32_t v = rxbuf1[i+0] << 24
 5482              		.loc 1 1893 0 discriminator 2
 5483 01cc BBF12C0F 		cmp	fp, #44
ARM GAS  /tmp/ccUrIl19.s 			page 156


 5484              	.LBB52:
1898:bluetooth_rxtx.c **** 		}
 5485              		.loc 1 1898 0 discriminator 2
 5486 01d0 82EA0000 		eor	r0, r2, r0
 5487 01d4 41F8300C 		str	r0, [r1, #-48]
 5488              	.LBE52:
1893:bluetooth_rxtx.c **** 			uint32_t v = rxbuf1[i+0] << 24
 5489              		.loc 1 1893 0 discriminator 2
 5490 01d8 D6D1     		bne	.L596
1901:bluetooth_rxtx.c **** 			u32 calc_crc = btle_crcgen_lut(le.crc_init_reversed, p + 4, len);
 5491              		.loc 1 1901 0
 5492 01da 6B69     		ldr	r3, [r5, #20]
 5493 01dc 2BB9     		cbnz	r3, .L597
 5494              	.LVL555:
 5495              	.L600:
1912:bluetooth_rxtx.c **** 			uuuuu = 1;
 5496              		.loc 1 1912 0
 5497 01de 9DF82430 		ldrb	r3, [sp, #36]	@ zero_extendqisi2
 5498 01e2 3F4F     		ldr	r7, .L641+48
 5499 01e4 552B     		cmp	r3, #85
 5500 01e6 30D1     		bne	.L599
 5501 01e8 16E0     		b	.L639
 5502              	.LVL556:
 5503              	.L597:
 5504              	.LBB53:
1902:bluetooth_rxtx.c **** 			u32 wire_crc = (p[4+len+2] << 16)
 5505              		.loc 1 1902 0
 5506 01ea 324B     		ldr	r3, .L641+4
 5507 01ec 3A46     		mov	r2, r7
 5508 01ee 1869     		ldr	r0, [r3, #16]
 5509 01f0 04A9     		add	r1, sp, #16
 5510 01f2 FFF7FEFF 		bl	btle_crcgen_lut
 5511              	.LVL557:
1903:bluetooth_rxtx.c **** 						 | (p[4+len+1] << 8)
 5512              		.loc 1 1903 0
 5513 01f6 10AB     		add	r3, sp, #64
 5514 01f8 5344     		add	r3, r3, r10
 5515 01fa 13F8342C 		ldrb	r2, [r3, #-52]	@ zero_extendqisi2
1904:bluetooth_rxtx.c **** 						 | (p[4+len+0] << 0);
 5516              		.loc 1 1904 0
 5517 01fe 10AB     		add	r3, sp, #64
 5518 0200 1F44     		add	r7, r7, r3
 5519              	.LVL558:
 5520 0202 17F82F3C 		ldrb	r3, [r7, #-47]	@ zero_extendqisi2
 5521 0206 1B02     		lsls	r3, r3, #8
 5522 0208 43EA0243 		orr	r3, r3, r2, lsl #16
1905:bluetooth_rxtx.c **** 			if (calc_crc != wire_crc) // skip packets with a bad CRC
 5523              		.loc 1 1905 0
 5524 020c 17F8302C 		ldrb	r2, [r7, #-48]	@ zero_extendqisi2
 5525 0210 1343     		orrs	r3, r3, r2
1906:bluetooth_rxtx.c **** 				goto rx_flush;
 5526              		.loc 1 1906 0
 5527 0212 9842     		cmp	r0, r3
 5528 0214 3DD1     		bne	.L588
 5529 0216 E2E7     		b	.L600
 5530              	.LVL559:
 5531              	.L639:
ARM GAS  /tmp/ccUrIl19.s 			page 157


 5532              	.LBE53:
1912:bluetooth_rxtx.c **** 			uuuuu = 1;
 5533              		.loc 1 1912 0 discriminator 1
 5534 0218 9DF82530 		ldrb	r3, [sp, #37]	@ zero_extendqisi2
 5535 021c 552B     		cmp	r3, #85
 5536 021e 14D1     		bne	.L599
 5537 0220 9DF82630 		ldrb	r3, [sp, #38]	@ zero_extendqisi2
 5538 0224 552B     		cmp	r3, #85
 5539 0226 10D1     		bne	.L599
 5540 0228 9DF82730 		ldrb	r3, [sp, #39]	@ zero_extendqisi2
 5541 022c 552B     		cmp	r3, #85
 5542 022e 0CD1     		bne	.L599
 5543 0230 9DF82830 		ldrb	r3, [sp, #40]	@ zero_extendqisi2
 5544 0234 552B     		cmp	r3, #85
 5545 0236 08D1     		bne	.L599
 5546              	.LVL560:
1914:bluetooth_rxtx.c **** 			start_sync = now_sync + 100 * 10000 / 3125; // wait for 100 ms
 5547              		.loc 1 1914 0
 5548 0238 3B68     		ldr	r3, [r7]
1913:bluetooth_rxtx.c **** 			now_sync = (clkn & 0xffffff);
 5549              		.loc 1 1913 0
 5550 023a 4FF00108 		mov	r8, #1
1914:bluetooth_rxtx.c **** 			start_sync = now_sync + 100 * 10000 / 3125; // wait for 100 ms
 5551              		.loc 1 1914 0
 5552 023e 23F07F43 		bic	r3, r3, #-16777216
 5553 0242 E362     		str	r3, [r4, #44]
1915:bluetooth_rxtx.c **** 		}
 5554              		.loc 1 1915 0
 5555 0244 03F5A073 		add	r3, r3, #320
 5556 0248 A362     		str	r3, [r4, #40]
 5557              	.LVL561:
 5558              	.L599:
1919:bluetooth_rxtx.c **** 		packet_cb((uint8_t *)packet);
 5559              		.loc 1 1919 0
 5560 024a 264B     		ldr	r3, .L641+52
 5561 024c 1022     		movs	r2, #16
 5562 024e 1A60     		str	r2, [r3]
1920:bluetooth_rxtx.c **** 
 5563              		.loc 1 1920 0
 5564 0250 03A8     		add	r0, sp, #12
 5565              	.LVL562:
 5566 0252 A369     		ldr	r3, [r4, #24]
 5567 0254 9847     		blx	r3
 5568              	.LVL563:
1923:bluetooth_rxtx.c **** 		enqueue(LE_PACKET, (uint8_t *)packet);
 5569              		.loc 1 1923 0
 5570 0256 244B     		ldr	r3, .L641+56
 5571 0258 4FF0807A 		mov	r10, #16777216
 5572              	.LVL564:
 5573 025c C3F800A0 		str	r10, [r3]
1924:bluetooth_rxtx.c **** 		ISER0 = ISER0_ISE_USB;
 5574              		.loc 1 1924 0
 5575 0260 03A9     		add	r1, sp, #12
 5576              	.LVL565:
 5577 0262 0120     		movs	r0, #1
 5578 0264 FFF7FEFF 		bl	enqueue
 5579              	.LVL566:
ARM GAS  /tmp/ccUrIl19.s 			page 158


1925:bluetooth_rxtx.c **** 
 5580              		.loc 1 1925 0
 5581 0268 134B     		ldr	r3, .L641+8
1927:bluetooth_rxtx.c **** 
 5582              		.loc 1 1927 0
 5583 026a 204A     		ldr	r2, .L641+60
1925:bluetooth_rxtx.c **** 
 5584              		.loc 1 1925 0
 5585 026c C3F800A0 		str	r10, [r3]
1927:bluetooth_rxtx.c **** 
 5586              		.loc 1 1927 0
 5587 0270 3B68     		ldr	r3, [r7]
 5588 0272 1268     		ldr	r2, [r2]
 5589 0274 C3F31303 		ubfx	r3, r3, #0, #20
 5590 0278 40F63541 		movw	r1, #3125
 5591 027c 01FB0323 		mla	r3, r1, r3, r2
 5592 0280 6B64     		str	r3, [r5, #68]
1930:bluetooth_rxtx.c **** 			requested_mode = MODE_BT_RSSI_LE;
 5593              		.loc 1 1930 0
 5594 0282 B8F1000F 		cmp	r8, #0
 5595 0286 04D0     		beq	.L588
 5596              	.LVL567:
1931:bluetooth_rxtx.c **** 			bt_le_sync_rssi(MODE_BT_RSSI_LE);
 5597              		.loc 1 1931 0
 5598 0288 094B     		ldr	r3, .L641
 5599 028a 1220     		movs	r0, #18
 5600 028c 9874     		strb	r0, [r3, #18]
1932:bluetooth_rxtx.c **** 		}
 5601              		.loc 1 1932 0
 5602 028e FFF7FEFF 		bl	bt_le_sync_rssi
 5603              	.LVL568:
 5604              	.L588:
1937:bluetooth_rxtx.c **** 
 5605              		.loc 1 1937 0
 5606 0292 6120     		movs	r0, #97
 5607 0294 FFF7FEFF 		bl	cc2400_strobe
 5608              	.LVL569:
1940:bluetooth_rxtx.c **** 		while (SSP1SR & SSPSR_RNE) {
 5609              		.loc 1 1940 0
 5610 0298 104B     		ldr	r3, .L641+44
 5611 029a 1A68     		ldr	r2, [r3]
 5612 029c 22F00102 		bic	r2, r2, #1
 5613 02a0 1A60     		str	r2, [r3]
 5614              	.L601:
1941:bluetooth_rxtx.c **** 			u8 tmp = (u8)DIO_SSP_DR;
 5615              		.loc 1 1941 0 discriminator 1
 5616 02a2 134B     		ldr	r3, .L641+64
 5617 02a4 1B68     		ldr	r3, [r3]
 5618 02a6 5F07     		lsls	r7, r3, #29
 5619 02a8 28D5     		bpl	.L640
 5620              	.LBB54:
1942:bluetooth_rxtx.c **** 		}
 5621              		.loc 1 1942 0
 5622 02aa 124B     		ldr	r3, .L641+68
 5623 02ac 1B68     		ldr	r3, [r3]
 5624 02ae F8E7     		b	.L601
 5625              	.L642:
ARM GAS  /tmp/ccUrIl19.s 			page 159


 5626              		.align	2
 5627              	.L641:
 5628 02b0 00000000 		.word	.LANCHOR0
 5629 02b4 00000000 		.word	.LANCHOR1
 5630 02b8 00E100E0 		.word	-536813312
 5631 02bc 3CC00920 		.word	537509948
 5632 02c0 00000000 		.word	rx_tc
 5633 02c4 00000000 		.word	rx_err
 5634 02c8 00000000 		.word	rssi_max
 5635 02cc 00000000 		.word	rssi_min
 5636 02d0 00000000 		.word	rxbuf1
 5637 02d4 04410050 		.word	1342193924
 5638 02d8 10410050 		.word	1342193936
 5639 02dc 24000340 		.word	1073938468
 5640 02e0 00000000 		.word	clkn
 5641 02e4 38C00920 		.word	537509944
 5642 02e8 80E100E0 		.word	-536813184
 5643 02ec 08400040 		.word	1073758216
 5644 02f0 0C000340 		.word	1073938444
 5645 02f4 08000340 		.word	1073938440
 5646 02f8 F0000000 		.word	.LANCHOR2+240
 5647              	.L640:
 5648              	.LBE54:
1946:bluetooth_rxtx.c **** 		if (now < le.last_packet)
 5649              		.loc 1 1946 0
 5650 02fc 424B     		ldr	r3, .L643
 5651 02fe 434A     		ldr	r2, .L643+4
 5652 0300 1B68     		ldr	r3, [r3]
 5653 0302 1268     		ldr	r2, [r2]
 5654 0304 40F63541 		movw	r1, #3125
 5655 0308 C3F31303 		ubfx	r3, r3, #0, #20
 5656 030c 01FB0323 		mla	r3, r1, r3, r2
 5657              	.LVL570:
1947:bluetooth_rxtx.c **** 			now += 3276800000; // handle rollover
 5658              		.loc 1 1947 0
 5659 0310 6A6C     		ldr	r2, [r5, #68]
1950:bluetooth_rxtx.c **** 			&& (now - le.last_packet > 50000000))
 5660              		.loc 1 1950 0
 5661 0312 297E     		ldrb	r1, [r5, #24]	@ zero_extendqisi2
1947:bluetooth_rxtx.c **** 			now += 3276800000; // handle rollover
 5662              		.loc 1 1947 0
 5663 0314 9342     		cmp	r3, r2
1950:bluetooth_rxtx.c **** 			&& (now - le.last_packet > 50000000))
 5664              		.loc 1 1950 0
 5665 0316 A1F10201 		sub	r1, r1, #2
1948:bluetooth_rxtx.c **** 		if  ( // timeout
 5666              		.loc 1 1948 0
 5667 031a 38BF     		it	cc
 5668 031c 03F14343 		addcc	r3, r3, #-1023410176
 5669              	.LVL571:
1949:bluetooth_rxtx.c **** 			((le.link_state == LINK_CONNECTED || le.link_state == LINK_CONN_PENDING)
 5670              		.loc 1 1949 0
 5671 0320 C9B2     		uxtb	r1, r1
1948:bluetooth_rxtx.c **** 		if  ( // timeout
 5672              		.loc 1 1948 0
 5673 0322 38BF     		it	cc
 5674 0324 03F5A003 		addcc	r3, r3, #5242880
ARM GAS  /tmp/ccUrIl19.s 			page 160


 5675              	.LVL572:
1949:bluetooth_rxtx.c **** 			((le.link_state == LINK_CONNECTED || le.link_state == LINK_CONN_PENDING)
 5676              		.loc 1 1949 0
 5677 0328 0129     		cmp	r1, #1
 5678 032a 03D8     		bhi	.L604
1951:bluetooth_rxtx.c **** 			// jam finished
 5679              		.loc 1 1951 0
 5680 032c 3849     		ldr	r1, .L643+8
 5681 032e 9B1A     		subs	r3, r3, r2
 5682              	.LVL573:
 5683 0330 8B42     		cmp	r3, r1
 5684 0332 02D8     		bhi	.L605
 5685              	.L604:
1953:bluetooth_rxtx.c **** 			)
 5686              		.loc 1 1953 0
 5687 0334 E369     		ldr	r3, [r4, #28]
 5688 0336 012B     		cmp	r3, #1
 5689 0338 27D1     		bne	.L606
 5690              	.L605:
1956:bluetooth_rxtx.c **** 			le_jam_count = 0;
 5691              		.loc 1 1956 0
 5692 033a FFF7FEFF 		bl	reset_le
 5693              	.LVL574:
1958:bluetooth_rxtx.c **** 
 5694              		.loc 1 1958 0
 5695 033e 3549     		ldr	r1, .L643+12
1957:bluetooth_rxtx.c **** 			TXLED_CLR;
 5696              		.loc 1 1957 0
 5697 0340 0023     		movs	r3, #0
1958:bluetooth_rxtx.c **** 
 5698              		.loc 1 1958 0
 5699 0342 4FF48070 		mov	r0, #256
1957:bluetooth_rxtx.c **** 			TXLED_CLR;
 5700              		.loc 1 1957 0
 5701 0346 E361     		str	r3, [r4, #28]
1958:bluetooth_rxtx.c **** 
 5702              		.loc 1 1958 0
 5703 0348 0860     		str	r0, [r1]
1960:bluetooth_rxtx.c **** 				jam_mode = JAM_NONE;
 5704              		.loc 1 1960 0
 5705 034a E17C     		ldrb	r1, [r4, #19]	@ zero_extendqisi2
1957:bluetooth_rxtx.c **** 			TXLED_CLR;
 5706              		.loc 1 1957 0
 5707 034c 324A     		ldr	r2, .L643+16
1960:bluetooth_rxtx.c **** 				jam_mode = JAM_NONE;
 5708              		.loc 1 1960 0
 5709 034e 0129     		cmp	r1, #1
 5710 0350 02D1     		bne	.L607
1961:bluetooth_rxtx.c **** 				requested_mode = MODE_IDLE;
 5711              		.loc 1 1961 0
 5712 0352 D374     		strb	r3, [r2, #19]
1962:bluetooth_rxtx.c **** 				goto cleanup;
 5713              		.loc 1 1962 0
 5714 0354 9374     		strb	r3, [r2, #18]
1963:bluetooth_rxtx.c **** 			}
 5715              		.loc 1 1963 0
 5716 0356 49E0     		b	.L618
ARM GAS  /tmp/ccUrIl19.s 			page 161


 5717              	.L607:
1967:bluetooth_rxtx.c **** 				goto cleanup;
 5718              		.loc 1 1967 0
 5719 0358 0A2E     		cmp	r6, #10
 5720 035a 47D0     		beq	.L618
1970:bluetooth_rxtx.c **** 
 5721              		.loc 1 1970 0
 5722 035c 0123     		movs	r3, #1
1972:bluetooth_rxtx.c **** 			while ((cc2400_status() & FS_LOCK));
 5723              		.loc 1 1972 0
 5724 035e 6420     		movs	r0, #100
1970:bluetooth_rxtx.c **** 
 5725              		.loc 1 1970 0
 5726 0360 2B76     		strb	r3, [r5, #24]
1972:bluetooth_rxtx.c **** 			while ((cc2400_status() & FS_LOCK));
 5727              		.loc 1 1972 0
 5728 0362 FFF7FEFF 		bl	cc2400_strobe
 5729              	.LVL575:
 5730              	.L610:
1973:bluetooth_rxtx.c **** 
 5731              		.loc 1 1973 0 discriminator 1
 5732 0366 FFF7FEFF 		bl	cc2400_status
 5733              	.LVL576:
 5734 036a 4007     		lsls	r0, r0, #29
 5735 036c FBD4     		bmi	.L610
1976:bluetooth_rxtx.c **** 			restart_jamming = 1;
 5736              		.loc 1 1976 0
 5737 036e B5F84A30 		ldrh	r3, [r5, #74]
 5738 0372 9BB2     		uxth	r3, r3
 5739 0374 23B1     		cbz	r3, .L620
1976:bluetooth_rxtx.c **** 			restart_jamming = 1;
 5740              		.loc 1 1976 0 is_stmt 0 discriminator 1
 5741 0376 294B     		ldr	r3, .L643+20
 5742 0378 B3F84A30 		ldrh	r3, [r3, #74]
 5743 037c 9BB2     		uxth	r3, r3
 5744 037e 01E0     		b	.L611
 5745              	.L620:
1976:bluetooth_rxtx.c **** 			restart_jamming = 1;
 5746              		.loc 1 1976 0
 5747 0380 40F66213 		movw	r3, #2402
 5748              	.L611:
1976:bluetooth_rxtx.c **** 			restart_jamming = 1;
 5749              		.loc 1 1976 0 discriminator 3
 5750 0384 2B80     		strh	r3, [r5]	@ movhi
1977:bluetooth_rxtx.c **** 		}
 5751              		.loc 1 1977 0 is_stmt 1 discriminator 3
 5752 0386 0123     		movs	r3, #1
 5753 0388 2363     		str	r3, [r4, #48]
 5754              	.L606:
1980:bluetooth_rxtx.c **** 		cc2400_set(SYNCH, le.synch);
 5755              		.loc 1 1980 0
 5756 038a 2C20     		movs	r0, #44
 5757 038c 6989     		ldrh	r1, [r5, #10]
 5758 038e FFF7FEFF 		bl	cc2400_set
 5759              	.LVL577:
1981:bluetooth_rxtx.c **** 
 5760              		.loc 1 1981 0
ARM GAS  /tmp/ccUrIl19.s 			page 162


 5761 0392 2D20     		movs	r0, #45
 5762 0394 2989     		ldrh	r1, [r5, #8]
 5763 0396 FFF7FEFF 		bl	cc2400_set
 5764              	.LVL578:
1983:bluetooth_rxtx.c **** 			hop();
 5765              		.loc 1 1983 0
 5766 039a E37A     		ldrb	r3, [r4, #11]	@ zero_extendqisi2
 5767 039c 0BB1     		cbz	r3, .L612
1984:bluetooth_rxtx.c **** 
 5768              		.loc 1 1984 0
 5769 039e FFF7FEFF 		bl	hop
 5770              	.LVL579:
 5771              	.L612:
1987:bluetooth_rxtx.c **** 			le_jam();
 5772              		.loc 1 1987 0
 5773 03a2 E369     		ldr	r3, [r4, #28]
 5774 03a4 1C4F     		ldr	r7, .L643+16
 5775 03a6 002B     		cmp	r3, #0
 5776 03a8 05DD     		ble	.L613
1988:bluetooth_rxtx.c **** 			--le_jam_count;
 5777              		.loc 1 1988 0
 5778 03aa FFF7FEFF 		bl	le_jam
 5779              	.LVL580:
1989:bluetooth_rxtx.c **** 		} else {
 5780              		.loc 1 1989 0
 5781 03ae FB69     		ldr	r3, [r7, #28]
 5782 03b0 013B     		subs	r3, r3, #1
 5783 03b2 FB61     		str	r3, [r7, #28]
 5784 03b4 14E0     		b	.L614
 5785              	.L613:
1992:bluetooth_rxtx.c **** 			dio_ssp_start();
 5786              		.loc 1 1992 0
 5787 03b6 FFF7FEFF 		bl	dma_init_le
 5788              	.LVL581:
1993:bluetooth_rxtx.c **** 
 5789              		.loc 1 1993 0
 5790 03ba FFF7FEFF 		bl	dio_ssp_start
 5791              	.LVL582:
1995:bluetooth_rxtx.c **** 				cc2400_rx_sync(rbit(le.access_address));
 5792              		.loc 1 1995 0
 5793 03be 3B6B     		ldr	r3, [r7, #48]
 5794 03c0 3BB1     		cbz	r3, .L617
1996:bluetooth_rxtx.c **** 				restart_jamming = 0;
 5795              		.loc 1 1996 0
 5796 03c2 6868     		ldr	r0, [r5, #4]
 5797 03c4 FFF7FEFF 		bl	rbit
 5798              	.LVL583:
 5799 03c8 FFF7FEFF 		bl	cc2400_rx_sync
 5800              	.LVL584:
1997:bluetooth_rxtx.c **** 			} else {
 5801              		.loc 1 1997 0
 5802 03cc 0023     		movs	r3, #0
 5803 03ce 3B63     		str	r3, [r7, #48]
 5804 03d0 06E0     		b	.L614
 5805              	.L617:
2000:bluetooth_rxtx.c **** 				cc2400_strobe(SRX);
 5806              		.loc 1 2000 0
ARM GAS  /tmp/ccUrIl19.s 			page 163


 5807 03d2 FFF7FEFF 		bl	cc2400_status
 5808              	.LVL585:
 5809 03d6 4107     		lsls	r1, r0, #29
 5810 03d8 FBD5     		bpl	.L617
2001:bluetooth_rxtx.c **** 			}
 5811              		.loc 1 2001 0
 5812 03da 6220     		movs	r0, #98
 5813 03dc FFF7FEFF 		bl	cc2400_strobe
 5814              	.LVL586:
 5815              	.L614:
2006:bluetooth_rxtx.c **** 	}
 5816              		.loc 1 2006 0 discriminator 1
 5817 03e0 0F4A     		ldr	r2, .L643+24
2005:bluetooth_rxtx.c **** 		rx_err = 0;
 5818              		.loc 1 2005 0 discriminator 1
 5819 03e2 0023     		movs	r3, #0
 5820 03e4 C9F80030 		str	r3, [r9]
2006:bluetooth_rxtx.c **** 	}
 5821              		.loc 1 2006 0 discriminator 1
 5822 03e8 1360     		str	r3, [r2]
 5823 03ea 29E6     		b	.L578
 5824              	.L618:
 5825              	.LBE46:
2012:bluetooth_rxtx.c **** 
 5826              		.loc 1 2012 0
 5827 03ec 0D4B     		ldr	r3, .L643+28
 5828 03ee 4FF08072 		mov	r2, #16777216
 5829 03f2 1A60     		str	r2, [r3]
2015:bluetooth_rxtx.c **** 	dio_ssp_stop();
 5830              		.loc 1 2015 0
 5831 03f4 FFF7FEFF 		bl	cc2400_idle
 5832              	.LVL587:
2016:bluetooth_rxtx.c **** 	cs_trigger_disable();
 5833              		.loc 1 2016 0
 5834 03f8 FFF7FEFF 		bl	dio_ssp_stop
 5835              	.LVL588:
2017:bluetooth_rxtx.c **** }
 5836              		.loc 1 2017 0
 5837 03fc FFF7FEFF 		bl	cs_trigger_disable
 5838              	.LVL589:
2018:bluetooth_rxtx.c **** 
 5839              		.loc 1 2018 0
 5840 0400 11B0     		add	sp, sp, #68
 5841              		@ sp needed
 5842 0402 BDE8F08F 		pop	{r4, r5, r6, r7, r8, r9, r10, fp, pc}
 5843              	.LVL590:
 5844              	.L644:
 5845 0406 00BF     		.align	2
 5846              	.L643:
 5847 0408 00000000 		.word	clkn
 5848 040c 08400040 		.word	1073758216
 5849 0410 80F0FA02 		.word	50000000
 5850 0414 3CC00920 		.word	537509948
 5851 0418 00000000 		.word	.LANCHOR0
 5852 041c 00000000 		.word	.LANCHOR1
 5853 0420 00000000 		.word	rx_err
 5854 0424 80E100E0 		.word	-536813184
ARM GAS  /tmp/ccUrIl19.s 			page 164


 5855              		.cfi_endproc
 5856              	.LFE24:
 5858              		.section	.text.bt_le_sync_cfo,"ax",%progbits
 5859              		.align	1
 5860              		.global	bt_le_sync_cfo
 5861              		.thumb
 5862              		.thumb_func
 5864              	bt_le_sync_cfo:
 5865              	.LFB25:
2022:bluetooth_rxtx.c **** 	int i;
 5866              		.loc 1 2022 0
 5867              		.cfi_startproc
 5868              		@ args = 0, pretend = 0, frame = 112
 5869              		@ frame_needed = 0, uses_anonymous_args = 0
 5870              	.LVL591:
 5871 0000 2DE9F04F 		push	{r4, r5, r6, r7, r8, r9, r10, fp, lr}
 5872              		.cfi_def_cfa_offset 36
 5873              		.cfi_offset 4, -36
 5874              		.cfi_offset 5, -32
 5875              		.cfi_offset 6, -28
 5876              		.cfi_offset 7, -24
 5877              		.cfi_offset 8, -20
 5878              		.cfi_offset 9, -16
 5879              		.cfi_offset 10, -12
 5880              		.cfi_offset 11, -8
 5881              		.cfi_offset 14, -4
 5882 0004 9DB0     		sub	sp, sp, #116
 5883              		.cfi_def_cfa_offset 152
2026:bluetooth_rxtx.c **** 
 5884              		.loc 1 2026 0
 5885 0006 0021     		movs	r1, #0
2022:bluetooth_rxtx.c **** 	int i;
 5886              		.loc 1 2022 0
 5887 0008 0746     		mov	r7, r0
2026:bluetooth_rxtx.c **** 
 5888              		.loc 1 2026 0
 5889 000a 3222     		movs	r2, #50
2028:bluetooth_rxtx.c **** 	mode = active_mode;
 5890              		.loc 1 2028 0
 5891 000c A84D     		ldr	r5, .L709
2031:bluetooth_rxtx.c **** 
 5892              		.loc 1 2031 0
 5893 000e A94C     		ldr	r4, .L709+4
2026:bluetooth_rxtx.c **** 
 5894              		.loc 1 2026 0
 5895 0010 02A8     		add	r0, sp, #8
 5896              	.LVL592:
 5897 0012 FFF7FEFF 		bl	memset
 5898              	.LVL593:
2028:bluetooth_rxtx.c **** 	mode = active_mode;
 5899              		.loc 1 2028 0
 5900 0016 0123     		movs	r3, #1
 5901 0018 2B70     		strb	r3, [r5]
2031:bluetooth_rxtx.c **** 
 5902              		.loc 1 2031 0
 5903 001a 2376     		strb	r3, [r4, #24]
2033:bluetooth_rxtx.c **** 	RXLED_CLR;
ARM GAS  /tmp/ccUrIl19.s 			page 165


 5904              		.loc 1 2033 0
 5905 001c A64B     		ldr	r3, .L709+8
 5906 001e 4FF08072 		mov	r2, #16777216
2029:bluetooth_rxtx.c **** 
 5907              		.loc 1 2029 0
 5908 0022 6F74     		strb	r7, [r5, #17]
2033:bluetooth_rxtx.c **** 	RXLED_CLR;
 5909              		.loc 1 2033 0
 5910 0024 1A60     		str	r2, [r3]
2034:bluetooth_rxtx.c **** 	queue_init();
 5911              		.loc 1 2034 0
 5912 0026 A54B     		ldr	r3, .L709+12
 5913 0028 1022     		movs	r2, #16
 5914 002a 1A60     		str	r2, [r3]
2035:bluetooth_rxtx.c **** 	dio_ssp_init();
 5915              		.loc 1 2035 0
 5916 002c FFF7FEFF 		bl	queue_init
 5917              	.LVL594:
2036:bluetooth_rxtx.c **** 	dma_init_le();
 5918              		.loc 1 2036 0
 5919 0030 FFF7FEFF 		bl	dio_ssp_init
 5920              	.LVL595:
2037:bluetooth_rxtx.c **** 	dio_ssp_start();
 5921              		.loc 1 2037 0
 5922 0034 FFF7FEFF 		bl	dma_init_le
 5923              	.LVL596:
2038:bluetooth_rxtx.c **** 
 5924              		.loc 1 2038 0
 5925 0038 FFF7FEFF 		bl	dio_ssp_start
 5926              	.LVL597:
2040:bluetooth_rxtx.c **** 
 5927              		.loc 1 2040 0
 5928 003c 6068     		ldr	r0, [r4, #4]
 5929 003e FFF7FEFF 		bl	rbit
 5930              	.LVL598:
 5931 0042 FFF7FEFF 		bl	cc2400_rx_sync
 5932              	.LVL599:
 5933              	.L646:
2042:bluetooth_rxtx.c **** 		if (requested_channel != 0) {
 5934              		.loc 1 2042 0 discriminator 1
 5935 0046 AB7C     		ldrb	r3, [r5, #18]	@ zero_extendqisi2
 5936 0048 BB42     		cmp	r3, r7
 5937 004a 40F0CD81 		bne	.L689
 5938              	.LBB55:
2043:bluetooth_rxtx.c **** 			cc2400_strobe(SRFOFF);
 5939              		.loc 1 2043 0
 5940 004e 984B     		ldr	r3, .L709
 5941 0050 DB89     		ldrh	r3, [r3, #14]
 5942 0052 9BB2     		uxth	r3, r3
 5943 0054 CBB1     		cbz	r3, .L647
2044:bluetooth_rxtx.c **** 			while ((cc2400_status() & FS_LOCK));
 5944              		.loc 1 2044 0
 5945 0056 6420     		movs	r0, #100
 5946 0058 FFF7FEFF 		bl	cc2400_strobe
 5947              	.LVL600:
 5948              	.L649:
2045:bluetooth_rxtx.c **** 			cc2400_set(FSDIV, channel - 1);
ARM GAS  /tmp/ccUrIl19.s 			page 166


 5949              		.loc 1 2045 0 discriminator 1
 5950 005c FFF7FEFF 		bl	cc2400_status
 5951              	.LVL601:
 5952 0060 4007     		lsls	r0, r0, #29
 5953 0062 FBD4     		bmi	.L649
2046:bluetooth_rxtx.c **** 			cc2400_strobe(SFSON);
 5954              		.loc 1 2046 0
 5955 0064 2188     		ldrh	r1, [r4]
 5956 0066 0220     		movs	r0, #2
 5957 0068 89B2     		uxth	r1, r1
 5958 006a 0139     		subs	r1, r1, #1
 5959 006c 89B2     		uxth	r1, r1
 5960 006e FFF7FEFF 		bl	cc2400_set
 5961              	.LVL602:
2047:bluetooth_rxtx.c **** 			while (!(cc2400_status() & FS_LOCK));
 5962              		.loc 1 2047 0
 5963 0072 6120     		movs	r0, #97
 5964 0074 FFF7FEFF 		bl	cc2400_strobe
 5965              	.LVL603:
 5966              	.L651:
2048:bluetooth_rxtx.c **** 			cc2400_strobe(SRX);
 5967              		.loc 1 2048 0 discriminator 1
 5968 0078 FFF7FEFF 		bl	cc2400_status
 5969              	.LVL604:
 5970 007c 4107     		lsls	r1, r0, #29
 5971 007e FBD5     		bpl	.L651
2049:bluetooth_rxtx.c **** 			requested_channel = 0;
 5972              		.loc 1 2049 0
 5973 0080 6220     		movs	r0, #98
 5974 0082 FFF7FEFF 		bl	cc2400_strobe
 5975              	.LVL605:
2050:bluetooth_rxtx.c **** 		}
 5976              		.loc 1 2050 0
 5977 0086 0023     		movs	r3, #0
 5978 0088 EB81     		strh	r3, [r5, #14]	@ movhi
 5979              	.L647:
2052:bluetooth_rxtx.c **** 		rssi_reset();
 5980              		.loc 1 2052 0
 5981 008a 8C4B     		ldr	r3, .L709+12
 5982 008c 1022     		movs	r2, #16
 5983 008e 1A60     		str	r2, [r3]
2053:bluetooth_rxtx.c **** 		while ((rx_tc == 0) && (rx_err == 0) && (do_hop == 0) && requested_mode == active_mode) ;
 5984              		.loc 1 2053 0
 5985 0090 FFF7FEFF 		bl	rssi_reset
 5986              	.LVL606:
 5987              	.L653:
2054:bluetooth_rxtx.c **** 		rssi = (int8_t)(cc2400_get(RSSI) >> 8);
 5988              		.loc 1 2054 0 discriminator 1
 5989 0094 8A4B     		ldr	r3, .L709+16
 5990 0096 1A68     		ldr	r2, [r3]
 5991 0098 9946     		mov	r9, r3
 5992 009a 42B9     		cbnz	r2, .L652
2054:bluetooth_rxtx.c **** 		rssi = (int8_t)(cc2400_get(RSSI) >> 8);
 5993              		.loc 1 2054 0 is_stmt 0 discriminator 2
 5994 009c 894B     		ldr	r3, .L709+20
 5995 009e 1B68     		ldr	r3, [r3]
 5996 00a0 2BB9     		cbnz	r3, .L652
ARM GAS  /tmp/ccUrIl19.s 			page 167


2054:bluetooth_rxtx.c **** 		rssi = (int8_t)(cc2400_get(RSSI) >> 8);
 5997              		.loc 1 2054 0 discriminator 1
 5998 00a2 EB7A     		ldrb	r3, [r5, #11]	@ zero_extendqisi2
 5999 00a4 1BB9     		cbnz	r3, .L652
 6000 00a6 824B     		ldr	r3, .L709
 6001 00a8 9B7C     		ldrb	r3, [r3, #18]	@ zero_extendqisi2
 6002 00aa BB42     		cmp	r3, r7
 6003 00ac F2D0     		beq	.L653
 6004              	.L652:
2055:bluetooth_rxtx.c **** 		rssi_min = rssi_max = rssi;
 6005              		.loc 1 2055 0 is_stmt 1
 6006 00ae 0620     		movs	r0, #6
 6007 00b0 FFF7FEFF 		bl	cc2400_get
 6008              	.LVL607:
2056:bluetooth_rxtx.c **** 
 6009              		.loc 1 2056 0
 6010 00b4 844B     		ldr	r3, .L709+24
2055:bluetooth_rxtx.c **** 		rssi_min = rssi_max = rssi;
 6011              		.loc 1 2055 0
 6012 00b6 C0F30720 		ubfx	r0, r0, #8, #8
 6013              	.LVL608:
2058:bluetooth_rxtx.c **** 			goto cleanup;
 6014              		.loc 1 2058 0
 6015 00ba AA7C     		ldrb	r2, [r5, #18]	@ zero_extendqisi2
2056:bluetooth_rxtx.c **** 
 6016              		.loc 1 2056 0
 6017 00bc 1870     		strb	r0, [r3]
 6018 00be 834B     		ldr	r3, .L709+28
2058:bluetooth_rxtx.c **** 			goto cleanup;
 6019              		.loc 1 2058 0
 6020 00c0 BA42     		cmp	r2, r7
2056:bluetooth_rxtx.c **** 
 6021              		.loc 1 2056 0
 6022 00c2 1870     		strb	r0, [r3]
2058:bluetooth_rxtx.c **** 			goto cleanup;
 6023              		.loc 1 2058 0
 6024 00c4 7A4B     		ldr	r3, .L709
 6025 00c6 40F08F81 		bne	.L689
2061:bluetooth_rxtx.c **** 			status |= DMA_ERROR;
 6026              		.loc 1 2061 0
 6027 00ca 7E4E     		ldr	r6, .L709+20
 6028 00cc 3268     		ldr	r2, [r6]
 6029 00ce 1AB1     		cbz	r2, .L655
2062:bluetooth_rxtx.c **** 		}
 6030              		.loc 1 2062 0
 6031 00d0 5A78     		ldrb	r2, [r3, #1]	@ zero_extendqisi2
 6032 00d2 42F00202 		orr	r2, r2, #2
 6033 00d6 5A70     		strb	r2, [r3, #1]
 6034              	.L655:
2064:bluetooth_rxtx.c **** 			goto rx_flush;
 6035              		.loc 1 2064 0
 6036 00d8 EB7A     		ldrb	r3, [r5, #11]	@ zero_extendqisi2
 6037 00da 03F0FF08 		and	r8, r3, #255
 6038 00de 002B     		cmp	r3, #0
 6039 00e0 40F0D680 		bne	.L657
2066:bluetooth_rxtx.c **** 			continue;
 6040              		.loc 1 2066 0
ARM GAS  /tmp/ccUrIl19.s 			page 168


 6041 00e4 D9F80030 		ldr	r3, [r9]
 6042 00e8 002B     		cmp	r3, #0
 6043 00ea ACD0     		beq	.L646
2069:bluetooth_rxtx.c **** 		uint32_t whiten_packet[48/4+1] = {0, };
 6044              		.loc 1 2069 0
 6045 00ec 0FA8     		add	r0, sp, #60
 6046              	.LVL609:
 6047 00ee 4146     		mov	r1, r8
 6048 00f0 3422     		movs	r2, #52
 6049 00f2 FFF7FEFF 		bl	memset
 6050              	.LVL610:
 6051              	.L661:
2075:bluetooth_rxtx.c **** 		}
 6052              		.loc 1 2075 0 discriminator 2
 6053 00f6 0720     		movs	r0, #7
 6054 00f8 FFF7FEFF 		bl	cc2400_get_rev
 6055              	.LVL611:
 6056 00fc 02AB     		add	r3, sp, #8
 6057 00fe 03F80800 		strb	r0, [r3, r8]
2074:bluetooth_rxtx.c **** 			cfo_buf[i] = cc2400_get_rev(FREQEST);
 6058              		.loc 1 2074 0 discriminator 2
 6059 0102 08F10108 		add	r8, r8, #1
 6060              	.LVL612:
 6061 0106 B8F1320F 		cmp	r8, #50
 6062 010a F4D1     		bne	.L661
2080:bluetooth_rxtx.c **** 		for (i=0; i<4; i+= 4) {
 6063              		.loc 1 2080 0
 6064 010c 2088     		ldrh	r0, [r4]
2078:bluetooth_rxtx.c **** 		
 6065              		.loc 1 2078 0
 6066 010e 6368     		ldr	r3, [r4, #4]
2080:bluetooth_rxtx.c **** 		for (i=0; i<4; i+= 4) {
 6067              		.loc 1 2080 0
 6068 0110 80B2     		uxth	r0, r0
 6069 0112 6238     		subs	r0, r0, #98
 6070 0114 C0B2     		uxtb	r0, r0
2078:bluetooth_rxtx.c **** 		
 6071              		.loc 1 2078 0
 6072 0116 0F93     		str	r3, [sp, #60]
2080:bluetooth_rxtx.c **** 		for (i=0; i<4; i+= 4) {
 6073              		.loc 1 2080 0
 6074 0118 FFF7FEFF 		bl	btle_channel_index
 6075              	.LVL613:
 6076              	.LBB56:
2082:bluetooth_rxtx.c **** 					   | rxbuf1[i+1] << 16
 6077              		.loc 1 2082 0
 6078 011c DFF8C0B1 		ldr	fp, .L709+48
 6079              	.LBE56:
2080:bluetooth_rxtx.c **** 		for (i=0; i<4; i+= 4) {
 6080              		.loc 1 2080 0
 6081 0120 4FF0300A 		mov	r10, #48
 6082              	.LBB57:
2082:bluetooth_rxtx.c **** 					   | rxbuf1[i+1] << 16
 6083              		.loc 1 2082 0
 6084 0124 9BF800E0 		ldrb	lr, [fp]	@ zero_extendqisi2
2083:bluetooth_rxtx.c **** 					   | rxbuf1[i+2] << 8
 6085              		.loc 1 2083 0
ARM GAS  /tmp/ccUrIl19.s 			page 169


 6086 0128 9BF80180 		ldrb	r8, [fp, #1]	@ zero_extendqisi2
 6087              	.LVL614:
 6088              	.LBE57:
2080:bluetooth_rxtx.c **** 		for (i=0; i<4; i+= 4) {
 6089              		.loc 1 2080 0
 6090 012c 0AFB00FA 		mul	r10, r10, r0
 6091              	.LBB58:
2084:bluetooth_rxtx.c **** 					   | rxbuf1[i+3] << 0;
 6092              		.loc 1 2084 0
 6093 0130 9BF80210 		ldrb	r1, [fp, #2]	@ zero_extendqisi2
2083:bluetooth_rxtx.c **** 					   | rxbuf1[i+2] << 8
 6094              		.loc 1 2083 0
 6095 0134 4FEA0848 		lsl	r8, r8, #16
2085:bluetooth_rxtx.c **** 			packet[i/4+1] = rbit(v) ^ whit[i/4];
 6096              		.loc 1 2085 0
 6097 0138 9BF80300 		ldrb	r0, [fp, #3]	@ zero_extendqisi2
2083:bluetooth_rxtx.c **** 					   | rxbuf1[i+2] << 8
 6098              		.loc 1 2083 0
 6099 013c 48EA0E68 		orr	r8, r8, lr, lsl #24
 6100              	.LBE58:
2080:bluetooth_rxtx.c **** 		for (i=0; i<4; i+= 4) {
 6101              		.loc 1 2080 0
 6102 0140 634A     		ldr	r2, .L709+32
 6103              	.LBB59:
2084:bluetooth_rxtx.c **** 					   | rxbuf1[i+3] << 0;
 6104              		.loc 1 2084 0
 6105 0142 48EA0008 		orr	r8, r8, r0
2085:bluetooth_rxtx.c **** 			packet[i/4+1] = rbit(v) ^ whit[i/4];
 6106              		.loc 1 2085 0
 6107 0146 48EA0128 		orr	r8, r8, r1, lsl #8
 6108              	.LBE59:
2080:bluetooth_rxtx.c **** 		for (i=0; i<4; i+= 4) {
 6109              		.loc 1 2080 0
 6110 014a 02EB0A03 		add	r3, r2, r10
 6111              	.LBB60:
2086:bluetooth_rxtx.c **** 			whiten_packet[i/4+1] = rbit(v);
 6112              		.loc 1 2086 0
 6113 014e 4046     		mov	r0, r8
 6114              	.LBE60:
2080:bluetooth_rxtx.c **** 		for (i=0; i<4; i+= 4) {
 6115              		.loc 1 2080 0
 6116 0150 0193     		str	r3, [sp, #4]
 6117              	.LVL615:
 6118              	.LBB61:
2086:bluetooth_rxtx.c **** 			whiten_packet[i/4+1] = rbit(v);
 6119              		.loc 1 2086 0
 6120 0152 0092     		str	r2, [sp]
 6121 0154 FFF7FEFF 		bl	rbit
 6122              	.LVL616:
 6123 0158 009A     		ldr	r2, [sp]
 6124 015a 52F80A20 		ldr	r2, [r2, r10]
 6125 015e 5040     		eors	r0, r0, r2
 6126 0160 1090     		str	r0, [sp, #64]
2087:bluetooth_rxtx.c **** 		}
 6127              		.loc 1 2087 0
 6128 0162 4046     		mov	r0, r8
 6129 0164 FFF7FEFF 		bl	rbit
ARM GAS  /tmp/ccUrIl19.s 			page 170


 6130              	.LVL617:
 6131              	.LBE61:
2090:bluetooth_rxtx.c **** 		cfo_buf[DMA_SIZE - 1] = p[5];
 6132              		.loc 1 2090 0
 6133 0168 9DF84120 		ldrb	r2, [sp, #65]	@ zero_extendqisi2
 6134 016c 02F03F0A 		and	r10, r2, #63
 6135 0170 0AF10208 		add	r8, r10, #2
 6136              	.LVL618:
2093:bluetooth_rxtx.c **** 			goto rx_flush;
 6137              		.loc 1 2093 0
 6138 0174 B8F1270F 		cmp	r8, #39
2091:bluetooth_rxtx.c **** 
 6139              		.loc 1 2091 0
 6140 0178 8DF83920 		strb	r2, [sp, #57]
2093:bluetooth_rxtx.c **** 			goto rx_flush;
 6141              		.loc 1 2093 0
 6142 017c 00F28880 		bhi	.L657
2096:bluetooth_rxtx.c **** 		if (total_transfers < 11) {
 6143              		.loc 1 2096 0
 6144 0180 0AF1080A 		add	r10, r10, #8
 6145 0184 4FEA9A02 		lsr	r2, r10, #2
 6146              	.LVL619:
2097:bluetooth_rxtx.c **** 			while (DMACC0DestAddr < (uint32_t)rxbuf1 + 4 * total_transfers && rx_err == 0) ;
 6147              		.loc 1 2097 0
 6148 0188 0B2A     		cmp	r2, #11
 6149 018a 0BD0     		beq	.L666
2098:bluetooth_rxtx.c **** 		} else { while (DMACC0Config & DMACCxConfig_E && rx_err == 0) ;
 6150              		.loc 1 2098 0
 6151 018c 0BEB8203 		add	r3, fp, r2, lsl #2
 6152              	.LVL620:
 6153              	.L665:
 6154 0190 504A     		ldr	r2, .L709+36
 6155 0192 1268     		ldr	r2, [r2]
 6156 0194 9A42     		cmp	r2, r3
 6157 0196 09D2     		bcs	.L664
2098:bluetooth_rxtx.c **** 		} else { while (DMACC0Config & DMACCxConfig_E && rx_err == 0) ;
 6158              		.loc 1 2098 0 is_stmt 0 discriminator 2
 6159 0198 3168     		ldr	r1, [r6]
 6160 019a 0029     		cmp	r1, #0
 6161 019c F8D0     		beq	.L665
 6162 019e 05E0     		b	.L664
 6163              	.L706:
2099:bluetooth_rxtx.c **** 		}
 6164              		.loc 1 2099 0 is_stmt 1 discriminator 2
 6165 01a0 3368     		ldr	r3, [r6]
 6166 01a2 1BB9     		cbnz	r3, .L664
 6167              	.L666:
2099:bluetooth_rxtx.c **** 		}
 6168              		.loc 1 2099 0 is_stmt 0
 6169 01a4 4C4B     		ldr	r3, .L709+40
 6170 01a6 1B68     		ldr	r3, [r3]
 6171 01a8 DA07     		lsls	r2, r3, #31
 6172 01aa F9D4     		bmi	.L706
 6173              	.L664:
2102:bluetooth_rxtx.c **** 		cc2400_strobe(SFSON);
 6174              		.loc 1 2102 0 is_stmt 1
 6175 01ac 4B4B     		ldr	r3, .L709+44
ARM GAS  /tmp/ccUrIl19.s 			page 171


2103:bluetooth_rxtx.c **** 
 6176              		.loc 1 2103 0
 6177 01ae 6120     		movs	r0, #97
2102:bluetooth_rxtx.c **** 		cc2400_strobe(SFSON);
 6178              		.loc 1 2102 0
 6179 01b0 1A68     		ldr	r2, [r3]
2105:bluetooth_rxtx.c **** 			uint32_t v = rxbuf1[i+0] << 24
 6180              		.loc 1 2105 0
 6181 01b2 0426     		movs	r6, #4
2102:bluetooth_rxtx.c **** 		cc2400_strobe(SFSON);
 6182              		.loc 1 2102 0
 6183 01b4 22F00102 		bic	r2, r2, #1
 6184 01b8 1A60     		str	r2, [r3]
2103:bluetooth_rxtx.c **** 
 6185              		.loc 1 2103 0
 6186 01ba FFF7FEFF 		bl	cc2400_strobe
 6187              	.LVL621:
 6188              	.L668:
 6189              	.LBB62:
2106:bluetooth_rxtx.c **** 					   | rxbuf1[i+1] << 16
 6190              		.loc 1 2106 0 discriminator 2
 6191 01be 484B     		ldr	r3, .L709+48
 6192 01c0 721C     		adds	r2, r6, #1
 6193 01c2 985D     		ldrb	r0, [r3, r6]	@ zero_extendqisi2
 6194 01c4 06F1030E 		add	lr, r6, #3
2107:bluetooth_rxtx.c **** 					   | rxbuf1[i+2] << 8
 6195              		.loc 1 2107 0 discriminator 2
 6196 01c8 995C     		ldrb	r1, [r3, r2]	@ zero_extendqisi2
 6197 01ca B21C     		adds	r2, r6, #2
2108:bluetooth_rxtx.c **** 					   | rxbuf1[i+3] << 0;
 6198              		.loc 1 2108 0 discriminator 2
 6199 01cc 9A5C     		ldrb	r2, [r3, r2]	@ zero_extendqisi2
2109:bluetooth_rxtx.c **** 			packet[i/4+1] = rbit(v) ^ whit[i/4];
 6200              		.loc 1 2109 0 discriminator 2
 6201 01ce 13F80E30 		ldrb	r3, [r3, lr]	@ zero_extendqisi2
2107:bluetooth_rxtx.c **** 					   | rxbuf1[i+2] << 8
 6202              		.loc 1 2107 0 discriminator 2
 6203 01d2 43EA0063 		orr	r3, r3, r0, lsl #24
2108:bluetooth_rxtx.c **** 					   | rxbuf1[i+3] << 0;
 6204              		.loc 1 2108 0 discriminator 2
 6205 01d6 43EA0143 		orr	r3, r3, r1, lsl #16
2109:bluetooth_rxtx.c **** 			packet[i/4+1] = rbit(v) ^ whit[i/4];
 6206              		.loc 1 2109 0 discriminator 2
 6207 01da 43EA022B 		orr	fp, r3, r2, lsl #8
 6208              	.LVL622:
2110:bluetooth_rxtx.c **** 			whiten_packet[i/4+1] = rbit(v);
 6209              		.loc 1 2110 0 discriminator 2
 6210 01de 5846     		mov	r0, fp
 6211 01e0 B210     		asrs	r2, r6, #2
 6212 01e2 0092     		str	r2, [sp]
 6213 01e4 FFF7FEFF 		bl	rbit
 6214              	.LVL623:
 6215 01e8 009A     		ldr	r2, [sp]
 6216 01ea 1CAB     		add	r3, sp, #112
 6217 01ec 03EB8201 		add	r1, r3, r2, lsl #2
 6218 01f0 019B     		ldr	r3, [sp, #4]
 6219              	.LBE62:
ARM GAS  /tmp/ccUrIl19.s 			page 172


2105:bluetooth_rxtx.c **** 			uint32_t v = rxbuf1[i+0] << 24
 6220              		.loc 1 2105 0 discriminator 2
 6221 01f2 0436     		adds	r6, r6, #4
 6222              	.LVL624:
 6223              	.LBB63:
2110:bluetooth_rxtx.c **** 			whiten_packet[i/4+1] = rbit(v);
 6224              		.loc 1 2110 0 discriminator 2
 6225 01f4 53F82220 		ldr	r2, [r3, r2, lsl #2]
 6226 01f8 5040     		eors	r0, r0, r2
 6227 01fa 41F8300C 		str	r0, [r1, #-48]
2111:bluetooth_rxtx.c **** 		}
 6228              		.loc 1 2111 0 discriminator 2
 6229 01fe 5846     		mov	r0, fp
 6230 0200 FFF7FEFF 		bl	rbit
 6231              	.LVL625:
 6232              	.LBE63:
2105:bluetooth_rxtx.c **** 			uint32_t v = rxbuf1[i+0] << 24
 6233              		.loc 1 2105 0 discriminator 2
 6234 0204 2C2E     		cmp	r6, #44
 6235 0206 DAD1     		bne	.L668
2114:bluetooth_rxtx.c **** 			u32 calc_crc = btle_crcgen_lut(le.crc_init_reversed, p + 4, len);
 6236              		.loc 1 2114 0
 6237 0208 6369     		ldr	r3, [r4, #20]
 6238 020a 73B9     		cbnz	r3, .L669
 6239              	.L672:
2123:bluetooth_rxtx.c **** 		packet_cb((uint8_t *)packet);
 6240              		.loc 1 2123 0
 6241 020c 354B     		ldr	r3, .L709+52
 6242 020e 1022     		movs	r2, #16
 6243 0210 1A60     		str	r2, [r3]
2124:bluetooth_rxtx.c **** 
 6244              		.loc 1 2124 0
 6245 0212 0FA8     		add	r0, sp, #60
 6246              	.LVL626:
 6247 0214 AB69     		ldr	r3, [r5, #24]
 6248 0216 9847     		blx	r3
 6249              	.LVL627:
2126:bluetooth_rxtx.c **** 		if (p[10] == 0x55 && p[11] == 0xec) {
 6250              		.loc 1 2126 0
 6251 0218 334B     		ldr	r3, .L709+56
 6252 021a 4FF08072 		mov	r2, #16777216
 6253 021e 1A60     		str	r2, [r3]
2127:bluetooth_rxtx.c **** 			enqueue(LE_PACKET, (uint8_t *)packet);
 6254              		.loc 1 2127 0
 6255 0220 9DF84630 		ldrb	r3, [sp, #70]	@ zero_extendqisi2
 6256 0224 552B     		cmp	r3, #85
 6257 0226 24D1     		bne	.L671
 6258 0228 17E0     		b	.L707
 6259              	.L669:
 6260              	.LBB64:
2115:bluetooth_rxtx.c **** 			u32 wire_crc = (p[4+len+2] << 16)
 6261              		.loc 1 2115 0
 6262 022a 224B     		ldr	r3, .L709+4
 6263 022c 10A9     		add	r1, sp, #64
 6264 022e 1869     		ldr	r0, [r3, #16]
 6265 0230 4246     		mov	r2, r8
 6266 0232 FFF7FEFF 		bl	btle_crcgen_lut
ARM GAS  /tmp/ccUrIl19.s 			page 173


 6267              	.LVL628:
2116:bluetooth_rxtx.c **** 						 | (p[4+len+1] << 8)
 6268              		.loc 1 2116 0
 6269 0236 1CAB     		add	r3, sp, #112
 6270 0238 5344     		add	r3, r3, r10
 6271 023a 13F8342C 		ldrb	r2, [r3, #-52]	@ zero_extendqisi2
2117:bluetooth_rxtx.c **** 						 | (p[4+len+0] << 0);
 6272              		.loc 1 2117 0
 6273 023e 1CAB     		add	r3, sp, #112
 6274 0240 4344     		add	r3, r3, r8
 6275 0242 13F82F1C 		ldrb	r1, [r3, #-47]	@ zero_extendqisi2
 6276 0246 0902     		lsls	r1, r1, #8
 6277 0248 41EA0241 		orr	r1, r1, r2, lsl #16
2118:bluetooth_rxtx.c **** 			if (calc_crc != wire_crc)
 6278              		.loc 1 2118 0
 6279 024c 13F8302C 		ldrb	r2, [r3, #-48]	@ zero_extendqisi2
 6280 0250 41EA0203 		orr	r3, r1, r2
2119:bluetooth_rxtx.c **** 				goto rx_flush;
 6281              		.loc 1 2119 0
 6282 0254 9842     		cmp	r0, r3
 6283 0256 1BD1     		bne	.L657
 6284 0258 D8E7     		b	.L672
 6285              	.LVL629:
 6286              	.L707:
 6287              	.LBE64:
2127:bluetooth_rxtx.c **** 			enqueue(LE_PACKET, (uint8_t *)packet);
 6288              		.loc 1 2127 0 discriminator 1
 6289 025a 9DF84730 		ldrb	r3, [sp, #71]	@ zero_extendqisi2
 6290 025e EC2B     		cmp	r3, #236
 6291 0260 07D1     		bne	.L671
2128:bluetooth_rxtx.c **** 			enqueue(CFO_TRACK, (uint8_t *)cfo_buf);
 6292              		.loc 1 2128 0
 6293 0262 0FA9     		add	r1, sp, #60
 6294              	.LVL630:
 6295 0264 0120     		movs	r0, #1
 6296 0266 FFF7FEFF 		bl	enqueue
 6297              	.LVL631:
2129:bluetooth_rxtx.c **** 			//enqueue(MESSAGE, (uint8_t *)whiten_packet);
 6298              		.loc 1 2129 0
 6299 026a 0720     		movs	r0, #7
 6300 026c 02A9     		add	r1, sp, #8
 6301 026e FFF7FEFF 		bl	enqueue
 6302              	.LVL632:
 6303              	.L671:
2132:bluetooth_rxtx.c **** 
 6304              		.loc 1 2132 0
 6305 0272 114B     		ldr	r3, .L709+8
 6306 0274 4FF08072 		mov	r2, #16777216
 6307 0278 1A60     		str	r2, [r3]
2134:bluetooth_rxtx.c **** 
 6308              		.loc 1 2134 0
 6309 027a 1C4B     		ldr	r3, .L709+60
 6310 027c 1C4A     		ldr	r2, .L709+64
 6311 027e 1B68     		ldr	r3, [r3]
 6312 0280 1268     		ldr	r2, [r2]
 6313 0282 C3F31303 		ubfx	r3, r3, #0, #20
 6314 0286 40F63541 		movw	r1, #3125
ARM GAS  /tmp/ccUrIl19.s 			page 174


 6315 028a 01FB0323 		mla	r3, r1, r3, r2
 6316 028e 6364     		str	r3, [r4, #68]
 6317              	.LVL633:
 6318              	.L657:
2137:bluetooth_rxtx.c **** 		DIO_SSP_DMACR &= ~SSPDMACR_RXDMAE;
 6319              		.loc 1 2137 0
 6320 0290 6120     		movs	r0, #97
 6321 0292 FFF7FEFF 		bl	cc2400_strobe
 6322              	.LVL634:
2138:bluetooth_rxtx.c **** 		while (SSP1SR & SSPSR_RNE) {
 6323              		.loc 1 2138 0
 6324 0296 114B     		ldr	r3, .L709+44
 6325 0298 1A68     		ldr	r2, [r3]
 6326 029a 22F00102 		bic	r2, r2, #1
 6327 029e 1A60     		str	r2, [r3]
 6328              	.L673:
2139:bluetooth_rxtx.c **** 			u8 tmp = (u8) DIO_SSP_DR;
 6329              		.loc 1 2139 0 discriminator 1
 6330 02a0 144B     		ldr	r3, .L709+68
 6331 02a2 1B68     		ldr	r3, [r3]
 6332 02a4 5B07     		lsls	r3, r3, #29
 6333 02a6 29D5     		bpl	.L708
 6334              	.LBB65:
2140:bluetooth_rxtx.c **** 		}
 6335              		.loc 1 2140 0
 6336 02a8 134B     		ldr	r3, .L709+72
 6337 02aa 1B68     		ldr	r3, [r3]
 6338 02ac F8E7     		b	.L673
 6339              	.L710:
 6340 02ae 00BF     		.align	2
 6341              	.L709:
 6342 02b0 00000000 		.word	.LANCHOR0
 6343 02b4 00000000 		.word	.LANCHOR1
 6344 02b8 00E100E0 		.word	-536813312
 6345 02bc 3CC00920 		.word	537509948
 6346 02c0 00000000 		.word	rx_tc
 6347 02c4 00000000 		.word	rx_err
 6348 02c8 00000000 		.word	rssi_max
 6349 02cc 00000000 		.word	rssi_min
 6350 02d0 F0000000 		.word	.LANCHOR2+240
 6351 02d4 04410050 		.word	1342193924
 6352 02d8 10410050 		.word	1342193936
 6353 02dc 24000340 		.word	1073938468
 6354 02e0 00000000 		.word	rxbuf1
 6355 02e4 38C00920 		.word	537509944
 6356 02e8 80E100E0 		.word	-536813184
 6357 02ec 00000000 		.word	clkn
 6358 02f0 08400040 		.word	1073758216
 6359 02f4 0C000340 		.word	1073938444
 6360 02f8 08000340 		.word	1073938440
 6361              	.L708:
 6362              	.LBE65:
2142:bluetooth_rxtx.c **** 		if (now <le.last_packet)
 6363              		.loc 1 2142 0
 6364 02fc 414B     		ldr	r3, .L711
 6365 02fe 424A     		ldr	r2, .L711+4
 6366 0300 1B68     		ldr	r3, [r3]
ARM GAS  /tmp/ccUrIl19.s 			page 175


 6367 0302 1268     		ldr	r2, [r2]
 6368 0304 40F63541 		movw	r1, #3125
 6369 0308 C3F31303 		ubfx	r3, r3, #0, #20
 6370 030c 01FB0323 		mla	r3, r1, r3, r2
 6371              	.LVL635:
2143:bluetooth_rxtx.c **** 			now += 3276800000;
 6372              		.loc 1 2143 0
 6373 0310 626C     		ldr	r2, [r4, #68]
2145:bluetooth_rxtx.c **** 			reset_le();
 6374              		.loc 1 2145 0
 6375 0312 217E     		ldrb	r1, [r4, #24]	@ zero_extendqisi2
2143:bluetooth_rxtx.c **** 			now += 3276800000;
 6376              		.loc 1 2143 0
 6377 0314 9342     		cmp	r3, r2
2145:bluetooth_rxtx.c **** 			reset_le();
 6378              		.loc 1 2145 0
 6379 0316 A1F10201 		sub	r1, r1, #2
2144:bluetooth_rxtx.c **** 		if ( ((le.link_state == LINK_CONNECTED || le.link_state == LINK_CONN_PENDING) && (now - le.last_p
 6380              		.loc 1 2144 0
 6381 031a 38BF     		it	cc
 6382 031c 03F14343 		addcc	r3, r3, #-1023410176
 6383              	.LVL636:
2145:bluetooth_rxtx.c **** 			reset_le();
 6384              		.loc 1 2145 0
 6385 0320 C9B2     		uxtb	r1, r1
2144:bluetooth_rxtx.c **** 		if ( ((le.link_state == LINK_CONNECTED || le.link_state == LINK_CONN_PENDING) && (now - le.last_p
 6386              		.loc 1 2144 0
 6387 0322 38BF     		it	cc
 6388 0324 03F5A003 		addcc	r3, r3, #5242880
 6389              	.LVL637:
2145:bluetooth_rxtx.c **** 			reset_le();
 6390              		.loc 1 2145 0
 6391 0328 0129     		cmp	r1, #1
 6392 032a 03D8     		bhi	.L676
2145:bluetooth_rxtx.c **** 			reset_le();
 6393              		.loc 1 2145 0 is_stmt 0 discriminator 1
 6394 032c 3749     		ldr	r1, .L711+8
 6395 032e 9B1A     		subs	r3, r3, r2
 6396              	.LVL638:
 6397 0330 8B42     		cmp	r3, r1
 6398 0332 02D8     		bhi	.L677
 6399              	.L676:
2145:bluetooth_rxtx.c **** 			reset_le();
 6400              		.loc 1 2145 0 discriminator 2
 6401 0334 EB69     		ldr	r3, [r5, #28]
 6402 0336 012B     		cmp	r3, #1
 6403 0338 25D1     		bne	.L678
 6404              	.L677:
2146:bluetooth_rxtx.c **** 			le_jam_count = 0;
 6405              		.loc 1 2146 0 is_stmt 1
 6406 033a FFF7FEFF 		bl	reset_le
 6407              	.LVL639:
2148:bluetooth_rxtx.c **** 			if (jam_mode == JAM_ONCE) {
 6408              		.loc 1 2148 0
 6409 033e 3449     		ldr	r1, .L711+12
2147:bluetooth_rxtx.c **** 			TXLED_CLR;
 6410              		.loc 1 2147 0
ARM GAS  /tmp/ccUrIl19.s 			page 176


 6411 0340 0023     		movs	r3, #0
2148:bluetooth_rxtx.c **** 			if (jam_mode == JAM_ONCE) {
 6412              		.loc 1 2148 0
 6413 0342 4FF48070 		mov	r0, #256
2147:bluetooth_rxtx.c **** 			TXLED_CLR;
 6414              		.loc 1 2147 0
 6415 0346 EB61     		str	r3, [r5, #28]
2148:bluetooth_rxtx.c **** 			if (jam_mode == JAM_ONCE) {
 6416              		.loc 1 2148 0
 6417 0348 0860     		str	r0, [r1]
2149:bluetooth_rxtx.c **** 				jam_mode = JAM_NONE;
 6418              		.loc 1 2149 0
 6419 034a E97C     		ldrb	r1, [r5, #19]	@ zero_extendqisi2
2147:bluetooth_rxtx.c **** 			TXLED_CLR;
 6420              		.loc 1 2147 0
 6421 034c 314A     		ldr	r2, .L711+16
2149:bluetooth_rxtx.c **** 				jam_mode = JAM_NONE;
 6422              		.loc 1 2149 0
 6423 034e 0129     		cmp	r1, #1
 6424 0350 02D1     		bne	.L679
2150:bluetooth_rxtx.c **** 				requested_mode = MODE_IDLE;
 6425              		.loc 1 2150 0
 6426 0352 D374     		strb	r3, [r2, #19]
2151:bluetooth_rxtx.c **** 				goto cleanup;
 6427              		.loc 1 2151 0
 6428 0354 9374     		strb	r3, [r2, #18]
2152:bluetooth_rxtx.c **** 			}
 6429              		.loc 1 2152 0
 6430 0356 47E0     		b	.L689
 6431              	.L679:
2154:bluetooth_rxtx.c **** 			cc2400_strobe(SRFOFF);
 6432              		.loc 1 2154 0
 6433 0358 0123     		movs	r3, #1
2155:bluetooth_rxtx.c **** 			while ((cc2400_status() & FS_LOCK));
 6434              		.loc 1 2155 0
 6435 035a 6420     		movs	r0, #100
2154:bluetooth_rxtx.c **** 			cc2400_strobe(SRFOFF);
 6436              		.loc 1 2154 0
 6437 035c 2376     		strb	r3, [r4, #24]
2155:bluetooth_rxtx.c **** 			while ((cc2400_status() & FS_LOCK));
 6438              		.loc 1 2155 0
 6439 035e FFF7FEFF 		bl	cc2400_strobe
 6440              	.LVL640:
 6441              	.L681:
2156:bluetooth_rxtx.c **** 
 6442              		.loc 1 2156 0 discriminator 1
 6443 0362 FFF7FEFF 		bl	cc2400_status
 6444              	.LVL641:
 6445 0366 4607     		lsls	r6, r0, #29
 6446 0368 FBD4     		bmi	.L681
2158:bluetooth_rxtx.c **** 			restart_jamming = 1;
 6447              		.loc 1 2158 0
 6448 036a B4F84A30 		ldrh	r3, [r4, #74]
 6449 036e 9BB2     		uxth	r3, r3
 6450 0370 23B1     		cbz	r3, .L691
2158:bluetooth_rxtx.c **** 			restart_jamming = 1;
 6451              		.loc 1 2158 0 is_stmt 0 discriminator 1
ARM GAS  /tmp/ccUrIl19.s 			page 177


 6452 0372 294B     		ldr	r3, .L711+20
 6453 0374 B3F84A30 		ldrh	r3, [r3, #74]
 6454 0378 9BB2     		uxth	r3, r3
 6455 037a 01E0     		b	.L682
 6456              	.L691:
2158:bluetooth_rxtx.c **** 			restart_jamming = 1;
 6457              		.loc 1 2158 0
 6458 037c 40F66213 		movw	r3, #2402
 6459              	.L682:
2158:bluetooth_rxtx.c **** 			restart_jamming = 1;
 6460              		.loc 1 2158 0 discriminator 3
 6461 0380 2380     		strh	r3, [r4]	@ movhi
2159:bluetooth_rxtx.c **** 		}
 6462              		.loc 1 2159 0 is_stmt 1 discriminator 3
 6463 0382 0123     		movs	r3, #1
 6464 0384 6B63     		str	r3, [r5, #52]
 6465              	.L678:
2162:bluetooth_rxtx.c **** 		cc2400_set(SYNCH, le.synch);
 6466              		.loc 1 2162 0
 6467 0386 2C20     		movs	r0, #44
 6468 0388 6189     		ldrh	r1, [r4, #10]
 6469 038a FFF7FEFF 		bl	cc2400_set
 6470              	.LVL642:
2163:bluetooth_rxtx.c **** 
 6471              		.loc 1 2163 0
 6472 038e 2D20     		movs	r0, #45
 6473 0390 2189     		ldrh	r1, [r4, #8]
 6474 0392 FFF7FEFF 		bl	cc2400_set
 6475              	.LVL643:
2165:bluetooth_rxtx.c **** 			hop();
 6476              		.loc 1 2165 0
 6477 0396 EB7A     		ldrb	r3, [r5, #11]	@ zero_extendqisi2
 6478 0398 0BB1     		cbz	r3, .L683
2166:bluetooth_rxtx.c **** 		if (le_jam_count > 0) {
 6479              		.loc 1 2166 0
 6480 039a FFF7FEFF 		bl	hop
 6481              	.LVL644:
 6482              	.L683:
2167:bluetooth_rxtx.c **** 			le_jam();
 6483              		.loc 1 2167 0
 6484 039e EB69     		ldr	r3, [r5, #28]
 6485 03a0 1C4E     		ldr	r6, .L711+16
 6486 03a2 002B     		cmp	r3, #0
 6487 03a4 05DD     		ble	.L684
2168:bluetooth_rxtx.c **** 			--le_jam_count;
 6488              		.loc 1 2168 0
 6489 03a6 FFF7FEFF 		bl	le_jam
 6490              	.LVL645:
2169:bluetooth_rxtx.c **** 		} else {
 6491              		.loc 1 2169 0
 6492 03aa F369     		ldr	r3, [r6, #28]
 6493 03ac 013B     		subs	r3, r3, #1
 6494 03ae F361     		str	r3, [r6, #28]
 6495 03b0 14E0     		b	.L685
 6496              	.L684:
2171:bluetooth_rxtx.c **** 			dio_ssp_start();
 6497              		.loc 1 2171 0
ARM GAS  /tmp/ccUrIl19.s 			page 178


 6498 03b2 FFF7FEFF 		bl	dma_init_le
 6499              	.LVL646:
2172:bluetooth_rxtx.c **** 
 6500              		.loc 1 2172 0
 6501 03b6 FFF7FEFF 		bl	dio_ssp_start
 6502              	.LVL647:
2174:bluetooth_rxtx.c **** 				cc2400_rx_sync(rbit(le.access_address));
 6503              		.loc 1 2174 0
 6504 03ba 736B     		ldr	r3, [r6, #52]
 6505 03bc 3BB1     		cbz	r3, .L688
2175:bluetooth_rxtx.c **** 				restart_jamming = 0;
 6506              		.loc 1 2175 0
 6507 03be 6068     		ldr	r0, [r4, #4]
 6508 03c0 FFF7FEFF 		bl	rbit
 6509              	.LVL648:
 6510 03c4 FFF7FEFF 		bl	cc2400_rx_sync
 6511              	.LVL649:
2176:bluetooth_rxtx.c **** 			} else {
 6512              		.loc 1 2176 0
 6513 03c8 0023     		movs	r3, #0
 6514 03ca 7363     		str	r3, [r6, #52]
 6515 03cc 06E0     		b	.L685
 6516              	.L688:
2178:bluetooth_rxtx.c **** 				cc2400_strobe(SRX);
 6517              		.loc 1 2178 0
 6518 03ce FFF7FEFF 		bl	cc2400_status
 6519              	.LVL650:
 6520 03d2 4007     		lsls	r0, r0, #29
 6521 03d4 FBD5     		bpl	.L688
2179:bluetooth_rxtx.c **** 			}
 6522              		.loc 1 2179 0
 6523 03d6 6220     		movs	r0, #98
 6524 03d8 FFF7FEFF 		bl	cc2400_strobe
 6525              	.LVL651:
 6526              	.L685:
2183:bluetooth_rxtx.c **** 
 6527              		.loc 1 2183 0 discriminator 1
 6528 03dc 0F4A     		ldr	r2, .L711+24
2182:bluetooth_rxtx.c **** 		rx_err = 0;
 6529              		.loc 1 2182 0 discriminator 1
 6530 03de 0023     		movs	r3, #0
 6531 03e0 C9F80030 		str	r3, [r9]
2183:bluetooth_rxtx.c **** 
 6532              		.loc 1 2183 0 discriminator 1
 6533 03e4 1360     		str	r3, [r2]
 6534 03e6 2EE6     		b	.L646
 6535              	.L689:
 6536              	.LBE55:
2189:bluetooth_rxtx.c **** 	cc2400_idle();
 6537              		.loc 1 2189 0
 6538 03e8 0D4B     		ldr	r3, .L711+28
 6539 03ea 4FF08072 		mov	r2, #16777216
 6540 03ee 1A60     		str	r2, [r3]
2190:bluetooth_rxtx.c **** 	dio_ssp_stop ();
 6541              		.loc 1 2190 0
 6542 03f0 FFF7FEFF 		bl	cc2400_idle
 6543              	.LVL652:
ARM GAS  /tmp/ccUrIl19.s 			page 179


2191:bluetooth_rxtx.c **** 	cs_trigger_disable();
 6544              		.loc 1 2191 0
 6545 03f4 FFF7FEFF 		bl	dio_ssp_stop
 6546              	.LVL653:
2192:bluetooth_rxtx.c **** }
 6547              		.loc 1 2192 0
 6548 03f8 FFF7FEFF 		bl	cs_trigger_disable
 6549              	.LVL654:
2193:bluetooth_rxtx.c **** 
 6550              		.loc 1 2193 0
 6551 03fc 1DB0     		add	sp, sp, #116
 6552              		@ sp needed
 6553 03fe BDE8F08F 		pop	{r4, r5, r6, r7, r8, r9, r10, fp, pc}
 6554              	.L712:
 6555 0402 00BF     		.align	2
 6556              	.L711:
 6557 0404 00000000 		.word	clkn
 6558 0408 08400040 		.word	1073758216
 6559 040c 80F0FA02 		.word	50000000
 6560 0410 3CC00920 		.word	537509948
 6561 0414 00000000 		.word	.LANCHOR0
 6562 0418 00000000 		.word	.LANCHOR1
 6563 041c 00000000 		.word	rx_err
 6564 0420 80E100E0 		.word	-536813184
 6565              		.cfi_endproc
 6566              	.LFE25:
 6568              		.section	.text.bt_follow_le,"ax",%progbits
 6569              		.align	1
 6570              		.global	bt_follow_le
 6571              		.thumb
 6572              		.thumb_func
 6574              	bt_follow_le:
 6575              	.LFB28:
2356:bluetooth_rxtx.c **** 		}
2357:bluetooth_rxtx.c **** 	}
2358:bluetooth_rxtx.c **** }
2359:bluetooth_rxtx.c **** 
2360:bluetooth_rxtx.c **** void bt_follow_le() {
 6576              		.loc 1 2360 0
 6577              		.cfi_startproc
 6578              		@ args = 0, pretend = 0, frame = 0
 6579              		@ frame_needed = 0, uses_anonymous_args = 0
 6580 0000 10B5     		push	{r4, lr}
 6581              		.cfi_def_cfa_offset 8
 6582              		.cfi_offset 4, -8
 6583              		.cfi_offset 14, -4
2361:bluetooth_rxtx.c **** 	reset_le();
 6584              		.loc 1 2361 0
 6585 0002 FFF7FEFF 		bl	reset_le
 6586              	.LVL655:
2362:bluetooth_rxtx.c **** 	packet_cb = connection_follow_cb;
 6587              		.loc 1 2362 0
 6588 0006 044C     		ldr	r4, .L714
 6589 0008 044B     		ldr	r3, .L714+4
2363:bluetooth_rxtx.c **** 	bt_le_sync(MODE_BT_FOLLOW_LE);
 6590              		.loc 1 2363 0
 6591 000a 0920     		movs	r0, #9
ARM GAS  /tmp/ccUrIl19.s 			page 180


2362:bluetooth_rxtx.c **** 	packet_cb = connection_follow_cb;
 6592              		.loc 1 2362 0
 6593 000c A361     		str	r3, [r4, #24]
 6594              		.loc 1 2363 0
 6595 000e FFF7FEFF 		bl	bt_le_sync
 6596              	.LVL656:
2364:bluetooth_rxtx.c **** 
2365:bluetooth_rxtx.c **** 	/* old non-sync mode
2366:bluetooth_rxtx.c **** 	data_cb = cb_follow_le;
2367:bluetooth_rxtx.c **** 	packet_cb = connection_follow_cb;
2368:bluetooth_rxtx.c **** 	bt_generic_le(MODE_BT_FOLLOW_LE);
2369:bluetooth_rxtx.c **** 	*/
2370:bluetooth_rxtx.c **** 
2371:bluetooth_rxtx.c **** 	mode = MODE_IDLE;
 6597              		.loc 1 2371 0
 6598 0012 0023     		movs	r3, #0
 6599 0014 6374     		strb	r3, [r4, #17]
 6600 0016 10BD     		pop	{r4, pc}
 6601              	.L715:
 6602              		.align	2
 6603              	.L714:
 6604 0018 00000000 		.word	.LANCHOR0
 6605 001c 00000000 		.word	connection_follow_cb
 6606              		.cfi_endproc
 6607              	.LFE28:
 6609              		.section	.text.bt_tracking_le,"ax",%progbits
 6610              		.align	1
 6611              		.global	bt_tracking_le
 6612              		.thumb
 6613              		.thumb_func
 6615              	bt_tracking_le:
 6616              	.LFB29:
2372:bluetooth_rxtx.c **** }
2373:bluetooth_rxtx.c **** 
2374:bluetooth_rxtx.c **** //JWHUR rssi estimation tracking
2375:bluetooth_rxtx.c **** void bt_tracking_le(uint8_t tracking_mode) {
 6617              		.loc 1 2375 0
 6618              		.cfi_startproc
 6619              		@ args = 0, pretend = 0, frame = 0
 6620              		@ frame_needed = 0, uses_anonymous_args = 0
 6621              	.LVL657:
 6622 0000 38B5     		push	{r3, r4, r5, lr}
 6623              		.cfi_def_cfa_offset 16
 6624              		.cfi_offset 3, -16
 6625              		.cfi_offset 4, -12
 6626              		.cfi_offset 5, -8
 6627              		.cfi_offset 14, -4
 6628              		.loc 1 2375 0
 6629 0002 0446     		mov	r4, r0
2376:bluetooth_rxtx.c **** 	reset_le();
 6630              		.loc 1 2376 0
 6631 0004 FFF7FEFF 		bl	reset_le
 6632              	.LVL658:
2377:bluetooth_rxtx.c **** 	packet_cb = connection_follow_cb;
 6633              		.loc 1 2377 0
 6634 0008 084B     		ldr	r3, .L719
 6635 000a 094A     		ldr	r2, .L719+4
ARM GAS  /tmp/ccUrIl19.s 			page 181


2378:bluetooth_rxtx.c **** 	if (tracking_mode == MODE_BT_CFO_LE) bt_le_sync_cfo(MODE_BT_CFO_LE);
 6636              		.loc 1 2378 0
 6637 000c 112C     		cmp	r4, #17
2377:bluetooth_rxtx.c **** 	packet_cb = connection_follow_cb;
 6638              		.loc 1 2377 0
 6639 000e 9A61     		str	r2, [r3, #24]
 6640 0010 1D46     		mov	r5, r3
 6641              		.loc 1 2378 0
 6642 0012 03D1     		bne	.L717
 6643              		.loc 1 2378 0 is_stmt 0 discriminator 1
 6644 0014 2046     		mov	r0, r4
 6645 0016 FFF7FEFF 		bl	bt_le_sync_cfo
 6646              	.LVL659:
 6647 001a 04E0     		b	.L718
 6648              	.L717:
2379:bluetooth_rxtx.c **** 	if (tracking_mode == MODE_BT_RSSI_LE) bt_le_sync_rssi(MODE_BT_RSSI_LE);
 6649              		.loc 1 2379 0 is_stmt 1
 6650 001c 122C     		cmp	r4, #18
 6651 001e 02D1     		bne	.L718
 6652              		.loc 1 2379 0 is_stmt 0 discriminator 1
 6653 0020 2046     		mov	r0, r4
 6654 0022 FFF7FEFF 		bl	bt_le_sync_rssi
 6655              	.LVL660:
 6656              	.L718:
2380:bluetooth_rxtx.c **** 	mode = MODE_IDLE;
 6657              		.loc 1 2380 0 is_stmt 1
 6658 0026 0023     		movs	r3, #0
 6659 0028 6B74     		strb	r3, [r5, #17]
 6660 002a 38BD     		pop	{r3, r4, r5, pc}
 6661              	.L720:
 6662              		.align	2
 6663              	.L719:
 6664 002c 00000000 		.word	.LANCHOR0
 6665 0030 00000000 		.word	connection_follow_cb
 6666              		.cfi_endproc
 6667              	.LFE29:
 6669              		.section	.text.le_promisc_state,"ax",%progbits
 6670              		.align	1
 6671              		.global	le_promisc_state
 6672              		.thumb
 6673              		.thumb_func
 6675              	le_promisc_state:
 6676              	.LFB30:
2381:bluetooth_rxtx.c **** }
2382:bluetooth_rxtx.c **** 
2383:bluetooth_rxtx.c **** // issue state change message
2384:bluetooth_rxtx.c **** void le_promisc_state(u8 type, void *data, unsigned len) {
 6677              		.loc 1 2384 0
 6678              		.cfi_startproc
 6679              		@ args = 0, pretend = 0, frame = 56
 6680              		@ frame_needed = 0, uses_anonymous_args = 0
 6681              	.LVL661:
 6682 0000 70B5     		push	{r4, r5, r6, lr}
 6683              		.cfi_def_cfa_offset 16
 6684              		.cfi_offset 4, -16
 6685              		.cfi_offset 5, -12
 6686              		.cfi_offset 6, -8
ARM GAS  /tmp/ccUrIl19.s 			page 182


 6687              		.cfi_offset 14, -4
 6688 0002 8EB0     		sub	sp, sp, #56
 6689              		.cfi_def_cfa_offset 72
 6690              		.loc 1 2384 0
 6691 0004 0646     		mov	r6, r0
 6692 0006 0D46     		mov	r5, r1
 6693 0008 1446     		mov	r4, r2
2385:bluetooth_rxtx.c **** 	u8 buf[50] = { 0, };
 6694              		.loc 1 2385 0
 6695 000a 01A8     		add	r0, sp, #4
 6696              	.LVL662:
 6697 000c 0021     		movs	r1, #0
 6698              	.LVL663:
 6699 000e 3222     		movs	r2, #50
 6700              	.LVL664:
 6701 0010 FFF7FEFF 		bl	memset
 6702              	.LVL665:
2386:bluetooth_rxtx.c **** 	if (len > 49)
2387:bluetooth_rxtx.c **** 		len = 49;
2388:bluetooth_rxtx.c **** 
2389:bluetooth_rxtx.c **** 	buf[0] = type;
2390:bluetooth_rxtx.c **** 	memcpy(&buf[1], data, len);
 6703              		.loc 1 2390 0
 6704 0014 2946     		mov	r1, r5
 6705 0016 312C     		cmp	r4, #49
 6706 0018 34BF     		ite	cc
 6707 001a 2246     		movcc	r2, r4
 6708 001c 3122     		movcs	r2, #49
 6709              	.LVL666:
 6710 001e 0DF10500 		add	r0, sp, #5
2389:bluetooth_rxtx.c **** 	memcpy(&buf[1], data, len);
 6711              		.loc 1 2389 0
 6712 0022 8DF80460 		strb	r6, [sp, #4]
 6713              		.loc 1 2390 0
 6714 0026 FFF7FEFF 		bl	memcpy
 6715              	.LVL667:
2391:bluetooth_rxtx.c **** 	enqueue(LE_PROMISC, (uint8_t*)buf);
 6716              		.loc 1 2391 0
 6717 002a 01A9     		add	r1, sp, #4
 6718 002c 0520     		movs	r0, #5
 6719 002e FFF7FEFF 		bl	enqueue
 6720              	.LVL668:
2392:bluetooth_rxtx.c **** }
 6721              		.loc 1 2392 0
 6722 0032 0EB0     		add	sp, sp, #56
 6723              		@ sp needed
 6724 0034 70BD     		pop	{r4, r5, r6, pc}
 6725              		.cfi_endproc
 6726              	.LFE30:
 6728              		.section	.text.promisc_recover_hop_increment,"ax",%progbits
 6729              		.align	1
 6730              		.global	promisc_recover_hop_increment
 6731              		.thumb
 6732              		.thumb_func
 6734              	promisc_recover_hop_increment:
 6735              	.LFB31:
2393:bluetooth_rxtx.c **** 
ARM GAS  /tmp/ccUrIl19.s 			page 183


2394:bluetooth_rxtx.c **** // divide, rounding to the nearest integer: round up at 0.5.
2395:bluetooth_rxtx.c **** #define DIVIDE_ROUND(N, D) ((N) + (D)/2) / (D)
2396:bluetooth_rxtx.c **** 
2397:bluetooth_rxtx.c **** void promisc_recover_hop_increment(u8 *packet) {
 6736              		.loc 1 2397 0
 6737              		.cfi_startproc
 6738              		@ args = 0, pretend = 0, frame = 0
 6739              		@ frame_needed = 0, uses_anonymous_args = 0
 6740              	.LVL669:
 6741 0000 38B5     		push	{r3, r4, r5, lr}
 6742              		.cfi_def_cfa_offset 16
 6743              		.cfi_offset 3, -16
 6744              		.cfi_offset 4, -12
 6745              		.cfi_offset 5, -8
 6746              		.cfi_offset 14, -4
2398:bluetooth_rxtx.c **** 	static u32 first_ts = 0;
2399:bluetooth_rxtx.c **** 	if (channel == 2404) {
 6747              		.loc 1 2399 0
 6748 0002 314A     		ldr	r2, .L731
 6749 0004 40F66413 		movw	r3, #2404
 6750 0008 1188     		ldrh	r1, [r2]
 6751 000a 304C     		ldr	r4, .L731+4
 6752 000c 89B2     		uxth	r1, r1
 6753 000e 9942     		cmp	r1, r3
 6754 0010 0DD1     		bne	.L723
2400:bluetooth_rxtx.c **** 		first_ts = CLK100NS;
 6755              		.loc 1 2400 0
 6756 0012 2F4B     		ldr	r3, .L731+8
 6757 0014 2F4A     		ldr	r2, .L731+12
 6758 0016 1B68     		ldr	r3, [r3]
 6759 0018 1268     		ldr	r2, [r2]
 6760 001a C3F31303 		ubfx	r3, r3, #0, #20
 6761 001e 40F63541 		movw	r1, #3125
 6762 0022 01FB0323 		mla	r3, r1, r3, r2
 6763 0026 A363     		str	r3, [r4, #56]
2401:bluetooth_rxtx.c **** 		hop_direct_channel = 2406;
 6764              		.loc 1 2401 0
 6765 0028 40F66613 		movw	r3, #2406
 6766 002c 48E0     		b	.L725
 6767              	.L723:
2402:bluetooth_rxtx.c **** 		do_hop = 1;
2403:bluetooth_rxtx.c **** 	} else if (channel == 2406) {
 6768              		.loc 1 2403 0
 6769 002e 1088     		ldrh	r0, [r2]
 6770              	.LVL670:
 6771 0030 40F66611 		movw	r1, #2406
 6772 0034 80B2     		uxth	r0, r0
 6773 0036 8842     		cmp	r0, r1
 6774 0038 42D1     		bne	.L725
 6775              	.LVL671:
 6776              	.LBB70:
 6777              	.LBB71:
 6778              	.LBB72:
2404:bluetooth_rxtx.c **** 		u32 second_ts = CLK100NS;
 6779              		.loc 1 2404 0
 6780 003a 254B     		ldr	r3, .L731+8
 6781 003c 2549     		ldr	r1, .L731+12
ARM GAS  /tmp/ccUrIl19.s 			page 184


 6782 003e 1B68     		ldr	r3, [r3]
 6783 0040 0968     		ldr	r1, [r1]
 6784 0042 40F63540 		movw	r0, #3125
 6785 0046 C3F31303 		ubfx	r3, r3, #0, #20
 6786 004a 00FB0313 		mla	r3, r0, r3, r1
 6787              	.LVL672:
2405:bluetooth_rxtx.c **** 		if (second_ts < first_ts)
 6788              		.loc 1 2405 0
 6789 004e A06B     		ldr	r0, [r4, #56]
2406:bluetooth_rxtx.c **** 			second_ts += 3276800000; // handle rollover
2407:bluetooth_rxtx.c **** 		// Number of channels hopped between previous and current timestamp.
2408:bluetooth_rxtx.c **** 		u32 channels_hopped = DIVIDE_ROUND(second_ts - first_ts,
 6790              		.loc 1 2408 0
 6791 0050 528C     		ldrh	r2, [r2, #34]
2405:bluetooth_rxtx.c **** 		if (second_ts < first_ts)
 6792              		.loc 1 2405 0
 6793 0052 8342     		cmp	r3, r0
2406:bluetooth_rxtx.c **** 			second_ts += 3276800000; // handle rollover
 6794              		.loc 1 2406 0
 6795 0054 3CBF     		itt	cc
 6796 0056 03F14343 		addcc	r3, r3, #-1023410176
 6797              	.LVL673:
 6798 005a 03F5A003 		addcc	r3, r3, #5242880
 6799              	.LVL674:
 6800              		.loc 1 2408 0
 6801 005e 1B1A     		subs	r3, r3, r0
 6802              	.LVL675:
 6803 0060 43F2D405 		movw	r5, #12500
 6804 0064 41F66A00 		movw	r0, #6250
 6805 0068 00FB0233 		mla	r3, r0, r2, r3
 6806 006c 5543     		muls	r5, r2, r5
 6807 006e B3FBF5F3 		udiv	r3, r3, r5
 6808              	.LVL676:
2409:bluetooth_rxtx.c **** 										   le.conn_interval * LE_BASECLK);
2410:bluetooth_rxtx.c **** 		if (channels_hopped < 37) {
 6809              		.loc 1 2410 0
 6810 0072 242B     		cmp	r3, #36
2408:bluetooth_rxtx.c **** 										   le.conn_interval * LE_BASECLK);
 6811              		.loc 1 2408 0
 6812 0074 1449     		ldr	r1, .L731
 6813              		.loc 1 2410 0
 6814 0076 21D8     		bhi	.L727
2411:bluetooth_rxtx.c **** 			// Get the hop increment based on the number of channels hopped.
2412:bluetooth_rxtx.c **** 			le.channel_increment = hop_interval_lut[channels_hopped];
 6815              		.loc 1 2412 0
 6816 0078 1748     		ldr	r0, .L731+16
2413:bluetooth_rxtx.c **** 			le.interval_timer = le.conn_interval / 2;
 6817              		.loc 1 2413 0
 6818 007a 5208     		lsrs	r2, r2, #1
2412:bluetooth_rxtx.c **** 			le.interval_timer = le.conn_interval / 2;
 6819              		.loc 1 2412 0
 6820 007c 0344     		add	r3, r3, r0
 6821              	.LVL677:
 6822 007e 93F87008 		ldrb	r0, [r3, #2160]	@ zero_extendqisi2
 6823              		.loc 1 2413 0
 6824 0082 0A84     		strh	r2, [r1, #32]	@ movhi
2412:bluetooth_rxtx.c **** 			le.interval_timer = le.conn_interval / 2;
ARM GAS  /tmp/ccUrIl19.s 			page 185


 6825              		.loc 1 2412 0
 6826 0084 8876     		strb	r0, [r1, #26]
2414:bluetooth_rxtx.c **** 			le.conn_count = 0;
2415:bluetooth_rxtx.c **** 			le.conn_epoch = 0;
2416:bluetooth_rxtx.c **** 			do_hop = 0;
2417:bluetooth_rxtx.c **** 			// Move on to regular connection following.
2418:bluetooth_rxtx.c **** 			le.channel_idx = (1 + le.channel_increment) % 37;
 6827              		.loc 1 2418 0
 6828 0086 2522     		movs	r2, #37
 6829 0088 0130     		adds	r0, r0, #1
 6830 008a 90FBF2F5 		sdiv	r5, r0, r2
 6831 008e 02FB1502 		mls	r2, r2, r5, r0
2414:bluetooth_rxtx.c **** 			le.conn_count = 0;
 6832              		.loc 1 2414 0
 6833 0092 0023     		movs	r3, #0
 6834              	.LVL678:
 6835 0094 8B84     		strh	r3, [r1, #36]	@ movhi
2415:bluetooth_rxtx.c **** 			do_hop = 0;
 6836              		.loc 1 2415 0
 6837 0096 CB61     		str	r3, [r1, #28]
2416:bluetooth_rxtx.c **** 			// Move on to regular connection following.
 6838              		.loc 1 2416 0
 6839 0098 E372     		strb	r3, [r4, #11]
2419:bluetooth_rxtx.c **** 			le.link_state = LINK_CONNECTED;
 6840              		.loc 1 2419 0
 6841 009a 0320     		movs	r0, #3
2420:bluetooth_rxtx.c **** 			le.crc_verify = 0;
 6842              		.loc 1 2420 0
 6843 009c 4B61     		str	r3, [r1, #20]
2421:bluetooth_rxtx.c **** 			hop_mode = HOP_BTLE;
2422:bluetooth_rxtx.c **** 			packet_cb = connection_follow_cb;
 6844              		.loc 1 2422 0
 6845 009e 0F4B     		ldr	r3, .L731+20
2418:bluetooth_rxtx.c **** 			le.link_state = LINK_CONNECTED;
 6846              		.loc 1 2418 0
 6847 00a0 4A76     		strb	r2, [r1, #25]
2419:bluetooth_rxtx.c **** 			le.crc_verify = 0;
 6848              		.loc 1 2419 0
 6849 00a2 0876     		strb	r0, [r1, #24]
2423:bluetooth_rxtx.c **** 			le_promisc_state(3, &le.channel_increment, 1);
 6850              		.loc 1 2423 0
 6851 00a4 0122     		movs	r2, #1
 6852 00a6 1A31     		adds	r1, r1, #26
2422:bluetooth_rxtx.c **** 			le_promisc_state(3, &le.channel_increment, 1);
 6853              		.loc 1 2422 0
 6854 00a8 A361     		str	r3, [r4, #24]
2421:bluetooth_rxtx.c **** 			packet_cb = connection_follow_cb;
 6855              		.loc 1 2421 0
 6856 00aa A072     		strb	r0, [r4, #10]
 6857              		.loc 1 2423 0
 6858 00ac FFF7FEFF 		bl	le_promisc_state
 6859              	.LVL679:
2424:bluetooth_rxtx.c **** 
2425:bluetooth_rxtx.c **** 			if (jam_mode != JAM_NONE)
 6860              		.loc 1 2425 0
 6861 00b0 E37C     		ldrb	r3, [r4, #19]	@ zero_extendqisi2
 6862 00b2 43B1     		cbz	r3, .L722
ARM GAS  /tmp/ccUrIl19.s 			page 186


2426:bluetooth_rxtx.c **** 				le_jam_count = JAM_COUNT_DEFAULT;
 6863              		.loc 1 2426 0
 6864 00b4 054B     		ldr	r3, .L731+4
 6865 00b6 2822     		movs	r2, #40
 6866 00b8 DA61     		str	r2, [r3, #28]
 6867 00ba 38BD     		pop	{r3, r4, r5, pc}
 6868              	.LVL680:
 6869              	.L727:
2427:bluetooth_rxtx.c **** 
2428:bluetooth_rxtx.c **** 			return;
2429:bluetooth_rxtx.c **** 		}
2430:bluetooth_rxtx.c **** 		hop_direct_channel = 2404;
 6870              		.loc 1 2430 0
 6871 00bc 40F66413 		movw	r3, #2404
 6872              	.LVL681:
 6873              	.L725:
 6874              	.LBE72:
 6875              	.LBE71:
 6876              	.LBE70:
2431:bluetooth_rxtx.c **** 		do_hop = 1;
2432:bluetooth_rxtx.c **** 	}
2433:bluetooth_rxtx.c **** 	else {
2434:bluetooth_rxtx.c **** 		hop_direct_channel = 2404;
 6877              		.loc 1 2434 0
 6878 00c0 A381     		strh	r3, [r4, #12]	@ movhi
2435:bluetooth_rxtx.c **** 		do_hop = 1;
 6879              		.loc 1 2435 0
 6880 00c2 0123     		movs	r3, #1
 6881 00c4 E372     		strb	r3, [r4, #11]
 6882              	.L722:
 6883 00c6 38BD     		pop	{r3, r4, r5, pc}
 6884              	.L732:
 6885              		.align	2
 6886              	.L731:
 6887 00c8 00000000 		.word	.LANCHOR1
 6888 00cc 00000000 		.word	.LANCHOR0
 6889 00d0 00000000 		.word	clkn
 6890 00d4 08400040 		.word	1073758216
 6891 00d8 00000000 		.word	.LANCHOR2
 6892 00dc 00000000 		.word	connection_follow_cb
 6893              		.cfi_endproc
 6894              	.LFE31:
 6896              		.section	.text.promisc_recover_hop_interval,"ax",%progbits
 6897              		.align	1
 6898              		.global	promisc_recover_hop_interval
 6899              		.thumb
 6900              		.thumb_func
 6902              	promisc_recover_hop_interval:
 6903              	.LFB32:
2436:bluetooth_rxtx.c **** 	}
2437:bluetooth_rxtx.c **** }
2438:bluetooth_rxtx.c **** 
2439:bluetooth_rxtx.c **** void promisc_recover_hop_interval(u8 *packet) {
 6904              		.loc 1 2439 0
 6905              		.cfi_startproc
 6906              		@ args = 0, pretend = 0, frame = 0
 6907              		@ frame_needed = 0, uses_anonymous_args = 0
ARM GAS  /tmp/ccUrIl19.s 			page 187


 6908              	.LVL682:
 6909 0000 38B5     		push	{r3, r4, r5, lr}
 6910              		.cfi_def_cfa_offset 16
 6911              		.cfi_offset 3, -16
 6912              		.cfi_offset 4, -12
 6913              		.cfi_offset 5, -8
 6914              		.cfi_offset 14, -4
2440:bluetooth_rxtx.c **** 	static u32 prev_clk = 0;
2441:bluetooth_rxtx.c **** 
2442:bluetooth_rxtx.c **** 	u32 cur_clk = CLK100NS;
 6915              		.loc 1 2442 0
 6916 0002 254B     		ldr	r3, .L739
 6917 0004 40F63542 		movw	r2, #3125
 6918 0008 1C68     		ldr	r4, [r3]
 6919 000a 244B     		ldr	r3, .L739+4
 6920 000c C4F31304 		ubfx	r4, r4, #0, #20
 6921 0010 1B68     		ldr	r3, [r3]
2443:bluetooth_rxtx.c **** 	if (cur_clk < prev_clk)
 6922              		.loc 1 2443 0
 6923 0012 234D     		ldr	r5, .L739+8
2442:bluetooth_rxtx.c **** 	if (cur_clk < prev_clk)
 6924              		.loc 1 2442 0
 6925 0014 02FB0434 		mla	r4, r2, r4, r3
 6926              	.LVL683:
 6927              		.loc 1 2443 0
 6928 0018 EB6B     		ldr	r3, [r5, #60]
 6929 001a 9C42     		cmp	r4, r3
 6930 001c 05D2     		bcs	.L734
2444:bluetooth_rxtx.c **** 		cur_clk += 3267800000; // handle rollover
 6931              		.loc 1 2444 0
 6932 001e 04F14344 		add	r4, r4, #-1023410176
 6933              	.LVL684:
 6934 0022 A4F56514 		sub	r4, r4, #3751936
 6935              	.LVL685:
 6936 0026 A4F5A254 		sub	r4, r4, #5184
 6937              	.LVL686:
 6938              	.L734:
2445:bluetooth_rxtx.c **** 	u32 clk_diff = cur_clk - prev_clk;
 6939              		.loc 1 2445 0
 6940 002a E31A     		subs	r3, r4, r3
 6941              	.LVL687:
2446:bluetooth_rxtx.c **** 	u16 obsv_hop_interval; // observed hop interval
2447:bluetooth_rxtx.c **** 
2448:bluetooth_rxtx.c **** 	// probably consecutive data packets on the same channel
2449:bluetooth_rxtx.c **** 	if (clk_diff < 2 * LE_BASECLK)
 6942              		.loc 1 2449 0
 6943 002c 46F2A712 		movw	r2, #24999
 6944 0030 9342     		cmp	r3, r2
 6945 0032 30D9     		bls	.L733
2450:bluetooth_rxtx.c **** 		return;
2451:bluetooth_rxtx.c **** 
2452:bluetooth_rxtx.c **** 	if (clk_diff < le_promisc.smallest_hop_interval)
 6946              		.loc 1 2452 0
 6947 0034 1B4A     		ldr	r2, .L739+12
 6948 0036 D2F80011 		ldr	r1, [r2, #256]
 6949 003a 8B42     		cmp	r3, r1
2453:bluetooth_rxtx.c **** 		le_promisc.smallest_hop_interval = clk_diff;
ARM GAS  /tmp/ccUrIl19.s 			page 188


 6950              		.loc 1 2453 0
 6951 003c 38BF     		it	cc
 6952 003e C2F80031 		strcc	r3, [r2, #256]
2454:bluetooth_rxtx.c **** 
2455:bluetooth_rxtx.c **** 	obsv_hop_interval = DIVIDE_ROUND(le_promisc.smallest_hop_interval, 37 * LE_BASECLK);
 6953              		.loc 1 2455 0
 6954 0042 D2F80021 		ldr	r2, [r2, #256]
 6955 0046 1849     		ldr	r1, .L739+16
 6956 0048 02F56132 		add	r2, r2, #230400
 6957 004c 02F25232 		addw	r2, r2, #850
 6958 0050 B2FBF1F2 		udiv	r2, r2, r1
2456:bluetooth_rxtx.c **** 
2457:bluetooth_rxtx.c **** 	if (le.conn_interval == obsv_hop_interval) {
 6959              		.loc 1 2457 0
 6960 0054 1549     		ldr	r1, .L739+20
2455:bluetooth_rxtx.c **** 
 6961              		.loc 1 2455 0
 6962 0056 92B2     		uxth	r2, r2
 6963              	.LVL688:
 6964              		.loc 1 2457 0
 6965 0058 488C     		ldrh	r0, [r1, #34]
 6966              	.LVL689:
2455:bluetooth_rxtx.c **** 
 6967              		.loc 1 2455 0
 6968 005a 124B     		ldr	r3, .L739+12
 6969              	.LVL690:
 6970              		.loc 1 2457 0
 6971 005c 9042     		cmp	r0, r2
 6972 005e 15D1     		bne	.L737
2458:bluetooth_rxtx.c **** 		// 5 consecutive hop intervals: consider it legit and move on
2459:bluetooth_rxtx.c **** 		++le_promisc.consec_intervals;
 6973              		.loc 1 2459 0
 6974 0060 D3F80421 		ldr	r2, [r3, #260]
 6975              	.LVL691:
 6976 0064 0132     		adds	r2, r2, #1
2460:bluetooth_rxtx.c **** 		if (le_promisc.consec_intervals == 5) {
 6977              		.loc 1 2460 0
 6978 0066 052A     		cmp	r2, #5
2459:bluetooth_rxtx.c **** 		if (le_promisc.consec_intervals == 5) {
 6979              		.loc 1 2459 0
 6980 0068 C3F80421 		str	r2, [r3, #260]
 6981              		.loc 1 2460 0
 6982 006c 12D1     		bne	.L738
2461:bluetooth_rxtx.c **** 			packet_cb = promisc_recover_hop_increment;
 6983              		.loc 1 2461 0
 6984 006e 104B     		ldr	r3, .L739+24
2462:bluetooth_rxtx.c **** 			hop_direct_channel = 2404;
2463:bluetooth_rxtx.c **** 			hop_mode = HOP_DIRECT;
2464:bluetooth_rxtx.c **** 			do_hop = 1;
2465:bluetooth_rxtx.c **** 			le_promisc_state(2, &le.conn_interval, 2);
 6985              		.loc 1 2465 0
 6986 0070 0220     		movs	r0, #2
2461:bluetooth_rxtx.c **** 			packet_cb = promisc_recover_hop_increment;
 6987              		.loc 1 2461 0
 6988 0072 AB61     		str	r3, [r5, #24]
2462:bluetooth_rxtx.c **** 			hop_direct_channel = 2404;
 6989              		.loc 1 2462 0
ARM GAS  /tmp/ccUrIl19.s 			page 189


 6990 0074 40F66413 		movw	r3, #2404
 6991 0078 AB81     		strh	r3, [r5, #12]	@ movhi
2463:bluetooth_rxtx.c **** 			do_hop = 1;
 6992              		.loc 1 2463 0
 6993 007a 0423     		movs	r3, #4
 6994 007c AB72     		strb	r3, [r5, #10]
 6995              		.loc 1 2465 0
 6996 007e 2231     		adds	r1, r1, #34
2464:bluetooth_rxtx.c **** 			le_promisc_state(2, &le.conn_interval, 2);
 6997              		.loc 1 2464 0
 6998 0080 0123     		movs	r3, #1
 6999              		.loc 1 2465 0
 7000 0082 0246     		mov	r2, r0
2464:bluetooth_rxtx.c **** 			le_promisc_state(2, &le.conn_interval, 2);
 7001              		.loc 1 2464 0
 7002 0084 EB72     		strb	r3, [r5, #11]
 7003              		.loc 1 2465 0
 7004 0086 FFF7FEFF 		bl	le_promisc_state
 7005              	.LVL692:
 7006 008a 03E0     		b	.L738
 7007              	.LVL693:
 7008              	.L737:
2466:bluetooth_rxtx.c **** 		}
2467:bluetooth_rxtx.c **** 	} else {
2468:bluetooth_rxtx.c **** 		le.conn_interval = obsv_hop_interval;
 7009              		.loc 1 2468 0
 7010 008c 4A84     		strh	r2, [r1, #34]	@ movhi
2469:bluetooth_rxtx.c **** 		le_promisc.consec_intervals = 0;
 7011              		.loc 1 2469 0
 7012 008e 0022     		movs	r2, #0
 7013              	.LVL694:
 7014 0090 C3F80421 		str	r2, [r3, #260]
 7015              	.LVL695:
 7016              	.L738:
2470:bluetooth_rxtx.c **** 	}
2471:bluetooth_rxtx.c **** 
2472:bluetooth_rxtx.c **** 	prev_clk = cur_clk;
 7017              		.loc 1 2472 0
 7018 0094 EC63     		str	r4, [r5, #60]
 7019              	.L733:
 7020 0096 38BD     		pop	{r3, r4, r5, pc}
 7021              	.LVL696:
 7022              	.L740:
 7023              		.align	2
 7024              	.L739:
 7025 0098 00000000 		.word	clkn
 7026 009c 08400040 		.word	1073758216
 7027 00a0 00000000 		.word	.LANCHOR0
 7028 00a4 00000000 		.word	le_promisc
 7029 00a8 A40E0700 		.word	462500
 7030 00ac 00000000 		.word	.LANCHOR1
 7031 00b0 00000000 		.word	promisc_recover_hop_increment
 7032              		.cfi_endproc
 7033              	.LFE32:
 7035              		.section	.text.promisc_follow_cb,"ax",%progbits
 7036              		.align	1
 7037              		.global	promisc_follow_cb
ARM GAS  /tmp/ccUrIl19.s 			page 190


 7038              		.thumb
 7039              		.thumb_func
 7041              	promisc_follow_cb:
 7042              	.LFB33:
2473:bluetooth_rxtx.c **** }
2474:bluetooth_rxtx.c **** 
2475:bluetooth_rxtx.c **** void promisc_follow_cb(u8 *packet) {
 7043              		.loc 1 2475 0
 7044              		.cfi_startproc
 7045              		@ args = 0, pretend = 0, frame = 0
 7046              		@ frame_needed = 0, uses_anonymous_args = 0
 7047              	.LVL697:
 7048 0000 38B5     		push	{r3, r4, r5, lr}
 7049              		.cfi_def_cfa_offset 16
 7050              		.cfi_offset 3, -16
 7051              		.cfi_offset 4, -12
 7052              		.cfi_offset 5, -8
 7053              		.cfi_offset 14, -4
2476:bluetooth_rxtx.c **** 	int i;
2477:bluetooth_rxtx.c **** 
2478:bluetooth_rxtx.c **** 	// get the CRCInit
2479:bluetooth_rxtx.c **** 	if (!le.crc_verify && packet[4] == 0x01 && packet[5] == 0x00) {
 7054              		.loc 1 2479 0
 7055 0002 184C     		ldr	r4, .L746
2475:bluetooth_rxtx.c **** 	int i;
 7056              		.loc 1 2475 0
 7057 0004 0146     		mov	r1, r0
 7058              		.loc 1 2479 0
 7059 0006 6369     		ldr	r3, [r4, #20]
 7060 0008 53BB     		cbnz	r3, .L741
 7061              		.loc 1 2479 0 is_stmt 0 discriminator 1
 7062 000a 0379     		ldrb	r3, [r0, #4]	@ zero_extendqisi2
 7063 000c 012B     		cmp	r3, #1
 7064 000e 27D1     		bne	.L741
 7065 0010 4579     		ldrb	r5, [r0, #5]	@ zero_extendqisi2
 7066 0012 2DBB     		cbnz	r5, .L741
 7067              	.LVL698:
 7068              	.LBB76:
 7069              	.LBB77:
 7070              	.LBB78:
2480:bluetooth_rxtx.c **** 		u32 crc = (packet[8] << 16) | (packet[7] << 8) | packet[6];
 7071              		.loc 1 2480 0 is_stmt 1
 7072 0014 037A     		ldrb	r3, [r0, #8]	@ zero_extendqisi2
 7073 0016 C079     		ldrb	r0, [r0, #7]	@ zero_extendqisi2
 7074              	.LVL699:
2481:bluetooth_rxtx.c **** 
2482:bluetooth_rxtx.c **** 		le.crc_init = btle_reverse_crc(crc, packet + 4, 2);
 7075              		.loc 1 2482 0
 7076 0018 0222     		movs	r2, #2
2480:bluetooth_rxtx.c **** 		u32 crc = (packet[8] << 16) | (packet[7] << 8) | packet[6];
 7077              		.loc 1 2480 0
 7078 001a 0002     		lsls	r0, r0, #8
 7079 001c 40EA0340 		orr	r0, r0, r3, lsl #16
 7080 0020 8B79     		ldrb	r3, [r1, #6]	@ zero_extendqisi2
 7081              		.loc 1 2482 0
 7082 0022 0431     		adds	r1, r1, #4
 7083              	.LVL700:
ARM GAS  /tmp/ccUrIl19.s 			page 191


 7084 0024 1843     		orrs	r0, r0, r3
 7085 0026 FFF7FEFF 		bl	btle_reverse_crc
 7086              	.LVL701:
 7087 002a 2A46     		mov	r2, r5
 7088 002c E060     		str	r0, [r4, #12]
 7089              	.LVL702:
2483:bluetooth_rxtx.c **** 		le.crc_init_reversed = 0;
2484:bluetooth_rxtx.c **** 		for (i = 0; i < 24; ++i)
 7090              		.loc 1 2484 0
 7091 002e 2B46     		mov	r3, r5
 7092              	.LVL703:
 7093              	.L744:
2485:bluetooth_rxtx.c **** 			le.crc_init_reversed |= ((le.crc_init >> i) & 1) << (23 - i);
 7094              		.loc 1 2485 0
 7095 0030 20FA03F1 		lsr	r1, r0, r3
 7096 0034 C3F11705 		rsb	r5, r3, #23
 7097 0038 01F00101 		and	r1, r1, #1
 7098 003c A940     		lsls	r1, r1, r5
2484:bluetooth_rxtx.c **** 			le.crc_init_reversed |= ((le.crc_init >> i) & 1) << (23 - i);
 7099              		.loc 1 2484 0
 7100 003e 0133     		adds	r3, r3, #1
 7101              	.LVL704:
 7102 0040 182B     		cmp	r3, #24
 7103              		.loc 1 2485 0
 7104 0042 42EA0102 		orr	r2, r2, r1
2484:bluetooth_rxtx.c **** 			le.crc_init_reversed |= ((le.crc_init >> i) & 1) << (23 - i);
 7105              		.loc 1 2484 0
 7106 0046 F3D1     		bne	.L744
 7107 0048 2261     		str	r2, [r4, #16]
2486:bluetooth_rxtx.c **** 
2487:bluetooth_rxtx.c **** 		le.crc_verify = 1;
2488:bluetooth_rxtx.c **** 		packet_cb = promisc_recover_hop_interval;
 7108              		.loc 1 2488 0
 7109 004a 074B     		ldr	r3, .L746+4
 7110              	.LVL705:
 7111 004c 074A     		ldr	r2, .L746+8
2487:bluetooth_rxtx.c **** 		packet_cb = promisc_recover_hop_interval;
 7112              		.loc 1 2487 0
 7113 004e 0120     		movs	r0, #1
 7114              		.loc 1 2488 0
 7115 0050 9A61     		str	r2, [r3, #24]
2487:bluetooth_rxtx.c **** 		packet_cb = promisc_recover_hop_interval;
 7116              		.loc 1 2487 0
 7117 0052 6061     		str	r0, [r4, #20]
2489:bluetooth_rxtx.c **** 		le_promisc_state(1, &le.crc_init, 3);
 7118              		.loc 1 2489 0
 7119 0054 0649     		ldr	r1, .L746+12
 7120 0056 0322     		movs	r2, #3
 7121              	.LBE78:
 7122              	.LBE77:
 7123              	.LBE76:
2490:bluetooth_rxtx.c **** 	}
2491:bluetooth_rxtx.c **** }
 7124              		.loc 1 2491 0
 7125 0058 BDE83840 		pop	{r3, r4, r5, lr}
 7126              	.LBB81:
 7127              	.LBB80:
ARM GAS  /tmp/ccUrIl19.s 			page 192


 7128              	.LBB79:
2489:bluetooth_rxtx.c **** 		le_promisc_state(1, &le.crc_init, 3);
 7129              		.loc 1 2489 0
 7130 005c FFF7FEBF 		b	le_promisc_state
 7131              	.LVL706:
 7132              	.L741:
 7133 0060 38BD     		pop	{r3, r4, r5, pc}
 7134              	.L747:
 7135 0062 00BF     		.align	2
 7136              	.L746:
 7137 0064 00000000 		.word	.LANCHOR1
 7138 0068 00000000 		.word	.LANCHOR0
 7139 006c 00000000 		.word	promisc_recover_hop_interval
 7140 0070 0C000000 		.word	.LANCHOR1+12
 7141              	.LBE79:
 7142              	.LBE80:
 7143              	.LBE81:
 7144              		.cfi_endproc
 7145              	.LFE33:
 7147              		.section	.text.see_aa,"ax",%progbits
 7148              		.align	1
 7149              		.global	see_aa
 7150              		.thumb
 7151              		.thumb_func
 7153              	see_aa:
 7154              	.LFB34:
2492:bluetooth_rxtx.c **** 
2493:bluetooth_rxtx.c **** // called when we see an AA, add it to the list
2494:bluetooth_rxtx.c **** void see_aa(u32 aa) {
 7155              		.loc 1 2494 0
 7156              		.cfi_startproc
 7157              		@ args = 0, pretend = 0, frame = 0
 7158              		@ frame_needed = 0, uses_anonymous_args = 0
 7159              	.LVL707:
 7160 0000 30B5     		push	{r4, r5, lr}
 7161              		.cfi_def_cfa_offset 12
 7162              		.cfi_offset 4, -12
 7163              		.cfi_offset 5, -8
 7164              		.cfi_offset 14, -4
 7165              	.LVL708:
2495:bluetooth_rxtx.c **** 	int i, max = -1, killme = -1;
2496:bluetooth_rxtx.c **** 	for (i = 0; i < AA_LIST_SIZE; ++i)
 7166              		.loc 1 2496 0
 7167 0002 0022     		movs	r2, #0
 7168              	.LVL709:
 7169              	.L752:
2497:bluetooth_rxtx.c **** 		if (le_promisc.active_aa[i].aa == aa) {
 7170              		.loc 1 2497 0
 7171 0004 144D     		ldr	r5, .L761
 7172 0006 55F83210 		ldr	r1, [r5, r2, lsl #3]
 7173 000a 05EBC203 		add	r3, r5, r2, lsl #3
 7174 000e 8142     		cmp	r1, r0
 7175 0010 02D1     		bne	.L749
2498:bluetooth_rxtx.c **** 			++le_promisc.active_aa[i].count;
 7176              		.loc 1 2498 0
 7177 0012 5A68     		ldr	r2, [r3, #4]
 7178              	.LVL710:
ARM GAS  /tmp/ccUrIl19.s 			page 193


 7179 0014 0132     		adds	r2, r2, #1
 7180 0016 1CE0     		b	.L760
 7181              	.LVL711:
 7182              	.L749:
2496:bluetooth_rxtx.c **** 		if (le_promisc.active_aa[i].aa == aa) {
 7183              		.loc 1 2496 0
 7184 0018 0132     		adds	r2, r2, #1
 7185              	.LVL712:
 7186 001a 202A     		cmp	r2, #32
 7187 001c F2D1     		bne	.L752
 7188 001e 4FF0FF33 		mov	r3, #-1
 7189 0022 1946     		mov	r1, r3
 7190 0024 0022     		movs	r2, #0
 7191              	.LVL713:
 7192              	.L755:
 7193 0026 05EBC204 		add	r4, r5, r2, lsl #3
2499:bluetooth_rxtx.c **** 			return;
2500:bluetooth_rxtx.c **** 		}
2501:bluetooth_rxtx.c **** 
2502:bluetooth_rxtx.c **** 	// evict someone
2503:bluetooth_rxtx.c **** 	for (i = 0; i < AA_LIST_SIZE; ++i)
2504:bluetooth_rxtx.c **** 		if (le_promisc.active_aa[i].count < max || max < 0) {
 7194              		.loc 1 2504 0
 7195 002a 6468     		ldr	r4, [r4, #4]
 7196 002c 8C42     		cmp	r4, r1
 7197 002e 05DB     		blt	.L756
 7198              		.loc 1 2504 0 is_stmt 0 discriminator 1
 7199 0030 0029     		cmp	r1, #0
 7200 0032 A8BF     		it	ge
 7201 0034 0C46     		movge	r4, r1
 7202 0036 B8BF     		it	lt
 7203 0038 1346     		movlt	r3, r2
 7204              	.LVL714:
 7205 003a 00E0     		b	.L753
 7206              	.LVL715:
 7207              	.L756:
 7208 003c 1346     		mov	r3, r2
 7209              	.LVL716:
 7210              	.L753:
2503:bluetooth_rxtx.c **** 		if (le_promisc.active_aa[i].count < max || max < 0) {
 7211              		.loc 1 2503 0 is_stmt 1
 7212 003e 0132     		adds	r2, r2, #1
 7213              	.LVL717:
 7214 0040 202A     		cmp	r2, #32
 7215 0042 01D0     		beq	.L754
 7216 0044 2146     		mov	r1, r4
 7217 0046 EEE7     		b	.L755
 7218              	.L754:
2505:bluetooth_rxtx.c **** 			killme = i;
2506:bluetooth_rxtx.c **** 			max = le_promisc.active_aa[i].count;
2507:bluetooth_rxtx.c **** 		}
2508:bluetooth_rxtx.c **** 
2509:bluetooth_rxtx.c **** 	le_promisc.active_aa[killme].aa = aa;
 7219              		.loc 1 2509 0
 7220 0048 45F83300 		str	r0, [r5, r3, lsl #3]
2510:bluetooth_rxtx.c **** 	le_promisc.active_aa[killme].count = 1;
 7221              		.loc 1 2510 0
ARM GAS  /tmp/ccUrIl19.s 			page 194


 7222 004c 0122     		movs	r2, #1
 7223              	.LVL718:
 7224 004e 05EBC303 		add	r3, r5, r3, lsl #3
 7225              	.LVL719:
 7226              	.L760:
 7227 0052 5A60     		str	r2, [r3, #4]
 7228 0054 30BD     		pop	{r4, r5, pc}
 7229              	.L762:
 7230 0056 00BF     		.align	2
 7231              	.L761:
 7232 0058 00000000 		.word	le_promisc
 7233              		.cfi_endproc
 7234              	.LFE34:
 7236              		.section	.text.cb_le_promisc,"ax",%progbits
 7237              		.align	1
 7238              		.global	cb_le_promisc
 7239              		.thumb
 7240              		.thumb_func
 7242              	cb_le_promisc:
 7243              	.LFB35:
2511:bluetooth_rxtx.c **** }
2512:bluetooth_rxtx.c **** 
2513:bluetooth_rxtx.c **** /* le promiscuous mode */
2514:bluetooth_rxtx.c **** int cb_le_promisc(char *unpacked) {
 7244              		.loc 1 2514 0
 7245              		.cfi_startproc
 7246              		@ args = 0, pretend = 0, frame = 80
 7247              		@ frame_needed = 0, uses_anonymous_args = 0
 7248              	.LVL720:
 7249 0000 2DE9F043 		push	{r4, r5, r6, r7, r8, r9, lr}
 7250              		.cfi_def_cfa_offset 28
 7251              		.cfi_offset 4, -28
 7252              		.cfi_offset 5, -24
 7253              		.cfi_offset 6, -20
 7254              		.cfi_offset 7, -16
 7255              		.cfi_offset 8, -12
 7256              		.cfi_offset 9, -8
 7257              		.cfi_offset 14, -4
 7258 0004 95B0     		sub	sp, sp, #84
 7259              		.cfi_def_cfa_offset 112
2515:bluetooth_rxtx.c **** 	int i, j, k;
2516:bluetooth_rxtx.c **** 	int idx;
2517:bluetooth_rxtx.c **** 
2518:bluetooth_rxtx.c **** 	// empty data PDU: 01 00
2519:bluetooth_rxtx.c **** 	char desired[4][16] = {
 7260              		.loc 1 2519 0
 7261 0006 0021     		movs	r1, #0
2514:bluetooth_rxtx.c **** 	int i, j, k;
 7262              		.loc 1 2514 0
 7263 0008 8046     		mov	r8, r0
 7264              		.loc 1 2519 0
 7265 000a 4022     		movs	r2, #64
 7266 000c 04A8     		add	r0, sp, #16
 7267              	.LVL721:
 7268 000e FFF7FEFF 		bl	memset
 7269              	.LVL722:
 7270 0012 0123     		movs	r3, #1
ARM GAS  /tmp/ccUrIl19.s 			page 195


 7271 0014 8DF81030 		strb	r3, [sp, #16]
 7272 0018 8DF82030 		strb	r3, [sp, #32]
 7273 001c 8DF82330 		strb	r3, [sp, #35]
 7274 0020 8DF83030 		strb	r3, [sp, #48]
 7275 0024 8DF83230 		strb	r3, [sp, #50]
 7276 0028 8DF84030 		strb	r3, [sp, #64]
 7277 002c 8DF84230 		strb	r3, [sp, #66]
 7278 0030 8DF84330 		strb	r3, [sp, #67]
 7279              	.LVL723:
 7280 0034 14AD     		add	r5, sp, #80
 7281 0036 04AC     		add	r4, sp, #16
 7282              	.LVL724:
 7283              	.L767:
2520:bluetooth_rxtx.c **** 		{ 1, 0, 0, 0, 0, 0, 0, 0,
2521:bluetooth_rxtx.c **** 		  0, 0, 0, 0, 0, 0, 0, 0, },
2522:bluetooth_rxtx.c **** 		{ 1, 0, 0, 1, 0, 0, 0, 0,
2523:bluetooth_rxtx.c **** 		  0, 0, 0, 0, 0, 0, 0, 0, },
2524:bluetooth_rxtx.c **** 		{ 1, 0, 1, 0, 0, 0, 0, 0,
2525:bluetooth_rxtx.c **** 		  0, 0, 0, 0, 0, 0, 0, 0, },
2526:bluetooth_rxtx.c **** 		{ 1, 0, 1, 1, 0, 0, 0, 0,
2527:bluetooth_rxtx.c **** 		  0, 0, 0, 0, 0, 0, 0, 0, },
2528:bluetooth_rxtx.c **** 	};
2529:bluetooth_rxtx.c **** 
2530:bluetooth_rxtx.c **** 	for (i = 0; i < 4; ++i) {
2531:bluetooth_rxtx.c **** 		idx = whitening_index[btle_channel_index(channel-2402)];
 7284              		.loc 1 2531 0
 7285 0038 504E     		ldr	r6, .L799
 7286 003a 514F     		ldr	r7, .L799+4
 7287 003c 3088     		ldrh	r0, [r6]
 7288 003e 80B2     		uxth	r0, r0
 7289 0040 6238     		subs	r0, r0, #98
 7290 0042 C0B2     		uxtb	r0, r0
 7291 0044 FFF7FEFF 		bl	btle_channel_index
 7292              	.LVL725:
 7293 0048 3A5C     		ldrb	r2, [r7, r0]	@ zero_extendqisi2
 7294              	.LVL726:
2532:bluetooth_rxtx.c **** 
2533:bluetooth_rxtx.c **** 		// whiten the desired data
2534:bluetooth_rxtx.c **** 		for (j = 0; j < (int)sizeof(desired[i]); ++j) {
 7295              		.loc 1 2534 0
 7296 004a 0023     		movs	r3, #0
 7297              	.LVL727:
 7298              	.L765:
2535:bluetooth_rxtx.c **** 			desired[i][j] ^= whitening[idx];
 7299              		.loc 1 2535 0 discriminator 2
 7300 004c B918     		adds	r1, r7, r2
 7301 004e E05C     		ldrb	r0, [r4, r3]	@ zero_extendqisi2
 7302 0050 91F82810 		ldrb	r1, [r1, #40]	@ zero_extendqisi2
2536:bluetooth_rxtx.c **** 			idx = (idx + 1) % sizeof(whitening);
 7303              		.loc 1 2536 0 discriminator 2
 7304 0054 0132     		adds	r2, r2, #1
 7305              	.LVL728:
2535:bluetooth_rxtx.c **** 			desired[i][j] ^= whitening[idx];
 7306              		.loc 1 2535 0 discriminator 2
 7307 0056 4140     		eors	r1, r1, r0
 7308 0058 E154     		strb	r1, [r4, r3]
 7309              		.loc 1 2536 0 discriminator 2
ARM GAS  /tmp/ccUrIl19.s 			page 196


 7310 005a 7F21     		movs	r1, #127
2534:bluetooth_rxtx.c **** 			desired[i][j] ^= whitening[idx];
 7311              		.loc 1 2534 0 discriminator 2
 7312 005c 0133     		adds	r3, r3, #1
 7313              	.LVL729:
 7314              		.loc 1 2536 0 discriminator 2
 7315 005e B2FBF1F0 		udiv	r0, r2, r1
2534:bluetooth_rxtx.c **** 			desired[i][j] ^= whitening[idx];
 7316              		.loc 1 2534 0 discriminator 2
 7317 0062 102B     		cmp	r3, #16
 7318              		.loc 1 2536 0 discriminator 2
 7319 0064 01FB1022 		mls	r2, r1, r0, r2
 7320              	.LVL730:
2534:bluetooth_rxtx.c **** 			desired[i][j] ^= whitening[idx];
 7321              		.loc 1 2534 0 discriminator 2
 7322 0068 F0D1     		bne	.L765
 7323 006a 1034     		adds	r4, r4, #16
2530:bluetooth_rxtx.c **** 		idx = whitening_index[btle_channel_index(channel-2402)];
 7324              		.loc 1 2530 0
 7325 006c AC42     		cmp	r4, r5
 7326 006e E3D1     		bne	.L767
 7327 0070 08F12005 		add	r5, r8, #32
 7328 0074 08F53C78 		add	r8, r8, #752
 7329              	.LVL731:
 7330              	.L783:
 7331              	.LBB82:
2537:bluetooth_rxtx.c **** 		}
2538:bluetooth_rxtx.c **** 	}
2539:bluetooth_rxtx.c **** 
2540:bluetooth_rxtx.c **** 	// then look for that bitsream in our receive buffer
2541:bluetooth_rxtx.c **** 	for (i = 32; i < (DMA_SIZE*8*2 - 32 - 16); i++) {
2542:bluetooth_rxtx.c **** 		int ok[4] = { 1, 1, 1, 1 };
 7332              		.loc 1 2542 0
 7333 0078 424B     		ldr	r3, .L799+8
 7334 007a 6C46     		mov	r4, sp
 7335 007c 0FCB     		ldmia	r3, {r0, r1, r2, r3}
 7336 007e 8DE80F00 		stmia	sp, {r0, r1, r2, r3}
 7337              	.LVL732:
 7338 0082 0022     		movs	r2, #0
 7339              	.LVL733:
 7340              	.L768:
 7341 0084 04AB     		add	r3, sp, #16
 7342 0086 03EB8201 		add	r1, r3, r2, lsl #2
 7343              	.LBE82:
2534:bluetooth_rxtx.c **** 			desired[i][j] ^= whitening[idx];
 7344              		.loc 1 2534 0 discriminator 1
 7345 008a 0023     		movs	r3, #0
 7346              	.LVL734:
 7347              	.L773:
 7348              	.LBB87:
2543:bluetooth_rxtx.c **** 		int matching = -1;
2544:bluetooth_rxtx.c **** 
2545:bluetooth_rxtx.c **** 		for (j = 0; j < 4; ++j) {
2546:bluetooth_rxtx.c **** 			for (k = 0; k < (int)sizeof(desired[j]); ++k) {
2547:bluetooth_rxtx.c **** 				if (unpacked[i+k] != desired[j][k]) {
 7349              		.loc 1 2547 0
 7350 008c 15F803C0 		ldrb	ip, [r5, r3]	@ zero_extendqisi2
ARM GAS  /tmp/ccUrIl19.s 			page 197


 7351 0090 C85C     		ldrb	r0, [r1, r3]	@ zero_extendqisi2
 7352 0092 8445     		cmp	ip, r0
 7353 0094 02D0     		beq	.L769
2548:bluetooth_rxtx.c **** 					ok[j] = 0;
 7354              		.loc 1 2548 0
 7355 0096 0023     		movs	r3, #0
 7356              	.LVL735:
 7357 0098 A350     		str	r3, [r4, r2]
2549:bluetooth_rxtx.c **** 					break;
 7358              		.loc 1 2549 0
 7359 009a 02E0     		b	.L770
 7360              	.LVL736:
 7361              	.L769:
2546:bluetooth_rxtx.c **** 				if (unpacked[i+k] != desired[j][k]) {
 7362              		.loc 1 2546 0
 7363 009c 0133     		adds	r3, r3, #1
 7364              	.LVL737:
 7365 009e 102B     		cmp	r3, #16
 7366 00a0 F4D1     		bne	.L773
 7367              	.LVL738:
 7368              	.L770:
 7369 00a2 0432     		adds	r2, r2, #4
2545:bluetooth_rxtx.c **** 			for (k = 0; k < (int)sizeof(desired[j]); ++k) {
 7370              		.loc 1 2545 0
 7371 00a4 102A     		cmp	r2, #16
 7372 00a6 EDD1     		bne	.L768
 7373 00a8 0023     		movs	r3, #0
 7374              	.L776:
2550:bluetooth_rxtx.c **** 				}
2551:bluetooth_rxtx.c **** 			}
2552:bluetooth_rxtx.c **** 		}
2553:bluetooth_rxtx.c **** 
2554:bluetooth_rxtx.c **** 		// see if any match
2555:bluetooth_rxtx.c **** 		for (j = 0; j < 4; ++j) {
2556:bluetooth_rxtx.c **** 			if (ok[j]) {
 7375              		.loc 1 2556 0
 7376 00aa E258     		ldr	r2, [r4, r3]
 7377 00ac 1AB9     		cbnz	r2, .L774
 7378 00ae 0433     		adds	r3, r3, #4
2555:bluetooth_rxtx.c **** 			if (ok[j]) {
 7379              		.loc 1 2555 0
 7380 00b0 102B     		cmp	r3, #16
 7381 00b2 FAD1     		bne	.L776
 7382 00b4 3EE0     		b	.L787
 7383              	.L774:
 7384              	.LVL739:
2557:bluetooth_rxtx.c **** 				matching = j;
2558:bluetooth_rxtx.c **** 				break;
2559:bluetooth_rxtx.c **** 			}
2560:bluetooth_rxtx.c **** 		}
2561:bluetooth_rxtx.c **** 
2562:bluetooth_rxtx.c **** 		// skip if no match
2563:bluetooth_rxtx.c **** 		if (matching < 0)
2564:bluetooth_rxtx.c **** 			continue;
2565:bluetooth_rxtx.c **** 
2566:bluetooth_rxtx.c **** 		// found a match! unwhiten it and send it home
2567:bluetooth_rxtx.c **** 		idx = whitening_index[btle_channel_index(channel-2402)];
ARM GAS  /tmp/ccUrIl19.s 			page 198


 7385              		.loc 1 2567 0
 7386 00b6 3088     		ldrh	r0, [r6]
 7387 00b8 80B2     		uxth	r0, r0
 7388 00ba 6238     		subs	r0, r0, #98
 7389 00bc C0B2     		uxtb	r0, r0
 7390 00be FFF7FEFF 		bl	btle_channel_index
 7391              	.LVL740:
 7392 00c2 385C     		ldrb	r0, [r7, r0]	@ zero_extendqisi2
 7393              	.LVL741:
2568:bluetooth_rxtx.c **** 		for (j = 0; j < 4+3+3; ++j) {
 7394              		.loc 1 2568 0
 7395 00c4 0023     		movs	r3, #0
 7396              	.LVL742:
 7397              	.L788:
2545:bluetooth_rxtx.c **** 			for (k = 0; k < (int)sizeof(desired[j]); ++k) {
 7398              		.loc 1 2545 0 discriminator 1
 7399 00c6 0021     		movs	r1, #0
 7400 00c8 05EBC30C 		add	ip, r5, r3, lsl #3
 7401 00cc 0A46     		mov	r2, r1
 7402              	.LVL743:
 7403              	.L781:
 7404 00ce 0CEB0204 		add	r4, ip, r2
 7405              	.LBB83:
 7406              	.LBB84:
2569:bluetooth_rxtx.c **** 			u8 byte = 0;
2570:bluetooth_rxtx.c **** 			for (k = 0; k < 8; k++) {
2571:bluetooth_rxtx.c **** 				int offset = k + (j * 8) + i - 32;
2572:bluetooth_rxtx.c **** 				if (offset >= DMA_SIZE*8*2) break;
2573:bluetooth_rxtx.c **** 				int bit = unpacked[offset];
2574:bluetooth_rxtx.c **** 				if (j >= 4) { // unwhiten data bytes
 7407              		.loc 1 2574 0
 7408 00d2 032B     		cmp	r3, #3
2573:bluetooth_rxtx.c **** 				if (j >= 4) { // unwhiten data bytes
 7409              		.loc 1 2573 0
 7410 00d4 14F8204C 		ldrb	r4, [r4, #-32]	@ zero_extendqisi2
 7411              	.LVL744:
 7412              		.loc 1 2574 0
 7413 00d8 0CDD     		ble	.L778
2575:bluetooth_rxtx.c **** 					bit ^= whitening[idx];
 7414              		.loc 1 2575 0
 7415 00da 07EB000E 		add	lr, r7, r0
 7416 00de 9EF828E0 		ldrb	lr, [lr, #40]	@ zero_extendqisi2
2576:bluetooth_rxtx.c **** 					idx = (idx + 1) % sizeof(whitening);
 7417              		.loc 1 2576 0
 7418 00e2 0130     		adds	r0, r0, #1
 7419              	.LVL745:
2575:bluetooth_rxtx.c **** 					bit ^= whitening[idx];
 7420              		.loc 1 2575 0
 7421 00e4 84EA0E04 		eor	r4, r4, lr
 7422              	.LVL746:
 7423              		.loc 1 2576 0
 7424 00e8 4FF07F0E 		mov	lr, #127
 7425 00ec B0FBFEF9 		udiv	r9, r0, lr
 7426 00f0 0EFB1900 		mls	r0, lr, r9, r0
 7427              	.LVL747:
 7428              	.L778:
2577:bluetooth_rxtx.c **** 				}
ARM GAS  /tmp/ccUrIl19.s 			page 199


2578:bluetooth_rxtx.c **** 				byte |= bit << k;
 7429              		.loc 1 2578 0
 7430 00f4 9440     		lsls	r4, r4, r2
 7431              	.LVL748:
 7432              	.LBE84:
2570:bluetooth_rxtx.c **** 				int offset = k + (j * 8) + i - 32;
 7433              		.loc 1 2570 0
 7434 00f6 0132     		adds	r2, r2, #1
 7435              	.LVL749:
 7436              	.LBB85:
 7437              		.loc 1 2578 0
 7438 00f8 2143     		orrs	r1, r1, r4
 7439              	.LVL750:
 7440              	.LBE85:
2570:bluetooth_rxtx.c **** 				int offset = k + (j * 8) + i - 32;
 7441              		.loc 1 2570 0
 7442 00fa 082A     		cmp	r2, #8
 7443              	.LBB86:
 7444              		.loc 1 2578 0
 7445 00fc C9B2     		uxtb	r1, r1
 7446              	.LVL751:
 7447              	.LBE86:
2570:bluetooth_rxtx.c **** 				int offset = k + (j * 8) + i - 32;
 7448              		.loc 1 2570 0
 7449 00fe E6D1     		bne	.L781
2579:bluetooth_rxtx.c **** 			}
2580:bluetooth_rxtx.c **** 			idle_rxbuf[j] = byte;
 7450              		.loc 1 2580 0
 7451 0100 214C     		ldr	r4, .L799+12
 7452 0102 2268     		ldr	r2, [r4]
 7453              	.LVL752:
 7454 0104 D154     		strb	r1, [r2, r3]
 7455              	.LBE83:
2568:bluetooth_rxtx.c **** 			u8 byte = 0;
 7456              		.loc 1 2568 0
 7457 0106 0133     		adds	r3, r3, #1
 7458              	.LVL753:
 7459 0108 0A2B     		cmp	r3, #10
 7460 010a DCD1     		bne	.L788
2581:bluetooth_rxtx.c **** 		}
2582:bluetooth_rxtx.c **** 
2583:bluetooth_rxtx.c **** 		u32 aa = (idle_rxbuf[3] << 24) |
 7461              		.loc 1 2583 0
 7462 010c 2368     		ldr	r3, [r4]
 7463              	.LVL754:
 7464 010e D978     		ldrb	r1, [r3, #3]	@ zero_extendqisi2
 7465              	.LVL755:
2584:bluetooth_rxtx.c **** 				 (idle_rxbuf[2] << 16) |
 7466              		.loc 1 2584 0
 7467 0110 2368     		ldr	r3, [r4]
 7468 0112 9B78     		ldrb	r3, [r3, #2]	@ zero_extendqisi2
2585:bluetooth_rxtx.c **** 				 (idle_rxbuf[1] <<  8) |
 7469              		.loc 1 2585 0
 7470 0114 2268     		ldr	r2, [r4]
2584:bluetooth_rxtx.c **** 				 (idle_rxbuf[2] << 16) |
 7471              		.loc 1 2584 0
 7472 0116 1B04     		lsls	r3, r3, #16
ARM GAS  /tmp/ccUrIl19.s 			page 200


 7473              		.loc 1 2585 0
 7474 0118 5078     		ldrb	r0, [r2, #1]	@ zero_extendqisi2
 7475              	.LVL756:
2586:bluetooth_rxtx.c **** 				 (idle_rxbuf[0]);
 7476              		.loc 1 2586 0
 7477 011a 2268     		ldr	r2, [r4]
2583:bluetooth_rxtx.c **** 				 (idle_rxbuf[2] << 16) |
 7478              		.loc 1 2583 0
 7479 011c 43EA0163 		orr	r3, r3, r1, lsl #24
 7480              		.loc 1 2586 0
 7481 0120 1278     		ldrb	r2, [r2]	@ zero_extendqisi2
 7482              	.LVL757:
2584:bluetooth_rxtx.c **** 				 (idle_rxbuf[1] <<  8) |
 7483              		.loc 1 2584 0
 7484 0122 1343     		orrs	r3, r3, r2
2587:bluetooth_rxtx.c **** 		see_aa(aa);
 7485              		.loc 1 2587 0
 7486 0124 43EA0020 		orr	r0, r3, r0, lsl #8
 7487 0128 FFF7FEFF 		bl	see_aa
 7488              	.LVL758:
2588:bluetooth_rxtx.c **** 
2589:bluetooth_rxtx.c **** 		enqueue(LE_PACKET, (uint8_t*)idle_rxbuf);
 7489              		.loc 1 2589 0
 7490 012c 2168     		ldr	r1, [r4]
 7491 012e 0120     		movs	r0, #1
 7492 0130 FFF7FEFF 		bl	enqueue
 7493              	.LVL759:
 7494              	.L787:
 7495 0134 0135     		adds	r5, r5, #1
 7496              	.LVL760:
 7497              	.LBE87:
2541:bluetooth_rxtx.c **** 		int ok[4] = { 1, 1, 1, 1 };
 7498              		.loc 1 2541 0
 7499 0136 4545     		cmp	r5, r8
 7500 0138 9ED1     		bne	.L783
 7501 013a 0023     		movs	r3, #0
 7502              	.LVL761:
 7503              	.L786:
 7504 013c 134A     		ldr	r2, .L799+16
 7505 013e 02EBC301 		add	r1, r2, r3, lsl #3
2590:bluetooth_rxtx.c **** 
2591:bluetooth_rxtx.c **** 	}
2592:bluetooth_rxtx.c **** 
2593:bluetooth_rxtx.c **** 	// once we see an AA 5 times, start following it
2594:bluetooth_rxtx.c **** 	for (i = 0; i < AA_LIST_SIZE; ++i) {
2595:bluetooth_rxtx.c **** 		if (le_promisc.active_aa[i].count > 3) {
 7506              		.loc 1 2595 0
 7507 0142 4968     		ldr	r1, [r1, #4]
 7508 0144 0329     		cmp	r1, #3
 7509 0146 11DD     		ble	.L784
2596:bluetooth_rxtx.c **** 			le_set_access_address(le_promisc.active_aa[i].aa);
 7510              		.loc 1 2596 0
 7511 0148 52F83300 		ldr	r0, [r2, r3, lsl #3]
 7512 014c FFF7FEFF 		bl	le_set_access_address
 7513              	.LVL762:
2597:bluetooth_rxtx.c **** 			data_cb = cb_follow_le;
 7514              		.loc 1 2597 0
ARM GAS  /tmp/ccUrIl19.s 			page 201


 7515 0150 0F4B     		ldr	r3, .L799+20
 7516 0152 104A     		ldr	r2, .L799+24
2598:bluetooth_rxtx.c **** 			packet_cb = promisc_follow_cb;
2599:bluetooth_rxtx.c **** 			le.crc_verify = 0;
 7517              		.loc 1 2599 0
 7518 0154 0024     		movs	r4, #0
2597:bluetooth_rxtx.c **** 			data_cb = cb_follow_le;
 7519              		.loc 1 2597 0
 7520 0156 5A62     		str	r2, [r3, #36]
2598:bluetooth_rxtx.c **** 			packet_cb = promisc_follow_cb;
 7521              		.loc 1 2598 0
 7522 0158 0F4A     		ldr	r2, .L799+28
2600:bluetooth_rxtx.c **** 			le_promisc_state(0, &le.access_address, 4);
 7523              		.loc 1 2600 0
 7524 015a 2046     		mov	r0, r4
2598:bluetooth_rxtx.c **** 			packet_cb = promisc_follow_cb;
 7525              		.loc 1 2598 0
 7526 015c 9A61     		str	r2, [r3, #24]
 7527              		.loc 1 2600 0
 7528 015e 0F49     		ldr	r1, .L799+32
 7529 0160 0422     		movs	r2, #4
2599:bluetooth_rxtx.c **** 			le_promisc_state(0, &le.access_address, 4);
 7530              		.loc 1 2599 0
 7531 0162 7461     		str	r4, [r6, #20]
 7532              		.loc 1 2600 0
 7533 0164 FFF7FEFF 		bl	le_promisc_state
 7534              	.LVL763:
2601:bluetooth_rxtx.c **** 			// quit using the old stuff and switch to sync mode
2602:bluetooth_rxtx.c **** 			return 0;
 7535              		.loc 1 2602 0
 7536 0168 2046     		mov	r0, r4
 7537 016a 03E0     		b	.L798
 7538              	.LVL764:
 7539              	.L784:
2594:bluetooth_rxtx.c **** 		if (le_promisc.active_aa[i].count > 3) {
 7540              		.loc 1 2594 0
 7541 016c 0133     		adds	r3, r3, #1
 7542              	.LVL765:
 7543 016e 202B     		cmp	r3, #32
 7544 0170 E4D1     		bne	.L786
2603:bluetooth_rxtx.c **** 		}
2604:bluetooth_rxtx.c **** 	}
2605:bluetooth_rxtx.c **** 
2606:bluetooth_rxtx.c **** 	return 1;
 7545              		.loc 1 2606 0
 7546 0172 0120     		movs	r0, #1
 7547              	.LVL766:
 7548              	.L798:
2607:bluetooth_rxtx.c **** }
 7549              		.loc 1 2607 0
 7550 0174 15B0     		add	sp, sp, #84
 7551              		@ sp needed
 7552 0176 BDE8F083 		pop	{r4, r5, r6, r7, r8, r9, pc}
 7553              	.LVL767:
 7554              	.L800:
 7555 017a 00BF     		.align	2
 7556              	.L799:
ARM GAS  /tmp/ccUrIl19.s 			page 202


 7557 017c 00000000 		.word	.LANCHOR1
 7558 0180 00000000 		.word	.LANCHOR2
 7559 0184 98080000 		.word	.LANCHOR2+2200
 7560 0188 00000000 		.word	idle_rxbuf
 7561 018c 00000000 		.word	le_promisc
 7562 0190 00000000 		.word	.LANCHOR0
 7563 0194 00000000 		.word	cb_follow_le
 7564 0198 00000000 		.word	promisc_follow_cb
 7565 019c 04000000 		.word	.LANCHOR1+4
 7566              		.cfi_endproc
 7567              	.LFE35:
 7569              		.section	.text.bt_promisc_le,"ax",%progbits
 7570              		.align	1
 7571              		.global	bt_promisc_le
 7572              		.thumb
 7573              		.thumb_func
 7575              	bt_promisc_le:
 7576              	.LFB36:
2608:bluetooth_rxtx.c **** 
2609:bluetooth_rxtx.c **** void bt_promisc_le() {
 7577              		.loc 1 2609 0
 7578              		.cfi_startproc
 7579              		@ args = 0, pretend = 0, frame = 0
 7580              		@ frame_needed = 0, uses_anonymous_args = 0
 7581 0000 38B5     		push	{r3, r4, r5, lr}
 7582              		.cfi_def_cfa_offset 16
 7583              		.cfi_offset 3, -16
 7584              		.cfi_offset 4, -12
 7585              		.cfi_offset 5, -8
 7586              		.cfi_offset 14, -4
 7587              	.L802:
2610:bluetooth_rxtx.c **** 	while (requested_mode == MODE_BT_PROMISC_LE) {
 7588              		.loc 1 2610 0 discriminator 1
 7589 0002 164D     		ldr	r5, .L811
 7590 0004 AB7C     		ldrb	r3, [r5, #18]	@ zero_extendqisi2
 7591 0006 0A2B     		cmp	r3, #10
 7592 0008 26D1     		bne	.L801
2611:bluetooth_rxtx.c **** 		reset_le_promisc();
2612:bluetooth_rxtx.c **** 
2613:bluetooth_rxtx.c **** 		// jump to a random data channel and turn up the squelch
2614:bluetooth_rxtx.c **** 		if ((channel & 1) == 1)
 7593              		.loc 1 2614 0
 7594 000a 154C     		ldr	r4, .L811+4
2611:bluetooth_rxtx.c **** 		reset_le_promisc();
 7595              		.loc 1 2611 0
 7596 000c FFF7FEFF 		bl	reset_le_promisc
 7597              	.LVL768:
 7598              		.loc 1 2614 0
 7599 0010 2388     		ldrh	r3, [r4]
 7600 0012 DB07     		lsls	r3, r3, #31
2615:bluetooth_rxtx.c **** 			channel = 2440;
 7601              		.loc 1 2615 0
 7602 0014 44BF     		itt	mi
 7603 0016 40F68813 		movwmi	r3, #2440
 7604 001a 2380     		strhmi	r3, [r4]	@ movhi
2616:bluetooth_rxtx.c **** 
2617:bluetooth_rxtx.c **** 		// if the PC hasn't given us AA, determine by listening
ARM GAS  /tmp/ccUrIl19.s 			page 203


2618:bluetooth_rxtx.c **** 		if (!le.target_set) {
 7605              		.loc 1 2618 0
 7606 001c 236C     		ldr	r3, [r4, #64]
 7607 001e 4BB9     		cbnz	r3, .L804
2619:bluetooth_rxtx.c **** 			// cs_threshold_req = -80;
2620:bluetooth_rxtx.c **** 			cs_threshold_calc_and_set(channel);
 7608              		.loc 1 2620 0
 7609 0020 0F4B     		ldr	r3, .L811+4
 7610 0022 1888     		ldrh	r0, [r3]
 7611 0024 80B2     		uxth	r0, r0
 7612 0026 FFF7FEFF 		bl	cs_threshold_calc_and_set
 7613              	.LVL769:
2621:bluetooth_rxtx.c **** 			data_cb = cb_le_promisc;
 7614              		.loc 1 2621 0
 7615 002a 0E4B     		ldr	r3, .L811+8
2622:bluetooth_rxtx.c **** 			bt_generic_le(MODE_BT_PROMISC_LE);
 7616              		.loc 1 2622 0
 7617 002c 0A20     		movs	r0, #10
2621:bluetooth_rxtx.c **** 			data_cb = cb_le_promisc;
 7618              		.loc 1 2621 0
 7619 002e 6B62     		str	r3, [r5, #36]
 7620              		.loc 1 2622 0
 7621 0030 FFF7FEFF 		bl	bt_generic_le
 7622              	.LVL770:
 7623              	.L804:
2623:bluetooth_rxtx.c **** 		}
2624:bluetooth_rxtx.c **** 
2625:bluetooth_rxtx.c **** 		// could have got mode change in middle of above
2626:bluetooth_rxtx.c **** 		if (requested_mode != MODE_BT_PROMISC_LE)
 7624              		.loc 1 2626 0
 7625 0034 AD7C     		ldrb	r5, [r5, #18]	@ zero_extendqisi2
 7626 0036 EDB2     		uxtb	r5, r5
 7627 0038 0A2D     		cmp	r5, #10
 7628 003a 0DD1     		bne	.L801
2627:bluetooth_rxtx.c **** 			break;
2628:bluetooth_rxtx.c **** 
2629:bluetooth_rxtx.c **** 		le_promisc_state(0, &le.access_address, 4);
 7629              		.loc 1 2629 0
 7630 003c 0020     		movs	r0, #0
 7631 003e 0A49     		ldr	r1, .L811+12
 7632 0040 0422     		movs	r2, #4
 7633 0042 FFF7FEFF 		bl	le_promisc_state
 7634              	.LVL771:
2630:bluetooth_rxtx.c **** 		packet_cb = promisc_follow_cb;
 7635              		.loc 1 2630 0
 7636 0046 094A     		ldr	r2, .L811+16
 7637 0048 044B     		ldr	r3, .L811
2631:bluetooth_rxtx.c **** 		le.crc_verify = 0;
2632:bluetooth_rxtx.c **** 		bt_le_sync(MODE_BT_PROMISC_LE);
 7638              		.loc 1 2632 0
 7639 004a 2846     		mov	r0, r5
2630:bluetooth_rxtx.c **** 		packet_cb = promisc_follow_cb;
 7640              		.loc 1 2630 0
 7641 004c 9A61     		str	r2, [r3, #24]
2631:bluetooth_rxtx.c **** 		le.crc_verify = 0;
 7642              		.loc 1 2631 0
 7643 004e 0023     		movs	r3, #0
ARM GAS  /tmp/ccUrIl19.s 			page 204


 7644 0050 6361     		str	r3, [r4, #20]
 7645              		.loc 1 2632 0
 7646 0052 FFF7FEFF 		bl	bt_le_sync
 7647              	.LVL772:
 7648 0056 D4E7     		b	.L802
 7649              	.L801:
 7650 0058 38BD     		pop	{r3, r4, r5, pc}
 7651              	.L812:
 7652 005a 00BF     		.align	2
 7653              	.L811:
 7654 005c 00000000 		.word	.LANCHOR0
 7655 0060 00000000 		.word	.LANCHOR1
 7656 0064 00000000 		.word	cb_le_promisc
 7657 0068 04000000 		.word	.LANCHOR1+4
 7658 006c 00000000 		.word	promisc_follow_cb
 7659              		.cfi_endproc
 7660              	.LFE36:
 7662              		.section	.text.bt_slave_le,"ax",%progbits
 7663              		.align	1
 7664              		.global	bt_slave_le
 7665              		.thumb
 7666              		.thumb_func
 7668              	bt_slave_le:
 7669              	.LFB37:
2633:bluetooth_rxtx.c **** 	}
2634:bluetooth_rxtx.c **** }
2635:bluetooth_rxtx.c **** 
2636:bluetooth_rxtx.c **** void bt_slave_le() {
 7670              		.loc 1 2636 0
 7671              		.cfi_startproc
 7672              		@ args = 0, pretend = 0, frame = 40
 7673              		@ frame_needed = 0, uses_anonymous_args = 0
 7674 0000 2DE9F04F 		push	{r4, r5, r6, r7, r8, r9, r10, fp, lr}
 7675              		.cfi_def_cfa_offset 36
 7676              		.cfi_offset 4, -36
 7677              		.cfi_offset 5, -32
 7678              		.cfi_offset 6, -28
 7679              		.cfi_offset 7, -24
 7680              		.cfi_offset 8, -20
 7681              		.cfi_offset 9, -16
 7682              		.cfi_offset 10, -12
 7683              		.cfi_offset 11, -8
 7684              		.cfi_offset 14, -4
 7685 0004 8BB0     		sub	sp, sp, #44
 7686              		.cfi_def_cfa_offset 80
 7687              	.LVL773:
2637:bluetooth_rxtx.c **** 	u32 calc_crc;
2638:bluetooth_rxtx.c **** 	int i, j;
2639:bluetooth_rxtx.c **** 	int num_adv_ind = 1;
2640:bluetooth_rxtx.c **** 	int fin_adv_len = 0;
2641:bluetooth_rxtx.c **** 	u8 **adv_ind;
2642:bluetooth_rxtx.c **** 	u8 adv_ind_len;
2643:bluetooth_rxtx.c **** 	u16 ch[] = {2402, 2426, 2480};
 7688              		.loc 1 2643 0
 7689 0006 9649     		ldr	r1, .L859
2644:bluetooth_rxtx.c **** 
2645:bluetooth_rxtx.c **** 	u8 adv_overhead[20] = {0x42, 0x1d,	// adv_nonconn_ind, length 29 (0001 1101)
ARM GAS  /tmp/ccUrIl19.s 			page 205


 7690              		.loc 1 2645 0
 7691 0008 05AA     		add	r2, sp, #20
2643:bluetooth_rxtx.c **** 
 7692              		.loc 1 2643 0
 7693 000a 8B88     		ldrh	r3, [r1, #4]	@ unaligned
 7694 000c 0868     		ldr	r0, [r1]	@ unaligned
 7695 000e ADF81030 		strh	r3, [sp, #16]	@ unaligned
 7696 0012 0390     		str	r0, [sp, #12]	@ unaligned
 7697              		.loc 1 2645 0
 7698 0014 8B1D     		adds	r3, r1, #6
 7699 0016 01F11605 		add	r5, r1, #22
 7700              	.L814:
 7701 001a 1868     		ldr	r0, [r3]	@ unaligned
 7702 001c 5968     		ldr	r1, [r3, #4]	@ unaligned
 7703 001e 1446     		mov	r4, r2
 7704 0020 03C4     		stmia	r4!, {r0, r1}
 7705 0022 0833     		adds	r3, r3, #8
 7706 0024 AB42     		cmp	r3, r5
 7707 0026 2246     		mov	r2, r4
 7708 0028 F7D1     		bne	.L814
 7709 002a 1868     		ldr	r0, [r3]	@ unaligned
2646:bluetooth_rxtx.c **** 						   0xff, 0xff, 0xff, 0xff, 0xff, 0xff, // adv mac address
2647:bluetooth_rxtx.c **** 						   0x03, 0x03, 0xaa, 0xfe, // service advertised - len, type, eddystone UUID
2648:bluetooth_rxtx.c **** 						   0x12, 0x16, 0xaa, 0xfe, // len(3 + URL frame + Eddystone URL), type, eddystone UUID
2649:bluetooth_rxtx.c **** 						   0x10, 0x00, 0x02, // URL frame - frametype(URL), tx power, URL scheme prefix (0x02: http:/
2650:bluetooth_rxtx.c **** 						   0xaa }; // preamble 0xaa
2651:bluetooth_rxtx.c **** 
2652:bluetooth_rxtx.c **** 	for (i = 0; i < 6; i++)
2653:bluetooth_rxtx.c **** 		slave_mac_address[i] = slave_mac_address_data[i];
 7710              		.loc 1 2653 0
 7711 002c 8D4A     		ldr	r2, .L859+4
2645:bluetooth_rxtx.c **** 						   0xff, 0xff, 0xff, 0xff, 0xff, 0xff, // adv mac address
 7712              		.loc 1 2645 0
 7713 002e 2060     		str	r0, [r4]	@ unaligned
 7714              	.LVL774:
 7715              		.loc 1 2653 0
 7716 0030 1468     		ldr	r4, [r2]
2652:bluetooth_rxtx.c **** 		slave_mac_address[i] = slave_mac_address_data[i];
 7717              		.loc 1 2652 0
 7718 0032 0023     		movs	r3, #0
 7719 0034 9346     		mov	fp, r2
 7720              	.LVL775:
 7721              	.L816:
 7722              		.loc 1 2653 0 discriminator 2
 7723 0036 8C49     		ldr	r1, .L859+8
 7724 0038 E05C     		ldrb	r0, [r4, r3]	@ zero_extendqisi2
 7725 003a 01F14002 		add	r2, r1, #64
 7726 003e 9854     		strb	r0, [r3, r2]
2652:bluetooth_rxtx.c **** 		slave_mac_address[i] = slave_mac_address_data[i];
 7727              		.loc 1 2652 0 discriminator 2
 7728 0040 0133     		adds	r3, r3, #1
 7729              	.LVL776:
 7730 0042 062B     		cmp	r3, #6
 7731 0044 8946     		mov	r9, r1
 7732 0046 F6D1     		bne	.L816
2654:bluetooth_rxtx.c **** 
2655:bluetooth_rxtx.c **** 	// Standards said maximum advertising channel PDU length 39 bytes (adv payload 19 + 1 (preamble))
ARM GAS  /tmp/ccUrIl19.s 			page 206


2656:bluetooth_rxtx.c **** 	// There's a probem, actual maximum length 34 bytes (adv payload 14 + 1 (preamble)) in ubertooth
2657:bluetooth_rxtx.c **** 	// Nexsus 5 smartphone can not receive BLE packet which has length over 31 bytes (adv payload 11 +
2658:bluetooth_rxtx.c **** 	fin_adv_len = (dlen-6) % 11;
 7733              		.loc 1 2658 0
 7734 0048 0A6A     		ldr	r2, [r1, #32]
 7735 004a 0B23     		movs	r3, #11
 7736              	.LVL777:
 7737 004c 971F     		subs	r7, r2, #6
 7738 004e 97FBF3F6 		sdiv	r6, r7, r3
2659:bluetooth_rxtx.c **** 	if (dlen > 11 + 6) {
 7739              		.loc 1 2659 0
 7740 0052 112A     		cmp	r2, #17
2658:bluetooth_rxtx.c **** 	if (dlen > 11 + 6) {
 7741              		.loc 1 2658 0
 7742 0054 03FB1677 		mls	r7, r3, r6, r7
 7743              	.LVL778:
 7744              		.loc 1 2659 0
 7745 0058 02DD     		ble	.L846
 7746              	.LVL779:
2660:bluetooth_rxtx.c **** 		num_adv_ind = (dlen-6)/11 + 1;
2661:bluetooth_rxtx.c **** 		fin_adv_len = (dlen-6) % 11;
2662:bluetooth_rxtx.c **** 		if (fin_adv_len == 0) {
 7747              		.loc 1 2662 0
 7748 005a 1FB1     		cbz	r7, .L847
2660:bluetooth_rxtx.c **** 		num_adv_ind = (dlen-6)/11 + 1;
 7749              		.loc 1 2660 0
 7750 005c 0136     		adds	r6, r6, #1
 7751              	.LVL780:
 7752 005e 02E0     		b	.L817
 7753              	.LVL781:
 7754              	.L846:
2639:bluetooth_rxtx.c **** 	int fin_adv_len = 0;
 7755              		.loc 1 2639 0
 7756 0060 0126     		movs	r6, #1
 7757 0062 00E0     		b	.L817
 7758              	.LVL782:
 7759              	.L847:
2663:bluetooth_rxtx.c **** 			fin_adv_len = 11;
 7760              		.loc 1 2663 0
 7761 0064 1F46     		mov	r7, r3
 7762              	.LVL783:
 7763              	.L817:
2664:bluetooth_rxtx.c **** 			num_adv_ind = num_adv_ind - 1;}
2665:bluetooth_rxtx.c **** 	}
2666:bluetooth_rxtx.c **** 
2667:bluetooth_rxtx.c **** 	adv_ind = (u8**) malloc(sizeof(u8*)*num_adv_ind);
 7764              		.loc 1 2667 0
 7765 0066 B500     		lsls	r5, r6, #2
 7766 0068 2846     		mov	r0, r5
 7767 006a FFF7FEFF 		bl	malloc
 7768              	.LVL784:
2668:bluetooth_rxtx.c **** 	for (i=0; i< num_adv_ind-1; i++) {
 7769              		.loc 1 2668 0
 7770 006e 4FF00008 		mov	r8, #0
2667:bluetooth_rxtx.c **** 	for (i=0; i< num_adv_ind-1; i++) {
 7771              		.loc 1 2667 0
 7772 0072 0446     		mov	r4, r0
ARM GAS  /tmp/ccUrIl19.s 			page 207


 7773              	.LVL785:
 7774              	.L818:
 7775              		.loc 1 2668 0 discriminator 1
 7776 0074 06F1FF3A 		add	r10, r6, #-1
 7777 0078 D045     		cmp	r8, r10
 7778 007a 07DA     		bge	.L856
2669:bluetooth_rxtx.c **** 		adv_ind[i] = (u8*) malloc(sizeof(u8)*31);
 7779              		.loc 1 2669 0 discriminator 2
 7780 007c 1F20     		movs	r0, #31
 7781 007e FFF7FEFF 		bl	malloc
 7782              	.LVL786:
 7783 0082 44F82800 		str	r0, [r4, r8, lsl #2]
2668:bluetooth_rxtx.c **** 	for (i=0; i< num_adv_ind-1; i++) {
 7784              		.loc 1 2668 0 discriminator 2
 7785 0086 08F10108 		add	r8, r8, #1
 7786              	.LVL787:
 7787 008a F3E7     		b	.L818
 7788              	.L856:
2670:bluetooth_rxtx.c **** 	}
2671:bluetooth_rxtx.c **** 	adv_ind[num_adv_ind-1] = (u8*) malloc(sizeof(u8)*(fin_adv_len + 1 + 3 + 4 + 4 + 6 + 2 + 3));
 7789              		.loc 1 2671 0
 7790 008c 07F11700 		add	r0, r7, #23
 7791 0090 FFF7FEFF 		bl	malloc
 7792              	.LVL788:
 7793 0094 043D     		subs	r5, r5, #4
 7794 0096 6051     		str	r0, [r4, r5]
 7795              	.LVL789:
2672:bluetooth_rxtx.c **** 
2673:bluetooth_rxtx.c **** 	for (i=0; i< num_adv_ind; i++) {
 7796              		.loc 1 2673 0
 7797 0098 0025     		movs	r5, #0
 7798 009a A846     		mov	r8, r5
 7799              	.LVL790:
 7800              	.L820:
 7801              		.loc 1 2673 0 is_stmt 0 discriminator 1
 7802 009c B045     		cmp	r8, r6
 7803 009e 61DA     		bge	.L829
 7804              		.loc 1 2673 0
 7805 00a0 0023     		movs	r3, #0
 7806              	.L830:
 7807              	.LVL791:
2674:bluetooth_rxtx.c **** 		for (j=0; j<20; j++) adv_ind[i][j] = adv_overhead[j];
 7808              		.loc 1 2674 0 is_stmt 1 discriminator 2
 7809 00a2 05A8     		add	r0, sp, #20
 7810 00a4 C15C     		ldrb	r1, [r0, r3]	@ zero_extendqisi2
 7811 00a6 6259     		ldr	r2, [r4, r5]
 7812 00a8 D154     		strb	r1, [r2, r3]
 7813 00aa 0133     		adds	r3, r3, #1
 7814              	.LVL792:
 7815 00ac 142B     		cmp	r3, #20
 7816 00ae F8D1     		bne	.L830
 7817              		.loc 1 2674 0 is_stmt 0
 7818 00b0 0523     		movs	r3, #5
 7819              	.LVL793:
 7820              	.L823:
2675:bluetooth_rxtx.c **** 		for (j=0; j<6; j++) adv_ind[i][j+2] = slave_mac_address[5-j];
 7821              		.loc 1 2675 0 is_stmt 1 discriminator 2
ARM GAS  /tmp/ccUrIl19.s 			page 208


 7822 00b2 6E49     		ldr	r1, .L859+12
 7823 00b4 6259     		ldr	r2, [r4, r5]
 7824 00b6 C85C     		ldrb	r0, [r1, r3]	@ zero_extendqisi2
 7825 00b8 C3F10701 		rsb	r1, r3, #7
 7826 00bc 13F1FF33 		adds	r3, r3, #-1
 7827              	.LVL794:
 7828 00c0 5054     		strb	r0, [r2, r1]
 7829              	.LVL795:
 7830 00c2 F6D2     		bcs	.L823
2676:bluetooth_rxtx.c **** 		adv_ind[i][17] = (u8) num_adv_ind;
 7831              		.loc 1 2676 0
 7832 00c4 6359     		ldr	r3, [r4, r5]
2677:bluetooth_rxtx.c **** 		adv_ind[i][19] = adv_overhead[19] + (u8) i;
 7833              		.loc 1 2677 0
 7834 00c6 9DF82720 		ldrb	r2, [sp, #39]	@ zero_extendqisi2
2676:bluetooth_rxtx.c **** 		adv_ind[i][17] = (u8) num_adv_ind;
 7835              		.loc 1 2676 0
 7836 00ca 5E74     		strb	r6, [r3, #17]
 7837              		.loc 1 2677 0
 7838 00cc 6359     		ldr	r3, [r4, r5]
 7839 00ce 4244     		add	r2, r2, r8
2678:bluetooth_rxtx.c **** 		if (i < num_adv_ind -1) {
 7840              		.loc 1 2678 0
 7841 00d0 D045     		cmp	r8, r10
2677:bluetooth_rxtx.c **** 		adv_ind[i][19] = adv_overhead[19] + (u8) i;
 7842              		.loc 1 2677 0
 7843 00d2 DA74     		strb	r2, [r3, #19]
 7844              		.loc 1 2678 0
 7845 00d4 0FDA     		bge	.L824
 7846 00d6 0B21     		movs	r1, #11
 7847 00d8 01FB08F1 		mul	r1, r1, r8
 7848 00dc 1423     		movs	r3, #20
 7849              	.L826:
 7850              	.LVL796:
2679:bluetooth_rxtx.c **** 			for (j=0; j<11; j++) adv_ind[i][j+20] = slave_mac_address_data[6+11*i+j];
 7851              		.loc 1 2679 0 discriminator 2
 7852 00de DBF80020 		ldr	r2, [fp]
 7853 00e2 0A44     		add	r2, r2, r1
 7854 00e4 1A44     		add	r2, r2, r3
 7855 00e6 12F80E0C 		ldrb	r0, [r2, #-14]	@ zero_extendqisi2
 7856 00ea 6259     		ldr	r2, [r4, r5]
 7857 00ec D054     		strb	r0, [r2, r3]
 7858              	.LVL797:
 7859 00ee 0133     		adds	r3, r3, #1
 7860              	.LVL798:
 7861 00f0 1F2B     		cmp	r3, #31
 7862 00f2 F4D1     		bne	.L826
 7863 00f4 20E0     		b	.L825
 7864              	.LVL799:
 7865              	.L824:
 7866 00f6 4FF00B0E 		mov	lr, #11
 7867              	.LBB88:
2680:bluetooth_rxtx.c **** 			adv_ind_len = (u8) 31;
2681:bluetooth_rxtx.c **** 		} else {
2682:bluetooth_rxtx.c **** 			u8 tot_len = (u8)(fin_adv_len + 18);
 7868              		.loc 1 2682 0
 7869 00fa FAB2     		uxtb	r2, r7
ARM GAS  /tmp/ccUrIl19.s 			page 209


 7870 00fc 0EFB08FE 		mul	lr, lr, r8
2683:bluetooth_rxtx.c **** 			u8 adv_len = (u8)(fin_adv_len + 7);
 7871              		.loc 1 2683 0
 7872 0100 D31D     		adds	r3, r2, #7
 7873 0102 DBB2     		uxtb	r3, r3
2682:bluetooth_rxtx.c **** 			u8 adv_len = (u8)(fin_adv_len + 7);
 7874              		.loc 1 2682 0
 7875 0104 02F11200 		add	r0, r2, #18
 7876              		.loc 1 2683 0
 7877 0108 0193     		str	r3, [sp, #4]
2682:bluetooth_rxtx.c **** 			u8 adv_len = (u8)(fin_adv_len + 7);
 7878              		.loc 1 2682 0
 7879 010a C0B2     		uxtb	r0, r0
 7880              	.LVL800:
2684:bluetooth_rxtx.c **** 			for (j=0; j<fin_adv_len; j++) adv_ind[i][j+20] = slave_mac_address_data[6+11*i+j];
 7881              		.loc 1 2684 0
 7882 010c 0023     		movs	r3, #0
 7883              	.LVL801:
 7884              	.L827:
 7885              		.loc 1 2684 0 is_stmt 0 discriminator 1
 7886 010e BB42     		cmp	r3, r7
 7887 0110 0BDA     		bge	.L857
 7888              		.loc 1 2684 0 discriminator 2
 7889 0112 5449     		ldr	r1, .L859+4
 7890 0114 0968     		ldr	r1, [r1]
 7891 0116 7144     		add	r1, r1, lr
 7892 0118 1944     		add	r1, r1, r3
 7893 011a 91F806C0 		ldrb	ip, [r1, #6]	@ zero_extendqisi2
 7894 011e 6159     		ldr	r1, [r4, r5]
 7895 0120 1944     		add	r1, r1, r3
 7896 0122 81F814C0 		strb	ip, [r1, #20]
 7897 0126 0133     		adds	r3, r3, #1
 7898              	.LVL802:
 7899 0128 F1E7     		b	.L827
 7900              	.L857:
2685:bluetooth_rxtx.c **** 			adv_ind[i][1] = tot_len;
 7901              		.loc 1 2685 0 is_stmt 1
 7902 012a 6359     		ldr	r3, [r4, r5]
 7903              	.LVL803:
2686:bluetooth_rxtx.c **** 			adv_ind[i][12] = adv_len;
2687:bluetooth_rxtx.c **** 			adv_ind_len = (u8) (fin_adv_len + 20);
 7904              		.loc 1 2687 0
 7905 012c 1432     		adds	r2, r2, #20
2685:bluetooth_rxtx.c **** 			adv_ind[i][1] = tot_len;
 7906              		.loc 1 2685 0
 7907 012e 5870     		strb	r0, [r3, #1]
2686:bluetooth_rxtx.c **** 			adv_ind[i][12] = adv_len;
 7908              		.loc 1 2686 0
 7909 0130 6359     		ldr	r3, [r4, r5]
 7910 0132 0198     		ldr	r0, [sp, #4]
 7911              	.LVL804:
 7912 0134 1873     		strb	r0, [r3, #12]
 7913              		.loc 1 2687 0
 7914 0136 D3B2     		uxtb	r3, r2
 7915              	.LVL805:
 7916              	.L825:
 7917              	.LBE88:
ARM GAS  /tmp/ccUrIl19.s 			page 210


2688:bluetooth_rxtx.c **** 		}
2689:bluetooth_rxtx.c **** 
2690:bluetooth_rxtx.c **** 		// To stabilize carrier frequency offset
2691:bluetooth_rxtx.c **** 		// bit is transmitted in reversed sequence, (ex, 1010 1010 -> transmitted 0101 0101)
2692:bluetooth_rxtx.c **** 		// sequence which is {0x55, } after whitening : (0101 0101 -> 1010 1010)
2693:bluetooth_rxtx.c **** 		// 0  1  2  3  4  5  6  7  8  9  10 11 12 13 14 15 16 17 18 19 20 21 22 23 24 25 26 27 28 29 30 3
2694:bluetooth_rxtx.c **** 		// 27 78 fd 0b 97 0d cc 1a df 9b bb e2 3c dd 52 49 ec 43 01 7a 34 f9 99 72 10 32 a2 8e 61 91 56 d
2695:bluetooth_rxtx.c **** 		// sequence which is {0xaa, } after whitening : (1010 1010 -> 0101 0101)
2696:bluetooth_rxtx.c **** 		// d8 87 02 f4 68 f2 33 e5 20 64 44 1d c3 22 ad b6 13 bc fe 85 cb 06 66 8d ef cd 5d 71 9e 6e a9 2
2697:bluetooth_rxtx.c **** 		// sequence which is {0xab, } after whitening : (1010 1011 -> 1101 0101)
2698:bluetooth_rxtx.c **** 		// 58 07 82 74 e8 72 b3 65 a0 e4 c4 9d 43 a2 2d 36 93 3c 7e 05 4b 86 e6 0d 6f 4d dd f1 1e ee 29 a
2699:bluetooth_rxtx.c **** 		// sequence which is {0xd5, } after whitening : (1101 0101 -> 1010 1011)
2700:bluetooth_rxtx.c **** 		// 26 79 fc 0a 96 0c cd 1b de 9a ba e3 3d dc 53 48 ed 42 00 7b 35 f8 98 73 11 33 a3 8f 60 90 57 d
2701:bluetooth_rxtx.c **** 		/*
2702:bluetooth_rxtx.c **** 		adv_ind[i][8] = 0xdf;
2703:bluetooth_rxtx.c **** 		adv_ind[i][9] = 0x9b;
2704:bluetooth_rxtx.c **** 		adv_ind[i][10] = 0xbb;
2705:bluetooth_rxtx.c **** 		adv_ind[i][11] = 0xe2;
2706:bluetooth_rxtx.c **** 		adv_ind[i][12] = 0x3c;
2707:bluetooth_rxtx.c **** 		adv_ind[i][13] = 0xdd;
2708:bluetooth_rxtx.c **** 		adv_ind[i][14] = 0x52;
2709:bluetooth_rxtx.c **** 		adv_ind[i][15] = 0x49;
2710:bluetooth_rxtx.c **** 		adv_ind[i][16] = 0xec;
2711:bluetooth_rxtx.c **** 		adv_ind[i][17] = 0x43;
2712:bluetooth_rxtx.c **** 		adv_ind[i][18] = 0x00;
2713:bluetooth_rxtx.c **** 		adv_ind[i][19] = 0x7b;
2714:bluetooth_rxtx.c **** 		adv_ind[i][20] = 0x35;
2715:bluetooth_rxtx.c **** 		adv_ind[i][21] = 0xf8;
2716:bluetooth_rxtx.c **** 		adv_ind[i][22] = 0x98;
2717:bluetooth_rxtx.c **** 		adv_ind[i][23] = 0x73;
2718:bluetooth_rxtx.c **** 		adv_ind[i][24] = 0x11;
2719:bluetooth_rxtx.c **** 		adv_ind[i][25] = 0x33;
2720:bluetooth_rxtx.c **** 		adv_ind[i][26] = 0xa3;
2721:bluetooth_rxtx.c **** 		adv_ind[i][27] = 0x8f;
2722:bluetooth_rxtx.c **** 		*/
2723:bluetooth_rxtx.c **** 		////////
2724:bluetooth_rxtx.c **** 		
2725:bluetooth_rxtx.c **** 		calc_crc = btle_calc_crc(le.crc_init_reversed, adv_ind[i], adv_ind_len);
 7918              		.loc 1 2725 0
 7919 0138 4D4A     		ldr	r2, .L859+16
 7920 013a 6159     		ldr	r1, [r4, r5]
 7921 013c 1069     		ldr	r0, [r2, #16]
 7922 013e 1A46     		mov	r2, r3
 7923 0140 0093     		str	r3, [sp]
 7924 0142 FFF7FEFF 		bl	btle_calc_crc
 7925              	.LVL806:
2726:bluetooth_rxtx.c **** 		adv_ind_len = (int) adv_ind_len;
2727:bluetooth_rxtx.c **** 		adv_ind[i][adv_ind_len+0] = (calc_crc >> 0) & 0xff;
 7926              		.loc 1 2727 0
 7927 0146 6259     		ldr	r2, [r4, r5]
 7928 0148 009B     		ldr	r3, [sp]
2728:bluetooth_rxtx.c **** 		adv_ind[i][adv_ind_len+1] = (calc_crc >> 8) & 0xff;
 7929              		.loc 1 2728 0
 7930 014a 010A     		lsrs	r1, r0, #8
2727:bluetooth_rxtx.c **** 		adv_ind[i][adv_ind_len+1] = (calc_crc >> 8) & 0xff;
 7931              		.loc 1 2727 0
 7932 014c D054     		strb	r0, [r2, r3]
ARM GAS  /tmp/ccUrIl19.s 			page 211


 7933              	.LVL807:
 7934              		.loc 1 2728 0
 7935 014e 6259     		ldr	r2, [r4, r5]
2729:bluetooth_rxtx.c **** 		adv_ind[i][adv_ind_len+2] = (calc_crc >> 16) & 0xff;
 7936              		.loc 1 2729 0
 7937 0150 000C     		lsrs	r0, r0, #16
 7938              	.LVL808:
2728:bluetooth_rxtx.c **** 		adv_ind[i][adv_ind_len+1] = (calc_crc >> 8) & 0xff;
 7939              		.loc 1 2728 0
 7940 0152 1A44     		add	r2, r2, r3
 7941 0154 5170     		strb	r1, [r2, #1]
 7942              		.loc 1 2729 0
 7943 0156 6259     		ldr	r2, [r4, r5]
2673:bluetooth_rxtx.c **** 		for (j=0; j<20; j++) adv_ind[i][j] = adv_overhead[j];
 7944              		.loc 1 2673 0
 7945 0158 08F10108 		add	r8, r8, #1
 7946              	.LVL809:
 7947              		.loc 1 2729 0
 7948 015c 1344     		add	r3, r3, r2
 7949 015e 9870     		strb	r0, [r3, #2]
 7950 0160 0435     		adds	r5, r5, #4
 7951 0162 9BE7     		b	.L820
 7952              	.L829:
2730:bluetooth_rxtx.c **** 	}
2731:bluetooth_rxtx.c **** 
2732:bluetooth_rxtx.c **** 	clkn_start();
 7953              		.loc 1 2732 0
 7954 0164 FFF7FEFF 		bl	clkn_start
 7955              	.LVL810:
 7956              	.L831:
2733:bluetooth_rxtx.c **** 
2734:bluetooth_rxtx.c **** 	// spam advertising packets
2735:bluetooth_rxtx.c **** 	while (requested_mode == MODE_BT_SLAVE_LE) {
 7957              		.loc 1 2735 0 discriminator 1
 7958 0168 99F81220 		ldrb	r2, [r9, #18]	@ zero_extendqisi2
 7959 016c 3E4B     		ldr	r3, .L859+8
 7960 016e 0C2A     		cmp	r2, #12
 7961 0170 32D1     		bne	.L832
2736:bluetooth_rxtx.c **** 		if (requested_mode != mode) break;
 7962              		.loc 1 2736 0
 7963 0172 9A7C     		ldrb	r2, [r3, #18]	@ zero_extendqisi2
 7964 0174 5B7C     		ldrb	r3, [r3, #17]	@ zero_extendqisi2
 7965 0176 9A42     		cmp	r2, r3
 7966 0178 2ED1     		bne	.L832
2737:bluetooth_rxtx.c **** 		ICER0 = ICER0_ICE_USB;
 7967              		.loc 1 2737 0
 7968 017a 3E4B     		ldr	r3, .L859+20
 7969 017c 4FF08072 		mov	r2, #16777216
 7970 0180 1A60     		str	r2, [r3]
2738:bluetooth_rxtx.c **** 		ICER0 = ICER0_ICE_DMA;
 7971              		.loc 1 2738 0
 7972 0182 4FF08062 		mov	r2, #67108864
 7973 0186 1A60     		str	r2, [r3]
 7974              	.LVL811:
 7975 0188 4FF00008 		mov	r8, #0
 7976              	.LVL812:
 7977              	.L833:
ARM GAS  /tmp/ccUrIl19.s 			page 212


2673:bluetooth_rxtx.c **** 		for (j=0; j<20; j++) adv_ind[i][j] = adv_overhead[j];
 7978              		.loc 1 2673 0 discriminator 1
 7979 018c 0025     		movs	r5, #0
 7980              	.L838:
 7981              	.LVL813:
2739:bluetooth_rxtx.c **** 		for(i=0; i<3; i++) {
2740:bluetooth_rxtx.c **** 			for(j=0; j<num_adv_ind; j++) {
 7982              		.loc 1 2740 0 discriminator 1
 7983 018e B542     		cmp	r5, r6
 7984 0190 13DA     		bge	.L858
2741:bluetooth_rxtx.c **** 				if (j < num_adv_ind -1) {
 7985              		.loc 1 2741 0
 7986 0192 5545     		cmp	r5, r10
 7987 0194 03AB     		add	r3, sp, #12
 7988 0196 02DA     		bge	.L834
 7989              	.LVL814:
2742:bluetooth_rxtx.c **** 					adv_ind_len = (u8) (31 + 3);
2743:bluetooth_rxtx.c **** 					le_transmit(0x8e89bed7, adv_ind_len, adv_ind[j], ch[i]);
 7990              		.loc 1 2743 0
 7991 0198 3748     		ldr	r0, .L859+24
 7992 019a 2221     		movs	r1, #34
 7993 019c 03E0     		b	.L854
 7994              	.LVL815:
 7995              	.L834:
2744:bluetooth_rxtx.c **** 				} else {
2745:bluetooth_rxtx.c **** 					adv_ind_len = (u8) (fin_adv_len + 20 + 3);
 7996              		.loc 1 2745 0
 7997 019e 07F11701 		add	r1, r7, #23
2746:bluetooth_rxtx.c **** 					le_transmit(0x8e89bed7, adv_ind_len, adv_ind[j], ch[i]);
 7998              		.loc 1 2746 0
 7999 01a2 3548     		ldr	r0, .L859+24
 8000 01a4 C9B2     		uxtb	r1, r1
 8001              	.LVL816:
 8002              	.L854:
 8003 01a6 54F82520 		ldr	r2, [r4, r5, lsl #2]
 8004 01aa 33F80830 		ldrh	r3, [r3, r8]
 8005 01ae FFF7FEFF 		bl	le_transmit
 8006              	.LVL817:
2740:bluetooth_rxtx.c **** 				if (j < num_adv_ind -1) {
 8007              		.loc 1 2740 0
 8008 01b2 0135     		adds	r5, r5, #1
 8009              	.LVL818:
2747:bluetooth_rxtx.c **** 				}
2748:bluetooth_rxtx.c **** 				msleep(10);
 8010              		.loc 1 2748 0
 8011 01b4 FFF7FEFF 		bl	msleep.constprop.3
 8012              	.LVL819:
 8013 01b8 E9E7     		b	.L838
 8014              	.L858:
 8015 01ba 08F10208 		add	r8, r8, #2
2739:bluetooth_rxtx.c **** 			for(j=0; j<num_adv_ind; j++) {
 8016              		.loc 1 2739 0
 8017 01be B8F1060F 		cmp	r8, #6
 8018 01c2 E3D1     		bne	.L833
2749:bluetooth_rxtx.c **** 			}
2750:bluetooth_rxtx.c **** 			//msleep(5);
2751:bluetooth_rxtx.c **** 		}
ARM GAS  /tmp/ccUrIl19.s 			page 213


2752:bluetooth_rxtx.c **** 		ISER0 = ISER0_ISE_USB;
 8019              		.loc 1 2752 0
 8020 01c4 2D4B     		ldr	r3, .L859+28
 8021 01c6 4FF08072 		mov	r2, #16777216
 8022 01ca 1A60     		str	r2, [r3]
2753:bluetooth_rxtx.c **** 		ISER0 = ISER0_ISE_DMA;
 8023              		.loc 1 2753 0
 8024 01cc 4FF08062 		mov	r2, #67108864
 8025 01d0 1A60     		str	r2, [r3]
2754:bluetooth_rxtx.c **** 		msleep(10);
 8026              		.loc 1 2754 0
 8027 01d2 FFF7FEFF 		bl	msleep.constprop.3
 8028              	.LVL820:
 8029 01d6 C7E7     		b	.L831
 8030              	.LVL821:
 8031              	.L832:
2755:bluetooth_rxtx.c **** 	}
2756:bluetooth_rxtx.c **** 	if (requested_mode == MODE_BT_SYNC_LE) {
 8032              		.loc 1 2756 0
 8033 01d8 99F81230 		ldrb	r3, [r9, #18]	@ zero_extendqisi2
 8034 01dc 132B     		cmp	r3, #19
 8035 01de 3BD1     		bne	.L813
2757:bluetooth_rxtx.c **** 		ICER0 = ICER0_ICE_USB;
 8036              		.loc 1 2757 0
 8037 01e0 244B     		ldr	r3, .L859+20
 8038 01e2 4FF08072 		mov	r2, #16777216
 8039 01e6 1A60     		str	r2, [r3]
2758:bluetooth_rxtx.c **** 		ICER0 = ICER0_ICE_DMA;
 8040              		.loc 1 2758 0
 8041 01e8 4FF08062 		mov	r2, #67108864
 8042 01ec 1A60     		str	r2, [r3]
 8043              	.LVL822:
2759:bluetooth_rxtx.c **** 		for(i=0; i<1; i++) {
2760:bluetooth_rxtx.c **** 			for(j=0; j<num_adv_ind; j++) {
 8044              		.loc 1 2760 0
 8045 01ee 0025     		movs	r5, #0
 8046              	.L844:
 8047              	.LVL823:
 8048 01f0 B542     		cmp	r5, r6
 8049 01f2 10DA     		bge	.L841
2761:bluetooth_rxtx.c **** 				if (j < num_adv_ind -1) {
 8050              		.loc 1 2761 0
 8051 01f4 5545     		cmp	r5, r10
 8052 01f6 BDF80C30 		ldrh	r3, [sp, #12]
 8053 01fa 04DB     		blt	.L842
 8054              	.LVL824:
2762:bluetooth_rxtx.c **** 					adv_ind_len = (u8) (31 + 3);
2763:bluetooth_rxtx.c **** 					le_transmit(0x8e89bed7, adv_ind_len, adv_ind[j], ch[i]);
2764:bluetooth_rxtx.c **** 				} else {
2765:bluetooth_rxtx.c **** 					adv_ind_len = (u8) (fin_adv_len + 20 + 3);
 8055              		.loc 1 2765 0
 8056 01fc 07F11701 		add	r1, r7, #23
2766:bluetooth_rxtx.c **** 					le_transmit(0x8e89bed7, adv_ind_len, adv_ind[j], ch[i]);
 8057              		.loc 1 2766 0
 8058 0200 1D48     		ldr	r0, .L859+24
 8059 0202 C9B2     		uxtb	r1, r1
 8060 0204 01E0     		b	.L855
ARM GAS  /tmp/ccUrIl19.s 			page 214


 8061              	.LVL825:
 8062              	.L842:
2763:bluetooth_rxtx.c **** 				} else {
 8063              		.loc 1 2763 0
 8064 0206 1C48     		ldr	r0, .L859+24
 8065 0208 2221     		movs	r1, #34
 8066              	.LVL826:
 8067              	.L855:
 8068 020a 54F82520 		ldr	r2, [r4, r5, lsl #2]
 8069 020e FFF7FEFF 		bl	le_transmit
 8070              	.LVL827:
2760:bluetooth_rxtx.c **** 				if (j < num_adv_ind -1) {
 8071              		.loc 1 2760 0
 8072 0212 0135     		adds	r5, r5, #1
 8073              	.LVL828:
 8074 0214 ECE7     		b	.L844
 8075              	.L841:
 8076              	.LVL829:
2767:bluetooth_rxtx.c **** 				}
2768:bluetooth_rxtx.c **** 		//		msleep(10);
2769:bluetooth_rxtx.c **** 			}
2770:bluetooth_rxtx.c **** 		//	msleep(10);
2771:bluetooth_rxtx.c **** 		}
2772:bluetooth_rxtx.c **** 		now_sync = (clkn & 0xffffff);
 8077              		.loc 1 2772 0
 8078 0216 1A4B     		ldr	r3, .L859+32
2773:bluetooth_rxtx.c **** 		start_sync = now_sync + 100 * 10000 / 3125; // wait for 100 ms
2774:bluetooth_rxtx.c **** 
2775:bluetooth_rxtx.c **** 		ISER0 = ISER0_ISE_USB;
2776:bluetooth_rxtx.c **** 		ISER0 = ISER0_ISE_DMA;
 8079              		.loc 1 2776 0
 8080 0218 4FF08062 		mov	r2, #67108864
2772:bluetooth_rxtx.c **** 		start_sync = now_sync + 100 * 10000 / 3125; // wait for 100 ms
 8081              		.loc 1 2772 0
 8082 021c 1B68     		ldr	r3, [r3]
2775:bluetooth_rxtx.c **** 		ISER0 = ISER0_ISE_DMA;
 8083              		.loc 1 2775 0
 8084 021e 4FF08074 		mov	r4, #16777216
 8085              	.LVL830:
2772:bluetooth_rxtx.c **** 		start_sync = now_sync + 100 * 10000 / 3125; // wait for 100 ms
 8086              		.loc 1 2772 0
 8087 0222 23F07F43 		bic	r3, r3, #-16777216
 8088 0226 C9F82C30 		str	r3, [r9, #44]
2773:bluetooth_rxtx.c **** 		start_sync = now_sync + 100 * 10000 / 3125; // wait for 100 ms
 8089              		.loc 1 2773 0
 8090 022a 03F5A073 		add	r3, r3, #320
 8091 022e C9F82830 		str	r3, [r9, #40]
2775:bluetooth_rxtx.c **** 		ISER0 = ISER0_ISE_DMA;
 8092              		.loc 1 2775 0
 8093 0232 124B     		ldr	r3, .L859+28
2777:bluetooth_rxtx.c **** 
2778:bluetooth_rxtx.c **** 		requested_mode = MODE_BT_RSSI_LE;
 8094              		.loc 1 2778 0
 8095 0234 1220     		movs	r0, #18
2775:bluetooth_rxtx.c **** 		ISER0 = ISER0_ISE_DMA;
 8096              		.loc 1 2775 0
 8097 0236 1C60     		str	r4, [r3]
ARM GAS  /tmp/ccUrIl19.s 			page 215


2776:bluetooth_rxtx.c **** 
 8098              		.loc 1 2776 0
 8099 0238 1A60     		str	r2, [r3]
 8100              		.loc 1 2778 0
 8101 023a 89F81200 		strb	r0, [r9, #18]
2779:bluetooth_rxtx.c **** 		bt_le_sync_rssi(MODE_BT_RSSI_LE);
 8102              		.loc 1 2779 0
 8103 023e FFF7FEFF 		bl	bt_le_sync_rssi
 8104              	.LVL831:
2780:bluetooth_rxtx.c **** 		
2781:bluetooth_rxtx.c **** 		ICER0 = ICER0_ICE_USB;
 8105              		.loc 1 2781 0
 8106 0242 0C4B     		ldr	r3, .L859+20
 8107 0244 1C60     		str	r4, [r3]
2782:bluetooth_rxtx.c **** 		cc2400_idle();
 8108              		.loc 1 2782 0
 8109 0246 FFF7FEFF 		bl	cc2400_idle
 8110              	.LVL832:
2783:bluetooth_rxtx.c **** 		dio_ssp_stop ();
 8111              		.loc 1 2783 0
 8112 024a FFF7FEFF 		bl	dio_ssp_stop
 8113              	.LVL833:
2784:bluetooth_rxtx.c **** 		cs_trigger_disable();
2785:bluetooth_rxtx.c **** 	}
2786:bluetooth_rxtx.c **** 
2787:bluetooth_rxtx.c **** }
 8114              		.loc 1 2787 0
 8115 024e 0BB0     		add	sp, sp, #44
 8116              		@ sp needed
 8117 0250 BDE8F04F 		pop	{r4, r5, r6, r7, r8, r9, r10, fp, lr}
 8118              	.LVL834:
2784:bluetooth_rxtx.c **** 		cs_trigger_disable();
 8119              		.loc 1 2784 0
 8120 0254 FFF7FEBF 		b	cs_trigger_disable
 8121              	.LVL835:
 8122              	.L813:
 8123              		.loc 1 2787 0
 8124 0258 0BB0     		add	sp, sp, #44
 8125              		@ sp needed
 8126 025a BDE8F08F 		pop	{r4, r5, r6, r7, r8, r9, r10, fp, pc}
 8127              	.LVL836:
 8128              	.L860:
 8129 025e 00BF     		.align	2
 8130              	.L859:
 8131 0260 A8080000 		.word	.LANCHOR2+2216
 8132 0264 00000000 		.word	slave_mac_address_data
 8133 0268 00000000 		.word	.LANCHOR0
 8134 026c 40000000 		.word	.LANCHOR0+64
 8135 0270 00000000 		.word	.LANCHOR1
 8136 0274 80E100E0 		.word	-536813184
 8137 0278 D7BE898E 		.word	-1903575337
 8138 027c 00E100E0 		.word	-536813312
 8139 0280 00000000 		.word	clkn
 8140              		.cfi_endproc
 8141              	.LFE37:
 8143              		.section	.text.rx_generic_sync,"ax",%progbits
 8144              		.align	1
ARM GAS  /tmp/ccUrIl19.s 			page 216


 8145              		.global	rx_generic_sync
 8146              		.thumb
 8147              		.thumb_func
 8149              	rx_generic_sync:
 8150              	.LFB38:
2788:bluetooth_rxtx.c **** 
2789:bluetooth_rxtx.c **** void rx_generic_sync(void) {
 8151              		.loc 1 2789 0
 8152              		.cfi_startproc
 8153              		@ args = 0, pretend = 0, frame = 40
 8154              		@ frame_needed = 0, uses_anonymous_args = 0
 8155 0000 00B5     		push	{lr}
 8156              		.cfi_def_cfa_offset 4
 8157              		.cfi_offset 14, -4
 8158 0002 8BB0     		sub	sp, sp, #44
 8159              		.cfi_def_cfa_offset 48
 8160              	.LVL837:
2790:bluetooth_rxtx.c **** 	u8 len = 32;
2791:bluetooth_rxtx.c **** 	u8 buf[len+4];
2792:bluetooth_rxtx.c **** 	u16 reg_val;
2793:bluetooth_rxtx.c **** 
2794:bluetooth_rxtx.c **** 	/* Put syncword at start of buffer
2795:bluetooth_rxtx.c **** 	 * DGS: fix this later, we don't know number of syncword bytes, etc
2796:bluetooth_rxtx.c **** 	 */
2797:bluetooth_rxtx.c **** 	reg_val = cc2400_get(SYNCH);
 8161              		.loc 1 2797 0
 8162 0004 2D20     		movs	r0, #45
 8163 0006 FFF7FEFF 		bl	cc2400_get
 8164              	.LVL838:
2798:bluetooth_rxtx.c **** 	buf[0] = (reg_val >> 8) & 0xFF;
 8165              		.loc 1 2798 0
 8166 000a 030A     		lsrs	r3, r0, #8
2799:bluetooth_rxtx.c **** 	buf[1] = reg_val & 0xFF;
 8167              		.loc 1 2799 0
 8168 000c 8DF80500 		strb	r0, [sp, #5]
2800:bluetooth_rxtx.c **** 	reg_val = cc2400_get(SYNCL);
 8169              		.loc 1 2800 0
 8170 0010 2C20     		movs	r0, #44
 8171              	.LVL839:
2798:bluetooth_rxtx.c **** 	buf[0] = (reg_val >> 8) & 0xFF;
 8172              		.loc 1 2798 0
 8173 0012 8DF80430 		strb	r3, [sp, #4]
 8174              		.loc 1 2800 0
 8175 0016 FFF7FEFF 		bl	cc2400_get
 8176              	.LVL840:
2801:bluetooth_rxtx.c **** 	buf[2] = (reg_val >> 8) & 0xFF;
 8177              		.loc 1 2801 0
 8178 001a 030A     		lsrs	r3, r0, #8
 8179 001c 8DF80630 		strb	r3, [sp, #6]
2802:bluetooth_rxtx.c **** 	buf[3] = reg_val & 0xFF;
 8180              		.loc 1 2802 0
 8181 0020 8DF80700 		strb	r0, [sp, #7]
2803:bluetooth_rxtx.c **** 
2804:bluetooth_rxtx.c **** 	queue_init();
 8182              		.loc 1 2804 0
 8183 0024 FFF7FEFF 		bl	queue_init
 8184              	.LVL841:
ARM GAS  /tmp/ccUrIl19.s 			page 217


2805:bluetooth_rxtx.c **** 	clkn_start();
 8185              		.loc 1 2805 0
 8186 0028 FFF7FEFF 		bl	clkn_start
 8187              	.LVL842:
 8188              	.L863:
2806:bluetooth_rxtx.c **** 
2807:bluetooth_rxtx.c **** 	while (!(cc2400_status() & XOSC16M_STABLE));
 8189              		.loc 1 2807 0 discriminator 1
 8190 002c FFF7FEFF 		bl	cc2400_status
 8191              	.LVL843:
 8192 0030 4006     		lsls	r0, r0, #25
 8193 0032 FBD5     		bpl	.L863
2808:bluetooth_rxtx.c **** 	cc2400_strobe(SFSON);
 8194              		.loc 1 2808 0
 8195 0034 6120     		movs	r0, #97
 8196 0036 FFF7FEFF 		bl	cc2400_strobe
 8197              	.LVL844:
 8198              	.L865:
2809:bluetooth_rxtx.c **** 	while (!(cc2400_status() & FS_LOCK));
 8199              		.loc 1 2809 0 discriminator 1
 8200 003a FFF7FEFF 		bl	cc2400_status
 8201              	.LVL845:
 8202 003e 4107     		lsls	r1, r0, #29
 8203 0040 FBD5     		bpl	.L865
2810:bluetooth_rxtx.c **** 	RXLED_SET;
 8204              		.loc 1 2810 0
 8205 0042 144B     		ldr	r3, .L871
 8206 0044 1022     		movs	r2, #16
 8207 0046 1A60     		str	r2, [r3]
2811:bluetooth_rxtx.c **** #ifdef UBERTOOTH_ONE
2812:bluetooth_rxtx.c **** 		PAEN_SET;
 8208              		.loc 1 2812 0
 8209 0048 8022     		movs	r2, #128
 8210 004a 1A62     		str	r2, [r3, #32]
2813:bluetooth_rxtx.c **** 		HGM_SET;
 8211              		.loc 1 2813 0
 8212 004c 4FF48072 		mov	r2, #256
 8213 0050 1A62     		str	r2, [r3, #32]
 8214              	.L867:
2814:bluetooth_rxtx.c **** #endif
2815:bluetooth_rxtx.c **** 	while (1) {
2816:bluetooth_rxtx.c **** 		while ((cc2400_get(FSMSTATE) & 0x1f) != STATE_STROBE_FS_ON);
 8215              		.loc 1 2816 0 discriminator 1
 8216 0052 0E20     		movs	r0, #14
 8217 0054 FFF7FEFF 		bl	cc2400_get
 8218              	.LVL846:
 8219 0058 00F01F00 		and	r0, r0, #31
 8220 005c 0F28     		cmp	r0, #15
 8221 005e F8D1     		bne	.L867
2817:bluetooth_rxtx.c **** 		cc2400_strobe(SRX);
 8222              		.loc 1 2817 0
 8223 0060 6220     		movs	r0, #98
 8224 0062 FFF7FEFF 		bl	cc2400_strobe
 8225              	.LVL847:
2818:bluetooth_rxtx.c **** 		USRLED_CLR;
 8226              		.loc 1 2818 0
 8227 0066 0C4B     		ldr	r3, .L871+4
ARM GAS  /tmp/ccUrIl19.s 			page 218


 8228 0068 0222     		movs	r2, #2
 8229 006a 1A60     		str	r2, [r3]
 8230              	.L869:
2819:bluetooth_rxtx.c **** 		while (!(cc2400_status() & SYNC_RECEIVED));
 8231              		.loc 1 2819 0 discriminator 1
 8232 006c FFF7FEFF 		bl	cc2400_status
 8233              	.LVL848:
 8234 0070 C206     		lsls	r2, r0, #27
 8235 0072 FBD5     		bpl	.L869
2820:bluetooth_rxtx.c **** 		USRLED_SET;
 8236              		.loc 1 2820 0
 8237 0074 074B     		ldr	r3, .L871
 8238 0076 0222     		movs	r2, #2
 8239 0078 1A60     		str	r2, [r3]
2821:bluetooth_rxtx.c **** 
2822:bluetooth_rxtx.c **** 		cc2400_fifo_read(len, buf+4);
 8240              		.loc 1 2822 0
 8241 007a 02A9     		add	r1, sp, #8
 8242 007c 2020     		movs	r0, #32
 8243 007e FFF7FEFF 		bl	cc2400_fifo_read
 8244              	.LVL849:
2823:bluetooth_rxtx.c **** 		enqueue(BR_PACKET, buf);
 8245              		.loc 1 2823 0
 8246 0082 01A9     		add	r1, sp, #4
 8247              	.LVL850:
 8248 0084 0020     		movs	r0, #0
 8249 0086 FFF7FEFF 		bl	enqueue
 8250              	.LVL851:
2824:bluetooth_rxtx.c **** 		handle_usb(clkn);
 8251              		.loc 1 2824 0
 8252 008a 044B     		ldr	r3, .L871+8
 8253 008c 1868     		ldr	r0, [r3]
 8254 008e FFF7FEFF 		bl	handle_usb
 8255              	.LVL852:
2825:bluetooth_rxtx.c **** 	}
 8256              		.loc 1 2825 0
 8257 0092 DEE7     		b	.L867
 8258              	.L872:
 8259              		.align	2
 8260              	.L871:
 8261 0094 38C00920 		.word	537509944
 8262 0098 3CC00920 		.word	537509948
 8263 009c 00000000 		.word	clkn
 8264              		.cfi_endproc
 8265              	.LFE38:
 8267              		.section	.text.rx_generic,"ax",%progbits
 8268              		.align	1
 8269              		.global	rx_generic
 8270              		.thumb
 8271              		.thumb_func
 8273              	rx_generic:
 8274              	.LFB39:
2826:bluetooth_rxtx.c **** }
2827:bluetooth_rxtx.c **** 
2828:bluetooth_rxtx.c **** void rx_generic(void) {
 8275              		.loc 1 2828 0
 8276              		.cfi_startproc
ARM GAS  /tmp/ccUrIl19.s 			page 219


 8277              		@ args = 0, pretend = 0, frame = 0
 8278              		@ frame_needed = 0, uses_anonymous_args = 0
 8279 0000 08B5     		push	{r3, lr}
 8280              		.cfi_def_cfa_offset 8
 8281              		.cfi_offset 3, -8
 8282              		.cfi_offset 14, -4
2829:bluetooth_rxtx.c **** 	// Check for packet mode
2830:bluetooth_rxtx.c **** 	if(cc2400_get(GRMDM) && 0x0400) {
 8283              		.loc 1 2830 0
 8284 0002 2020     		movs	r0, #32
 8285 0004 FFF7FEFF 		bl	cc2400_get
 8286              	.LVL853:
 8287 0008 08B1     		cbz	r0, .L874
2831:bluetooth_rxtx.c **** 		rx_generic_sync();
 8288              		.loc 1 2831 0
 8289 000a FFF7FEFF 		bl	rx_generic_sync
 8290              	.LVL854:
 8291              	.L874:
2832:bluetooth_rxtx.c **** 	} else {
2833:bluetooth_rxtx.c **** 		modulation = MOD_NONE;
 8292              		.loc 1 2833 0
 8293 000e 034B     		ldr	r3, .L875
 8294 0010 0322     		movs	r2, #3
 8295 0012 1A70     		strb	r2, [r3]
2834:bluetooth_rxtx.c **** 		bt_stream_rx();
2835:bluetooth_rxtx.c **** 	}
2836:bluetooth_rxtx.c **** }
 8296              		.loc 1 2836 0
 8297 0014 BDE80840 		pop	{r3, lr}
2834:bluetooth_rxtx.c **** 		bt_stream_rx();
 8298              		.loc 1 2834 0
 8299 0018 FFF7FEBF 		b	bt_stream_rx
 8300              	.LVL855:
 8301              	.L876:
 8302              		.align	2
 8303              	.L875:
 8304 001c 00000000 		.word	.LANCHOR0
 8305              		.cfi_endproc
 8306              	.LFE39:
 8308              		.section	.text.tx_generic,"ax",%progbits
 8309              		.align	1
 8310              		.global	tx_generic
 8311              		.thumb
 8312              		.thumb_func
 8314              	tx_generic:
 8315              	.LFB40:
2837:bluetooth_rxtx.c **** 
2838:bluetooth_rxtx.c **** void tx_generic(void) {
 8316              		.loc 1 2838 0
 8317              		.cfi_startproc
 8318              		@ args = 0, pretend = 0, frame = 0
 8319              		@ frame_needed = 0, uses_anonymous_args = 0
 8320 0000 2DE9F041 		push	{r4, r5, r6, r7, r8, lr}
 8321              		.cfi_def_cfa_offset 24
 8322              		.cfi_offset 4, -24
 8323              		.cfi_offset 5, -20
 8324              		.cfi_offset 6, -16
ARM GAS  /tmp/ccUrIl19.s 			page 220


 8325              		.cfi_offset 7, -12
 8326              		.cfi_offset 8, -8
 8327              		.cfi_offset 14, -4
2839:bluetooth_rxtx.c **** 	u16 synch, syncl;
2840:bluetooth_rxtx.c **** 	u8 prev_mode = mode;
 8328              		.loc 1 2840 0
 8329 0004 354D     		ldr	r5, .L888
2841:bluetooth_rxtx.c **** 
2842:bluetooth_rxtx.c **** 	mode = MODE_TX_GENERIC;
 8330              		.loc 1 2842 0
 8331 0006 1023     		movs	r3, #16
2843:bluetooth_rxtx.c **** 
2844:bluetooth_rxtx.c **** 	// Save existing syncword
2845:bluetooth_rxtx.c **** 	synch = cc2400_get(SYNCH);
 8332              		.loc 1 2845 0
 8333 0008 2D20     		movs	r0, #45
2840:bluetooth_rxtx.c **** 
 8334              		.loc 1 2840 0
 8335 000a 6E7C     		ldrb	r6, [r5, #17]	@ zero_extendqisi2
2842:bluetooth_rxtx.c **** 
 8336              		.loc 1 2842 0
 8337 000c 6B74     		strb	r3, [r5, #17]
 8338              		.loc 1 2845 0
 8339 000e FFF7FEFF 		bl	cc2400_get
 8340              	.LVL856:
 8341 0012 8046     		mov	r8, r0
2846:bluetooth_rxtx.c **** 	syncl = cc2400_get(SYNCL);
 8342              		.loc 1 2846 0
 8343 0014 2C20     		movs	r0, #44
 8344 0016 FFF7FEFF 		bl	cc2400_get
 8345              	.LVL857:
2847:bluetooth_rxtx.c **** 
2848:bluetooth_rxtx.c **** 	cc2400_set(SYNCH, tx_pkt.synch);
 8346              		.loc 1 2848 0
 8347 001a 314C     		ldr	r4, .L888+4
2846:bluetooth_rxtx.c **** 	syncl = cc2400_get(SYNCL);
 8348              		.loc 1 2846 0
 8349 001c 0746     		mov	r7, r0
 8350              		.loc 1 2848 0
 8351 001e 2188     		ldrh	r1, [r4]
 8352 0020 2D20     		movs	r0, #45
 8353 0022 FFF7FEFF 		bl	cc2400_set
 8354              	.LVL858:
2849:bluetooth_rxtx.c **** 	cc2400_set(SYNCL, tx_pkt.syncl);
 8355              		.loc 1 2849 0
 8356 0026 2C20     		movs	r0, #44
 8357 0028 6188     		ldrh	r1, [r4, #2]
 8358 002a FFF7FEFF 		bl	cc2400_set
 8359              	.LVL859:
2850:bluetooth_rxtx.c **** 	cc2400_set(MDMCTRL, 0x0057);
 8360              		.loc 1 2850 0
 8361 002e 0320     		movs	r0, #3
 8362 0030 5721     		movs	r1, #87
 8363 0032 FFF7FEFF 		bl	cc2400_set
 8364              	.LVL860:
2851:bluetooth_rxtx.c **** 	cc2400_set(MDMTST0, 0x134b);
 8365              		.loc 1 2851 0
ARM GAS  /tmp/ccUrIl19.s 			page 221


 8366 0036 1420     		movs	r0, #20
 8367 0038 41F24B31 		movw	r1, #4939
 8368 003c FFF7FEFF 		bl	cc2400_set
 8369              	.LVL861:
2852:bluetooth_rxtx.c **** 	cc2400_set(GRMDM, 0x0f61);
 8370              		.loc 1 2852 0
 8371 0040 2020     		movs	r0, #32
 8372 0042 40F66171 		movw	r1, #3937
 8373 0046 FFF7FEFF 		bl	cc2400_set
 8374              	.LVL862:
2853:bluetooth_rxtx.c **** 	cc2400_set(FSDIV, tx_pkt.channel);
 8375              		.loc 1 2853 0
 8376 004a 0220     		movs	r0, #2
 8377 004c A188     		ldrh	r1, [r4, #4]
 8378 004e FFF7FEFF 		bl	cc2400_set
 8379              	.LVL863:
2854:bluetooth_rxtx.c **** 	cc2400_set(FREND, tx_pkt.pa_level);
 8380              		.loc 1 2854 0
 8381 0052 0520     		movs	r0, #5
 8382 0054 E179     		ldrb	r1, [r4, #7]	@ zero_extendqisi2
2840:bluetooth_rxtx.c **** 
 8383              		.loc 1 2840 0
 8384 0056 F6B2     		uxtb	r6, r6
 8385              	.LVL864:
 8386              		.loc 1 2854 0
 8387 0058 FFF7FEFF 		bl	cc2400_set
 8388              	.LVL865:
 8389              	.L879:
2855:bluetooth_rxtx.c **** 
2856:bluetooth_rxtx.c **** 	while (!(cc2400_status() & XOSC16M_STABLE));
 8390              		.loc 1 2856 0 discriminator 1
 8391 005c FFF7FEFF 		bl	cc2400_status
 8392              	.LVL866:
 8393 0060 4206     		lsls	r2, r0, #25
 8394 0062 FBD5     		bpl	.L879
2857:bluetooth_rxtx.c **** 	cc2400_strobe(SFSON);
 8395              		.loc 1 2857 0
 8396 0064 6120     		movs	r0, #97
 8397 0066 FFF7FEFF 		bl	cc2400_strobe
 8398              	.LVL867:
 8399              	.L881:
2858:bluetooth_rxtx.c **** 	while (!(cc2400_status() & FS_LOCK));
 8400              		.loc 1 2858 0 discriminator 1
 8401 006a FFF7FEFF 		bl	cc2400_status
 8402              	.LVL868:
 8403 006e 4307     		lsls	r3, r0, #29
 8404 0070 FBD5     		bpl	.L881
2859:bluetooth_rxtx.c **** 	TXLED_SET;
 8405              		.loc 1 2859 0
 8406 0072 1C4B     		ldr	r3, .L888+8
 8407 0074 4FF48072 		mov	r2, #256
 8408 0078 1A60     		str	r2, [r3]
2860:bluetooth_rxtx.c **** #ifdef UBERTOOTH_ONE
2861:bluetooth_rxtx.c **** 		PAEN_SET;
 8409              		.loc 1 2861 0
 8410 007a 8022     		movs	r2, #128
 8411 007c 1A62     		str	r2, [r3, #32]
ARM GAS  /tmp/ccUrIl19.s 			page 222


 8412              	.L883:
2862:bluetooth_rxtx.c **** #endif
2863:bluetooth_rxtx.c **** 	while ((cc2400_get(FSMSTATE) & 0x1f) != STATE_STROBE_FS_ON);
 8413              		.loc 1 2863 0 discriminator 1
 8414 007e 0E20     		movs	r0, #14
 8415 0080 FFF7FEFF 		bl	cc2400_get
 8416              	.LVL869:
 8417 0084 00F01F00 		and	r0, r0, #31
 8418 0088 0F28     		cmp	r0, #15
 8419 008a F8D1     		bne	.L883
2864:bluetooth_rxtx.c **** 
2865:bluetooth_rxtx.c **** 	cc2400_fifo_write(tx_pkt.length, tx_pkt.data);
 8420              		.loc 1 2865 0
 8421 008c A079     		ldrb	r0, [r4, #6]	@ zero_extendqisi2
 8422 008e 1649     		ldr	r1, .L888+12
 8423 0090 FFF7FEFF 		bl	cc2400_fifo_write
 8424              	.LVL870:
2866:bluetooth_rxtx.c **** 	cc2400_strobe(STX);
 8425              		.loc 1 2866 0
 8426 0094 6320     		movs	r0, #99
 8427 0096 FFF7FEFF 		bl	cc2400_strobe
 8428              	.LVL871:
 8429              	.L885:
2867:bluetooth_rxtx.c **** 
2868:bluetooth_rxtx.c **** 	while ((cc2400_get(FSMSTATE) & 0x1f) != STATE_STROBE_FS_ON);
 8430              		.loc 1 2868 0 discriminator 1
 8431 009a 0E20     		movs	r0, #14
 8432 009c FFF7FEFF 		bl	cc2400_get
 8433              	.LVL872:
 8434 00a0 00F01F00 		and	r0, r0, #31
 8435 00a4 0F28     		cmp	r0, #15
 8436 00a6 F8D1     		bne	.L885
2869:bluetooth_rxtx.c **** 	TXLED_CLR;
 8437              		.loc 1 2869 0
 8438 00a8 104B     		ldr	r3, .L888+16
 8439 00aa 4FF48072 		mov	r2, #256
 8440 00ae 1A60     		str	r2, [r3]
2870:bluetooth_rxtx.c **** 
2871:bluetooth_rxtx.c **** 	cc2400_strobe(SRFOFF);
 8441              		.loc 1 2871 0
 8442 00b0 6420     		movs	r0, #100
 8443 00b2 FFF7FEFF 		bl	cc2400_strobe
 8444              	.LVL873:
 8445              	.L887:
2872:bluetooth_rxtx.c **** 	while ((cc2400_status() & FS_LOCK));
 8446              		.loc 1 2872 0 discriminator 1
 8447 00b6 FFF7FEFF 		bl	cc2400_status
 8448              	.LVL874:
 8449 00ba 4407     		lsls	r4, r0, #29
 8450 00bc FBD4     		bmi	.L887
2873:bluetooth_rxtx.c **** 
2874:bluetooth_rxtx.c **** #ifdef UBERTOOTH_ONE
2875:bluetooth_rxtx.c **** 	PAEN_CLR;
 8451              		.loc 1 2875 0
 8452 00be 0C4B     		ldr	r3, .L888+20
 8453 00c0 8022     		movs	r2, #128
 8454 00c2 1A60     		str	r2, [r3]
ARM GAS  /tmp/ccUrIl19.s 			page 223


2876:bluetooth_rxtx.c **** #endif
2877:bluetooth_rxtx.c **** 
2878:bluetooth_rxtx.c **** 	// Restore state
2879:bluetooth_rxtx.c **** 	cc2400_set(SYNCH, synch);
 8455              		.loc 1 2879 0
 8456 00c4 2D20     		movs	r0, #45
 8457 00c6 4146     		mov	r1, r8
 8458 00c8 FFF7FEFF 		bl	cc2400_set
 8459              	.LVL875:
2880:bluetooth_rxtx.c **** 	cc2400_set(SYNCL, syncl);
 8460              		.loc 1 2880 0
 8461 00cc 2C20     		movs	r0, #44
 8462 00ce 3946     		mov	r1, r7
 8463 00d0 FFF7FEFF 		bl	cc2400_set
 8464              	.LVL876:
2881:bluetooth_rxtx.c **** 	requested_mode = prev_mode;
 8465              		.loc 1 2881 0
 8466 00d4 AE74     		strb	r6, [r5, #18]
 8467 00d6 BDE8F081 		pop	{r4, r5, r6, r7, r8, pc}
 8468              	.LVL877:
 8469              	.L889:
 8470 00da 00BF     		.align	2
 8471              	.L888:
 8472 00dc 00000000 		.word	.LANCHOR0
 8473 00e0 00000000 		.word	tx_pkt
 8474 00e4 38C00920 		.word	537509944
 8475 00e8 08000000 		.word	tx_pkt+8
 8476 00ec 3CC00920 		.word	537509948
 8477 00f0 5CC00920 		.word	537509980
 8478              		.cfi_endproc
 8479              	.LFE40:
 8481              		.section	.text.specan,"ax",%progbits
 8482              		.align	1
 8483              		.global	specan
 8484              		.thumb
 8485              		.thumb_func
 8487              	specan:
 8488              	.LFB41:
2882:bluetooth_rxtx.c **** }
2883:bluetooth_rxtx.c **** 
2884:bluetooth_rxtx.c **** /* spectrum analysis */
2885:bluetooth_rxtx.c **** void specan()
2886:bluetooth_rxtx.c **** {
 8489              		.loc 1 2886 0
 8490              		.cfi_startproc
 8491              		@ args = 0, pretend = 0, frame = 56
 8492              		@ frame_needed = 0, uses_anonymous_args = 0
 8493 0000 2DE9F041 		push	{r4, r5, r6, r7, r8, lr}
 8494              		.cfi_def_cfa_offset 24
 8495              		.cfi_offset 4, -24
 8496              		.cfi_offset 5, -20
 8497              		.cfi_offset 6, -16
 8498              		.cfi_offset 7, -12
 8499              		.cfi_offset 8, -8
 8500              		.cfi_offset 14, -4
 8501 0004 8EB0     		sub	sp, sp, #56
 8502              		.cfi_def_cfa_offset 80
ARM GAS  /tmp/ccUrIl19.s 			page 224


 8503              	.LVL878:
2887:bluetooth_rxtx.c **** 	u16 f;
2888:bluetooth_rxtx.c **** 	u8 i = 0;
2889:bluetooth_rxtx.c **** 	u8 buf[DMA_SIZE];
2890:bluetooth_rxtx.c **** 
2891:bluetooth_rxtx.c **** 	RXLED_SET;
 8504              		.loc 1 2891 0
 8505 0006 3D4B     		ldr	r3, .L907
 8506 0008 1022     		movs	r2, #16
 8507 000a 1A60     		str	r2, [r3]
2892:bluetooth_rxtx.c **** 
2893:bluetooth_rxtx.c **** 	queue_init();
 8508              		.loc 1 2893 0
 8509 000c FFF7FEFF 		bl	queue_init
 8510              	.LVL879:
2894:bluetooth_rxtx.c **** 	clkn_start();
 8511              		.loc 1 2894 0
 8512 0010 FFF7FEFF 		bl	clkn_start
 8513              	.LVL880:
2895:bluetooth_rxtx.c **** 
2896:bluetooth_rxtx.c **** #ifdef UBERTOOTH_ONE
2897:bluetooth_rxtx.c **** 	PAEN_SET;
 8514              		.loc 1 2897 0
 8515 0014 3A4B     		ldr	r3, .L907+4
 8516 0016 8022     		movs	r2, #128
 8517 0018 1A60     		str	r2, [r3]
2898:bluetooth_rxtx.c **** 	//HGM_SET;
2899:bluetooth_rxtx.c **** #endif
2900:bluetooth_rxtx.c **** 	cc2400_set(LMTST,   0x2b22);
 8518              		.loc 1 2900 0
 8519 001a 1220     		movs	r0, #18
 8520 001c 42F62231 		movw	r1, #11042
 8521 0020 FFF7FEFF 		bl	cc2400_set
 8522              	.LVL881:
2901:bluetooth_rxtx.c **** 	cc2400_set(MDMTST0, 0x134b); // without PRNG
 8523              		.loc 1 2901 0
 8524 0024 1420     		movs	r0, #20
 8525 0026 41F24B31 		movw	r1, #4939
 8526 002a FFF7FEFF 		bl	cc2400_set
 8527              	.LVL882:
2902:bluetooth_rxtx.c **** 	cc2400_set(GRMDM,   0x0101); // un-buffered mode, GFSK
 8528              		.loc 1 2902 0
 8529 002e 2020     		movs	r0, #32
 8530 0030 40F20111 		movw	r1, #257
 8531 0034 FFF7FEFF 		bl	cc2400_set
 8532              	.LVL883:
2903:bluetooth_rxtx.c **** 	cc2400_set(MDMCTRL, 0x0029); // 160 kHz frequency deviation
 8533              		.loc 1 2903 0
 8534 0038 0320     		movs	r0, #3
 8535 003a 2921     		movs	r1, #41
 8536 003c FFF7FEFF 		bl	cc2400_set
 8537              	.LVL884:
 8538              	.L892:
2904:bluetooth_rxtx.c **** 	//FIXME maybe set RSSI.RSSI_FILT
2905:bluetooth_rxtx.c **** 	while (!(cc2400_status() & XOSC16M_STABLE));
 8539              		.loc 1 2905 0 discriminator 1
 8540 0040 FFF7FEFF 		bl	cc2400_status
ARM GAS  /tmp/ccUrIl19.s 			page 225


 8541              	.LVL885:
 8542 0044 4406     		lsls	r4, r0, #25
 8543 0046 FBD5     		bpl	.L892
 8544              	.L894:
2906:bluetooth_rxtx.c **** 	while ((cc2400_status() & FS_LOCK));
 8545              		.loc 1 2906 0
 8546 0048 FFF7FEFF 		bl	cc2400_status
 8547              	.LVL886:
 8548 004c 00F00400 		and	r0, r0, #4
 8549 0050 00F0FF05 		and	r5, r0, #255
 8550 0054 0028     		cmp	r0, #0
 8551 0056 F7D1     		bne	.L894
 8552              	.LVL887:
 8553              	.L895:
2907:bluetooth_rxtx.c **** 
2908:bluetooth_rxtx.c **** 	while (requested_mode == MODE_SPECAN) {
 8554              		.loc 1 2908 0 discriminator 1
 8555 0058 2A4B     		ldr	r3, .L907+8
 8556 005a 9B7C     		ldrb	r3, [r3, #18]	@ zero_extendqisi2
 8557 005c 042B     		cmp	r3, #4
 8558 005e 47D1     		bne	.L906
2909:bluetooth_rxtx.c **** 		for (f = low_freq; f < high_freq + 1; f++) {
 8559              		.loc 1 2909 0
 8560 0060 294B     		ldr	r3, .L907+12
 8561 0062 B3F84C40 		ldrh	r4, [r3, #76]
 8562 0066 9846     		mov	r8, r3
 8563 0068 A4B2     		uxth	r4, r4
 8564              	.LVL888:
 8565              	.L896:
 8566              		.loc 1 2909 0 is_stmt 0 discriminator 1
 8567 006a B8F84E30 		ldrh	r3, [r8, #78]
 8568 006e 9BB2     		uxth	r3, r3
 8569 0070 A342     		cmp	r3, r4
 8570 0072 F1DB     		blt	.L895
 8571 0074 611E     		subs	r1, r4, #1
 8572              	.LBB89:
2910:bluetooth_rxtx.c **** 			cc2400_set(FSDIV, f - 1);
 8573              		.loc 1 2910 0 is_stmt 1
 8574 0076 0220     		movs	r0, #2
 8575 0078 89B2     		uxth	r1, r1
 8576 007a FFF7FEFF 		bl	cc2400_set
 8577              	.LVL889:
2911:bluetooth_rxtx.c **** 			cc2400_strobe(SFSON);
 8578              		.loc 1 2911 0
 8579 007e 6120     		movs	r0, #97
 8580 0080 FFF7FEFF 		bl	cc2400_strobe
 8581              	.LVL890:
 8582              	.L898:
2912:bluetooth_rxtx.c **** 			while (!(cc2400_status() & FS_LOCK));
 8583              		.loc 1 2912 0 discriminator 1
 8584 0084 FFF7FEFF 		bl	cc2400_status
 8585              	.LVL891:
 8586 0088 4007     		lsls	r0, r0, #29
 8587 008a FBD5     		bpl	.L898
2913:bluetooth_rxtx.c **** 			cc2400_strobe(SRX);
 8588              		.loc 1 2913 0
 8589 008c 6220     		movs	r0, #98
ARM GAS  /tmp/ccUrIl19.s 			page 226


 8590 008e FFF7FEFF 		bl	cc2400_strobe
 8591              	.LVL892:
2914:bluetooth_rxtx.c **** 
2915:bluetooth_rxtx.c **** 			/* give the CC2400 time to acquire RSSI reading */
2916:bluetooth_rxtx.c **** 			volatile u32 j = 500; while (--j); //FIXME crude delay
 8592              		.loc 1 2916 0
 8593 0092 4FF4FA73 		mov	r3, #500
 8594 0096 0093     		str	r3, [sp]
 8595              	.L900:
 8596              		.loc 1 2916 0 is_stmt 0 discriminator 1
 8597 0098 009E     		ldr	r6, [sp]
 8598 009a 013E     		subs	r6, r6, #1
 8599 009c 0096     		str	r6, [sp]
 8600 009e 002E     		cmp	r6, #0
 8601 00a0 FAD1     		bne	.L900
2917:bluetooth_rxtx.c **** 			buf[3 * i] = (f >> 8) & 0xFF;
 8602              		.loc 1 2917 0 is_stmt 1
 8603 00a2 0EAB     		add	r3, sp, #56
 8604 00a4 0327     		movs	r7, #3
 8605 00a6 07FB0537 		mla	r7, r7, r5, r3
2918:bluetooth_rxtx.c **** 			buf[(3 * i) + 1] = f  & 0xFF;
2919:bluetooth_rxtx.c **** 			buf[(3 * i) + 2] = cc2400_get(RSSI) >> 8;
 8606              		.loc 1 2919 0
 8607 00aa 0620     		movs	r0, #6
2917:bluetooth_rxtx.c **** 			buf[3 * i] = (f >> 8) & 0xFF;
 8608              		.loc 1 2917 0
 8609 00ac 230A     		lsrs	r3, r4, #8
 8610 00ae 07F8343C 		strb	r3, [r7, #-52]
2918:bluetooth_rxtx.c **** 			buf[(3 * i) + 1] = f  & 0xFF;
 8611              		.loc 1 2918 0
 8612 00b2 07F8334C 		strb	r4, [r7, #-51]
 8613              		.loc 1 2919 0
 8614 00b6 FFF7FEFF 		bl	cc2400_get
 8615              	.LVL893:
2920:bluetooth_rxtx.c **** 			i++;
 8616              		.loc 1 2920 0
 8617 00ba 0135     		adds	r5, r5, #1
 8618              	.LVL894:
 8619 00bc EDB2     		uxtb	r5, r5
 8620              	.LVL895:
2919:bluetooth_rxtx.c **** 			i++;
 8621              		.loc 1 2919 0
 8622 00be 000A     		lsrs	r0, r0, #8
2921:bluetooth_rxtx.c **** 			if (i == 16) {
 8623              		.loc 1 2921 0
 8624 00c0 102D     		cmp	r5, #16
2919:bluetooth_rxtx.c **** 			i++;
 8625              		.loc 1 2919 0
 8626 00c2 07F8320C 		strb	r0, [r7, #-50]
 8627              		.loc 1 2921 0
 8628 00c6 09D1     		bne	.L901
2922:bluetooth_rxtx.c **** 				enqueue(SPECAN, buf);
 8629              		.loc 1 2922 0
 8630 00c8 0420     		movs	r0, #4
 8631 00ca 0DEB0001 		add	r1, sp, r0
 8632 00ce FFF7FEFF 		bl	enqueue
 8633              	.LVL896:
ARM GAS  /tmp/ccUrIl19.s 			page 227


2923:bluetooth_rxtx.c **** 				i = 0;
2924:bluetooth_rxtx.c **** 
2925:bluetooth_rxtx.c **** 				handle_usb(clkn);
 8634              		.loc 1 2925 0
 8635 00d2 0E4B     		ldr	r3, .L907+16
2923:bluetooth_rxtx.c **** 				i = 0;
 8636              		.loc 1 2923 0
 8637 00d4 3546     		mov	r5, r6
 8638              		.loc 1 2925 0
 8639 00d6 1868     		ldr	r0, [r3]
 8640 00d8 FFF7FEFF 		bl	handle_usb
 8641              	.LVL897:
 8642              	.L901:
2926:bluetooth_rxtx.c **** 			}
2927:bluetooth_rxtx.c **** 
2928:bluetooth_rxtx.c **** 			cc2400_strobe(SRFOFF);
 8643              		.loc 1 2928 0
 8644 00dc 6420     		movs	r0, #100
 8645 00de FFF7FEFF 		bl	cc2400_strobe
 8646              	.LVL898:
 8647              	.L903:
2929:bluetooth_rxtx.c **** 			while ((cc2400_status() & FS_LOCK));
 8648              		.loc 1 2929 0 discriminator 1
 8649 00e2 FFF7FEFF 		bl	cc2400_status
 8650              	.LVL899:
 8651 00e6 4107     		lsls	r1, r0, #29
 8652 00e8 FBD4     		bmi	.L903
 8653              	.LBE89:
2909:bluetooth_rxtx.c **** 			cc2400_set(FSDIV, f - 1);
 8654              		.loc 1 2909 0
 8655 00ea 0134     		adds	r4, r4, #1
 8656              	.LVL900:
 8657 00ec A4B2     		uxth	r4, r4
 8658              	.LVL901:
 8659 00ee BCE7     		b	.L896
 8660              	.LVL902:
 8661              	.L906:
2930:bluetooth_rxtx.c **** 		}
2931:bluetooth_rxtx.c **** 	}
2932:bluetooth_rxtx.c **** 	RXLED_CLR;
 8662              		.loc 1 2932 0
 8663 00f0 074B     		ldr	r3, .L907+20
 8664 00f2 1022     		movs	r2, #16
 8665 00f4 1A60     		str	r2, [r3]
2933:bluetooth_rxtx.c **** }
 8666              		.loc 1 2933 0
 8667 00f6 0EB0     		add	sp, sp, #56
 8668              		@ sp needed
 8669 00f8 BDE8F081 		pop	{r4, r5, r6, r7, r8, pc}
 8670              	.LVL903:
 8671              	.L908:
 8672              		.align	2
 8673              	.L907:
 8674 00fc 38C00920 		.word	537509944
 8675 0100 58C00920 		.word	537509976
 8676 0104 00000000 		.word	.LANCHOR0
 8677 0108 00000000 		.word	.LANCHOR1
ARM GAS  /tmp/ccUrIl19.s 			page 228


 8678 010c 00000000 		.word	clkn
 8679 0110 3CC00920 		.word	537509948
 8680              		.cfi_endproc
 8681              	.LFE41:
 8683              		.section	.text.led_specan,"ax",%progbits
 8684              		.align	1
 8685              		.global	led_specan
 8686              		.thumb
 8687              		.thumb_func
 8689              	led_specan:
 8690              	.LFB42:
2934:bluetooth_rxtx.c **** 
2935:bluetooth_rxtx.c **** /* LED based spectrum analysis */
2936:bluetooth_rxtx.c **** void led_specan()
2937:bluetooth_rxtx.c **** {
 8691              		.loc 1 2937 0
 8692              		.cfi_startproc
 8693              		@ args = 0, pretend = 0, frame = 16
 8694              		@ frame_needed = 0, uses_anonymous_args = 0
 8695 0000 1FB5     		push	{r0, r1, r2, r3, r4, lr}
 8696              		.cfi_def_cfa_offset 24
 8697              		.cfi_offset 0, -24
 8698              		.cfi_offset 1, -20
 8699              		.cfi_offset 2, -16
 8700              		.cfi_offset 3, -12
 8701              		.cfi_offset 4, -8
 8702              		.cfi_offset 14, -4
 8703              	.LVL904:
2938:bluetooth_rxtx.c **** 	int8_t lvl;
2939:bluetooth_rxtx.c **** 	u8 i = 0;
2940:bluetooth_rxtx.c **** 	u16 channels[3] = {2412, 2437, 2462};
 8704              		.loc 1 2940 0
 8705 0002 444B     		ldr	r3, .L936
2941:bluetooth_rxtx.c **** 	//void (*set[3]) = {TXLED_SET, RXLED_SET, USRLED_SET};
2942:bluetooth_rxtx.c **** 	//void (*clr[3]) = {TXLED_CLR, RXLED_CLR, USRLED_CLR};
2943:bluetooth_rxtx.c **** 
2944:bluetooth_rxtx.c **** #ifdef UBERTOOTH_ONE
2945:bluetooth_rxtx.c **** 	PAEN_SET;
 8706              		.loc 1 2945 0
 8707 0004 8022     		movs	r2, #128
2940:bluetooth_rxtx.c **** 	//void (*set[3]) = {TXLED_SET, RXLED_SET, USRLED_SET};
 8708              		.loc 1 2940 0
 8709 0006 1868     		ldr	r0, [r3]	@ unaligned
 8710 0008 9B88     		ldrh	r3, [r3, #4]	@ unaligned
 8711 000a 0290     		str	r0, [sp, #8]	@ unaligned
 8712 000c ADF80C30 		strh	r3, [sp, #12]	@ unaligned
 8713              		.loc 1 2945 0
 8714 0010 414B     		ldr	r3, .L936+4
2946:bluetooth_rxtx.c **** 	//HGM_SET;
2947:bluetooth_rxtx.c **** #endif
2948:bluetooth_rxtx.c **** 	cc2400_set(LMTST,   0x2b22);
 8715              		.loc 1 2948 0
 8716 0012 1220     		movs	r0, #18
2945:bluetooth_rxtx.c **** 	//HGM_SET;
 8717              		.loc 1 2945 0
 8718 0014 1A60     		str	r2, [r3]
 8719              		.loc 1 2948 0
ARM GAS  /tmp/ccUrIl19.s 			page 229


 8720 0016 42F62231 		movw	r1, #11042
 8721 001a FFF7FEFF 		bl	cc2400_set
 8722              	.LVL905:
2949:bluetooth_rxtx.c **** 	cc2400_set(MDMTST0, 0x134b); // without PRNG
 8723              		.loc 1 2949 0
 8724 001e 1420     		movs	r0, #20
 8725 0020 41F24B31 		movw	r1, #4939
 8726 0024 FFF7FEFF 		bl	cc2400_set
 8727              	.LVL906:
2950:bluetooth_rxtx.c **** 	cc2400_set(GRMDM,   0x0101); // un-buffered mode, GFSK
 8728              		.loc 1 2950 0
 8729 0028 2020     		movs	r0, #32
 8730 002a 40F20111 		movw	r1, #257
 8731 002e FFF7FEFF 		bl	cc2400_set
 8732              	.LVL907:
2951:bluetooth_rxtx.c **** 	cc2400_set(MDMCTRL, 0x0029); // 160 kHz frequency deviation
 8733              		.loc 1 2951 0
 8734 0032 0320     		movs	r0, #3
 8735 0034 2921     		movs	r1, #41
 8736 0036 FFF7FEFF 		bl	cc2400_set
 8737              	.LVL908:
2952:bluetooth_rxtx.c **** 	cc2400_set(RSSI,    0x00F1); // RSSI Sample over 2 symbols
 8738              		.loc 1 2952 0
 8739 003a 0620     		movs	r0, #6
 8740 003c F121     		movs	r1, #241
 8741 003e FFF7FEFF 		bl	cc2400_set
 8742              	.LVL909:
 8743              	.L911:
2953:bluetooth_rxtx.c **** 
2954:bluetooth_rxtx.c **** 	while (!(cc2400_status() & XOSC16M_STABLE));
 8744              		.loc 1 2954 0 discriminator 1
 8745 0042 FFF7FEFF 		bl	cc2400_status
 8746              	.LVL910:
 8747 0046 4106     		lsls	r1, r0, #25
 8748 0048 FBD5     		bpl	.L911
 8749              	.L913:
2955:bluetooth_rxtx.c **** 	while ((cc2400_status() & FS_LOCK));
 8750              		.loc 1 2955 0
 8751 004a FFF7FEFF 		bl	cc2400_status
 8752              	.LVL911:
 8753 004e 00F00400 		and	r0, r0, #4
 8754 0052 00F0FF04 		and	r4, r0, #255
 8755 0056 0028     		cmp	r0, #0
 8756 0058 F7D1     		bne	.L913
 8757              	.LVL912:
 8758              	.L914:
2956:bluetooth_rxtx.c **** 
2957:bluetooth_rxtx.c **** 	while (requested_mode == MODE_LED_SPECAN) {
 8759              		.loc 1 2957 0 discriminator 1
 8760 005a 304B     		ldr	r3, .L936+8
 8761 005c 9B7C     		ldrb	r3, [r3, #18]	@ zero_extendqisi2
 8762 005e 072B     		cmp	r3, #7
 8763 0060 55D1     		bne	.L935
 8764              	.LBB90:
2958:bluetooth_rxtx.c **** 		cc2400_set(FSDIV, channels[i] - 1);
 8765              		.loc 1 2958 0
 8766 0062 04AA     		add	r2, sp, #16
ARM GAS  /tmp/ccUrIl19.s 			page 230


 8767 0064 02EB4403 		add	r3, r2, r4, lsl #1
 8768 0068 33F8081C 		ldrh	r1, [r3, #-8]
 8769 006c 0220     		movs	r0, #2
 8770 006e 0139     		subs	r1, r1, #1
 8771 0070 89B2     		uxth	r1, r1
 8772 0072 FFF7FEFF 		bl	cc2400_set
 8773              	.LVL913:
2959:bluetooth_rxtx.c **** 		cc2400_strobe(SFSON);
 8774              		.loc 1 2959 0
 8775 0076 6120     		movs	r0, #97
 8776 0078 FFF7FEFF 		bl	cc2400_strobe
 8777              	.LVL914:
 8778              	.L916:
2960:bluetooth_rxtx.c **** 		while (!(cc2400_status() & FS_LOCK));
 8779              		.loc 1 2960 0 discriminator 1
 8780 007c FFF7FEFF 		bl	cc2400_status
 8781              	.LVL915:
 8782 0080 4207     		lsls	r2, r0, #29
 8783 0082 FBD5     		bpl	.L916
2961:bluetooth_rxtx.c **** 		cc2400_strobe(SRX);
 8784              		.loc 1 2961 0
 8785 0084 6220     		movs	r0, #98
 8786 0086 FFF7FEFF 		bl	cc2400_strobe
 8787              	.LVL916:
2962:bluetooth_rxtx.c **** 
2963:bluetooth_rxtx.c **** 		/* give the CC2400 time to acquire RSSI reading */
2964:bluetooth_rxtx.c **** 		volatile u32 j = 500; while (--j); //FIXME crude delay
 8788              		.loc 1 2964 0
 8789 008a 4FF4FA73 		mov	r3, #500
 8790 008e 0193     		str	r3, [sp, #4]
 8791              	.L918:
 8792              		.loc 1 2964 0 is_stmt 0 discriminator 1
 8793 0090 019B     		ldr	r3, [sp, #4]
 8794 0092 013B     		subs	r3, r3, #1
 8795 0094 0193     		str	r3, [sp, #4]
 8796 0096 002B     		cmp	r3, #0
 8797 0098 FAD1     		bne	.L918
2965:bluetooth_rxtx.c **** 		lvl = (int8_t)((cc2400_get(RSSI) >> 8) & 0xff);
 8798              		.loc 1 2965 0 is_stmt 1
 8799 009a 0620     		movs	r0, #6
 8800 009c FFF7FEFF 		bl	cc2400_get
 8801              	.LVL917:
2966:bluetooth_rxtx.c **** 		if (lvl > rssi_threshold) {
 8802              		.loc 1 2966 0
 8803 00a0 1F4B     		ldr	r3, .L936+12
 8804 00a2 40F30720 		sbfx	r0, r0, #8, #8
 8805              	.LVL918:
 8806 00a6 93F85030 		ldrb	r3, [r3, #80]	@ zero_extendqisi2
 8807 00aa 5BB2     		sxtb	r3, r3
 8808 00ac 9842     		cmp	r0, r3
 8809 00ae 0CDD     		ble	.L919
2967:bluetooth_rxtx.c **** 			switch (i) {
 8810              		.loc 1 2967 0
 8811 00b0 012C     		cmp	r4, #1
 8812 00b2 07D0     		beq	.L921
 8813 00b4 03D3     		bcc	.L922
 8814 00b6 022C     		cmp	r4, #2
ARM GAS  /tmp/ccUrIl19.s 			page 231


 8815 00b8 16D1     		bne	.L920
2968:bluetooth_rxtx.c **** 				case 0:
2969:bluetooth_rxtx.c **** 					TXLED_SET;
2970:bluetooth_rxtx.c **** 					break;
2971:bluetooth_rxtx.c **** 				case 1:
2972:bluetooth_rxtx.c **** 					RXLED_SET;
2973:bluetooth_rxtx.c **** 					break;
2974:bluetooth_rxtx.c **** 				case 2:
2975:bluetooth_rxtx.c **** 					USRLED_SET;
 8816              		.loc 1 2975 0
 8817 00ba 1A4B     		ldr	r3, .L936+16
 8818 00bc 13E0     		b	.L931
 8819              	.L922:
2969:bluetooth_rxtx.c **** 					break;
 8820              		.loc 1 2969 0
 8821 00be 4FF48072 		mov	r2, #256
 8822 00c2 00E0     		b	.L934
 8823              	.L921:
2972:bluetooth_rxtx.c **** 					break;
 8824              		.loc 1 2972 0
 8825 00c4 1022     		movs	r2, #16
 8826              	.L934:
 8827 00c6 174B     		ldr	r3, .L936+16
 8828 00c8 0BE0     		b	.L933
 8829              	.L919:
2976:bluetooth_rxtx.c **** 					break;
2977:bluetooth_rxtx.c **** 			}
2978:bluetooth_rxtx.c **** 		}
2979:bluetooth_rxtx.c **** 		else {
2980:bluetooth_rxtx.c **** 			switch (i) {
 8830              		.loc 1 2980 0
 8831 00ca 012C     		cmp	r4, #1
 8832 00cc 07D0     		beq	.L924
 8833 00ce 03D3     		bcc	.L925
 8834 00d0 022C     		cmp	r4, #2
 8835 00d2 09D1     		bne	.L920
2981:bluetooth_rxtx.c **** 				case 0:
2982:bluetooth_rxtx.c **** 					TXLED_CLR;
2983:bluetooth_rxtx.c **** 					break;
2984:bluetooth_rxtx.c **** 				case 1:
2985:bluetooth_rxtx.c **** 					RXLED_CLR;
2986:bluetooth_rxtx.c **** 					break;
2987:bluetooth_rxtx.c **** 				case 2:
2988:bluetooth_rxtx.c **** 					USRLED_CLR;
 8836              		.loc 1 2988 0
 8837 00d4 144B     		ldr	r3, .L936+20
 8838 00d6 06E0     		b	.L931
 8839              	.L925:
2982:bluetooth_rxtx.c **** 					break;
 8840              		.loc 1 2982 0
 8841 00d8 4FF48072 		mov	r2, #256
 8842 00dc 00E0     		b	.L932
 8843              	.L924:
2985:bluetooth_rxtx.c **** 					break;
 8844              		.loc 1 2985 0
 8845 00de 1022     		movs	r2, #16
 8846              	.L932:
ARM GAS  /tmp/ccUrIl19.s 			page 232


 8847 00e0 114B     		ldr	r3, .L936+20
 8848              	.L933:
 8849 00e2 1A60     		str	r2, [r3]
2986:bluetooth_rxtx.c **** 				case 2:
 8850              		.loc 1 2986 0
 8851 00e4 00E0     		b	.L920
 8852              	.L931:
 8853              		.loc 1 2988 0
 8854 00e6 1C60     		str	r4, [r3]
 8855              	.L920:
2989:bluetooth_rxtx.c **** 					break;
2990:bluetooth_rxtx.c **** 			}
2991:bluetooth_rxtx.c **** 		}
2992:bluetooth_rxtx.c **** 
2993:bluetooth_rxtx.c **** 		i = (i+1) % 3;
 8856              		.loc 1 2993 0
 8857 00e8 0323     		movs	r3, #3
 8858 00ea 0134     		adds	r4, r4, #1
 8859              	.LVL919:
 8860 00ec 94FBF3F2 		sdiv	r2, r4, r3
 8861 00f0 03FB1244 		mls	r4, r3, r2, r4
 8862              	.LVL920:
2994:bluetooth_rxtx.c **** 
2995:bluetooth_rxtx.c **** 		handle_usb(clkn);
 8863              		.loc 1 2995 0
 8864 00f4 0D4B     		ldr	r3, .L936+24
2993:bluetooth_rxtx.c **** 
 8865              		.loc 1 2993 0
 8866 00f6 E4B2     		uxtb	r4, r4
 8867              	.LVL921:
 8868              		.loc 1 2995 0
 8869 00f8 1868     		ldr	r0, [r3]
 8870 00fa FFF7FEFF 		bl	handle_usb
 8871              	.LVL922:
2996:bluetooth_rxtx.c **** 
2997:bluetooth_rxtx.c **** 		cc2400_strobe(SRFOFF);
 8872              		.loc 1 2997 0
 8873 00fe 6420     		movs	r0, #100
 8874 0100 FFF7FEFF 		bl	cc2400_strobe
 8875              	.LVL923:
 8876              	.L928:
2998:bluetooth_rxtx.c **** 		while ((cc2400_status() & FS_LOCK));
 8877              		.loc 1 2998 0 discriminator 1
 8878 0104 FFF7FEFF 		bl	cc2400_status
 8879              	.LVL924:
 8880 0108 4307     		lsls	r3, r0, #29
 8881 010a FBD4     		bmi	.L928
 8882 010c A5E7     		b	.L914
 8883              	.L935:
 8884              	.LBE90:
2999:bluetooth_rxtx.c **** 	}
3000:bluetooth_rxtx.c **** }
 8885              		.loc 1 3000 0
 8886 010e 04B0     		add	sp, sp, #16
 8887              		@ sp needed
 8888 0110 10BD     		pop	{r4, pc}
 8889              	.LVL925:
ARM GAS  /tmp/ccUrIl19.s 			page 233


 8890              	.L937:
 8891 0112 00BF     		.align	2
 8892              	.L936:
 8893 0114 C2080000 		.word	.LANCHOR2+2242
 8894 0118 58C00920 		.word	537509976
 8895 011c 00000000 		.word	.LANCHOR0
 8896 0120 00000000 		.word	.LANCHOR1
 8897 0124 38C00920 		.word	537509944
 8898 0128 3CC00920 		.word	537509948
 8899 012c 00000000 		.word	clkn
 8900              		.cfi_endproc
 8901              	.LFE42:
 8903              		.section	.text.startup.main,"ax",%progbits
 8904              		.align	1
 8905              		.global	main
 8906              		.thumb
 8907              		.thumb_func
 8909              	main:
 8910              	.LFB43:
3001:bluetooth_rxtx.c **** 
3002:bluetooth_rxtx.c **** int main()
3003:bluetooth_rxtx.c **** {
 8911              		.loc 1 3003 0
 8912              		.cfi_startproc
 8913              		@ args = 0, pretend = 0, frame = 0
 8914              		@ frame_needed = 0, uses_anonymous_args = 0
 8915 0000 10B5     		push	{r4, lr}
 8916              		.cfi_def_cfa_offset 8
 8917              		.cfi_offset 4, -8
 8918              		.cfi_offset 14, -4
3004:bluetooth_rxtx.c **** 	ubertooth_init();
 8919              		.loc 1 3004 0
 8920 0002 FFF7FEFF 		bl	ubertooth_init
 8921              	.LVL926:
3005:bluetooth_rxtx.c **** 	clkn_init();
 8922              		.loc 1 3005 0
 8923 0006 FFF7FEFF 		bl	clkn_init
 8924              	.LVL927:
3006:bluetooth_rxtx.c **** 	ubertooth_usb_init(vendor_request_handler);
 8925              		.loc 1 3006 0
 8926 000a 4648     		ldr	r0, .L966
 8927 000c FFF7FEFF 		bl	ubertooth_usb_init
 8928              	.LVL928:
 8929              	.L963:
3007:bluetooth_rxtx.c **** 	cc2400_idle();
 8930              		.loc 1 3007 0
 8931 0010 FFF7FEFF 		bl	cc2400_idle
 8932              	.LVL929:
 8933              	.L939:
3008:bluetooth_rxtx.c **** 
3009:bluetooth_rxtx.c **** 	while (1) {
3010:bluetooth_rxtx.c **** 		handle_usb(clkn);
 8934              		.loc 1 3010 0
 8935 0014 444B     		ldr	r3, .L966+4
3011:bluetooth_rxtx.c **** 		if(requested_mode != mode) {
 8936              		.loc 1 3011 0
 8937 0016 454C     		ldr	r4, .L966+8
ARM GAS  /tmp/ccUrIl19.s 			page 234


3010:bluetooth_rxtx.c **** 		if(requested_mode != mode) {
 8938              		.loc 1 3010 0
 8939 0018 1868     		ldr	r0, [r3]
 8940 001a FFF7FEFF 		bl	handle_usb
 8941              	.LVL930:
 8942              		.loc 1 3011 0
 8943 001e A27C     		ldrb	r2, [r4, #18]	@ zero_extendqisi2
 8944 0020 637C     		ldrb	r3, [r4, #17]	@ zero_extendqisi2
 8945 0022 9A42     		cmp	r2, r3
 8946 0024 F6D0     		beq	.L939
3012:bluetooth_rxtx.c **** 			switch (requested_mode) {
 8947              		.loc 1 3012 0
 8948 0026 A37C     		ldrb	r3, [r4, #18]	@ zero_extendqisi2
 8949 0028 132B     		cmp	r3, #19
 8950 002a F3D8     		bhi	.L939
 8951 002c 01A2     		adr	r2, .L942
 8952 002e 52F823F0 		ldr	pc, [r2, r3, lsl #2]
 8953 0032 00BF     		.p2align 2
 8954              	.L942:
 8955 0034 11000000 		.word	.L963+1
 8956 0038 95000000 		.word	.L943+1
 8957 003c 9F000000 		.word	.L944+1
 8958 0040 D3000000 		.word	.L945+1
 8959 0044 FD000000 		.word	.L946+1
 8960 0048 E1000000 		.word	.L947+1
 8961 004c F1000000 		.word	.L948+1
 8962 0050 03010000 		.word	.L949+1
 8963 0054 A9000000 		.word	.L950+1
 8964 0058 AD000000 		.word	.L951+1
 8965 005c BF000000 		.word	.L952+1
 8966 0060 85000000 		.word	.L953+1
 8967 0064 C5000000 		.word	.L954+1
 8968 0068 09010000 		.word	.L955+1
 8969 006c 91000000 		.word	.L956+1
 8970 0070 15010000 		.word	.L957+1
 8971 0074 1F010000 		.word	.L958+1
 8972 0078 B3000000 		.word	.L959+1
 8973 007c B7000000 		.word	.L960+1
 8974 0080 C9000000 		.word	.L961+1
 8975              	.L953:
3013:bluetooth_rxtx.c **** 				case MODE_RESET:
3014:bluetooth_rxtx.c **** 					/* Allow time for the USB command to return correctly */
3015:bluetooth_rxtx.c **** 					wait(1);
 8976              		.loc 1 3015 0
 8977 0084 0120     		movs	r0, #1
 8978 0086 FFF7FEFF 		bl	wait
 8979              	.LVL931:
3016:bluetooth_rxtx.c **** 					reset();
 8980              		.loc 1 3016 0
 8981 008a FFF7FEFF 		bl	reset
 8982              	.LVL932:
3017:bluetooth_rxtx.c **** 					break;
 8983              		.loc 1 3017 0
 8984 008e C1E7     		b	.L939
 8985              	.L956:
3018:bluetooth_rxtx.c **** 				case MODE_AFH:
3019:bluetooth_rxtx.c **** 					mode = MODE_AFH;
ARM GAS  /tmp/ccUrIl19.s 			page 235


 8986              		.loc 1 3019 0
 8987 0090 0E23     		movs	r3, #14
 8988 0092 00E0     		b	.L962
 8989              	.L943:
3020:bluetooth_rxtx.c **** 					bt_stream_rx();
3021:bluetooth_rxtx.c **** 					break;
3022:bluetooth_rxtx.c **** 				case MODE_RX_SYMBOLS:
3023:bluetooth_rxtx.c **** 					mode = MODE_RX_SYMBOLS;
 8990              		.loc 1 3023 0
 8991 0094 0123     		movs	r3, #1
 8992              	.L962:
 8993 0096 6374     		strb	r3, [r4, #17]
3024:bluetooth_rxtx.c **** 					bt_stream_rx();
 8994              		.loc 1 3024 0
 8995 0098 FFF7FEFF 		bl	bt_stream_rx
 8996              	.LVL933:
3025:bluetooth_rxtx.c **** 					break;
 8997              		.loc 1 3025 0
 8998 009c BAE7     		b	.L939
 8999              	.L944:
3026:bluetooth_rxtx.c **** 				case MODE_TX_SYMBOLS:
3027:bluetooth_rxtx.c **** 					mode = MODE_TX_SYMBOLS;
 9000              		.loc 1 3027 0
 9001 009e 0223     		movs	r3, #2
 9002 00a0 6374     		strb	r3, [r4, #17]
3028:bluetooth_rxtx.c **** 					br_transmit();
 9003              		.loc 1 3028 0
 9004 00a2 FFF7FEFF 		bl	br_transmit
 9005              	.LVL934:
3029:bluetooth_rxtx.c **** 					break;
 9006              		.loc 1 3029 0
 9007 00a6 B5E7     		b	.L939
 9008              	.L950:
3030:bluetooth_rxtx.c **** 				case MODE_BT_FOLLOW:
3031:bluetooth_rxtx.c **** 					mode = MODE_BT_FOLLOW;
 9009              		.loc 1 3031 0
 9010 00a8 0823     		movs	r3, #8
 9011 00aa F4E7     		b	.L962
 9012              	.L951:
3032:bluetooth_rxtx.c **** 					bt_stream_rx();
3033:bluetooth_rxtx.c **** 					break;
3034:bluetooth_rxtx.c **** 				case MODE_BT_FOLLOW_LE:
3035:bluetooth_rxtx.c **** 					bt_follow_le();
 9013              		.loc 1 3035 0
 9014 00ac FFF7FEFF 		bl	bt_follow_le
 9015              	.LVL935:
3036:bluetooth_rxtx.c **** 					break;
 9016              		.loc 1 3036 0
 9017 00b0 B0E7     		b	.L939
 9018              	.L959:
3037:bluetooth_rxtx.c **** 				//JWHUR cfo estimation tracking
3038:bluetooth_rxtx.c **** 				case MODE_BT_CFO_LE:
3039:bluetooth_rxtx.c **** 					bt_tracking_le(MODE_BT_CFO_LE);
 9019              		.loc 1 3039 0
 9020 00b2 1120     		movs	r0, #17
 9021 00b4 00E0     		b	.L964
 9022              	.L960:
ARM GAS  /tmp/ccUrIl19.s 			page 236


3040:bluetooth_rxtx.c **** 					break;
3041:bluetooth_rxtx.c **** 				case MODE_BT_RSSI_LE:
3042:bluetooth_rxtx.c **** 					bt_tracking_le(MODE_BT_RSSI_LE);
 9023              		.loc 1 3042 0
 9024 00b6 1220     		movs	r0, #18
 9025              	.L964:
 9026 00b8 FFF7FEFF 		bl	bt_tracking_le
 9027              	.LVL936:
3043:bluetooth_rxtx.c **** 					break;
 9028              		.loc 1 3043 0
 9029 00bc AAE7     		b	.L939
 9030              	.L952:
3044:bluetooth_rxtx.c **** 				case MODE_BT_PROMISC_LE:
3045:bluetooth_rxtx.c **** 					bt_promisc_le();
 9031              		.loc 1 3045 0
 9032 00be FFF7FEFF 		bl	bt_promisc_le
 9033              	.LVL937:
3046:bluetooth_rxtx.c **** 					break;
 9034              		.loc 1 3046 0
 9035 00c2 A7E7     		b	.L939
 9036              	.L954:
3047:bluetooth_rxtx.c **** 				case MODE_BT_SLAVE_LE:
3048:bluetooth_rxtx.c **** 					mode = MODE_BT_SLAVE_LE;
 9037              		.loc 1 3048 0
 9038 00c4 0C23     		movs	r3, #12
 9039 00c6 00E0     		b	.L965
 9040              	.L961:
3049:bluetooth_rxtx.c **** 					bt_slave_le();
3050:bluetooth_rxtx.c **** 					break;
3051:bluetooth_rxtx.c **** 				case MODE_BT_SYNC_LE:
3052:bluetooth_rxtx.c **** 					mode = MODE_BT_SYNC_LE;
 9041              		.loc 1 3052 0
 9042 00c8 1323     		movs	r3, #19
 9043              	.L965:
 9044 00ca 6374     		strb	r3, [r4, #17]
3053:bluetooth_rxtx.c **** 					bt_slave_le();
 9045              		.loc 1 3053 0
 9046 00cc FFF7FEFF 		bl	bt_slave_le
 9047              	.LVL938:
3054:bluetooth_rxtx.c **** 					break;
 9048              		.loc 1 3054 0
 9049 00d0 A0E7     		b	.L939
 9050              	.L945:
3055:bluetooth_rxtx.c **** 				case MODE_TX_TEST:
3056:bluetooth_rxtx.c **** 					mode = MODE_TX_TEST;
 9051              		.loc 1 3056 0
 9052 00d2 0323     		movs	r3, #3
3057:bluetooth_rxtx.c **** 					cc2400_txtest(&modulation, &channel);
 9053              		.loc 1 3057 0
 9054 00d4 1548     		ldr	r0, .L966+8
 9055 00d6 1649     		ldr	r1, .L966+12
3056:bluetooth_rxtx.c **** 					cc2400_txtest(&modulation, &channel);
 9056              		.loc 1 3056 0
 9057 00d8 6374     		strb	r3, [r4, #17]
 9058              		.loc 1 3057 0
 9059 00da FFF7FEFF 		bl	cc2400_txtest
 9060              	.LVL939:
ARM GAS  /tmp/ccUrIl19.s 			page 237


3058:bluetooth_rxtx.c **** 					break;
 9061              		.loc 1 3058 0
 9062 00de 99E7     		b	.L939
 9063              	.L947:
3059:bluetooth_rxtx.c **** 				case MODE_RANGE_TEST:
3060:bluetooth_rxtx.c **** 					mode = MODE_RANGE_TEST;
 9064              		.loc 1 3060 0
 9065 00e0 0523     		movs	r3, #5
3061:bluetooth_rxtx.c **** 					cc2400_rangetest(&channel);
 9066              		.loc 1 3061 0
 9067 00e2 1348     		ldr	r0, .L966+12
3060:bluetooth_rxtx.c **** 					cc2400_rangetest(&channel);
 9068              		.loc 1 3060 0
 9069 00e4 6374     		strb	r3, [r4, #17]
 9070              		.loc 1 3061 0
 9071 00e6 FFF7FEFF 		bl	cc2400_rangetest
 9072              	.LVL940:
3062:bluetooth_rxtx.c **** 					requested_mode = MODE_IDLE;
 9073              		.loc 1 3062 0
 9074 00ea 0023     		movs	r3, #0
 9075 00ec A374     		strb	r3, [r4, #18]
3063:bluetooth_rxtx.c **** 					break;
 9076              		.loc 1 3063 0
 9077 00ee 91E7     		b	.L939
 9078              	.L948:
3064:bluetooth_rxtx.c **** 				case MODE_REPEATER:
3065:bluetooth_rxtx.c **** 					mode = MODE_REPEATER;
 9079              		.loc 1 3065 0
 9080 00f0 0623     		movs	r3, #6
3066:bluetooth_rxtx.c **** 					cc2400_repeater(&channel);
 9081              		.loc 1 3066 0
 9082 00f2 0F48     		ldr	r0, .L966+12
3065:bluetooth_rxtx.c **** 					cc2400_repeater(&channel);
 9083              		.loc 1 3065 0
 9084 00f4 6374     		strb	r3, [r4, #17]
 9085              		.loc 1 3066 0
 9086 00f6 FFF7FEFF 		bl	cc2400_repeater
 9087              	.LVL941:
3067:bluetooth_rxtx.c **** 					break;
 9088              		.loc 1 3067 0
 9089 00fa 8BE7     		b	.L939
 9090              	.L946:
3068:bluetooth_rxtx.c **** 				case MODE_SPECAN:
3069:bluetooth_rxtx.c **** 					specan();
 9091              		.loc 1 3069 0
 9092 00fc FFF7FEFF 		bl	specan
 9093              	.LVL942:
3070:bluetooth_rxtx.c **** 					break;
 9094              		.loc 1 3070 0
 9095 0100 88E7     		b	.L939
 9096              	.L949:
3071:bluetooth_rxtx.c **** 				case MODE_LED_SPECAN:
3072:bluetooth_rxtx.c **** 					led_specan();
 9097              		.loc 1 3072 0
 9098 0102 FFF7FEFF 		bl	led_specan
 9099              	.LVL943:
3073:bluetooth_rxtx.c **** 					break;
ARM GAS  /tmp/ccUrIl19.s 			page 238


 9100              		.loc 1 3073 0
 9101 0106 85E7     		b	.L939
 9102              	.L955:
3074:bluetooth_rxtx.c **** 				case MODE_EGO:
3075:bluetooth_rxtx.c **** 					mode = MODE_EGO;
 9103              		.loc 1 3075 0
 9104 0108 0D23     		movs	r3, #13
 9105 010a 6374     		strb	r3, [r4, #17]
3076:bluetooth_rxtx.c **** 					ego_main(ego_mode);
 9106              		.loc 1 3076 0
 9107 010c 207D     		ldrb	r0, [r4, #20]	@ zero_extendqisi2
 9108 010e FFF7FEFF 		bl	ego_main
 9109              	.LVL944:
3077:bluetooth_rxtx.c **** 					break;
 9110              		.loc 1 3077 0
 9111 0112 7FE7     		b	.L939
 9112              	.L957:
3078:bluetooth_rxtx.c **** 				case MODE_RX_GENERIC:
3079:bluetooth_rxtx.c **** 					mode = MODE_RX_GENERIC;
 9113              		.loc 1 3079 0
 9114 0114 0F23     		movs	r3, #15
 9115 0116 6374     		strb	r3, [r4, #17]
3080:bluetooth_rxtx.c **** 					rx_generic();
 9116              		.loc 1 3080 0
 9117 0118 FFF7FEFF 		bl	rx_generic
 9118              	.LVL945:
3081:bluetooth_rxtx.c **** 					break;
 9119              		.loc 1 3081 0
 9120 011c 7AE7     		b	.L939
 9121              	.L958:
3082:bluetooth_rxtx.c **** 				case MODE_TX_GENERIC:
3083:bluetooth_rxtx.c **** 					tx_generic();
 9122              		.loc 1 3083 0
 9123 011e FFF7FEFF 		bl	tx_generic
 9124              	.LVL946:
3084:bluetooth_rxtx.c **** 					break;
 9125              		.loc 1 3084 0
 9126 0122 77E7     		b	.L939
 9127              	.L967:
 9128              		.align	2
 9129              	.L966:
 9130 0124 00000000 		.word	vendor_request_handler
 9131 0128 00000000 		.word	clkn
 9132 012c 00000000 		.word	.LANCHOR0
 9133 0130 00000000 		.word	.LANCHOR1
 9134              		.cfi_endproc
 9135              	.LFE43:
 9137              		.comm	unpacked,800,1
 9138              		.global	packet_cb
 9139              		.global	data_cb
 9140              		.global	le_jam_count
 9141              		.comm	le_promisc,264,4
 9142              		.global	le
 9143              		.global	start_sync
 9144              		.global	now_sync
 9145              		.global	slave_mac_address
 9146              		.comm	slave_mac_address_data,4,4
ARM GAS  /tmp/ccUrIl19.s 			page 239


 9147              		.global	dlen
 9148              		.comm	tx_pkt,58,2
 9149              		.global	rssi_threshold
 9150              		.global	high_freq
 9151              		.global	low_freq
 9152              		.global	modulation
 9153              		.global	ego_mode
 9154              		.global	jam_mode
 9155              		.global	requested_mode
 9156              		.global	mode
 9157              		.global	status
 9158              		.global	dma_discard
 9159              		.global	idle_buf_channel
 9160              		.global	idle_buf_clk100ns
 9161              		.global	idle_buf_clkn_high
 9162              		.global	le_adv_channel
 9163              		.global	requested_channel
 9164              		.global	hop_timeout
 9165              		.global	hop_direct_channel
 9166              		.global	channel
 9167              		.global	do_hop
 9168              		.global	hop_mode
 9169              		.global	compile_info
 9170              		.comm	rr,5,1
 9171              		.comm	used_channels,1,1
 9172              		.comm	afh_map,10,1
 9173              		.comm	afh_enabled,1,1
 9174              		.comm	syncword,8,8
 9175              		.comm	target,16,8
 9176              		.comm	clkn_next_drift_fix,4,4
 9177              		.comm	clkn_last_drift_fix,4,4
 9178              		.comm	clk_drift_correction,2,2
 9179              		.comm	clk_drift_ppm,2,2
 9180              		.comm	clk100ns_offset,2,2
 9181              		.comm	clkn_offset,4,4
 9182              		.comm	last_hop,4,4
 9183              		.comm	clkn,4,4
 9184              		.comm	rx_err,4,4
 9185              		.comm	rx_tc,4,4
 9186              		.comm	idle_rxbuf,4,4
 9187              		.comm	active_rxbuf,4,4
 9188              		.comm	rxbuf2,50,1
 9189              		.comm	rxbuf1,50,1
 9190              		.comm	cs_trigger,1,1
 9191              		.comm	cs_threshold_cur,1,1
 9192              		.comm	cs_threshold_req,1,1
 9193              		.comm	cs_no_squelch,1,1
 9194              		.comm	rssi_count,1,1
 9195              		.comm	rssi_min,1,1
 9196              		.comm	rssi_max,1,1
 9197              		.section	.rodata
 9198              		.align	2
 9199              		.set	.LANCHOR2,. + 0
 9202              	whitening_index:
 9203 0000 46       		.byte	70
 9204 0001 3E       		.byte	62
 9205 0002 78       		.byte	120
ARM GAS  /tmp/ccUrIl19.s 			page 240


 9206 0003 6F       		.byte	111
 9207 0004 4D       		.byte	77
 9208 0005 2E       		.byte	46
 9209 0006 0F       		.byte	15
 9210 0007 65       		.byte	101
 9211 0008 42       		.byte	66
 9212 0009 27       		.byte	39
 9213 000a 1F       		.byte	31
 9214 000b 1A       		.byte	26
 9215 000c 50       		.byte	80
 9216 000d 53       		.byte	83
 9217 000e 7D       		.byte	125
 9218 000f 59       		.byte	89
 9219 0010 0A       		.byte	10
 9220 0011 23       		.byte	35
 9221 0012 08       		.byte	8
 9222 0013 36       		.byte	54
 9223 0014 7A       		.byte	122
 9224 0015 11       		.byte	17
 9225 0016 21       		.byte	33
 9226 0017 00       		.byte	0
 9227 0018 3A       		.byte	58
 9228 0019 73       		.byte	115
 9229 001a 06       		.byte	6
 9230 001b 5E       		.byte	94
 9231 001c 56       		.byte	86
 9232 001d 31       		.byte	49
 9233 001e 34       		.byte	52
 9234 001f 14       		.byte	20
 9235 0020 28       		.byte	40
 9236 0021 1B       		.byte	27
 9237 0022 54       		.byte	84
 9238 0023 5A       		.byte	90
 9239 0024 3F       		.byte	63
 9240 0025 70       		.byte	112
 9241 0026 2F       		.byte	47
 9242 0027 66       		.byte	102
 9245              	whitening:
 9246 0028 01       		.byte	1
 9247 0029 01       		.byte	1
 9248 002a 01       		.byte	1
 9249 002b 01       		.byte	1
 9250 002c 00       		.byte	0
 9251 002d 01       		.byte	1
 9252 002e 00       		.byte	0
 9253 002f 01       		.byte	1
 9254 0030 00       		.byte	0
 9255 0031 01       		.byte	1
 9256 0032 00       		.byte	0
 9257 0033 00       		.byte	0
 9258 0034 00       		.byte	0
 9259 0035 00       		.byte	0
 9260 0036 01       		.byte	1
 9261 0037 00       		.byte	0
 9262 0038 01       		.byte	1
 9263 0039 01       		.byte	1
 9264 003a 00       		.byte	0
ARM GAS  /tmp/ccUrIl19.s 			page 241


 9265 003b 01       		.byte	1
 9266 003c 01       		.byte	1
 9267 003d 01       		.byte	1
 9268 003e 01       		.byte	1
 9269 003f 00       		.byte	0
 9270 0040 00       		.byte	0
 9271 0041 01       		.byte	1
 9272 0042 01       		.byte	1
 9273 0043 01       		.byte	1
 9274 0044 00       		.byte	0
 9275 0045 00       		.byte	0
 9276 0046 01       		.byte	1
 9277 0047 00       		.byte	0
 9278 0048 01       		.byte	1
 9279 0049 00       		.byte	0
 9280 004a 01       		.byte	1
 9281 004b 01       		.byte	1
 9282 004c 00       		.byte	0
 9283 004d 00       		.byte	0
 9284 004e 01       		.byte	1
 9285 004f 01       		.byte	1
 9286 0050 00       		.byte	0
 9287 0051 00       		.byte	0
 9288 0052 00       		.byte	0
 9289 0053 00       		.byte	0
 9290 0054 00       		.byte	0
 9291 0055 01       		.byte	1
 9292 0056 01       		.byte	1
 9293 0057 00       		.byte	0
 9294 0058 01       		.byte	1
 9295 0059 01       		.byte	1
 9296 005a 00       		.byte	0
 9297 005b 01       		.byte	1
 9298 005c 00       		.byte	0
 9299 005d 01       		.byte	1
 9300 005e 01       		.byte	1
 9301 005f 01       		.byte	1
 9302 0060 00       		.byte	0
 9303 0061 01       		.byte	1
 9304 0062 00       		.byte	0
 9305 0063 00       		.byte	0
 9306 0064 00       		.byte	0
 9307 0065 01       		.byte	1
 9308 0066 01       		.byte	1
 9309 0067 00       		.byte	0
 9310 0068 00       		.byte	0
 9311 0069 01       		.byte	1
 9312 006a 00       		.byte	0
 9313 006b 00       		.byte	0
 9314 006c 00       		.byte	0
 9315 006d 01       		.byte	1
 9316 006e 00       		.byte	0
 9317 006f 00       		.byte	0
 9318 0070 00       		.byte	0
 9319 0071 00       		.byte	0
 9320 0072 00       		.byte	0
 9321 0073 00       		.byte	0
ARM GAS  /tmp/ccUrIl19.s 			page 242


 9322 0074 01       		.byte	1
 9323 0075 00       		.byte	0
 9324 0076 00       		.byte	0
 9325 0077 01       		.byte	1
 9326 0078 00       		.byte	0
 9327 0079 00       		.byte	0
 9328 007a 01       		.byte	1
 9329 007b 01       		.byte	1
 9330 007c 00       		.byte	0
 9331 007d 01       		.byte	1
 9332 007e 00       		.byte	0
 9333 007f 00       		.byte	0
 9334 0080 01       		.byte	1
 9335 0081 01       		.byte	1
 9336 0082 01       		.byte	1
 9337 0083 01       		.byte	1
 9338 0084 00       		.byte	0
 9339 0085 01       		.byte	1
 9340 0086 01       		.byte	1
 9341 0087 01       		.byte	1
 9342 0088 00       		.byte	0
 9343 0089 00       		.byte	0
 9344 008a 00       		.byte	0
 9345 008b 00       		.byte	0
 9346 008c 01       		.byte	1
 9347 008d 01       		.byte	1
 9348 008e 01       		.byte	1
 9349 008f 01       		.byte	1
 9350 0090 01       		.byte	1
 9351 0091 01       		.byte	1
 9352 0092 01       		.byte	1
 9353 0093 00       		.byte	0
 9354 0094 00       		.byte	0
 9355 0095 00       		.byte	0
 9356 0096 01       		.byte	1
 9357 0097 01       		.byte	1
 9358 0098 01       		.byte	1
 9359 0099 00       		.byte	0
 9360 009a 01       		.byte	1
 9361 009b 01       		.byte	1
 9362 009c 00       		.byte	0
 9363 009d 00       		.byte	0
 9364 009e 00       		.byte	0
 9365 009f 01       		.byte	1
 9366 00a0 00       		.byte	0
 9367 00a1 01       		.byte	1
 9368 00a2 00       		.byte	0
 9369 00a3 00       		.byte	0
 9370 00a4 01       		.byte	1
 9371 00a5 00       		.byte	0
 9372 00a6 01       		.byte	1
 9375              	compile_info:
 9376 00a7 75626572 		.ascii	"ubertooth 2017-03-R2 (mwnl@mwnl-lenovo) 2018. 08. 2"
 9376      746F6F74 
 9376      68203230 
 9376      31372D30 
 9376      332D5232 
ARM GAS  /tmp/ccUrIl19.s 			page 243


 9377 00da 302E2028 		.ascii	"0. (\354\233\224) 15:53:49 KST\000"
 9377      EC9B9429 
 9377      2031353A 
 9377      35333A34 
 9377      39204B53 
 9380              	whitening_word:
 9381 00f0 40B2BCC3 		.word	-1011043776
 9382 00f4 1F374A5F 		.word	1598699295
 9383 00f8 85F69C9A 		.word	-1700989307
 9384 00fc C1D6C544 		.word	1153816257
 9385 0100 2059DEE1 		.word	-505521888
 9386 0104 8F1BA5AF 		.word	-1348134001
 9387 0108 427B4ECD 		.word	-850494654
 9388 010c 60EB6222 		.word	576908128
 9389 0110 902CEFF0 		.word	-252760944
 9390 0114 C78DD257 		.word	1473416647
 9391 0118 A13DA766 		.word	1722236321
 9392 011c B0753111 		.word	288454064
 9393 0120 8940B2BC 		.word	-1129168759
 9394 0124 C31F374A 		.word	1245126595
 9395 0128 5F85F69C 		.word	-1661565601
 9396 012c 9AC1D6C5 		.word	-975781478
 9397 0130 442059DE 		.word	-564584380
 9398 0134 E18F1BA5 		.word	-1524920351
 9399 0138 AF427B4E 		.word	1316700847
 9400 013c CD60EB62 		.word	1659592909
 9401 0140 22902CEF 		.word	-282292190
 9402 0144 F0C78DD2 		.word	-762460176
 9403 0148 57A13DA7 		.word	-1489133225
 9404 014c 66B07531 		.word	829796454
 9405 0150 D257A13D 		.word	1033983954
 9406 0154 A766B075 		.word	1974494887
 9407 0158 31114896 		.word	-1773661903
 9408 015c 77F8E346 		.word	1189345399
 9409 0160 E9ABD09E 		.word	-1630491671
 9410 0164 5333D8BA 		.word	-1160236205
 9411 0168 980824CB 		.word	-886830952
 9412 016c 3BFC71A3 		.word	-1552810949
 9413 0170 F45568CF 		.word	-815245836
 9414 0174 A9196C5D 		.word	1567365545
 9415 0178 4C0492E5 		.word	-443415476
 9416 017c 1DFEB851 		.word	1371078173
 9417 0180 1BA5AF42 		.word	1118807323
 9418 0184 7B4ECD60 		.word	1624067707
 9419 0188 EB622290 		.word	-1876794645
 9420 018c 2CEFF0C7 		.word	-940511444
 9421 0190 8DD257A1 		.word	-1588079987
 9422 0194 3DA766B0 		.word	-1335449795
 9423 0198 75311148 		.word	1209086325
 9424 019c 9677F8E3 		.word	-470255722
 9425 01a0 46E9ABD0 		.word	-794039994
 9426 01a4 9E5333D8 		.word	-667724898
 9427 01a8 BA980824 		.word	604543162
 9428 01ac CB3BFC71 		.word	1912355787
 9429 01b0 6479873F 		.word	1065843044
 9430 01b4 6E94BE0A 		.word	180261998
 9431 01b8 ED393583 		.word	-2093663763
ARM GAS  /tmp/ccUrIl19.s 			page 244


 9432 01bc AD8B8940 		.word	1082756013
 9433 01c0 B2BCC31F 		.word	532921522
 9434 01c4 374A5F85 		.word	-2057352649
 9435 01c8 F69C9AC1 		.word	-1046831882
 9436 01cc D6C54420 		.word	541378006
 9437 01d0 59DEE18F 		.word	-1881022887
 9438 01d4 1BA5AF42 		.word	1118807323
 9439 01d8 7B4ECD60 		.word	1624067707
 9440 01dc EB622290 		.word	-1876794645
 9441 01e0 AD8B8940 		.word	1082756013
 9442 01e4 B2BCC31F 		.word	532921522
 9443 01e8 374A5F85 		.word	-2057352649
 9444 01ec F69C9AC1 		.word	-1046831882
 9445 01f0 D6C54420 		.word	541378006
 9446 01f4 59DEE18F 		.word	-1881022887
 9447 01f8 1BA5AF42 		.word	1118807323
 9448 01fc 7B4ECD60 		.word	1624067707
 9449 0200 EB622290 		.word	-1876794645
 9450 0204 2CEFF0C7 		.word	-940511444
 9451 0208 8DD257A1 		.word	-1588079987
 9452 020c 3DA766B0 		.word	-1335449795
 9453 0210 F69C9AC1 		.word	-1046831882
 9454 0214 D6C54420 		.word	541378006
 9455 0218 59DEE18F 		.word	-1881022887
 9456 021c 1BA5AF42 		.word	1118807323
 9457 0220 7B4ECD60 		.word	1624067707
 9458 0224 EB622290 		.word	-1876794645
 9459 0228 2CEFF0C7 		.word	-940511444
 9460 022c 8DD257A1 		.word	-1588079987
 9461 0230 3DA766B0 		.word	-1335449795
 9462 0234 75311148 		.word	1209086325
 9463 0238 9677F8E3 		.word	-470255722
 9464 023c 46E9ABD0 		.word	-794039994
 9465 0240 3F6E94BE 		.word	-1097568705
 9466 0244 0AED3935 		.word	892988682
 9467 0248 83AD8B89 		.word	-1987334781
 9468 024c 40B2BCC3 		.word	-1011043776
 9469 0250 1F374A5F 		.word	1598699295
 9470 0254 85F69C9A 		.word	-1700989307
 9471 0258 C1D6C544 		.word	1153816257
 9472 025c 2059DEE1 		.word	-505521888
 9473 0260 8F1BA5AF 		.word	-1348134001
 9474 0264 427B4ECD 		.word	-850494654
 9475 0268 60EB6222 		.word	576908128
 9476 026c 902CEFF0 		.word	-252760944
 9477 0270 0824CB3B 		.word	1003168776
 9478 0274 FC71A3F4 		.word	-190615044
 9479 0278 5568CFA9 		.word	-1446025131
 9480 027c 196C5D4C 		.word	1281190937
 9481 0280 0492E51D 		.word	501584388
 9482 0284 FEB851FA 		.word	-95307522
 9483 0288 2AB4E7D4 		.word	-723012566
 9484 028c 0CB62E26 		.word	640595468
 9485 0290 02C9F20E 		.word	250792194
 9486 0294 7FDC287D 		.word	2099829887
 9487 0298 15DA736A 		.word	1785977365
 9488 029c 065B1713 		.word	320297734
ARM GAS  /tmp/ccUrIl19.s 			page 245


 9489 02a0 C1D6C544 		.word	1153816257
 9490 02a4 2059DEE1 		.word	-505521888
 9491 02a8 8F1BA5AF 		.word	-1348134001
 9492 02ac 427B4ECD 		.word	-850494654
 9493 02b0 60EB6222 		.word	576908128
 9494 02b4 902CEFF0 		.word	-252760944
 9495 02b8 C78DD257 		.word	1473416647
 9496 02bc A13DA766 		.word	1722236321
 9497 02c0 B0753111 		.word	288454064
 9498 02c4 489677F8 		.word	-126380472
 9499 02c8 E346E9AB 		.word	-1410775325
 9500 02cc D09E5333 		.word	861118160
 9501 02d0 9AC1D6C5 		.word	-975781478
 9502 02d4 442059DE 		.word	-564584380
 9503 02d8 E18F1BA5 		.word	-1524920351
 9504 02dc AF427B4E 		.word	1316700847
 9505 02e0 CD60EB62 		.word	1659592909
 9506 02e4 22902CEF 		.word	-282292190
 9507 02e8 F0C78DD2 		.word	-762460176
 9508 02ec 57A13DA7 		.word	-1489133225
 9509 02f0 66B07531 		.word	829796454
 9510 02f4 11489677 		.word	2006337553
 9511 02f8 F8E346E9 		.word	-381230088
 9512 02fc ABD09E53 		.word	1402917035
 9513 0300 5333D8BA 		.word	-1160236205
 9514 0304 980824CB 		.word	-886830952
 9515 0308 3BFC71A3 		.word	-1552810949
 9516 030c F45568CF 		.word	-815245836
 9517 0310 A9196C5D 		.word	1567365545
 9518 0314 4C0492E5 		.word	-443415476
 9519 0318 1DFEB851 		.word	1371078173
 9520 031c FA2AB4E7 		.word	-407622918
 9521 0320 D40CB62E 		.word	783682772
 9522 0324 2602C9F2 		.word	-221707738
 9523 0328 0E7FDC28 		.word	685539086
 9524 032c 7D15DA73 		.word	1943672189
 9525 0330 2CEFF0C7 		.word	-940511444
 9526 0334 8DD257A1 		.word	-1588079987
 9527 0338 3DA766B0 		.word	-1335449795
 9528 033c 75311148 		.word	1209086325
 9529 0340 9677F8E3 		.word	-470255722
 9530 0344 46E9ABD0 		.word	-794039994
 9531 0348 9E5333D8 		.word	-667724898
 9532 034c BA980824 		.word	604543162
 9533 0350 CB3BFC71 		.word	1912355787
 9534 0354 A3F45568 		.word	1750463651
 9535 0358 CFA9196C 		.word	1813621199
 9536 035c 5D4C0492 		.word	-1845212067
 9537 0360 E51DFEB8 		.word	-1191305755
 9538 0364 51FA2AB4 		.word	-1272251823
 9539 0368 E7D40CB6 		.word	-1240673049
 9540 036c 2E2602C9 		.word	-922606034
 9541 0370 F20E7FDC 		.word	-595652878
 9542 0374 287D15DA 		.word	-636125912
 9543 0378 736A065B 		.word	1527147123
 9544 037c 17138164 		.word	1686180631
 9545 0380 79873F6E 		.word	1849657209
ARM GAS  /tmp/ccUrIl19.s 			page 246


 9546 0384 94BE0AED 		.word	-318062956
 9547 0388 393583AD 		.word	-1383910087
 9548 038c 8B8940B2 		.word	-1304393333
 9549 0390 BE0AED39 		.word	971836094
 9550 0394 3583AD8B 		.word	-1951562955
 9551 0398 8940B2BC 		.word	-1129168759
 9552 039c C31F374A 		.word	1245126595
 9553 03a0 5F85F69C 		.word	-1661565601
 9554 03a4 9AC1D6C5 		.word	-975781478
 9555 03a8 442059DE 		.word	-564584380
 9556 03ac E18F1BA5 		.word	-1524920351
 9557 03b0 AF427B4E 		.word	1316700847
 9558 03b4 CD60EB62 		.word	1659592909
 9559 03b8 22902CEF 		.word	-282292190
 9560 03bc F0C78DD2 		.word	-762460176
 9561 03c0 77F8E346 		.word	1189345399
 9562 03c4 E9ABD09E 		.word	-1630491671
 9563 03c8 5333D8BA 		.word	-1160236205
 9564 03cc 980824CB 		.word	-886830952
 9565 03d0 3BFC71A3 		.word	-1552810949
 9566 03d4 F45568CF 		.word	-815245836
 9567 03d8 A9196C5D 		.word	1567365545
 9568 03dc 4C0492E5 		.word	-443415476
 9569 03e0 1DFEB851 		.word	1371078173
 9570 03e4 FA2AB4E7 		.word	-407622918
 9571 03e8 D40CB62E 		.word	783682772
 9572 03ec 2602C9F2 		.word	-221707738
 9573 03f0 D09E5333 		.word	861118160
 9574 03f4 D8BA9808 		.word	144227032
 9575 03f8 24CB3BFC 		.word	-63190236
 9576 03fc 71A3F455 		.word	1442095985
 9577 0400 68CFA919 		.word	430559080
 9578 0404 6C5D4C04 		.word	72113516
 9579 0408 92E51DFE 		.word	-31595118
 9580 040c B851FA2A 		.word	721047992
 9581 0410 B4E7D40C 		.word	215279540
 9582 0414 B62E2602 		.word	36056758
 9583 0418 C9F20E7F 		.word	2131686089
 9584 041c DC287D15 		.word	360523996
 9585 0420 196C5D4C 		.word	1281190937
 9586 0424 0492E51D 		.word	501584388
 9587 0428 FEB851FA 		.word	-95307522
 9588 042c 2AB4E7D4 		.word	-723012566
 9589 0430 0CB62E26 		.word	640595468
 9590 0434 02C9F20E 		.word	250792194
 9591 0438 7FDC287D 		.word	2099829887
 9592 043c 15DA736A 		.word	1785977365
 9593 0440 065B1713 		.word	320297734
 9594 0444 81647987 		.word	-2022087551
 9595 0448 3F6E94BE 		.word	-1097568705
 9596 044c 0AED3935 		.word	892988682
 9597 0450 427B4ECD 		.word	-850494654
 9598 0454 60EB6222 		.word	576908128
 9599 0458 902CEFF0 		.word	-252760944
 9600 045c C78DD257 		.word	1473416647
 9601 0460 A13DA766 		.word	1722236321
 9602 0464 B0753111 		.word	288454064
ARM GAS  /tmp/ccUrIl19.s 			page 247


 9603 0468 489677F8 		.word	-126380472
 9604 046c E346E9AB 		.word	-1410775325
 9605 0470 D09E5333 		.word	861118160
 9606 0474 D8BA9808 		.word	144227032
 9607 0478 24CB3BFC 		.word	-63190236
 9608 047c 71A3F455 		.word	1442095985
 9609 0480 8B8940B2 		.word	-1304393333
 9610 0484 BCC31F37 		.word	924828604
 9611 0488 4A5F85F6 		.word	-159031478
 9612 048c 9C9AC1D6 		.word	-691955044
 9613 0490 C5442059 		.word	1495286981
 9614 0494 DEE18F1B 		.word	462414302
 9615 0498 A5AF427B 		.word	2067967909
 9616 049c 4ECD60EB 		.word	-345977522
 9617 04a0 6222902C 		.word	747643490
 9618 04a4 EFF0C78D 		.word	-1916276497
 9619 04a8 D257A13D 		.word	1033983954
 9620 04ac A766B075 		.word	1974494887
 9621 04b0 F45568CF 		.word	-815245836
 9622 04b4 A9196C5D 		.word	1567365545
 9623 04b8 4C0492E5 		.word	-443415476
 9624 04bc 1DFEB851 		.word	1371078173
 9625 04c0 FA2AB4E7 		.word	-407622918
 9626 04c4 D40CB62E 		.word	783682772
 9627 04c8 2602C9F2 		.word	-221707738
 9628 04cc 0E7FDC28 		.word	685539086
 9629 04d0 7D15DA73 		.word	1943672189
 9630 04d4 6A065B17 		.word	391841386
 9631 04d8 13816479 		.word	2036629779
 9632 04dc 873F6E94 		.word	-1804714105
 9633 04e0 3DA766B0 		.word	-1335449795
 9634 04e4 75311148 		.word	1209086325
 9635 04e8 9677F8E3 		.word	-470255722
 9636 04ec 46E9ABD0 		.word	-794039994
 9637 04f0 9E5333D8 		.word	-667724898
 9638 04f4 BA980824 		.word	604543162
 9639 04f8 CB3BFC71 		.word	1912355787
 9640 04fc A3F45568 		.word	1750463651
 9641 0500 CFA9196C 		.word	1813621199
 9642 0504 5D4C0492 		.word	-1845212067
 9643 0508 E51DFEB8 		.word	-1191305755
 9644 050c 51FA2AB4 		.word	-1272251823
 9645 0510 66B07531 		.word	829796454
 9646 0514 11489677 		.word	2006337553
 9647 0518 F8E346E9 		.word	-381230088
 9648 051c ABD09E53 		.word	1402917035
 9649 0520 33D8BA98 		.word	-1732585421
 9650 0524 0824CB3B 		.word	1003168776
 9651 0528 FC71A3F4 		.word	-190615044
 9652 052c 5568CFA9 		.word	-1446025131
 9653 0530 196C5D4C 		.word	1281190937
 9654 0534 0492E51D 		.word	501584388
 9655 0538 FEB851FA 		.word	-95307522
 9656 053c 2AB4E7D4 		.word	-723012566
 9657 0540 AF427B4E 		.word	1316700847
 9658 0544 CD60EB62 		.word	1659592909
 9659 0548 22902CEF 		.word	-282292190
ARM GAS  /tmp/ccUrIl19.s 			page 248


 9660 054c F0C78DD2 		.word	-762460176
 9661 0550 57A13DA7 		.word	-1489133225
 9662 0554 66B07531 		.word	829796454
 9663 0558 11489677 		.word	2006337553
 9664 055c F8E346E9 		.word	-381230088
 9665 0560 ABD09E53 		.word	1402917035
 9666 0564 33D8BA98 		.word	-1732585421
 9667 0568 0824CB3B 		.word	1003168776
 9668 056c FC71A3F4 		.word	-190615044
 9669 0570 980824CB 		.word	-886830952
 9670 0574 3BFC71A3 		.word	-1552810949
 9671 0578 F45568CF 		.word	-815245836
 9672 057c A9196C5D 		.word	1567365545
 9673 0580 4C0492E5 		.word	-443415476
 9674 0584 1DFEB851 		.word	1371078173
 9675 0588 FA2AB4E7 		.word	-407622918
 9676 058c D40CB62E 		.word	783682772
 9677 0590 2602C9F2 		.word	-221707738
 9678 0594 0E7FDC28 		.word	685539086
 9679 0598 7D15DA73 		.word	1943672189
 9680 059c 6A065B17 		.word	391841386
 9681 05a0 51FA2AB4 		.word	-1272251823
 9682 05a4 E7D40CB6 		.word	-1240673049
 9683 05a8 2E2602C9 		.word	-922606034
 9684 05ac F20E7FDC 		.word	-595652878
 9685 05b0 287D15DA 		.word	-636125912
 9686 05b4 736A065B 		.word	1527147123
 9687 05b8 17138164 		.word	1686180631
 9688 05bc 79873F6E 		.word	1849657209
 9689 05c0 94BE0AED 		.word	-318062956
 9690 05c4 393583AD 		.word	-1383910087
 9691 05c8 8B8940B2 		.word	-1304393333
 9692 05cc BCC31F37 		.word	924828604
 9693 05d0 0AED3935 		.word	892988682
 9694 05d4 83AD8B89 		.word	-1987334781
 9695 05d8 40B2BCC3 		.word	-1011043776
 9696 05dc 1F374A5F 		.word	1598699295
 9697 05e0 85F69C9A 		.word	-1700989307
 9698 05e4 C1D6C544 		.word	1153816257
 9699 05e8 2059DEE1 		.word	-505521888
 9700 05ec 8F1BA5AF 		.word	-1348134001
 9701 05f0 427B4ECD 		.word	-850494654
 9702 05f4 60EB6222 		.word	576908128
 9703 05f8 902CEFF0 		.word	-252760944
 9704 05fc C78DD257 		.word	1473416647
 9705 0600 C31F374A 		.word	1245126595
 9706 0604 5F85F69C 		.word	-1661565601
 9707 0608 9AC1D6C5 		.word	-975781478
 9708 060c 442059DE 		.word	-564584380
 9709 0610 E18F1BA5 		.word	-1524920351
 9710 0614 AF427B4E 		.word	1316700847
 9711 0618 CD60EB62 		.word	1659592909
 9712 061c 22902CEF 		.word	-282292190
 9713 0620 F0C78DD2 		.word	-762460176
 9714 0624 57A13DA7 		.word	-1489133225
 9715 0628 66B07531 		.word	829796454
 9716 062c 11489677 		.word	2006337553
ARM GAS  /tmp/ccUrIl19.s 			page 249


 9717 0630 BCC31F37 		.word	924828604
 9718 0634 4A5F85F6 		.word	-159031478
 9719 0638 9C9AC1D6 		.word	-691955044
 9720 063c C5442059 		.word	1495286981
 9721 0640 DEE18F1B 		.word	462414302
 9722 0644 A5AF427B 		.word	2067967909
 9723 0648 4ECD60EB 		.word	-345977522
 9724 064c 6222902C 		.word	747643490
 9725 0650 EFF0C78D 		.word	-1916276497
 9726 0654 D257A13D 		.word	1033983954
 9727 0658 A766B075 		.word	1974494887
 9728 065c 31114896 		.word	-1773661903
 9729 0660 75311148 		.word	1209086325
 9730 0664 9677F8E3 		.word	-470255722
 9731 0668 46E9ABD0 		.word	-794039994
 9732 066c 9E5333D8 		.word	-667724898
 9733 0670 BA980824 		.word	604543162
 9734 0674 CB3BFC71 		.word	1912355787
 9735 0678 A3F45568 		.word	1750463651
 9736 067c CFA9196C 		.word	1813621199
 9737 0680 5D4C0492 		.word	-1845212067
 9738 0684 E51DFEB8 		.word	-1191305755
 9739 0688 51FA2AB4 		.word	-1272251823
 9740 068c E7D40CB6 		.word	-1240673049
 9741 0690 2E2602C9 		.word	-922606034
 9742 0694 F20E7FDC 		.word	-595652878
 9743 0698 287D15DA 		.word	-636125912
 9744 069c 736A065B 		.word	1527147123
 9745 06a0 17138164 		.word	1686180631
 9746 06a4 79873F6E 		.word	1849657209
 9747 06a8 94BE0AED 		.word	-318062956
 9748 06ac 393583AD 		.word	-1383910087
 9749 06b0 8B8940B2 		.word	-1304393333
 9750 06b4 BCC31F37 		.word	924828604
 9751 06b8 4A5F85F6 		.word	-159031478
 9752 06bc 9C9AC1D6 		.word	-691955044
 9753 06c0 E7D40CB6 		.word	-1240673049
 9754 06c4 2E2602C9 		.word	-922606034
 9755 06c8 F20E7FDC 		.word	-595652878
 9756 06cc 287D15DA 		.word	-636125912
 9757 06d0 736A065B 		.word	1527147123
 9758 06d4 17138164 		.word	1686180631
 9759 06d8 79873F6E 		.word	1849657209
 9760 06dc 94BE0AED 		.word	-318062956
 9761 06e0 393583AD 		.word	-1383910087
 9762 06e4 8B8940B2 		.word	-1304393333
 9763 06e8 BCC31F37 		.word	924828604
 9764 06ec 4A5F85F6 		.word	-159031478
 9765 06f0 60EB6222 		.word	576908128
 9766 06f4 902CEFF0 		.word	-252760944
 9767 06f8 C78DD257 		.word	1473416647
 9768 06fc A13DA766 		.word	1722236321
 9769 0700 B0753111 		.word	288454064
 9770 0704 489677F8 		.word	-126380472
 9771 0708 E346E9AB 		.word	-1410775325
 9772 070c D09E5333 		.word	861118160
 9773 0710 D8BA9808 		.word	144227032
ARM GAS  /tmp/ccUrIl19.s 			page 250


 9774 0714 24CB3BFC 		.word	-63190236
 9775 0718 71A3F455 		.word	1442095985
 9776 071c 68CFA919 		.word	430559080
 9777 0720 A9196C5D 		.word	1567365545
 9778 0724 4C0492E5 		.word	-443415476
 9779 0728 1DFEB851 		.word	1371078173
 9780 072c FA2AB4E7 		.word	-407622918
 9781 0730 D40CB62E 		.word	783682772
 9782 0734 2602C9F2 		.word	-221707738
 9783 0738 0E7FDC28 		.word	685539086
 9784 073c 7D15DA73 		.word	1943672189
 9785 0740 6A065B17 		.word	391841386
 9786 0744 13816479 		.word	2036629779
 9787 0748 873F6E94 		.word	-1804714105
 9788 074c BE0AED39 		.word	971836094
 9789 0750 F20E7FDC 		.word	-595652878
 9790 0754 287D15DA 		.word	-636125912
 9791 0758 736A065B 		.word	1527147123
 9792 075c 17138164 		.word	1686180631
 9793 0760 79873F6E 		.word	1849657209
 9794 0764 94BE0AED 		.word	-318062956
 9795 0768 393583AD 		.word	-1383910087
 9796 076c 8B8940B2 		.word	-1304393333
 9797 0770 BCC31F37 		.word	924828604
 9798 0774 4A5F85F6 		.word	-159031478
 9799 0778 9C9AC1D6 		.word	-691955044
 9800 077c C5442059 		.word	1495286981
 9801 0780 3BFC71A3 		.word	-1552810949
 9802 0784 F45568CF 		.word	-815245836
 9803 0788 A9196C5D 		.word	1567365545
 9804 078c 4C0492E5 		.word	-443415476
 9805 0790 1DFEB851 		.word	1371078173
 9806 0794 FA2AB4E7 		.word	-407622918
 9807 0798 D40CB62E 		.word	783682772
 9808 079c 2602C9F2 		.word	-221707738
 9809 07a0 0E7FDC28 		.word	685539086
 9810 07a4 7D15DA73 		.word	1943672189
 9811 07a8 6A065B17 		.word	391841386
 9812 07ac 13816479 		.word	2036629779
 9813 07b0 442059DE 		.word	-564584380
 9814 07b4 E18F1BA5 		.word	-1524920351
 9815 07b8 AF427B4E 		.word	1316700847
 9816 07bc CD60EB62 		.word	1659592909
 9817 07c0 22902CEF 		.word	-282292190
 9818 07c4 F0C78DD2 		.word	-762460176
 9819 07c8 57A13DA7 		.word	-1489133225
 9820 07cc 66B07531 		.word	829796454
 9821 07d0 11489677 		.word	2006337553
 9822 07d4 F8E346E9 		.word	-381230088
 9823 07d8 ABD09E53 		.word	1402917035
 9824 07dc 33D8BA98 		.word	-1732585421
 9825 07e0 8DD257A1 		.word	-1588079987
 9826 07e4 3DA766B0 		.word	-1335449795
 9827 07e8 75311148 		.word	1209086325
 9828 07ec 9677F8E3 		.word	-470255722
 9829 07f0 46E9ABD0 		.word	-794039994
 9830 07f4 9E5333D8 		.word	-667724898
ARM GAS  /tmp/ccUrIl19.s 			page 251


 9831 07f8 BA980824 		.word	604543162
 9832 07fc CB3BFC71 		.word	1912355787
 9833 0800 A3F45568 		.word	1750463651
 9834 0804 CFA9196C 		.word	1813621199
 9835 0808 5D4C0492 		.word	-1845212067
 9836 080c E51DFEB8 		.word	-1191305755
 9837 0810 D6C54420 		.word	541378006
 9838 0814 59DEE18F 		.word	-1881022887
 9839 0818 1BA5AF42 		.word	1118807323
 9840 081c 7B4ECD60 		.word	1624067707
 9841 0820 EB622290 		.word	-1876794645
 9842 0824 2CEFF0C7 		.word	-940511444
 9843 0828 8DD257A1 		.word	-1588079987
 9844 082c 3DA766B0 		.word	-1335449795
 9845 0830 75311148 		.word	1209086325
 9846 0834 9677F8E3 		.word	-470255722
 9847 0838 46E9ABD0 		.word	-794039994
 9848 083c 9E5333D8 		.word	-667724898
 9849 0840 1F374A5F 		.word	1598699295
 9850 0844 85F69C9A 		.word	-1700989307
 9851 0848 C1D6C544 		.word	1153816257
 9852 084c 2059DEE1 		.word	-505521888
 9853 0850 8F1BA5AF 		.word	-1348134001
 9854 0854 427B4ECD 		.word	-850494654
 9855 0858 60EB6222 		.word	576908128
 9856 085c 902CEFF0 		.word	-252760944
 9857 0860 C78DD257 		.word	1473416647
 9858 0864 A13DA766 		.word	1722236321
 9859 0868 B0753111 		.word	288454064
 9860 086c 489677F8 		.word	-126380472
 9863              	hop_interval_lut:
 9864 0870 00       		.byte	0
 9865 0871 01       		.byte	1
 9866 0872 13       		.byte	19
 9867 0873 19       		.byte	25
 9868 0874 1C       		.byte	28
 9869 0875 0F       		.byte	15
 9870 0876 1F       		.byte	31
 9871 0877 10       		.byte	16
 9872 0878 0E       		.byte	14
 9873 0879 21       		.byte	33
 9874 087a 1A       		.byte	26
 9875 087b 1B       		.byte	27
 9876 087c 22       		.byte	34
 9877 087d 14       		.byte	20
 9878 087e 08       		.byte	8
 9879 087f 05       		.byte	5
 9880 0880 07       		.byte	7
 9881 0881 18       		.byte	24
 9882 0882 23       		.byte	35
 9883 0883 02       		.byte	2
 9884 0884 0D       		.byte	13
 9885 0885 1E       		.byte	30
 9886 0886 20       		.byte	32
 9887 0887 1D       		.byte	29
 9888 0888 11       		.byte	17
 9889 0889 03       		.byte	3
ARM GAS  /tmp/ccUrIl19.s 			page 252


 9890 088a 0A       		.byte	10
 9891 088b 0B       		.byte	11
 9892 088c 04       		.byte	4
 9893 088d 17       		.byte	23
 9894 088e 15       		.byte	21
 9895 088f 06       		.byte	6
 9896 0890 16       		.byte	22
 9897 0891 09       		.byte	9
 9898 0892 0C       		.byte	12
 9899 0893 12       		.byte	18
 9900 0894 24       		.byte	36
 9901 0895 000000   		.space	3
 9902              	.LC0:
 9903 0898 01000000 		.word	1
 9904 089c 01000000 		.word	1
 9905 08a0 01000000 		.word	1
 9906 08a4 01000000 		.word	1
 9907              	.LC1:
 9908 08a8 6209     		.short	2402
 9909 08aa 7A09     		.short	2426
 9910 08ac B009     		.short	2480
 9911              	.LC2:
 9912 08ae 42       		.byte	66
 9913 08af 1D       		.byte	29
 9914 08b0 FF       		.byte	-1
 9915 08b1 FF       		.byte	-1
 9916 08b2 FF       		.byte	-1
 9917 08b3 FF       		.byte	-1
 9918 08b4 FF       		.byte	-1
 9919 08b5 FF       		.byte	-1
 9920 08b6 03       		.byte	3
 9921 08b7 03       		.byte	3
 9922 08b8 AA       		.byte	-86
 9923 08b9 FE       		.byte	-2
 9924 08ba 12       		.byte	18
 9925 08bb 16       		.byte	22
 9926 08bc AA       		.byte	-86
 9927 08bd FE       		.byte	-2
 9928 08be 10       		.byte	16
 9929 08bf 00       		.byte	0
 9930 08c0 02       		.byte	2
 9931 08c1 AA       		.byte	-86
 9932              	.LC3:
 9933 08c2 6C09     		.short	2412
 9934 08c4 8509     		.short	2437
 9935 08c6 9E09     		.short	2462
 9936              		.section	.rodata.str1.1,"aMS",%progbits,1
 9937              	.LC4:
 9938 0000 32303137 		.ascii	"2017-03-R2\000"
 9938      2D30332D 
 9938      523200
 9939              		.data
 9940              		.align	2
 9941              		.set	.LANCHOR1,. + 0
 9944              	channel:
 9945 0000 8909     		.short	2441
 9946 0002 0000     		.space	2
ARM GAS  /tmp/ccUrIl19.s 			page 253


 9949              	le:
 9950 0004 D6BE898E 		.word	-1903575338
 9951 0008 7D6B     		.short	27517
 9952 000a 7191     		.short	-28303
 9953 000c 55555500 		.word	5592405
 9954 0010 AAAAAA00 		.word	11184810
 9955 0014 00000000 		.word	0
 9956 0018 00       		.byte	0
 9957 0019 000000   		.space	3
 9958 001c 00000000 		.word	0
 9959 0020 00000000 		.space	32
 9959      00000000 
 9959      00000000 
 9959      00000000 
 9959      00000000 
 9960 0040 00000000 		.word	0
 9961 0044 00000000 		.word	0
 9964              	hop_timeout:
 9965 0048 9E00     		.short	158
 9968              	le_adv_channel:
 9969 004a 6209     		.short	2402
 9972              	low_freq:
 9973 004c 6009     		.short	2400
 9976              	high_freq:
 9977 004e B309     		.short	2483
 9980              	rssi_threshold:
 9981 0050 E2       		.byte	-30
 9982 0051 000000   		.bss
 9983              		.align	2
 9984              		.set	.LANCHOR0,. + 0
 9987              	modulation:
 9988 0000 00       		.space	1
 9991              	status:
 9992 0001 00       		.space	1
 9995              	idle_buf_clkn_high:
 9996 0002 00       		.space	1
 9997 0003 00       		.space	1
 10000              	idle_buf_clk100ns:
 10001 0004 00000000 		.space	4
 10004              	idle_buf_channel:
 10005 0008 0000     		.space	2
 10008              	hop_mode:
 10009 000a 00       		.space	1
 10012              	do_hop:
 10013 000b 00       		.space	1
 10016              	hop_direct_channel:
 10017 000c 0000     		.space	2
 10020              	requested_channel:
 10021 000e 0000     		.space	2
 10024              	dma_discard:
 10025 0010 00       		.space	1
 10028              	mode:
 10029 0011 00       		.space	1
 10032              	requested_mode:
 10033 0012 00       		.space	1
 10036              	jam_mode:
 10037 0013 00       		.space	1
ARM GAS  /tmp/ccUrIl19.s 			page 254


 10040              	ego_mode:
 10041 0014 00       		.space	1
 10042 0015 000000   		.space	3
 10045              	packet_cb:
 10046 0018 00000000 		.space	4
 10049              	le_jam_count:
 10050 001c 00000000 		.space	4
 10053              	dlen:
 10054 0020 00000000 		.space	4
 10057              	data_cb:
 10058 0024 00000000 		.space	4
 10061              	start_sync:
 10062 0028 00000000 		.space	4
 10065              	now_sync:
 10066 002c 00000000 		.space	4
 10069              	restart_jamming.5235:
 10070 0030 00000000 		.space	4
 10073              	restart_jamming.5288:
 10074 0034 00000000 		.space	4
 10077              	first_ts.5393:
 10078 0038 00000000 		.space	4
 10081              	prev_clk.5399:
 10082 003c 00000000 		.space	4
 10085              	slave_mac_address:
 10086 0040 00000000 		.space	6
 10086      0000
 10087 0046 0000     		.text
 10088              	.Letext0:
 10089              		.file 2 "/usr/lib/gcc/arm-none-eabi/4.8.2/include/stddef.h"
 10090              		.file 3 "/usr/lib/gcc/arm-none-eabi/4.8.2/include/stdint-gcc.h"
 10091              		.file 4 "../../host/libubertooth/src/ubertooth_interface.h"
 10092              		.file 5 "../common/ubertooth.h"
 10093              		.file 6 "ubertooth_usb.h"
 10094              		.file 7 "bluetooth_le.h"
 10095              		.file 8 "ego.h"
 10096              		.file 9 "ubertooth_rssi.h"
 10097              		.file 10 "ubertooth_cs.h"
 10098              		.file 11 "ubertooth_dma.h"
 10099              		.file 12 "ubertooth_clock.h"
 10100              		.file 13 "bluetooth.h"
 10101              		.file 14 "cc2400_rangetest.h"
 10102              		.file 15 "/usr/include/newlib/string.h"
 10103              		.file 16 "/usr/include/newlib/stdlib.h"
ARM GAS  /tmp/ccUrIl19.s 			page 255


DEFINED SYMBOLS
                            *ABS*:0000000000000000 bluetooth_rxtx.c
     /tmp/ccUrIl19.s:19     .text.reverse8:0000000000000000 $t
     /tmp/ccUrIl19.s:23     .text.reverse8:0000000000000000 reverse8
     /tmp/ccUrIl19.s:72     .text.cc2400_rx:0000000000000000 $t
     /tmp/ccUrIl19.s:76     .text.cc2400_rx:0000000000000000 cc2400_rx
     /tmp/ccUrIl19.s:189    .text.cc2400_rx:0000000000000098 $d
     /tmp/ccUrIl19.s:196    .text.cc2400_rx_sync:0000000000000000 $t
     /tmp/ccUrIl19.s:200    .text.cc2400_rx_sync:0000000000000000 cc2400_rx_sync
     /tmp/ccUrIl19.s:330    .text.cc2400_rx_sync:00000000000000ac $d
     /tmp/ccUrIl19.s:337    .text.enqueue:0000000000000000 $t
     /tmp/ccUrIl19.s:341    .text.enqueue:0000000000000000 enqueue
     /tmp/ccUrIl19.s:451    .text.enqueue:0000000000000084 $d
                            *COM*:0000000000000004 clkn
                            *COM*:0000000000000001 rssi_min
                            *COM*:0000000000000001 rssi_max
                            *COM*:0000000000000001 rssi_count
     /tmp/ccUrIl19.s:461    .text.le_set_access_address:0000000000000000 $t
     /tmp/ccUrIl19.s:465    .text.le_set_access_address:0000000000000000 le_set_access_address
     /tmp/ccUrIl19.s:492    .text.le_set_access_address:0000000000000014 $d
     /tmp/ccUrIl19.s:497    .text.cc2400_idle:0000000000000000 $t
     /tmp/ccUrIl19.s:501    .text.cc2400_idle:0000000000000000 cc2400_idle
     /tmp/ccUrIl19.s:615    .text.cc2400_idle:000000000000009c $d
                            *COM*:0000000000000010 target
     /tmp/ccUrIl19.s:623    .text.cb_follow_le:0000000000000000 $t
     /tmp/ccUrIl19.s:628    .text.cb_follow_le:0000000000000000 cb_follow_le
     /tmp/ccUrIl19.s:842    .text.cb_follow_le:00000000000000ec $d
                            *COM*:0000000000000320 unpacked
                            *COM*:0000000000000004 idle_rxbuf
     /tmp/ccUrIl19.s:852    .text.connection_follow_cb:0000000000000000 $t
     /tmp/ccUrIl19.s:857    .text.connection_follow_cb:0000000000000000 connection_follow_cb
     /tmp/ccUrIl19.s:1128   .text.connection_follow_cb:0000000000000164 $d
     /tmp/ccUrIl19.s:1138   .text.vendor_request_handler:0000000000000000 $t
     /tmp/ccUrIl19.s:1142   .text.vendor_request_handler:0000000000000000 vendor_request_handler
     /tmp/ccUrIl19.s:1176   .text.vendor_request_handler:000000000000001a $d
     /tmp/ccUrIl19.s:1250   .text.vendor_request_handler:00000000000000ac $t
     /tmp/ccUrIl19.s:1572   .text.vendor_request_handler:0000000000000264 $d
                            *COM*:0000000000000005 rr
     /tmp/ccUrIl19.s:1585   .text.vendor_request_handler:0000000000000290 $t
     /tmp/ccUrIl19.s:2151   .text.vendor_request_handler:000000000000055c $d
                            *COM*:0000000000000001 cs_threshold_req
                            *COM*:0000000000000004 clkn_offset
                            *COM*:0000000000000002 clk100ns_offset
                            *COM*:000000000000000a afh_map
                            *COM*:0000000000000001 used_channels
                            *COM*:0000000000000001 afh_enabled
                            *COM*:0000000000000002 clk_drift_ppm
                            *COM*:0000000000000004 clkn_next_drift_fix
                            *COM*:0000000000000002 clk_drift_correction
                            *COM*:0000000000000004 clkn_last_drift_fix
     /tmp/ccUrIl19.s:2170   .text.vendor_request_handler:000000000000059c $t
     /tmp/ccUrIl19.s:2354   .text.vendor_request_handler:0000000000000670 $d
                            *COM*:000000000000003a tx_pkt
                            *COM*:0000000000000004 slave_mac_address_data
     /tmp/ccUrIl19.s:2361   .text.enqueue_time:0000000000000000 $t
     /tmp/ccUrIl19.s:2365   .text.enqueue_time:0000000000000000 enqueue_time
     /tmp/ccUrIl19.s:2409   .text.enqueue_time:0000000000000024 $d
ARM GAS  /tmp/ccUrIl19.s 			page 256


     /tmp/ccUrIl19.s:2414   .text.msleep.constprop.3:0000000000000000 $t
     /tmp/ccUrIl19.s:2418   .text.msleep.constprop.3:0000000000000000 msleep.constprop.3
     /tmp/ccUrIl19.s:2446   .text.msleep.constprop.3:0000000000000018 $d
     /tmp/ccUrIl19.s:2451   .text.enqueue_with_ts:0000000000000000 $t
     /tmp/ccUrIl19.s:2456   .text.enqueue_with_ts:0000000000000000 enqueue_with_ts
     /tmp/ccUrIl19.s:2532   .text.enqueue_with_ts:0000000000000050 $d
     /tmp/ccUrIl19.s:2538   .text.TIMER0_IRQHandler:0000000000000000 $t
     /tmp/ccUrIl19.s:2543   .text.TIMER0_IRQHandler:0000000000000000 TIMER0_IRQHandler
     /tmp/ccUrIl19.s:2742   .text.TIMER0_IRQHandler:0000000000000110 $d
                            *COM*:0000000000000004 last_hop
     /tmp/ccUrIl19.s:2759   .text.EINT3_IRQHandler:0000000000000000 $t
     /tmp/ccUrIl19.s:2764   .text.EINT3_IRQHandler:0000000000000000 EINT3_IRQHandler
     /tmp/ccUrIl19.s:2795   .text.EINT3_IRQHandler:0000000000000024 $d
                            *COM*:0000000000000001 cs_trigger
     /tmp/ccUrIl19.s:2803   .text.DMA_IRQHandler:0000000000000000 $t
     /tmp/ccUrIl19.s:2808   .text.DMA_IRQHandler:0000000000000000 DMA_IRQHandler
     /tmp/ccUrIl19.s:2941   .text.DMA_IRQHandler:00000000000000b8 $d
                            *COM*:0000000000000004 active_rxbuf
                            *COM*:0000000000000004 rx_tc
                            *COM*:0000000000000004 rx_err
     /tmp/ccUrIl19.s:2959   .text.le_transmit:0000000000000000 $t
     /tmp/ccUrIl19.s:2964   .text.le_transmit:0000000000000000 le_transmit
     /tmp/ccUrIl19.s:3252   .text.le_transmit:0000000000000194 $d
     /tmp/ccUrIl19.s:3261   .text.le_jam:0000000000000000 $t
     /tmp/ccUrIl19.s:3266   .text.le_jam:0000000000000000 le_jam
     /tmp/ccUrIl19.s:3347   .text.le_jam:0000000000000074 $d
     /tmp/ccUrIl19.s:3352   .text.hop:0000000000000000 $t
     /tmp/ccUrIl19.s:3357   .text.hop:0000000000000000 hop
     /tmp/ccUrIl19.s:3604   .text.hop:0000000000000180 $d
     /tmp/ccUrIl19.s:3616   .text.bt_stream_rx:0000000000000000 $t
     /tmp/ccUrIl19.s:3621   .text.bt_stream_rx:0000000000000000 bt_stream_rx
     /tmp/ccUrIl19.s:3841   .text.bt_stream_rx:000000000000012c $d
                            *COM*:0000000000000001 cs_threshold_cur
                            *COM*:0000000000000001 cs_no_squelch
     /tmp/ccUrIl19.s:3857   .text.br_transmit:0000000000000000 $t
     /tmp/ccUrIl19.s:3862   .text.br_transmit:0000000000000000 br_transmit
     /tmp/ccUrIl19.s:4285   .text.br_transmit:000000000000025c $d
     /tmp/ccUrIl19.s:4298   .text.reset_le:0000000000000000 $t
     /tmp/ccUrIl19.s:4303   .text.reset_le:0000000000000000 reset_le
     /tmp/ccUrIl19.s:4366   .text.reset_le:0000000000000040 $d
     /tmp/ccUrIl19.s:4375   .text.reset_le_promisc:0000000000000000 $t
     /tmp/ccUrIl19.s:4380   .text.reset_le_promisc:0000000000000000 reset_le_promisc
     /tmp/ccUrIl19.s:4404   .text.reset_le_promisc:000000000000001c $d
                            *COM*:0000000000000108 le_promisc
     /tmp/ccUrIl19.s:4409   .text.bt_generic_le:0000000000000000 $t
     /tmp/ccUrIl19.s:4414   .text.bt_generic_le:0000000000000000 bt_generic_le
     /tmp/ccUrIl19.s:4753   .text.bt_generic_le:00000000000001ac $d
     /tmp/ccUrIl19.s:4772   .text.bt_le_sync_rssi:0000000000000000 $t
     /tmp/ccUrIl19.s:4777   .text.bt_le_sync_rssi:0000000000000000 bt_le_sync_rssi
     /tmp/ccUrIl19.s:5135   .text.bt_le_sync_rssi:0000000000000220 $d
     /tmp/ccUrIl19.s:5147   .text.bt_le_sync:0000000000000000 $t
     /tmp/ccUrIl19.s:5152   .text.bt_le_sync:0000000000000000 bt_le_sync
     /tmp/ccUrIl19.s:5628   .text.bt_le_sync:00000000000002b0 $d
                            *COM*:0000000000000032 rxbuf1
     /tmp/ccUrIl19.s:5650   .text.bt_le_sync:00000000000002fc $t
     /tmp/ccUrIl19.s:5847   .text.bt_le_sync:0000000000000408 $d
     /tmp/ccUrIl19.s:5859   .text.bt_le_sync_cfo:0000000000000000 $t
ARM GAS  /tmp/ccUrIl19.s 			page 257


     /tmp/ccUrIl19.s:5864   .text.bt_le_sync_cfo:0000000000000000 bt_le_sync_cfo
     /tmp/ccUrIl19.s:6342   .text.bt_le_sync_cfo:00000000000002b0 $d
     /tmp/ccUrIl19.s:6364   .text.bt_le_sync_cfo:00000000000002fc $t
     /tmp/ccUrIl19.s:6557   .text.bt_le_sync_cfo:0000000000000404 $d
     /tmp/ccUrIl19.s:6569   .text.bt_follow_le:0000000000000000 $t
     /tmp/ccUrIl19.s:6574   .text.bt_follow_le:0000000000000000 bt_follow_le
     /tmp/ccUrIl19.s:6604   .text.bt_follow_le:0000000000000018 $d
     /tmp/ccUrIl19.s:6610   .text.bt_tracking_le:0000000000000000 $t
     /tmp/ccUrIl19.s:6615   .text.bt_tracking_le:0000000000000000 bt_tracking_le
     /tmp/ccUrIl19.s:6664   .text.bt_tracking_le:000000000000002c $d
     /tmp/ccUrIl19.s:6670   .text.le_promisc_state:0000000000000000 $t
     /tmp/ccUrIl19.s:6675   .text.le_promisc_state:0000000000000000 le_promisc_state
     /tmp/ccUrIl19.s:6729   .text.promisc_recover_hop_increment:0000000000000000 $t
     /tmp/ccUrIl19.s:6734   .text.promisc_recover_hop_increment:0000000000000000 promisc_recover_hop_increment
     /tmp/ccUrIl19.s:6887   .text.promisc_recover_hop_increment:00000000000000c8 $d
     /tmp/ccUrIl19.s:6897   .text.promisc_recover_hop_interval:0000000000000000 $t
     /tmp/ccUrIl19.s:6902   .text.promisc_recover_hop_interval:0000000000000000 promisc_recover_hop_interval
     /tmp/ccUrIl19.s:7025   .text.promisc_recover_hop_interval:0000000000000098 $d
     /tmp/ccUrIl19.s:7036   .text.promisc_follow_cb:0000000000000000 $t
     /tmp/ccUrIl19.s:7041   .text.promisc_follow_cb:0000000000000000 promisc_follow_cb
     /tmp/ccUrIl19.s:7137   .text.promisc_follow_cb:0000000000000064 $d
     /tmp/ccUrIl19.s:7148   .text.see_aa:0000000000000000 $t
     /tmp/ccUrIl19.s:7153   .text.see_aa:0000000000000000 see_aa
     /tmp/ccUrIl19.s:7232   .text.see_aa:0000000000000058 $d
     /tmp/ccUrIl19.s:7237   .text.cb_le_promisc:0000000000000000 $t
     /tmp/ccUrIl19.s:7242   .text.cb_le_promisc:0000000000000000 cb_le_promisc
     /tmp/ccUrIl19.s:7557   .text.cb_le_promisc:000000000000017c $d
     /tmp/ccUrIl19.s:7570   .text.bt_promisc_le:0000000000000000 $t
     /tmp/ccUrIl19.s:7575   .text.bt_promisc_le:0000000000000000 bt_promisc_le
     /tmp/ccUrIl19.s:7654   .text.bt_promisc_le:000000000000005c $d
     /tmp/ccUrIl19.s:7663   .text.bt_slave_le:0000000000000000 $t
     /tmp/ccUrIl19.s:7668   .text.bt_slave_le:0000000000000000 bt_slave_le
     /tmp/ccUrIl19.s:8131   .text.bt_slave_le:0000000000000260 $d
     /tmp/ccUrIl19.s:8144   .text.rx_generic_sync:0000000000000000 $t
     /tmp/ccUrIl19.s:8149   .text.rx_generic_sync:0000000000000000 rx_generic_sync
     /tmp/ccUrIl19.s:8261   .text.rx_generic_sync:0000000000000094 $d
     /tmp/ccUrIl19.s:8268   .text.rx_generic:0000000000000000 $t
     /tmp/ccUrIl19.s:8273   .text.rx_generic:0000000000000000 rx_generic
     /tmp/ccUrIl19.s:8304   .text.rx_generic:000000000000001c $d
     /tmp/ccUrIl19.s:8309   .text.tx_generic:0000000000000000 $t
     /tmp/ccUrIl19.s:8314   .text.tx_generic:0000000000000000 tx_generic
     /tmp/ccUrIl19.s:8472   .text.tx_generic:00000000000000dc $d
     /tmp/ccUrIl19.s:8482   .text.specan:0000000000000000 $t
     /tmp/ccUrIl19.s:8487   .text.specan:0000000000000000 specan
     /tmp/ccUrIl19.s:8674   .text.specan:00000000000000fc $d
     /tmp/ccUrIl19.s:8684   .text.led_specan:0000000000000000 $t
     /tmp/ccUrIl19.s:8689   .text.led_specan:0000000000000000 led_specan
     /tmp/ccUrIl19.s:8893   .text.led_specan:0000000000000114 $d
     /tmp/ccUrIl19.s:8904   .text.startup.main:0000000000000000 $t
     /tmp/ccUrIl19.s:8909   .text.startup.main:0000000000000000 main
     /tmp/ccUrIl19.s:8955   .text.startup.main:0000000000000034 $d
     /tmp/ccUrIl19.s:8977   .text.startup.main:0000000000000084 $t
     /tmp/ccUrIl19.s:9130   .text.startup.main:0000000000000124 $d
     /tmp/ccUrIl19.s:10045  .bss:0000000000000018 packet_cb
     /tmp/ccUrIl19.s:10057  .bss:0000000000000024 data_cb
     /tmp/ccUrIl19.s:10049  .bss:000000000000001c le_jam_count
     /tmp/ccUrIl19.s:9949   .data:0000000000000004 le
ARM GAS  /tmp/ccUrIl19.s 			page 258


     /tmp/ccUrIl19.s:10061  .bss:0000000000000028 start_sync
     /tmp/ccUrIl19.s:10065  .bss:000000000000002c now_sync
     /tmp/ccUrIl19.s:10085  .bss:0000000000000040 slave_mac_address
     /tmp/ccUrIl19.s:10053  .bss:0000000000000020 dlen
     /tmp/ccUrIl19.s:9980   .data:0000000000000050 rssi_threshold
     /tmp/ccUrIl19.s:9976   .data:000000000000004e high_freq
     /tmp/ccUrIl19.s:9972   .data:000000000000004c low_freq
     /tmp/ccUrIl19.s:9987   .bss:0000000000000000 modulation
     /tmp/ccUrIl19.s:10040  .bss:0000000000000014 ego_mode
     /tmp/ccUrIl19.s:10036  .bss:0000000000000013 jam_mode
     /tmp/ccUrIl19.s:10032  .bss:0000000000000012 requested_mode
     /tmp/ccUrIl19.s:10028  .bss:0000000000000011 mode
     /tmp/ccUrIl19.s:9991   .bss:0000000000000001 status
     /tmp/ccUrIl19.s:10024  .bss:0000000000000010 dma_discard
     /tmp/ccUrIl19.s:10004  .bss:0000000000000008 idle_buf_channel
     /tmp/ccUrIl19.s:10000  .bss:0000000000000004 idle_buf_clk100ns
     /tmp/ccUrIl19.s:9995   .bss:0000000000000002 idle_buf_clkn_high
     /tmp/ccUrIl19.s:9968   .data:000000000000004a le_adv_channel
     /tmp/ccUrIl19.s:10020  .bss:000000000000000e requested_channel
     /tmp/ccUrIl19.s:9964   .data:0000000000000048 hop_timeout
     /tmp/ccUrIl19.s:10016  .bss:000000000000000c hop_direct_channel
     /tmp/ccUrIl19.s:9944   .data:0000000000000000 channel
     /tmp/ccUrIl19.s:10012  .bss:000000000000000b do_hop
     /tmp/ccUrIl19.s:10008  .bss:000000000000000a hop_mode
     /tmp/ccUrIl19.s:9375   .rodata:00000000000000a7 compile_info
                            *COM*:0000000000000008 syncword
                            *COM*:0000000000000032 rxbuf2
     /tmp/ccUrIl19.s:9198   .rodata:0000000000000000 $d
     /tmp/ccUrIl19.s:9202   .rodata:0000000000000000 whitening_index
     /tmp/ccUrIl19.s:9245   .rodata:0000000000000028 whitening
     /tmp/ccUrIl19.s:9380   .rodata:00000000000000f0 whitening_word
     /tmp/ccUrIl19.s:9863   .rodata:0000000000000870 hop_interval_lut
     /tmp/ccUrIl19.s:9940   .data:0000000000000000 $d
     /tmp/ccUrIl19.s:9983   .bss:0000000000000000 $d
     /tmp/ccUrIl19.s:10069  .bss:0000000000000030 restart_jamming.5235
     /tmp/ccUrIl19.s:10073  .bss:0000000000000034 restart_jamming.5288
     /tmp/ccUrIl19.s:10077  .bss:0000000000000038 first_ts.5393
     /tmp/ccUrIl19.s:10081  .bss:000000000000003c prev_clk.5399
                     .debug_frame:0000000000000010 $d

UNDEFINED SYMBOLS
cc2400_set
cs_threshold_calc_and_set
clkn_start
cc2400_status
cc2400_strobe
usb_enqueue
rssi_get_avg
memcpy
rbit
clkn_stop
dio_ssp_stop
cs_reset
rssi_reset
btle_channel_index
btle_crcgen_lut
memcmp
ARM GAS  /tmp/ccUrIl19.s 			page 259


__aeabi_llsl
get_part_num
get_device_serial
cc2400_get
set_isp
bootloader_ctrl
strlen
precalc
dequeue
queue_init
malloc
usb_enqueue_time
cc2400_fifo_write
next_hop
btle_next_hop
dio_ssp_init
dma_init
dio_ssp_start
cs_trigger_enable
rssi_add
handle_usb
rssi_iir_update
cs_trigger_disable
memset
dma_init_le
cc2400_get_rev
btle_reverse_crc
btle_calc_crc
cc2400_fifo_read
ubertooth_init
clkn_init
ubertooth_usb_init
wait
reset
cc2400_txtest
cc2400_rangetest
cc2400_repeater
ego_main
