ARM GAS  /tmp/ccTiCbBl.s 			page 1


   1              		.syntax unified
   2              		.cpu cortex-m3
   3              		.fpu softvfp
   4              		.eabi_attribute 20, 1
   5              		.eabi_attribute 21, 1
   6              		.eabi_attribute 23, 3
   7              		.eabi_attribute 24, 1
   8              		.eabi_attribute 25, 1
   9              		.eabi_attribute 26, 1
  10              		.eabi_attribute 30, 4
  11              		.eabi_attribute 34, 1
  12              		.eabi_attribute 18, 4
  13              		.thumb
  14              		.file	"bluetooth_rxtx.c"
  15              		.text
  16              	.Ltext0:
  17              		.cfi_sections	.debug_frame
  18              		.section	.text.reverse8,"ax",%progbits
  19              		.align	1
  20              		.thumb
  21              		.thumb_func
  23              	reverse8:
  24              	.LFB16:
  25              		.file 1 "bluetooth_rxtx.c"
   1:bluetooth_rxtx.c **** /*
   2:bluetooth_rxtx.c ****  * Copyright 2010-2013 Michael Ossmann
   3:bluetooth_rxtx.c ****  * Copyright 2011-2013 Dominic Spill
   4:bluetooth_rxtx.c ****  *
   5:bluetooth_rxtx.c ****  * This file is part of Project Ubertooth.
   6:bluetooth_rxtx.c ****  *
   7:bluetooth_rxtx.c ****  * This program is free software; you can redistribute it and/or modify
   8:bluetooth_rxtx.c ****  * it under the terms of the GNU General Public License as published by
   9:bluetooth_rxtx.c ****  * the Free Software Foundation; either version 2, or (at your option)
  10:bluetooth_rxtx.c ****  * any later version.
  11:bluetooth_rxtx.c ****  *
  12:bluetooth_rxtx.c ****  * This program is distributed in the hope that it will be useful,
  13:bluetooth_rxtx.c ****  * but WITHOUT ANY WARRANTY; without even the implied warranty of
  14:bluetooth_rxtx.c ****  * MERCHANTABILITY or FITNESS FOR A PARTICULAR PURPOSE.  See the
  15:bluetooth_rxtx.c ****  * GNU General Public License for more details.
  16:bluetooth_rxtx.c ****  *
  17:bluetooth_rxtx.c ****  * You should have received a copy of the GNU General Public License
  18:bluetooth_rxtx.c ****  * along with this program; see the file COPYING.  If not, write to
  19:bluetooth_rxtx.c ****  * the Free Software Foundation, Inc., 51 Franklin Street,
  20:bluetooth_rxtx.c ****  * Boston, MA 02110-1301, USA.
  21:bluetooth_rxtx.c ****  */
  22:bluetooth_rxtx.c **** 
  23:bluetooth_rxtx.c **** #include <string.h>
  24:bluetooth_rxtx.c **** #include <stdlib.h>
  25:bluetooth_rxtx.c **** 
  26:bluetooth_rxtx.c **** #include "ubertooth.h"
  27:bluetooth_rxtx.c **** #include "ubertooth_usb.h"
  28:bluetooth_rxtx.c **** #include "ubertooth_interface.h"
  29:bluetooth_rxtx.c **** #include "ubertooth_rssi.h"
  30:bluetooth_rxtx.c **** #include "ubertooth_cs.h"
  31:bluetooth_rxtx.c **** #include "ubertooth_dma.h"
  32:bluetooth_rxtx.c **** #include "ubertooth_clock.h"
  33:bluetooth_rxtx.c **** #include "bluetooth.h"
ARM GAS  /tmp/ccTiCbBl.s 			page 2


  34:bluetooth_rxtx.c **** #include "bluetooth_le.h"
  35:bluetooth_rxtx.c **** #include "cc2400_rangetest.h"
  36:bluetooth_rxtx.c **** #include "ego.h"
  37:bluetooth_rxtx.c **** 
  38:bluetooth_rxtx.c **** #define MIN(x,y)	((x)<(y)?(x):(y))
  39:bluetooth_rxtx.c **** #define MAX(x,y)	((x)>(y)?(x):(y))
  40:bluetooth_rxtx.c **** 
  41:bluetooth_rxtx.c **** /* build info */
  42:bluetooth_rxtx.c **** const char compile_info[] =
  43:bluetooth_rxtx.c **** 	"ubertooth " GIT_REVISION " (" COMPILE_BY "@" COMPILE_HOST ") " TIMESTAMP;
  44:bluetooth_rxtx.c **** 
  45:bluetooth_rxtx.c **** /* hopping stuff */
  46:bluetooth_rxtx.c **** volatile uint8_t  hop_mode = HOP_NONE;
  47:bluetooth_rxtx.c **** volatile uint8_t  do_hop = 0;                  // set by timer interrupt
  48:bluetooth_rxtx.c **** volatile uint16_t channel = 2441;
  49:bluetooth_rxtx.c **** volatile uint16_t hop_direct_channel = 0;      // for hopping directly to a channel
  50:bluetooth_rxtx.c **** volatile uint16_t hop_timeout = 158;
  51:bluetooth_rxtx.c **** volatile uint16_t requested_channel = 0;
  52:bluetooth_rxtx.c **** volatile uint16_t le_adv_channel = 2402;
  53:bluetooth_rxtx.c **** 
  54:bluetooth_rxtx.c **** /* bulk USB stuff */
  55:bluetooth_rxtx.c **** volatile uint8_t  idle_buf_clkn_high = 0;
  56:bluetooth_rxtx.c **** volatile uint32_t idle_buf_clk100ns = 0;
  57:bluetooth_rxtx.c **** volatile uint16_t idle_buf_channel = 0;
  58:bluetooth_rxtx.c **** volatile uint8_t  dma_discard = 0;
  59:bluetooth_rxtx.c **** volatile uint8_t  status = 0;
  60:bluetooth_rxtx.c **** 
  61:bluetooth_rxtx.c **** /* operation mode */
  62:bluetooth_rxtx.c **** volatile uint8_t mode = MODE_IDLE;
  63:bluetooth_rxtx.c **** volatile uint8_t requested_mode = MODE_IDLE;
  64:bluetooth_rxtx.c **** volatile uint8_t jam_mode = JAM_NONE;
  65:bluetooth_rxtx.c **** volatile uint8_t ego_mode = EGO_FOLLOW;
  66:bluetooth_rxtx.c **** 
  67:bluetooth_rxtx.c **** volatile uint8_t modulation = MOD_BT_BASIC_RATE;
  68:bluetooth_rxtx.c **** 
  69:bluetooth_rxtx.c **** /* specan stuff */
  70:bluetooth_rxtx.c **** volatile uint16_t low_freq = 2400;
  71:bluetooth_rxtx.c **** volatile uint16_t high_freq = 2483;
  72:bluetooth_rxtx.c **** volatile int8_t rssi_threshold = -30;  // -54dBm - 30 = -84dBm
  73:bluetooth_rxtx.c **** 
  74:bluetooth_rxtx.c **** /* Generic TX stuff */
  75:bluetooth_rxtx.c **** generic_tx_packet tx_pkt;
  76:bluetooth_rxtx.c **** 
  77:bluetooth_rxtx.c **** /* le stuff */
  78:bluetooth_rxtx.c **** int dlen = 0;
  79:bluetooth_rxtx.c **** uint8_t *slave_mac_address_data;
  80:bluetooth_rxtx.c **** uint8_t slave_mac_address[6] = { 0, };
  81:bluetooth_rxtx.c **** 
  82:bluetooth_rxtx.c **** //JWHUR for rssi sampling synchronization
  83:bluetooth_rxtx.c **** uint32_t now_sync = 0, start_sync =0;
  84:bluetooth_rxtx.c **** uint16_t sync_channel = 0;
  85:bluetooth_rxtx.c **** 
  86:bluetooth_rxtx.c **** le_state_t le = {
  87:bluetooth_rxtx.c **** 	.access_address = 0x8e89bed6,           // advertising channel access address
  88:bluetooth_rxtx.c **** 	.synch = 0x6b7d,                        // bit-reversed adv channel AA
  89:bluetooth_rxtx.c **** 	.syncl = 0x9171,
  90:bluetooth_rxtx.c **** 	.crc_init  = 0x555555,                  // advertising channel CRCInit
ARM GAS  /tmp/ccTiCbBl.s 			page 3


  91:bluetooth_rxtx.c **** 	.crc_init_reversed = 0xAAAAAA,
  92:bluetooth_rxtx.c **** 	.crc_verify = 0,
  93:bluetooth_rxtx.c **** 
  94:bluetooth_rxtx.c **** 	.link_state = LINK_INACTIVE,
  95:bluetooth_rxtx.c **** 	.conn_epoch = 0,
  96:bluetooth_rxtx.c **** 	.target_set = 0,
  97:bluetooth_rxtx.c **** 	.last_packet = 0,
  98:bluetooth_rxtx.c **** };
  99:bluetooth_rxtx.c **** 
 100:bluetooth_rxtx.c **** typedef struct _le_promisc_active_aa_t {
 101:bluetooth_rxtx.c **** 	u32 aa;
 102:bluetooth_rxtx.c **** 	int count;
 103:bluetooth_rxtx.c **** } le_promisc_active_aa_t;
 104:bluetooth_rxtx.c **** 
 105:bluetooth_rxtx.c **** typedef struct _le_promisc_state_t {
 106:bluetooth_rxtx.c **** 	// LFU cache of recently seen AA's
 107:bluetooth_rxtx.c **** 	le_promisc_active_aa_t active_aa[32];
 108:bluetooth_rxtx.c **** 
 109:bluetooth_rxtx.c **** 	// recovering hop interval
 110:bluetooth_rxtx.c **** 	u32 smallest_hop_interval;
 111:bluetooth_rxtx.c **** 	int consec_intervals;
 112:bluetooth_rxtx.c **** } le_promisc_state_t;
 113:bluetooth_rxtx.c **** le_promisc_state_t le_promisc;
 114:bluetooth_rxtx.c **** #define AA_LIST_SIZE (int)(sizeof(le_promisc.active_aa) / sizeof(le_promisc_active_aa_t))
 115:bluetooth_rxtx.c **** 
 116:bluetooth_rxtx.c **** /* LE jamming */
 117:bluetooth_rxtx.c **** #define JAM_COUNT_DEFAULT 40
 118:bluetooth_rxtx.c **** int le_jam_count = 0;
 119:bluetooth_rxtx.c **** 
 120:bluetooth_rxtx.c **** /* set LE access address */
 121:bluetooth_rxtx.c **** static void le_set_access_address(u32 aa);
 122:bluetooth_rxtx.c **** 
 123:bluetooth_rxtx.c **** typedef int (*data_cb_t)(char *);
 124:bluetooth_rxtx.c **** data_cb_t data_cb = NULL;
 125:bluetooth_rxtx.c **** 
 126:bluetooth_rxtx.c **** typedef void (*packet_cb_t)(u8 *);
 127:bluetooth_rxtx.c **** packet_cb_t packet_cb = NULL;
 128:bluetooth_rxtx.c **** 
 129:bluetooth_rxtx.c **** /* Unpacked symbol buffers (two rxbufs) */
 130:bluetooth_rxtx.c **** char unpacked[DMA_SIZE*8*2];
 131:bluetooth_rxtx.c **** 
 132:bluetooth_rxtx.c **** static int enqueue(uint8_t type, uint8_t* buf)
 133:bluetooth_rxtx.c **** {
 134:bluetooth_rxtx.c **** 	usb_pkt_rx* f = usb_enqueue();
 135:bluetooth_rxtx.c **** 	
 136:bluetooth_rxtx.c **** 	/* fail if queue is full */
 137:bluetooth_rxtx.c **** 	if (f == NULL) {
 138:bluetooth_rxtx.c **** 		status |= FIFO_OVERFLOW;
 139:bluetooth_rxtx.c **** 		return 0;
 140:bluetooth_rxtx.c **** 	}
 141:bluetooth_rxtx.c **** 
 142:bluetooth_rxtx.c **** 	f->pkt_type = type;
 143:bluetooth_rxtx.c **** 	if(type == SPECAN) {
 144:bluetooth_rxtx.c **** 		f->clkn_high = (clkn >> 20) & 0xff;
 145:bluetooth_rxtx.c **** 		f->clk100ns = CLK100NS;
 146:bluetooth_rxtx.c **** 	} else {
 147:bluetooth_rxtx.c **** 		f->clkn_high = idle_buf_clkn_high;
ARM GAS  /tmp/ccTiCbBl.s 			page 4


 148:bluetooth_rxtx.c **** 		f->clk100ns = idle_buf_clk100ns;
 149:bluetooth_rxtx.c **** 		f->channel = (uint8_t)((idle_buf_channel - 2402) & 0xff);
 150:bluetooth_rxtx.c **** 		f->rssi_min = rssi_min;
 151:bluetooth_rxtx.c **** 		f->rssi_max = rssi_max;
 152:bluetooth_rxtx.c **** 		f->rssi_avg = rssi_get_avg(idle_buf_channel);
 153:bluetooth_rxtx.c **** 		f->rssi_count = rssi_count;
 154:bluetooth_rxtx.c **** 	}
 155:bluetooth_rxtx.c **** 
 156:bluetooth_rxtx.c **** 	memcpy(f->data, buf, DMA_SIZE);
 157:bluetooth_rxtx.c **** 
 158:bluetooth_rxtx.c **** 	f->status = status;
 159:bluetooth_rxtx.c **** 	status = 0;
 160:bluetooth_rxtx.c **** 
 161:bluetooth_rxtx.c **** 	return 1;
 162:bluetooth_rxtx.c **** }
 163:bluetooth_rxtx.c **** 
 164:bluetooth_rxtx.c **** //JWHUR usb_time_rx
 165:bluetooth_rxtx.c **** static int enqueue_time(uint8_t* buf)
 166:bluetooth_rxtx.c **** {
 167:bluetooth_rxtx.c **** 	usb_time_rx* f = usb_enqueue_time();
 168:bluetooth_rxtx.c **** 	if  (f == NULL) {
 169:bluetooth_rxtx.c **** 		status |= FIFO_OVERFLOW;
 170:bluetooth_rxtx.c **** 		return 0;
 171:bluetooth_rxtx.c **** 	}
 172:bluetooth_rxtx.c **** 	memcpy(f->time, buf, 16 * sizeof(long));
 173:bluetooth_rxtx.c **** 	return 1;
 174:bluetooth_rxtx.c **** }
 175:bluetooth_rxtx.c **** //
 176:bluetooth_rxtx.c **** 
 177:bluetooth_rxtx.c **** int enqueue_with_ts(uint8_t type, uint8_t* buf, uint32_t ts)
 178:bluetooth_rxtx.c **** {
 179:bluetooth_rxtx.c **** 	usb_pkt_rx* f = usb_enqueue();
 180:bluetooth_rxtx.c **** 
 181:bluetooth_rxtx.c **** 	/* fail if queue is full */
 182:bluetooth_rxtx.c **** 	if (f == NULL) {
 183:bluetooth_rxtx.c **** 		status |= FIFO_OVERFLOW;
 184:bluetooth_rxtx.c **** 		return 0;
 185:bluetooth_rxtx.c **** 	}
 186:bluetooth_rxtx.c **** 
 187:bluetooth_rxtx.c **** 	f->pkt_type = type;
 188:bluetooth_rxtx.c **** 
 189:bluetooth_rxtx.c **** 	f->clkn_high = 0;
 190:bluetooth_rxtx.c **** 	f->clk100ns = ts;
 191:bluetooth_rxtx.c **** 
 192:bluetooth_rxtx.c **** 	f->channel = (uint8_t)((channel - 2402) & 0xff);
 193:bluetooth_rxtx.c **** 	f->rssi_avg = 0;
 194:bluetooth_rxtx.c **** 	f->rssi_count = 0;
 195:bluetooth_rxtx.c **** 
 196:bluetooth_rxtx.c **** 	memcpy(f->data, buf, DMA_SIZE);
 197:bluetooth_rxtx.c **** 
 198:bluetooth_rxtx.c **** 	f->status = status;
 199:bluetooth_rxtx.c **** 	status = 0;
 200:bluetooth_rxtx.c **** 
 201:bluetooth_rxtx.c **** 	return 1;
 202:bluetooth_rxtx.c **** }
 203:bluetooth_rxtx.c **** 
 204:bluetooth_rxtx.c **** static int vendor_request_handler(uint8_t request, uint16_t* request_params, uint8_t* data, int* da
ARM GAS  /tmp/ccTiCbBl.s 			page 5


 205:bluetooth_rxtx.c **** {
 206:bluetooth_rxtx.c **** 	uint32_t clock;
 207:bluetooth_rxtx.c **** 	size_t length; // string length
 208:bluetooth_rxtx.c **** 	usb_pkt_rx* p = NULL;
 209:bluetooth_rxtx.c **** 	uint16_t reg_val;
 210:bluetooth_rxtx.c **** 	uint8_t i;
 211:bluetooth_rxtx.c **** 	dlen = *data_len;
 212:bluetooth_rxtx.c **** 
 213:bluetooth_rxtx.c **** 	switch (request) {
 214:bluetooth_rxtx.c **** 
 215:bluetooth_rxtx.c **** 	case UBERTOOTH_PING:
 216:bluetooth_rxtx.c **** 		*data_len = 0;
 217:bluetooth_rxtx.c **** 		break;
 218:bluetooth_rxtx.c **** 
 219:bluetooth_rxtx.c **** 	case UBERTOOTH_RX_SYMBOLS:
 220:bluetooth_rxtx.c **** 		requested_mode = MODE_RX_SYMBOLS;
 221:bluetooth_rxtx.c **** 		*data_len = 0;
 222:bluetooth_rxtx.c **** 		break;
 223:bluetooth_rxtx.c **** 
 224:bluetooth_rxtx.c **** 	case UBERTOOTH_TX_SYMBOLS:
 225:bluetooth_rxtx.c **** 		hop_mode = HOP_BLUETOOTH;
 226:bluetooth_rxtx.c **** 		requested_mode = MODE_TX_SYMBOLS;
 227:bluetooth_rxtx.c **** 		*data_len = 0;
 228:bluetooth_rxtx.c **** 		break;
 229:bluetooth_rxtx.c **** 
 230:bluetooth_rxtx.c **** 	case UBERTOOTH_GET_USRLED:
 231:bluetooth_rxtx.c **** 		data[0] = (USRLED) ? 1 : 0;
 232:bluetooth_rxtx.c **** 		*data_len = 1;
 233:bluetooth_rxtx.c **** 		break;
 234:bluetooth_rxtx.c **** 
 235:bluetooth_rxtx.c **** 	case UBERTOOTH_SET_USRLED:
 236:bluetooth_rxtx.c **** 		if (request_params[0])
 237:bluetooth_rxtx.c **** 			USRLED_SET;
 238:bluetooth_rxtx.c **** 		else
 239:bluetooth_rxtx.c **** 			USRLED_CLR;
 240:bluetooth_rxtx.c **** 		break;
 241:bluetooth_rxtx.c **** 
 242:bluetooth_rxtx.c **** 	case UBERTOOTH_GET_RXLED:
 243:bluetooth_rxtx.c **** 		data[0] = (RXLED) ? 1 : 0;
 244:bluetooth_rxtx.c **** 		*data_len = 1;
 245:bluetooth_rxtx.c **** 		break;
 246:bluetooth_rxtx.c **** 
 247:bluetooth_rxtx.c **** 	case UBERTOOTH_SET_RXLED:
 248:bluetooth_rxtx.c **** 		if (request_params[0])
 249:bluetooth_rxtx.c **** 			RXLED_SET;
 250:bluetooth_rxtx.c **** 		else
 251:bluetooth_rxtx.c **** 			RXLED_CLR;
 252:bluetooth_rxtx.c **** 		break;
 253:bluetooth_rxtx.c **** 
 254:bluetooth_rxtx.c **** 	case UBERTOOTH_GET_TXLED:
 255:bluetooth_rxtx.c **** 		data[0] = (TXLED) ? 1 : 0;
 256:bluetooth_rxtx.c **** 		*data_len = 1;
 257:bluetooth_rxtx.c **** 		break;
 258:bluetooth_rxtx.c **** 
 259:bluetooth_rxtx.c **** 	case UBERTOOTH_SET_TXLED:
 260:bluetooth_rxtx.c **** 		if (request_params[0])
 261:bluetooth_rxtx.c **** 			TXLED_SET;
ARM GAS  /tmp/ccTiCbBl.s 			page 6


 262:bluetooth_rxtx.c **** 		else
 263:bluetooth_rxtx.c **** 			TXLED_CLR;
 264:bluetooth_rxtx.c **** 		break;
 265:bluetooth_rxtx.c **** 
 266:bluetooth_rxtx.c **** 	case UBERTOOTH_GET_1V8:
 267:bluetooth_rxtx.c **** 		data[0] = (CC1V8) ? 1 : 0;
 268:bluetooth_rxtx.c **** 		*data_len = 1;
 269:bluetooth_rxtx.c **** 		break;
 270:bluetooth_rxtx.c **** 
 271:bluetooth_rxtx.c **** 	case UBERTOOTH_SET_1V8:
 272:bluetooth_rxtx.c **** 		if (request_params[0])
 273:bluetooth_rxtx.c **** 			CC1V8_SET;
 274:bluetooth_rxtx.c **** 		else
 275:bluetooth_rxtx.c **** 			CC1V8_CLR;
 276:bluetooth_rxtx.c **** 		break;
 277:bluetooth_rxtx.c **** 
 278:bluetooth_rxtx.c **** 	case UBERTOOTH_GET_PARTNUM:
 279:bluetooth_rxtx.c **** 		get_part_num(data, data_len);
 280:bluetooth_rxtx.c **** 		break;
 281:bluetooth_rxtx.c **** 
 282:bluetooth_rxtx.c **** 	case UBERTOOTH_RESET:
 283:bluetooth_rxtx.c **** 		requested_mode = MODE_RESET;
 284:bluetooth_rxtx.c **** 		break;
 285:bluetooth_rxtx.c **** 
 286:bluetooth_rxtx.c **** 	case UBERTOOTH_GET_SERIAL:
 287:bluetooth_rxtx.c **** 		get_device_serial(data, data_len);
 288:bluetooth_rxtx.c **** 		break;
 289:bluetooth_rxtx.c **** 
 290:bluetooth_rxtx.c **** #ifdef UBERTOOTH_ONE
 291:bluetooth_rxtx.c **** 	case UBERTOOTH_GET_PAEN:
 292:bluetooth_rxtx.c **** 		data[0] = (PAEN) ? 1 : 0;
 293:bluetooth_rxtx.c **** 		*data_len = 1;
 294:bluetooth_rxtx.c **** 		break;
 295:bluetooth_rxtx.c **** 
 296:bluetooth_rxtx.c **** 	case UBERTOOTH_SET_PAEN:
 297:bluetooth_rxtx.c **** 		if (request_params[0])
 298:bluetooth_rxtx.c **** 			PAEN_SET;
 299:bluetooth_rxtx.c **** 		else
 300:bluetooth_rxtx.c **** 			PAEN_CLR;
 301:bluetooth_rxtx.c **** 		break;
 302:bluetooth_rxtx.c **** 
 303:bluetooth_rxtx.c **** 	case UBERTOOTH_GET_HGM:
 304:bluetooth_rxtx.c **** 		data[0] = (HGM) ? 1 : 0;
 305:bluetooth_rxtx.c **** 		*data_len = 1;
 306:bluetooth_rxtx.c **** 		break;
 307:bluetooth_rxtx.c **** 
 308:bluetooth_rxtx.c **** 	case UBERTOOTH_SET_HGM:
 309:bluetooth_rxtx.c **** 		if (request_params[0])
 310:bluetooth_rxtx.c **** 			HGM_SET;
 311:bluetooth_rxtx.c **** 		else
 312:bluetooth_rxtx.c **** 			HGM_CLR;
 313:bluetooth_rxtx.c **** 		break;
 314:bluetooth_rxtx.c **** #endif
 315:bluetooth_rxtx.c **** 
 316:bluetooth_rxtx.c **** #ifdef TX_ENABLE
 317:bluetooth_rxtx.c **** 	case UBERTOOTH_TX_TEST:
 318:bluetooth_rxtx.c **** 		requested_mode = MODE_TX_TEST;
ARM GAS  /tmp/ccTiCbBl.s 			page 7


 319:bluetooth_rxtx.c **** 		break;
 320:bluetooth_rxtx.c **** 
 321:bluetooth_rxtx.c **** 	case UBERTOOTH_GET_PALEVEL:
 322:bluetooth_rxtx.c **** 		data[0] = cc2400_get(FREND) & 0x7;
 323:bluetooth_rxtx.c **** 		*data_len = 1;
 324:bluetooth_rxtx.c **** 		break;
 325:bluetooth_rxtx.c **** 
 326:bluetooth_rxtx.c **** 	case UBERTOOTH_SET_PALEVEL:
 327:bluetooth_rxtx.c **** 		if( request_params[0] < 8 ) {
 328:bluetooth_rxtx.c **** 			cc2400_set(FREND, 8 | request_params[0]);
 329:bluetooth_rxtx.c **** 		} else {
 330:bluetooth_rxtx.c **** 			return 0;
 331:bluetooth_rxtx.c **** 		}
 332:bluetooth_rxtx.c **** 		break;
 333:bluetooth_rxtx.c **** 
 334:bluetooth_rxtx.c **** 	case UBERTOOTH_RANGE_TEST:
 335:bluetooth_rxtx.c **** 		requested_mode = MODE_RANGE_TEST;
 336:bluetooth_rxtx.c **** 		break;
 337:bluetooth_rxtx.c **** 
 338:bluetooth_rxtx.c **** 	case UBERTOOTH_REPEATER:
 339:bluetooth_rxtx.c **** 		requested_mode = MODE_REPEATER;
 340:bluetooth_rxtx.c **** 		break;
 341:bluetooth_rxtx.c **** #endif
 342:bluetooth_rxtx.c **** 
 343:bluetooth_rxtx.c **** 	case UBERTOOTH_RANGE_CHECK:
 344:bluetooth_rxtx.c **** 		data[0] = rr.valid;
 345:bluetooth_rxtx.c **** 		data[1] = rr.request_pa;
 346:bluetooth_rxtx.c **** 		data[2] = rr.request_num;
 347:bluetooth_rxtx.c **** 		data[3] = rr.reply_pa;
 348:bluetooth_rxtx.c **** 		data[4] = rr.reply_num;
 349:bluetooth_rxtx.c **** 		*data_len = 5;
 350:bluetooth_rxtx.c **** 		break;
 351:bluetooth_rxtx.c **** 
 352:bluetooth_rxtx.c **** 	case UBERTOOTH_STOP:
 353:bluetooth_rxtx.c **** 		requested_mode = MODE_IDLE;
 354:bluetooth_rxtx.c **** 		break;
 355:bluetooth_rxtx.c **** 
 356:bluetooth_rxtx.c **** 	case UBERTOOTH_GET_MOD:
 357:bluetooth_rxtx.c **** 		data[0] = modulation;
 358:bluetooth_rxtx.c **** 		*data_len = 1;
 359:bluetooth_rxtx.c **** 		break;
 360:bluetooth_rxtx.c **** 
 361:bluetooth_rxtx.c **** 	case UBERTOOTH_SET_MOD:
 362:bluetooth_rxtx.c **** 		modulation = request_params[0];
 363:bluetooth_rxtx.c **** 		break;
 364:bluetooth_rxtx.c **** 
 365:bluetooth_rxtx.c **** 	case UBERTOOTH_GET_CHANNEL:
 366:bluetooth_rxtx.c **** 		data[0] = channel & 0xFF;
 367:bluetooth_rxtx.c **** 		data[1] = (channel >> 8) & 0xFF;
 368:bluetooth_rxtx.c **** 		*data_len = 2;
 369:bluetooth_rxtx.c **** 		break;
 370:bluetooth_rxtx.c **** 
 371:bluetooth_rxtx.c **** 	case UBERTOOTH_SET_CHANNEL:
 372:bluetooth_rxtx.c **** 		requested_channel = request_params[0];
 373:bluetooth_rxtx.c **** 		/* bluetooth band sweep mode, start at channel 2402 */
 374:bluetooth_rxtx.c **** 		if (requested_channel > MAX_FREQ) {
 375:bluetooth_rxtx.c **** 			hop_mode = HOP_SWEEP;
ARM GAS  /tmp/ccTiCbBl.s 			page 8


 376:bluetooth_rxtx.c **** 			requested_channel = 2402;
 377:bluetooth_rxtx.c **** 		}
 378:bluetooth_rxtx.c **** 		/* fixed channel mode, can be outside bluetooth band */
 379:bluetooth_rxtx.c **** 		else {
 380:bluetooth_rxtx.c **** 			hop_mode = HOP_NONE;
 381:bluetooth_rxtx.c **** 			requested_channel = MAX(requested_channel, MIN_FREQ);
 382:bluetooth_rxtx.c **** 			requested_channel = MIN(requested_channel, MAX_FREQ);
 383:bluetooth_rxtx.c **** 		}
 384:bluetooth_rxtx.c **** 
 385:bluetooth_rxtx.c **** 		le_adv_channel = requested_channel;
 386:bluetooth_rxtx.c **** 		if (mode != MODE_BT_FOLLOW_LE) {
 387:bluetooth_rxtx.c **** 			channel = requested_channel;
 388:bluetooth_rxtx.c **** 			requested_channel = 0;
 389:bluetooth_rxtx.c **** 
 390:bluetooth_rxtx.c **** 			/* CS threshold is mode-dependent. Update it after
 391:bluetooth_rxtx.c **** 			 * possible mode change. TODO - kludgy. */
 392:bluetooth_rxtx.c **** 			cs_threshold_calc_and_set(channel);
 393:bluetooth_rxtx.c **** 		}
 394:bluetooth_rxtx.c **** 		break;
 395:bluetooth_rxtx.c **** 
 396:bluetooth_rxtx.c **** 	case UBERTOOTH_SET_ISP:
 397:bluetooth_rxtx.c **** 		set_isp();
 398:bluetooth_rxtx.c **** 		*data_len = 0; /* should never return */
 399:bluetooth_rxtx.c **** 		break;
 400:bluetooth_rxtx.c **** 
 401:bluetooth_rxtx.c **** 	case UBERTOOTH_FLASH:
 402:bluetooth_rxtx.c **** 		bootloader_ctrl = DFU_MODE;
 403:bluetooth_rxtx.c **** 		requested_mode = MODE_RESET;
 404:bluetooth_rxtx.c **** 		break;
 405:bluetooth_rxtx.c **** 
 406:bluetooth_rxtx.c **** 	case UBERTOOTH_SPECAN:
 407:bluetooth_rxtx.c **** 		if (request_params[0] < 2049 || request_params[0] > 3072 ||
 408:bluetooth_rxtx.c **** 				request_params[1] < 2049 || request_params[1] > 3072 ||
 409:bluetooth_rxtx.c **** 				request_params[1] < request_params[0])
 410:bluetooth_rxtx.c **** 			return 0;
 411:bluetooth_rxtx.c **** 		low_freq = request_params[0];
 412:bluetooth_rxtx.c **** 		high_freq = request_params[1];
 413:bluetooth_rxtx.c **** 		requested_mode = MODE_SPECAN;
 414:bluetooth_rxtx.c **** 		*data_len = 0;
 415:bluetooth_rxtx.c **** 		break;
 416:bluetooth_rxtx.c **** 
 417:bluetooth_rxtx.c **** 	case UBERTOOTH_RX_GENERIC:
 418:bluetooth_rxtx.c **** 		requested_mode = MODE_RX_GENERIC;
 419:bluetooth_rxtx.c **** 		*data_len = 0;
 420:bluetooth_rxtx.c **** 		break;
 421:bluetooth_rxtx.c **** 
 422:bluetooth_rxtx.c **** 	case UBERTOOTH_LED_SPECAN:
 423:bluetooth_rxtx.c **** 		if (request_params[0] > 256)
 424:bluetooth_rxtx.c **** 			return 0;
 425:bluetooth_rxtx.c **** 		rssi_threshold = 54 - request_params[0];
 426:bluetooth_rxtx.c **** 		requested_mode = MODE_LED_SPECAN;
 427:bluetooth_rxtx.c **** 		*data_len = 0;
 428:bluetooth_rxtx.c **** 		break;
 429:bluetooth_rxtx.c **** 
 430:bluetooth_rxtx.c **** 	case UBERTOOTH_GET_REV_NUM:
 431:bluetooth_rxtx.c **** 		data[0] = 0x00;
 432:bluetooth_rxtx.c **** 		data[1] = 0x00;
ARM GAS  /tmp/ccTiCbBl.s 			page 9


 433:bluetooth_rxtx.c **** 
 434:bluetooth_rxtx.c **** 		length = (u8)strlen(GIT_REVISION);
 435:bluetooth_rxtx.c **** 		data[2] = length;
 436:bluetooth_rxtx.c **** 
 437:bluetooth_rxtx.c **** 		memcpy(&data[3], GIT_REVISION, length);
 438:bluetooth_rxtx.c **** 
 439:bluetooth_rxtx.c **** 		*data_len = 2 + 1 + length;
 440:bluetooth_rxtx.c **** 		break;
 441:bluetooth_rxtx.c **** 
 442:bluetooth_rxtx.c **** 	case UBERTOOTH_GET_COMPILE_INFO:
 443:bluetooth_rxtx.c **** 		length = (u8)strlen(compile_info);
 444:bluetooth_rxtx.c **** 		data[0] = length;
 445:bluetooth_rxtx.c **** 		memcpy(&data[1], compile_info, length);
 446:bluetooth_rxtx.c **** 		*data_len = 1 + length;
 447:bluetooth_rxtx.c **** 		break;
 448:bluetooth_rxtx.c **** 
 449:bluetooth_rxtx.c **** 	case UBERTOOTH_GET_BOARD_ID:
 450:bluetooth_rxtx.c **** 		data[0] = BOARD_ID;
 451:bluetooth_rxtx.c **** 		*data_len = 1;
 452:bluetooth_rxtx.c **** 		break;
 453:bluetooth_rxtx.c **** 
 454:bluetooth_rxtx.c **** 	case UBERTOOTH_SET_SQUELCH:
 455:bluetooth_rxtx.c **** 		cs_threshold_req = (int8_t)request_params[0];
 456:bluetooth_rxtx.c **** 		cs_threshold_calc_and_set(channel);
 457:bluetooth_rxtx.c **** 		break;
 458:bluetooth_rxtx.c **** 
 459:bluetooth_rxtx.c **** 	case UBERTOOTH_GET_SQUELCH:
 460:bluetooth_rxtx.c **** 		data[0] = cs_threshold_req;
 461:bluetooth_rxtx.c **** 		*data_len = 1;
 462:bluetooth_rxtx.c **** 		break;
 463:bluetooth_rxtx.c **** 
 464:bluetooth_rxtx.c **** 	case UBERTOOTH_SET_BDADDR:
 465:bluetooth_rxtx.c **** 		target.address = 0;
 466:bluetooth_rxtx.c **** 		target.syncword = 0;
 467:bluetooth_rxtx.c **** 		for(int i=0; i < 8; i++) {
 468:bluetooth_rxtx.c **** 			target.address |= (uint64_t)data[i] << 8*i;
 469:bluetooth_rxtx.c **** 		}
 470:bluetooth_rxtx.c **** 		for(int i=0; i < 8; i++) {
 471:bluetooth_rxtx.c **** 			target.syncword |= (uint64_t)data[i+8] << 8*i;
 472:bluetooth_rxtx.c **** 		}
 473:bluetooth_rxtx.c **** 		precalc();
 474:bluetooth_rxtx.c **** 		break;
 475:bluetooth_rxtx.c **** 
 476:bluetooth_rxtx.c **** 	case UBERTOOTH_START_HOPPING:
 477:bluetooth_rxtx.c **** 		clkn_offset = 0;
 478:bluetooth_rxtx.c **** 		for(int i=0; i < 4; i++) {
 479:bluetooth_rxtx.c **** 			clkn_offset <<= 8;
 480:bluetooth_rxtx.c **** 			clkn_offset |= data[i];
 481:bluetooth_rxtx.c **** 		}
 482:bluetooth_rxtx.c **** 		hop_mode = HOP_BLUETOOTH;
 483:bluetooth_rxtx.c **** 		dma_discard = 1;
 484:bluetooth_rxtx.c **** 		DIO_SSEL_SET;
 485:bluetooth_rxtx.c **** 		clk100ns_offset = (data[4] << 8) | (data[5] << 0);
 486:bluetooth_rxtx.c **** 		requested_mode = MODE_BT_FOLLOW;
 487:bluetooth_rxtx.c **** 		break;
 488:bluetooth_rxtx.c **** 
 489:bluetooth_rxtx.c **** 	case UBERTOOTH_AFH:
ARM GAS  /tmp/ccTiCbBl.s 			page 10


 490:bluetooth_rxtx.c **** 		hop_mode = HOP_AFH;
 491:bluetooth_rxtx.c **** 		requested_mode = MODE_AFH;
 492:bluetooth_rxtx.c **** 
 493:bluetooth_rxtx.c **** 		for(int i=0; i < 10; i++) {
 494:bluetooth_rxtx.c **** 			afh_map[i] = 0;
 495:bluetooth_rxtx.c **** 		}
 496:bluetooth_rxtx.c **** 		used_channels = 0;
 497:bluetooth_rxtx.c **** 		afh_enabled = 1;
 498:bluetooth_rxtx.c **** 		break;
 499:bluetooth_rxtx.c **** 
 500:bluetooth_rxtx.c **** 	case UBERTOOTH_HOP:
 501:bluetooth_rxtx.c **** 		do_hop = 1;
 502:bluetooth_rxtx.c **** 		break;
 503:bluetooth_rxtx.c **** 
 504:bluetooth_rxtx.c **** 	case UBERTOOTH_SET_CLOCK:
 505:bluetooth_rxtx.c **** 		clock = data[0] | data[1] << 8 | data[2] << 16 | data[3] << 24;
 506:bluetooth_rxtx.c **** 		clkn = clock;
 507:bluetooth_rxtx.c **** 		cs_threshold_calc_and_set(channel);
 508:bluetooth_rxtx.c **** 		break;
 509:bluetooth_rxtx.c **** 
 510:bluetooth_rxtx.c **** 	case UBERTOOTH_SET_AFHMAP:
 511:bluetooth_rxtx.c **** 		for(int i=0; i < 10; i++) {
 512:bluetooth_rxtx.c **** 			afh_map[i] = data[i];
 513:bluetooth_rxtx.c **** 		}
 514:bluetooth_rxtx.c **** 		afh_enabled = 1;
 515:bluetooth_rxtx.c **** 		*data_len = 10;
 516:bluetooth_rxtx.c **** 		break;
 517:bluetooth_rxtx.c **** 
 518:bluetooth_rxtx.c **** 	case UBERTOOTH_CLEAR_AFHMAP:
 519:bluetooth_rxtx.c **** 		for(int i=0; i < 10; i++) {
 520:bluetooth_rxtx.c **** 			afh_map[i] = 0;
 521:bluetooth_rxtx.c **** 		}
 522:bluetooth_rxtx.c **** 		afh_enabled = 0;
 523:bluetooth_rxtx.c **** 		*data_len = 10;
 524:bluetooth_rxtx.c **** 		break;
 525:bluetooth_rxtx.c **** 
 526:bluetooth_rxtx.c **** 	case UBERTOOTH_GET_CLOCK:
 527:bluetooth_rxtx.c **** 		clock = clkn;
 528:bluetooth_rxtx.c **** 		for(int i=0; i < 4; i++) {
 529:bluetooth_rxtx.c **** 			data[i] = (clock >> (8*i)) & 0xff;
 530:bluetooth_rxtx.c **** 		}
 531:bluetooth_rxtx.c **** 		*data_len = 4;
 532:bluetooth_rxtx.c **** 		break;
 533:bluetooth_rxtx.c **** 
 534:bluetooth_rxtx.c **** 	case UBERTOOTH_TRIM_CLOCK:
 535:bluetooth_rxtx.c **** 		clk100ns_offset = (data[0] << 8) | (data[1] << 0);
 536:bluetooth_rxtx.c **** 		break;
 537:bluetooth_rxtx.c **** 
 538:bluetooth_rxtx.c **** 	case UBERTOOTH_FIX_CLOCK_DRIFT:
 539:bluetooth_rxtx.c **** 		clk_drift_ppm += (int16_t)(data[0] << 8) | (data[1] << 0);
 540:bluetooth_rxtx.c **** 
 541:bluetooth_rxtx.c **** 		// Too slow
 542:bluetooth_rxtx.c **** 		if (clk_drift_ppm < 0) {
 543:bluetooth_rxtx.c **** 			clk_drift_correction = 320 / (uint16_t)(-clk_drift_ppm);
 544:bluetooth_rxtx.c **** 			clkn_next_drift_fix = clkn_last_drift_fix + clk_drift_correction;
 545:bluetooth_rxtx.c **** 		}
 546:bluetooth_rxtx.c **** 		// Too fast
ARM GAS  /tmp/ccTiCbBl.s 			page 11


 547:bluetooth_rxtx.c **** 		else if (clk_drift_ppm > 0) {
 548:bluetooth_rxtx.c **** 			clk_drift_correction = 320 / clk_drift_ppm;
 549:bluetooth_rxtx.c **** 			clkn_next_drift_fix = clkn_last_drift_fix + clk_drift_correction;
 550:bluetooth_rxtx.c **** 		}
 551:bluetooth_rxtx.c **** 		// Don't trim
 552:bluetooth_rxtx.c **** 		else {
 553:bluetooth_rxtx.c **** 			clk_drift_correction = 0;
 554:bluetooth_rxtx.c **** 			clkn_next_drift_fix = 0;
 555:bluetooth_rxtx.c **** 		}
 556:bluetooth_rxtx.c **** 
 557:bluetooth_rxtx.c **** 		break;
 558:bluetooth_rxtx.c **** 
 559:bluetooth_rxtx.c **** 	case UBERTOOTH_BTLE_SNIFFING:
 560:bluetooth_rxtx.c **** 		*data_len = 0;
 561:bluetooth_rxtx.c **** 
 562:bluetooth_rxtx.c **** 		do_hop = 0;
 563:bluetooth_rxtx.c **** 		hop_mode = HOP_BTLE;
 564:bluetooth_rxtx.c **** 		requested_mode = MODE_BT_FOLLOW_LE;
 565:bluetooth_rxtx.c **** 
 566:bluetooth_rxtx.c **** 		queue_init();
 567:bluetooth_rxtx.c **** 		cs_threshold_calc_and_set(channel);
 568:bluetooth_rxtx.c **** 		break;
 569:bluetooth_rxtx.c **** 	
 570:bluetooth_rxtx.c **** 	// JWHUR cfo estimation tracking
 571:bluetooth_rxtx.c **** 	case UBERTOOTH_BTLE_CFO:
 572:bluetooth_rxtx.c **** 		do_hop = 0;
 573:bluetooth_rxtx.c **** 		hop_mode = HOP_BTLE;
 574:bluetooth_rxtx.c **** 		requested_mode = MODE_BT_CFO_LE;
 575:bluetooth_rxtx.c **** 
 576:bluetooth_rxtx.c **** 		queue_init();
 577:bluetooth_rxtx.c **** 		cs_threshold_calc_and_set(channel);
 578:bluetooth_rxtx.c **** 		break;
 579:bluetooth_rxtx.c **** 
 580:bluetooth_rxtx.c **** 	case UBERTOOTH_BTLE_RSSI:
 581:bluetooth_rxtx.c **** 		do_hop = 0;
 582:bluetooth_rxtx.c **** 		hop_mode = HOP_BTLE;
 583:bluetooth_rxtx.c **** 		requested_mode = MODE_BT_RSSI_LE;
 584:bluetooth_rxtx.c **** 
 585:bluetooth_rxtx.c **** 		queue_init();
 586:bluetooth_rxtx.c **** 		cs_threshold_calc_and_set(channel);
 587:bluetooth_rxtx.c **** 		break;
 588:bluetooth_rxtx.c **** 
 589:bluetooth_rxtx.c **** 	case UBERTOOTH_GET_ACCESS_ADDRESS:
 590:bluetooth_rxtx.c **** 		for(int i=0; i < 4; i++) {
 591:bluetooth_rxtx.c **** 			data[i] = (le.access_address >> (8*i)) & 0xff;
 592:bluetooth_rxtx.c **** 		}
 593:bluetooth_rxtx.c **** 		*data_len = 4;
 594:bluetooth_rxtx.c **** 		break;
 595:bluetooth_rxtx.c **** 
 596:bluetooth_rxtx.c **** 	case UBERTOOTH_SET_ACCESS_ADDRESS:
 597:bluetooth_rxtx.c **** 		le_set_access_address(data[0] | data[1] << 8 | data[2] << 16 | data[3] << 24);
 598:bluetooth_rxtx.c **** 		le.target_set = 1;
 599:bluetooth_rxtx.c **** 		break;
 600:bluetooth_rxtx.c **** 
 601:bluetooth_rxtx.c **** 	case UBERTOOTH_DO_SOMETHING:
 602:bluetooth_rxtx.c **** 		// do something! just don't commit anything here
 603:bluetooth_rxtx.c **** 		break;
ARM GAS  /tmp/ccTiCbBl.s 			page 12


 604:bluetooth_rxtx.c **** 
 605:bluetooth_rxtx.c **** 	case UBERTOOTH_DO_SOMETHING_REPLY:
 606:bluetooth_rxtx.c **** 		// after you do something, tell me what you did!
 607:bluetooth_rxtx.c **** 		// don't commit here please
 608:bluetooth_rxtx.c **** 		data[0] = 0x13;
 609:bluetooth_rxtx.c **** 		data[1] = 0x37;
 610:bluetooth_rxtx.c **** 		*data_len = 2;
 611:bluetooth_rxtx.c **** 		break;
 612:bluetooth_rxtx.c **** 
 613:bluetooth_rxtx.c **** 	case UBERTOOTH_GET_CRC_VERIFY:
 614:bluetooth_rxtx.c **** 		data[0] = le.crc_verify ? 1 : 0;
 615:bluetooth_rxtx.c **** 		*data_len = 1;
 616:bluetooth_rxtx.c **** 		break;
 617:bluetooth_rxtx.c **** 
 618:bluetooth_rxtx.c **** 	case UBERTOOTH_SET_CRC_VERIFY:
 619:bluetooth_rxtx.c **** 		le.crc_verify = request_params[0] ? 1 : 0;
 620:bluetooth_rxtx.c **** 		break;
 621:bluetooth_rxtx.c **** 
 622:bluetooth_rxtx.c **** 	case UBERTOOTH_POLL:
 623:bluetooth_rxtx.c **** 		p = dequeue();
 624:bluetooth_rxtx.c **** 		if (p != NULL) {
 625:bluetooth_rxtx.c **** 			memcpy(data, (void *)p, sizeof(usb_pkt_rx));
 626:bluetooth_rxtx.c **** 			*data_len = sizeof(usb_pkt_rx);
 627:bluetooth_rxtx.c **** 		} else {
 628:bluetooth_rxtx.c **** 			data[0] = 0;
 629:bluetooth_rxtx.c **** 			*data_len = 1;
 630:bluetooth_rxtx.c **** 		}
 631:bluetooth_rxtx.c **** 		break;
 632:bluetooth_rxtx.c **** 
 633:bluetooth_rxtx.c **** 	case UBERTOOTH_BTLE_PROMISC:
 634:bluetooth_rxtx.c **** 		*data_len = 0;
 635:bluetooth_rxtx.c **** 
 636:bluetooth_rxtx.c **** 		hop_mode = HOP_NONE;
 637:bluetooth_rxtx.c **** 		requested_mode = MODE_BT_PROMISC_LE;
 638:bluetooth_rxtx.c **** 
 639:bluetooth_rxtx.c **** 		queue_init();
 640:bluetooth_rxtx.c **** 		cs_threshold_calc_and_set(channel);
 641:bluetooth_rxtx.c **** 		break;
 642:bluetooth_rxtx.c **** 
 643:bluetooth_rxtx.c **** 	case UBERTOOTH_READ_REGISTER:
 644:bluetooth_rxtx.c **** 		reg_val = cc2400_get(request_params[0]);
 645:bluetooth_rxtx.c **** 		data[0] = (reg_val >> 8) & 0xff;
 646:bluetooth_rxtx.c **** 		data[1] = reg_val & 0xff;
 647:bluetooth_rxtx.c **** 		*data_len = 2;
 648:bluetooth_rxtx.c **** 		break;
 649:bluetooth_rxtx.c **** 
 650:bluetooth_rxtx.c **** 	case UBERTOOTH_WRITE_REGISTER:
 651:bluetooth_rxtx.c **** 		cc2400_set(request_params[0] & 0xff, request_params[1]);
 652:bluetooth_rxtx.c **** 		break;
 653:bluetooth_rxtx.c **** 
 654:bluetooth_rxtx.c **** 	case UBERTOOTH_WRITE_REGISTERS:
 655:bluetooth_rxtx.c **** 		for(i=0; i<request_params[0]; i++) {
 656:bluetooth_rxtx.c **** 			reg_val = (data[(i*3)+1] << 8) | data[(i*3)+2];
 657:bluetooth_rxtx.c **** 			cc2400_set(data[i*3], reg_val);
 658:bluetooth_rxtx.c **** 		}
 659:bluetooth_rxtx.c **** 		break;
 660:bluetooth_rxtx.c **** 
ARM GAS  /tmp/ccTiCbBl.s 			page 13


 661:bluetooth_rxtx.c **** 	case UBERTOOTH_READ_ALL_REGISTERS:
 662:bluetooth_rxtx.c **** 		#define MAX_READ_REG 0x2d
 663:bluetooth_rxtx.c **** 		for(i=0; i<=MAX_READ_REG; i++) {
 664:bluetooth_rxtx.c **** 			reg_val = cc2400_get(i);
 665:bluetooth_rxtx.c **** 			data[i*3] = i;
 666:bluetooth_rxtx.c **** 			data[(i*3)+1] = (reg_val >> 8) & 0xff;
 667:bluetooth_rxtx.c **** 			data[(i*3)+2] = reg_val & 0xff;
 668:bluetooth_rxtx.c **** 		}
 669:bluetooth_rxtx.c **** 		*data_len = MAX_READ_REG*3;
 670:bluetooth_rxtx.c **** 		break;
 671:bluetooth_rxtx.c **** 
 672:bluetooth_rxtx.c **** 	case UBERTOOTH_TX_GENERIC_PACKET:
 673:bluetooth_rxtx.c **** 		i = 7 + data[6];
 674:bluetooth_rxtx.c **** 		memcpy(&tx_pkt, data, i);
 675:bluetooth_rxtx.c **** 		//tx_pkt.channel = data[4] << 8 | data[5];
 676:bluetooth_rxtx.c **** 		requested_mode = MODE_TX_GENERIC;
 677:bluetooth_rxtx.c **** 		*data_len = 0;
 678:bluetooth_rxtx.c **** 		break;
 679:bluetooth_rxtx.c **** 
 680:bluetooth_rxtx.c **** 	case UBERTOOTH_BTLE_SLAVE:
 681:bluetooth_rxtx.c **** 		slave_mac_address_data = (uint8_t*) malloc(sizeof(uint8_t)*dlen);
 682:bluetooth_rxtx.c **** 		memcpy(slave_mac_address_data, data, dlen);
 683:bluetooth_rxtx.c **** 		requested_mode = MODE_BT_SLAVE_LE;
 684:bluetooth_rxtx.c **** 		break;
 685:bluetooth_rxtx.c **** 
 686:bluetooth_rxtx.c **** 	//JWHUR for rssi sampling synchronization
 687:bluetooth_rxtx.c **** 	case UBERTOOTH_BTLE_SYNC:
 688:bluetooth_rxtx.c **** 		requested_mode = MODE_BT_SYNC_LE;
 689:bluetooth_rxtx.c **** 		do_hop = 0;
 690:bluetooth_rxtx.c **** 		hop_mode = HOP_BTLE;
 691:bluetooth_rxtx.c **** 		queue_init();
 692:bluetooth_rxtx.c **** 		cs_threshold_calc_and_set(channel);
 693:bluetooth_rxtx.c **** 		break;
 694:bluetooth_rxtx.c **** 	
 695:bluetooth_rxtx.c **** 	case UBERTOOTH_BTLE_SET_TARGET:
 696:bluetooth_rxtx.c **** 		// Addresses appear in packets in reverse-octet order.
 697:bluetooth_rxtx.c **** 		// Store the target address in reverse order so that we can do a simple memcmp later
 698:bluetooth_rxtx.c **** 		le.target[0] = data[5];
 699:bluetooth_rxtx.c **** 		le.target[1] = data[4];
 700:bluetooth_rxtx.c **** 		le.target[2] = data[3];
 701:bluetooth_rxtx.c **** 		le.target[3] = data[2];
 702:bluetooth_rxtx.c **** 		le.target[4] = data[1];
 703:bluetooth_rxtx.c **** 		le.target[5] = data[0];
 704:bluetooth_rxtx.c **** 		le.target_set = 1;
 705:bluetooth_rxtx.c **** 		break;
 706:bluetooth_rxtx.c **** 
 707:bluetooth_rxtx.c **** #ifdef TX_ENABLE
 708:bluetooth_rxtx.c **** 	case UBERTOOTH_JAM_MODE:
 709:bluetooth_rxtx.c **** 		jam_mode = request_params[0];
 710:bluetooth_rxtx.c **** 		break;
 711:bluetooth_rxtx.c **** #endif
 712:bluetooth_rxtx.c **** 
 713:bluetooth_rxtx.c **** 	case UBERTOOTH_EGO:
 714:bluetooth_rxtx.c **** #ifndef TX_ENABLE
 715:bluetooth_rxtx.c **** 		if (ego_mode == EGO_JAM)
 716:bluetooth_rxtx.c **** 			return 0;
 717:bluetooth_rxtx.c **** #endif
ARM GAS  /tmp/ccTiCbBl.s 			page 14


 718:bluetooth_rxtx.c **** 		requested_mode = MODE_EGO;
 719:bluetooth_rxtx.c **** 		ego_mode = request_params[0];
 720:bluetooth_rxtx.c **** 		break;
 721:bluetooth_rxtx.c **** 
 722:bluetooth_rxtx.c **** 	default:
 723:bluetooth_rxtx.c **** 		return 0;
 724:bluetooth_rxtx.c **** 	}
 725:bluetooth_rxtx.c **** 	return 1;
 726:bluetooth_rxtx.c **** }
 727:bluetooth_rxtx.c **** 
 728:bluetooth_rxtx.c **** /* Update CLKN. */
 729:bluetooth_rxtx.c **** void TIMER0_IRQHandler()
 730:bluetooth_rxtx.c **** {
 731:bluetooth_rxtx.c **** 	if (T0IR & TIR_MR0_Interrupt) {
 732:bluetooth_rxtx.c **** 
 733:bluetooth_rxtx.c **** 		clkn += clkn_offset + 1;
 734:bluetooth_rxtx.c **** 		clkn_offset = 0;
 735:bluetooth_rxtx.c **** 
 736:bluetooth_rxtx.c **** 		uint32_t le_clk = (clkn - le.conn_epoch) & 0x03;
 737:bluetooth_rxtx.c **** 
 738:bluetooth_rxtx.c **** 		/* Trigger hop based on mode */
 739:bluetooth_rxtx.c **** 
 740:bluetooth_rxtx.c **** 		/* NONE or SWEEP -> 25 Hz */
 741:bluetooth_rxtx.c **** 		if (hop_mode == HOP_NONE || hop_mode == HOP_SWEEP) {
 742:bluetooth_rxtx.c **** 			if ((clkn & 0x7f) == 0)
 743:bluetooth_rxtx.c **** 				do_hop = 1;
 744:bluetooth_rxtx.c **** 		}
 745:bluetooth_rxtx.c **** 		/* BLUETOOTH -> 1600 Hz */
 746:bluetooth_rxtx.c **** 		else if (hop_mode == HOP_BLUETOOTH) {
 747:bluetooth_rxtx.c **** 			if ((clkn & 0x1) == 0)
 748:bluetooth_rxtx.c **** 				do_hop = 1;
 749:bluetooth_rxtx.c **** 		}
 750:bluetooth_rxtx.c **** 		/* BLUETOOTH Low Energy -> 7.5ms - 4.0s in multiples of 1.25 ms */
 751:bluetooth_rxtx.c **** 		else if (hop_mode == HOP_BTLE) {
 752:bluetooth_rxtx.c **** 			// Only hop if connected
 753:bluetooth_rxtx.c **** 			if (le.link_state == LINK_CONNECTED && le_clk == 0) {
 754:bluetooth_rxtx.c **** 				--le.interval_timer;
 755:bluetooth_rxtx.c **** 				if (le.interval_timer == 0) {
 756:bluetooth_rxtx.c **** 					do_hop = 1;
 757:bluetooth_rxtx.c **** 					++le.conn_count;
 758:bluetooth_rxtx.c **** 					le.interval_timer = le.conn_interval;
 759:bluetooth_rxtx.c **** 				} else {
 760:bluetooth_rxtx.c **** 					TXLED_CLR; // hack!
 761:bluetooth_rxtx.c **** 				}
 762:bluetooth_rxtx.c **** 			}
 763:bluetooth_rxtx.c **** 		}
 764:bluetooth_rxtx.c **** 		else if (hop_mode == HOP_AFH) {
 765:bluetooth_rxtx.c **** 			if( (last_hop + hop_timeout) == clkn ) {
 766:bluetooth_rxtx.c **** 				do_hop = 1;
 767:bluetooth_rxtx.c **** 			}
 768:bluetooth_rxtx.c **** 		}
 769:bluetooth_rxtx.c **** 
 770:bluetooth_rxtx.c **** 		// Fix linear clock drift deviation
 771:bluetooth_rxtx.c **** 		if(clkn_next_drift_fix != 0 && clk100ns_offset == 0) {
 772:bluetooth_rxtx.c **** 			if(clkn >= clkn_next_drift_fix) {
 773:bluetooth_rxtx.c **** 
 774:bluetooth_rxtx.c **** 				// Too fast
ARM GAS  /tmp/ccTiCbBl.s 			page 15


 775:bluetooth_rxtx.c **** 				if(clk_drift_ppm >= 0) {
 776:bluetooth_rxtx.c **** 					clk100ns_offset = 1;
 777:bluetooth_rxtx.c **** 				}
 778:bluetooth_rxtx.c **** 
 779:bluetooth_rxtx.c **** 				// Too slow
 780:bluetooth_rxtx.c **** 				else {
 781:bluetooth_rxtx.c **** 					clk100ns_offset = 6249;
 782:bluetooth_rxtx.c **** 				}
 783:bluetooth_rxtx.c **** 				clkn_last_drift_fix = clkn;
 784:bluetooth_rxtx.c **** 				clkn_next_drift_fix = clkn_last_drift_fix + clk_drift_correction;
 785:bluetooth_rxtx.c **** 			}
 786:bluetooth_rxtx.c **** 		}
 787:bluetooth_rxtx.c **** 
 788:bluetooth_rxtx.c **** 		// Negative clock correction
 789:bluetooth_rxtx.c **** 		if(clk100ns_offset > 3124)
 790:bluetooth_rxtx.c **** 			clkn += 2;
 791:bluetooth_rxtx.c **** 
 792:bluetooth_rxtx.c **** 		T0MR0 = 3124 + clk100ns_offset;
 793:bluetooth_rxtx.c **** 		clk100ns_offset = 0;
 794:bluetooth_rxtx.c **** 
 795:bluetooth_rxtx.c **** 		/* Ack interrupt */
 796:bluetooth_rxtx.c **** 		T0IR = TIR_MR0_Interrupt;
 797:bluetooth_rxtx.c **** 	}
 798:bluetooth_rxtx.c **** }
 799:bluetooth_rxtx.c **** 
 800:bluetooth_rxtx.c **** /* EINT3 handler is also defined in ubertooth.c for TC13BADGE. */
 801:bluetooth_rxtx.c **** #ifndef TC13BADGE
 802:bluetooth_rxtx.c **** void EINT3_IRQHandler()
 803:bluetooth_rxtx.c **** {
 804:bluetooth_rxtx.c **** 	/* TODO - check specific source of shared interrupt */
 805:bluetooth_rxtx.c **** 	IO2IntClr   = PIN_GIO6; // clear interrupt
 806:bluetooth_rxtx.c **** 	DIO_SSEL_CLR;           // enable SPI
 807:bluetooth_rxtx.c **** 	cs_trigger  = 1;        // signal trigger
 808:bluetooth_rxtx.c **** 	if (hop_mode == HOP_BLUETOOTH)
 809:bluetooth_rxtx.c **** 		dma_discard = 0; 
 810:bluetooth_rxtx.c **** 
 811:bluetooth_rxtx.c **** }
 812:bluetooth_rxtx.c **** #endif // TC13BADGE
 813:bluetooth_rxtx.c **** 
 814:bluetooth_rxtx.c **** /*
 815:bluetooth_rxtx.c ****  * Sleep (busy wait) for 'millis' milliseconds
 816:bluetooth_rxtx.c ****  * Needs clkn. Be sure to call clkn_init() before using it.
 817:bluetooth_rxtx.c ****  */
 818:bluetooth_rxtx.c **** static void msleep(uint32_t millis)
 819:bluetooth_rxtx.c **** {
 820:bluetooth_rxtx.c **** 	uint32_t now = (clkn & 0xffffff);
 821:bluetooth_rxtx.c **** 	uint32_t stop_at = now + millis * 10000 / 3125; // millis -> clkn ticks
 822:bluetooth_rxtx.c **** 
 823:bluetooth_rxtx.c **** 	// handle clkn overflow
 824:bluetooth_rxtx.c **** 	if (stop_at >= ((uint32_t)1<<28)) {
 825:bluetooth_rxtx.c **** 		stop_at -= ((uint32_t)1<<28);
 826:bluetooth_rxtx.c **** 		while ((clkn & 0xffffff) >= now || (clkn & 0xffffff) < stop_at);
 827:bluetooth_rxtx.c **** 	} else {
 828:bluetooth_rxtx.c **** 		while ((clkn & 0xffffff) < stop_at);
 829:bluetooth_rxtx.c **** 	}
 830:bluetooth_rxtx.c **** }
 831:bluetooth_rxtx.c **** 
ARM GAS  /tmp/ccTiCbBl.s 			page 16


 832:bluetooth_rxtx.c **** void DMA_IRQHandler()
 833:bluetooth_rxtx.c **** {
 834:bluetooth_rxtx.c **** 	if ( mode == MODE_RX_SYMBOLS
 835:bluetooth_rxtx.c **** 	   || mode == MODE_BT_FOLLOW
 836:bluetooth_rxtx.c **** 	   || mode == MODE_SPECAN
 837:bluetooth_rxtx.c **** 	   || mode == MODE_BT_FOLLOW_LE
 838:bluetooth_rxtx.c **** 	   || mode == MODE_BT_CFO_LE
 839:bluetooth_rxtx.c **** 	   || mode == MODE_BT_RSSI_LE
 840:bluetooth_rxtx.c **** 	   || mode == MODE_BT_PROMISC_LE
 841:bluetooth_rxtx.c **** 	   || mode == MODE_BT_SLAVE_LE
 842:bluetooth_rxtx.c **** 	   || mode == MODE_BT_SYNC_LE
 843:bluetooth_rxtx.c **** 	   || mode == MODE_RX_GENERIC)
 844:bluetooth_rxtx.c **** 	{
 845:bluetooth_rxtx.c **** 		/* interrupt on channel 0 */
 846:bluetooth_rxtx.c **** 		if (DMACIntStat & (1 << 0)) {
 847:bluetooth_rxtx.c **** 			if (DMACIntTCStat & (1 << 0)) {
 848:bluetooth_rxtx.c **** 				DMACIntTCClear = (1 << 0);
 849:bluetooth_rxtx.c **** 
 850:bluetooth_rxtx.c **** 				if (hop_mode == HOP_BLUETOOTH)
 851:bluetooth_rxtx.c **** 					DIO_SSEL_SET;
 852:bluetooth_rxtx.c **** 
 853:bluetooth_rxtx.c **** 				idle_buf_clk100ns  = CLK100NS;
 854:bluetooth_rxtx.c **** 				idle_buf_clkn_high = (clkn >> 20) & 0xff;
 855:bluetooth_rxtx.c **** 				idle_buf_channel   = channel;
 856:bluetooth_rxtx.c **** 
 857:bluetooth_rxtx.c **** 				/* Keep buffer swapping in sync with DMA. */
 858:bluetooth_rxtx.c **** 				volatile uint8_t* tmp = active_rxbuf;
 859:bluetooth_rxtx.c **** 				active_rxbuf = idle_rxbuf;
 860:bluetooth_rxtx.c **** 				idle_rxbuf = tmp;
 861:bluetooth_rxtx.c **** 
 862:bluetooth_rxtx.c **** 				++rx_tc;
 863:bluetooth_rxtx.c **** 			}
 864:bluetooth_rxtx.c **** 			if (DMACIntErrStat & (1 << 0)) {
 865:bluetooth_rxtx.c **** 				DMACIntErrClr = (1 << 0);
 866:bluetooth_rxtx.c **** 				++rx_err;
 867:bluetooth_rxtx.c **** 			}
 868:bluetooth_rxtx.c **** 		}
 869:bluetooth_rxtx.c **** 	}
 870:bluetooth_rxtx.c **** }
 871:bluetooth_rxtx.c **** 
 872:bluetooth_rxtx.c **** static void cc2400_idle()
 873:bluetooth_rxtx.c **** {
 874:bluetooth_rxtx.c **** 	cc2400_strobe(SRFOFF);
 875:bluetooth_rxtx.c **** 	while ((cc2400_status() & FS_LOCK)); // need to wait for unlock?
 876:bluetooth_rxtx.c **** 
 877:bluetooth_rxtx.c **** #ifdef UBERTOOTH_ONE
 878:bluetooth_rxtx.c **** 	PAEN_CLR;
 879:bluetooth_rxtx.c **** 	HGM_CLR;
 880:bluetooth_rxtx.c **** #endif
 881:bluetooth_rxtx.c **** 
 882:bluetooth_rxtx.c **** 	RXLED_CLR;
 883:bluetooth_rxtx.c **** 	TXLED_CLR;
 884:bluetooth_rxtx.c **** 	USRLED_CLR;
 885:bluetooth_rxtx.c **** 
 886:bluetooth_rxtx.c **** 	clkn_stop();
 887:bluetooth_rxtx.c **** 	dio_ssp_stop();
 888:bluetooth_rxtx.c **** 	cs_reset();
ARM GAS  /tmp/ccTiCbBl.s 			page 17


 889:bluetooth_rxtx.c **** 	rssi_reset();
 890:bluetooth_rxtx.c **** 
 891:bluetooth_rxtx.c **** 	/* hopping stuff */
 892:bluetooth_rxtx.c **** 	hop_mode = HOP_NONE;
 893:bluetooth_rxtx.c **** 	do_hop = 0;
 894:bluetooth_rxtx.c **** 	channel = 2441;
 895:bluetooth_rxtx.c **** 	hop_direct_channel = 0;
 896:bluetooth_rxtx.c **** 	hop_timeout = 158;
 897:bluetooth_rxtx.c **** 	requested_channel = 0;
 898:bluetooth_rxtx.c **** 	le_adv_channel = 2402;
 899:bluetooth_rxtx.c **** 
 900:bluetooth_rxtx.c **** 
 901:bluetooth_rxtx.c **** 	/* bulk USB stuff */
 902:bluetooth_rxtx.c **** 	idle_buf_clkn_high = 0;
 903:bluetooth_rxtx.c **** 	idle_buf_clk100ns = 0;
 904:bluetooth_rxtx.c **** 	idle_buf_channel = 0;
 905:bluetooth_rxtx.c **** 	dma_discard = 0;
 906:bluetooth_rxtx.c **** 	status = 0;
 907:bluetooth_rxtx.c **** 
 908:bluetooth_rxtx.c **** 	/* operation mode */
 909:bluetooth_rxtx.c **** 	mode = MODE_IDLE;
 910:bluetooth_rxtx.c **** 	requested_mode = MODE_IDLE;
 911:bluetooth_rxtx.c **** 	jam_mode = JAM_NONE;
 912:bluetooth_rxtx.c **** 	ego_mode = EGO_FOLLOW;
 913:bluetooth_rxtx.c **** 
 914:bluetooth_rxtx.c **** 	modulation = MOD_BT_BASIC_RATE;
 915:bluetooth_rxtx.c **** 
 916:bluetooth_rxtx.c **** 	/* specan stuff */
 917:bluetooth_rxtx.c **** 	low_freq = 2400;
 918:bluetooth_rxtx.c **** 	high_freq = 2483;
 919:bluetooth_rxtx.c **** 	rssi_threshold = -30;
 920:bluetooth_rxtx.c **** 
 921:bluetooth_rxtx.c **** 	target.address = 0;
 922:bluetooth_rxtx.c **** 	target.syncword = 0;
 923:bluetooth_rxtx.c **** }
 924:bluetooth_rxtx.c **** 
 925:bluetooth_rxtx.c **** /* start un-buffered rx */
 926:bluetooth_rxtx.c **** static void cc2400_rx()
 927:bluetooth_rxtx.c **** {
 928:bluetooth_rxtx.c **** 	u16 mdmctrl = 0;
 929:bluetooth_rxtx.c **** 
 930:bluetooth_rxtx.c **** 	if((modulation == MOD_BT_BASIC_RATE) || (modulation == MOD_BT_LOW_ENERGY)) {
 931:bluetooth_rxtx.c **** 		if (modulation == MOD_BT_BASIC_RATE) {
 932:bluetooth_rxtx.c **** 			mdmctrl = 0x0029; // 160 kHz frequency deviation
 933:bluetooth_rxtx.c **** 		} else if (modulation == MOD_BT_LOW_ENERGY) {
 934:bluetooth_rxtx.c **** 			mdmctrl = 0x0040; // 250 kHz frequency deviation
 935:bluetooth_rxtx.c **** 		}
 936:bluetooth_rxtx.c **** 		cc2400_set(MANAND,  0x7fff);
 937:bluetooth_rxtx.c **** 		cc2400_set(LMTST,   0x2b22);
 938:bluetooth_rxtx.c **** 		cc2400_set(MDMTST0, 0x134b); // without PRNG 16 MAX MIN PAIRS
 939:bluetooth_rxtx.c **** 		cc2400_set(GRMDM,   0x0101); // un-buffered mode, GFSK
 940:bluetooth_rxtx.c **** 		// 0 00 00 0 010 00 0 00 0 1
 941:bluetooth_rxtx.c **** 		//      |  | |   |  +--------> CRC off
 942:bluetooth_rxtx.c **** 		//      |  | |   +-----------> sync word: 8 MSB bits of SYNC_WORD
 943:bluetooth_rxtx.c **** 		//      |  | +---------------> 2 preamble bytes of 01010101
 944:bluetooth_rxtx.c **** 		//      |  +-----------------> not packet mode
 945:bluetooth_rxtx.c **** 			//      +--------------------> un-buffered mode
ARM GAS  /tmp/ccTiCbBl.s 			page 18


 946:bluetooth_rxtx.c **** 		cc2400_set(FSDIV,   channel - 1); // 1 MHz IF
 947:bluetooth_rxtx.c **** 		cc2400_set(MDMCTRL, mdmctrl);
 948:bluetooth_rxtx.c **** 	}
 949:bluetooth_rxtx.c **** 
 950:bluetooth_rxtx.c **** 	// Set up CS register
 951:bluetooth_rxtx.c **** 	cs_threshold_calc_and_set(channel);
 952:bluetooth_rxtx.c **** 
 953:bluetooth_rxtx.c **** 	clkn_start();
 954:bluetooth_rxtx.c **** 
 955:bluetooth_rxtx.c **** 	while (!(cc2400_status() & XOSC16M_STABLE));
 956:bluetooth_rxtx.c **** 	cc2400_strobe(SFSON);
 957:bluetooth_rxtx.c **** 	while (!(cc2400_status() & FS_LOCK));
 958:bluetooth_rxtx.c **** 	cc2400_strobe(SRX);
 959:bluetooth_rxtx.c **** #ifdef UBERTOOTH_ONE
 960:bluetooth_rxtx.c **** 	PAEN_SET;
 961:bluetooth_rxtx.c **** 	HGM_SET;
 962:bluetooth_rxtx.c **** #endif
 963:bluetooth_rxtx.c **** }
 964:bluetooth_rxtx.c **** 
 965:bluetooth_rxtx.c **** /* start un-buffered rx */
 966:bluetooth_rxtx.c **** static void cc2400_rx_sync(u32 sync)
 967:bluetooth_rxtx.c **** {
 968:bluetooth_rxtx.c **** 	u16 grmdm, mdmctrl;
 969:bluetooth_rxtx.c **** 
 970:bluetooth_rxtx.c **** 	if (modulation == MOD_BT_BASIC_RATE) {
 971:bluetooth_rxtx.c **** 		mdmctrl = 0x0029; // 160 kHz frequency deviation
 972:bluetooth_rxtx.c **** 		grmdm = 0x0461; // un-buffered mode, packet w/ sync word detection
 973:bluetooth_rxtx.c **** 		// 0 00 00 1 000 11 0 00 0 1
 974:bluetooth_rxtx.c **** 		//   |  |  | |   |  +--------> CRC off
 975:bluetooth_rxtx.c **** 		//   |  |  | |   +-----------> sync word: 32 MSB bits of SYNC_WORD
 976:bluetooth_rxtx.c **** 		//   |  |  | +---------------> 0 preamble bytes of 01010101
 977:bluetooth_rxtx.c **** 		//   |  |  +-----------------> packet mode
 978:bluetooth_rxtx.c **** 		//   |  +--------------------> un-buffered mode
 979:bluetooth_rxtx.c **** 		//   +-----------------------> sync error bits: 0
 980:bluetooth_rxtx.c **** 
 981:bluetooth_rxtx.c **** 	} else if (modulation == MOD_BT_LOW_ENERGY) {
 982:bluetooth_rxtx.c **** 		mdmctrl = 0x0040; // 250 kHz frequency deviation
 983:bluetooth_rxtx.c **** 		grmdm = 0x6561; // un-buffered mode, packet w/ sync word detection
 984:bluetooth_rxtx.c **** 		// 0 11 00 1 010 11 0 00 0 1
 985:bluetooth_rxtx.c **** 		//   |  |  | |   |  +--------> CRC off
 986:bluetooth_rxtx.c **** 		//   |  |  | |   +-----------> sync word: 32 MSB bits of SYNC_WORD
 987:bluetooth_rxtx.c **** 		//   |  |  | +---------------> 2 preamble bytes of 01010101
 988:bluetooth_rxtx.c **** 		//   |  |  +-----------------> packet mode
 989:bluetooth_rxtx.c **** 		//   |  +--------------------> un-buffered mode
 990:bluetooth_rxtx.c **** 		//   +-----------------------> sync error bits: 3
 991:bluetooth_rxtx.c **** 
 992:bluetooth_rxtx.c **** 	} else {
 993:bluetooth_rxtx.c **** 		/* oops */
 994:bluetooth_rxtx.c **** 		return;
 995:bluetooth_rxtx.c **** 	}
 996:bluetooth_rxtx.c **** 
 997:bluetooth_rxtx.c **** 	cc2400_set(MANAND,  0x7fff);
 998:bluetooth_rxtx.c **** 	cc2400_set(LMTST,   0x2b22);
 999:bluetooth_rxtx.c **** 
1000:bluetooth_rxtx.c **** 	cc2400_set(MDMTST0, 0x104b); //JWHUR AFC settling = 2 maxmin pairs
1001:bluetooth_rxtx.c **** 	//cc2400_set(MDMTST0, 0x124b);
1002:bluetooth_rxtx.c **** 	// 1      2      4b
ARM GAS  /tmp/ccTiCbBl.s 			page 19


1003:bluetooth_rxtx.c **** 	// 00 0 1 0 0 10 01001011
1004:bluetooth_rxtx.c **** 	//    | | | | |  +---------> AFC_DELTA = ??
1005:bluetooth_rxtx.c **** 	//    | | | | +------------> AFC settling = 4 pairs (8 bit preamble)
1006:bluetooth_rxtx.c **** 	//    | | | +--------------> no AFC adjust on packet
1007:bluetooth_rxtx.c **** 	//    | | +----------------> do not invert data
1008:bluetooth_rxtx.c **** 	//    | +------------------> TX IF freq 1 0Hz
1009:bluetooth_rxtx.c **** 	//    +--------------------> PRNG off
1010:bluetooth_rxtx.c **** 	//
1011:bluetooth_rxtx.c **** 	// ref: CC2400 datasheet page 67
1012:bluetooth_rxtx.c **** 	// AFC settling explained page 41/42
1013:bluetooth_rxtx.c **** 
1014:bluetooth_rxtx.c **** 	cc2400_set(GRMDM,   grmdm);
1015:bluetooth_rxtx.c **** 
1016:bluetooth_rxtx.c **** 	cc2400_set(SYNCL,   sync & 0xffff);
1017:bluetooth_rxtx.c **** 	cc2400_set(SYNCH,   (sync >> 16) & 0xffff);
1018:bluetooth_rxtx.c **** 
1019:bluetooth_rxtx.c **** 	cc2400_set(FSDIV,   channel - 1); // 1 MHz IF
1020:bluetooth_rxtx.c **** 	cc2400_set(MDMCTRL, mdmctrl);
1021:bluetooth_rxtx.c **** 
1022:bluetooth_rxtx.c **** 	//JWHUR RSSI sampling symbols
1023:bluetooth_rxtx.c **** 	cc2400_set(RSSI, 0x003f);
1024:bluetooth_rxtx.c **** 
1025:bluetooth_rxtx.c **** 	// Set up CS register
1026:bluetooth_rxtx.c **** 	cs_threshold_calc_and_set(channel);
1027:bluetooth_rxtx.c **** 
1028:bluetooth_rxtx.c **** 	clkn_start();
1029:bluetooth_rxtx.c **** 
1030:bluetooth_rxtx.c **** 	while (!(cc2400_status() & XOSC16M_STABLE));
1031:bluetooth_rxtx.c **** 	cc2400_strobe(SFSON);
1032:bluetooth_rxtx.c **** 	while (!(cc2400_status() & FS_LOCK));
1033:bluetooth_rxtx.c **** 	cc2400_strobe(SRX);
1034:bluetooth_rxtx.c **** #ifdef UBERTOOTH_ONE
1035:bluetooth_rxtx.c **** 	PAEN_SET;
1036:bluetooth_rxtx.c **** 	HGM_SET;
1037:bluetooth_rxtx.c **** #endif
1038:bluetooth_rxtx.c **** }
1039:bluetooth_rxtx.c **** 
1040:bluetooth_rxtx.c **** /* start buffered tx */
1041:bluetooth_rxtx.c **** static void cc2400_tx_sync(uint32_t sync)
1042:bluetooth_rxtx.c **** {
1043:bluetooth_rxtx.c **** #ifdef TX_ENABLE
1044:bluetooth_rxtx.c **** 	// Bluetooth-like modulation
1045:bluetooth_rxtx.c **** 	cc2400_set(MANAND,  0x7fff);
1046:bluetooth_rxtx.c **** 	cc2400_set(LMTST,   0x2b22);    // LNA and receive mixers test register
1047:bluetooth_rxtx.c **** 	cc2400_set(MDMTST0, 0x134b);    // no PRNG
1048:bluetooth_rxtx.c **** 
1049:bluetooth_rxtx.c **** 	cc2400_set(GRMDM,   0x0c01);
1050:bluetooth_rxtx.c **** 	// 0 00 01 1 000 00 0 00 0 1
1051:bluetooth_rxtx.c **** 	//      |  | |   |  +--------> CRC off
1052:bluetooth_rxtx.c **** 	//      |  | |   +-----------> sync word: 8 MSB bits of SYNC_WORD
1053:bluetooth_rxtx.c **** 	//      |  | +---------------> 0 preamble bytes of 01010101
1054:bluetooth_rxtx.c **** 	//      |  +-----------------> packet mode
1055:bluetooth_rxtx.c **** 	//      +--------------------> buffered mode
1056:bluetooth_rxtx.c **** 
1057:bluetooth_rxtx.c **** 	cc2400_set(SYNCL,   sync & 0xffff);
1058:bluetooth_rxtx.c **** 	cc2400_set(SYNCH,   (sync >> 16) & 0xffff);
1059:bluetooth_rxtx.c **** 
ARM GAS  /tmp/ccTiCbBl.s 			page 20


1060:bluetooth_rxtx.c **** 	cc2400_set(FSDIV,   channel);
1061:bluetooth_rxtx.c **** 	cc2400_set(FREND,   0b1011);    // amplifier level (-7 dBm, picked from hat)
1062:bluetooth_rxtx.c **** 
1063:bluetooth_rxtx.c **** 	if (modulation == MOD_BT_BASIC_RATE) {
1064:bluetooth_rxtx.c **** 		cc2400_set(MDMCTRL, 0x0029);    // 160 kHz frequency deviation
1065:bluetooth_rxtx.c **** 	} else if (modulation == MOD_BT_LOW_ENERGY) {
1066:bluetooth_rxtx.c **** 		cc2400_set(MDMCTRL, 0x0040);    // 250 kHz frequency deviation
1067:bluetooth_rxtx.c **** 	} else {
1068:bluetooth_rxtx.c **** 		/* oops */
1069:bluetooth_rxtx.c **** 		return;
1070:bluetooth_rxtx.c **** 	}
1071:bluetooth_rxtx.c **** 
1072:bluetooth_rxtx.c **** 	clkn_start();
1073:bluetooth_rxtx.c **** 
1074:bluetooth_rxtx.c **** 	while (!(cc2400_status() & XOSC16M_STABLE));
1075:bluetooth_rxtx.c **** 	cc2400_strobe(SFSON);
1076:bluetooth_rxtx.c **** 	while (!(cc2400_status() & FS_LOCK));
1077:bluetooth_rxtx.c **** 
1078:bluetooth_rxtx.c **** #ifdef UBERTOOTH_ONE
1079:bluetooth_rxtx.c **** 	PAEN_SET;
1080:bluetooth_rxtx.c **** #endif
1081:bluetooth_rxtx.c **** 
1082:bluetooth_rxtx.c **** 	while ((cc2400_get(FSMSTATE) & 0x1f) != STATE_STROBE_FS_ON);
1083:bluetooth_rxtx.c **** 	cc2400_strobe(STX);
1084:bluetooth_rxtx.c **** 
1085:bluetooth_rxtx.c **** #endif
1086:bluetooth_rxtx.c **** }
1087:bluetooth_rxtx.c **** 
1088:bluetooth_rxtx.c **** /*
1089:bluetooth_rxtx.c ****  * Transmit a BTLE packet with the specified access address.
1090:bluetooth_rxtx.c ****  *
1091:bluetooth_rxtx.c ****  * All modulation parameters are set within this function. The data
1092:bluetooth_rxtx.c ****  * should not be pre-whitened, but the CRC should be calculated and
1093:bluetooth_rxtx.c ****  * included in the data length.
1094:bluetooth_rxtx.c ****  */
1095:bluetooth_rxtx.c **** void le_transmit(u32 aa, u8 len, u8 *data, u16 ch)
1096:bluetooth_rxtx.c **** {
1097:bluetooth_rxtx.c **** 	unsigned i, j;
1098:bluetooth_rxtx.c **** 	int bit;
1099:bluetooth_rxtx.c **** 	uint16_t jw_channel = 2402;
1100:bluetooth_rxtx.c **** 	jw_channel = ch;
1101:bluetooth_rxtx.c **** 	u8 txbuf[64];
1102:bluetooth_rxtx.c **** 	u8 tx_len;
1103:bluetooth_rxtx.c **** 	u8 byte;
1104:bluetooth_rxtx.c **** 	u16 gio_save;
1105:bluetooth_rxtx.c **** 	//JWHUR tx power control
1106:bluetooth_rxtx.c **** 	u8 tx_pwr = 0x0007;
1107:bluetooth_rxtx.c **** 
1108:bluetooth_rxtx.c **** 	// first four bytes: AA
1109:bluetooth_rxtx.c **** 	for (i = 0; i < 4; ++i) {
1110:bluetooth_rxtx.c **** 		byte = aa & 0xff;
1111:bluetooth_rxtx.c **** 		aa >>= 8;
1112:bluetooth_rxtx.c **** 		txbuf[i] = 0;
1113:bluetooth_rxtx.c **** 		for (j = 0; j < 8; ++j) {
1114:bluetooth_rxtx.c **** 			txbuf[i] |= (byte & 1) << (7 - j);
1115:bluetooth_rxtx.c **** 			byte >>= 1;
1116:bluetooth_rxtx.c **** 		}
ARM GAS  /tmp/ccTiCbBl.s 			page 21


1117:bluetooth_rxtx.c **** 	}
1118:bluetooth_rxtx.c **** 
1119:bluetooth_rxtx.c **** 	// whiten the data and copy it into the txbuf
1120:bluetooth_rxtx.c **** 	int idx = whitening_index[btle_channel_index(jw_channel-2402)];
1121:bluetooth_rxtx.c **** 	for (i = 0; i < len; ++i) {
1122:bluetooth_rxtx.c **** 		byte = data[i];
1123:bluetooth_rxtx.c **** 		txbuf[i+4] = 0;
1124:bluetooth_rxtx.c **** 		for (j = 0; j < 8; ++j) {
1125:bluetooth_rxtx.c **** 			bit = (byte & 1) ^ whitening[idx];
1126:bluetooth_rxtx.c **** 			idx = (idx + 1) % sizeof(whitening);
1127:bluetooth_rxtx.c **** 			//bit = (byte & 1);
1128:bluetooth_rxtx.c **** 			byte >>= 1;
1129:bluetooth_rxtx.c **** 			txbuf[i+4] |= bit << (7 - j);
1130:bluetooth_rxtx.c **** 		}
1131:bluetooth_rxtx.c **** 	}
1132:bluetooth_rxtx.c **** 
1133:bluetooth_rxtx.c **** 	len += 4; // include the AA in len
1134:bluetooth_rxtx.c **** 
1135:bluetooth_rxtx.c **** 	// Bluetooth-like modulation
1136:bluetooth_rxtx.c **** 	cc2400_set(MANAND,  0x7fff);
1137:bluetooth_rxtx.c **** 	cc2400_set(LMTST,   0x2b22);    // LNA and receive mixers test register
1138:bluetooth_rxtx.c **** 	cc2400_set(MDMTST0, 0x134b);    // no PRNG
1139:bluetooth_rxtx.c **** 
1140:bluetooth_rxtx.c **** 	cc2400_set(GRMDM,   0x0c01);
1141:bluetooth_rxtx.c **** 	// 0 00 01 1 001 00 0 00 0 1
1142:bluetooth_rxtx.c **** 	//      |  | |   |  +--------> CRC off
1143:bluetooth_rxtx.c **** 	//      |  | |   +-----------> sync word: 8 MSB bits of SYNC_WORD
1144:bluetooth_rxtx.c **** 	//      |  | +---------------> 0 preamble bytes of 01010101
1145:bluetooth_rxtx.c **** 	//      |  +-----------------> packet mode
1146:bluetooth_rxtx.c **** 	//      +--------------------> buffered mode
1147:bluetooth_rxtx.c **** 
1148:bluetooth_rxtx.c **** 	cc2400_set(FSDIV,   jw_channel);
1149:bluetooth_rxtx.c **** 	// JWHUR cc2400 data sheet about power control
1150:bluetooth_rxtx.c **** 	// lsb 3 bit : dbm
1151:bluetooth_rxtx.c **** 	// 000 : -25
1152:bluetooth_rxtx.c **** 	// 001 : -15
1153:bluetooth_rxtx.c **** 	// 010 : -10
1154:bluetooth_rxtx.c **** 	// 011 : -7
1155:bluetooth_rxtx.c **** 	// 100 : -4.6
1156:bluetooth_rxtx.c **** 	// 101 : -2.8
1157:bluetooth_rxtx.c **** 	// 110 : -1.3
1158:bluetooth_rxtx.c **** 	// 111 : 0
1159:bluetooth_rxtx.c **** 	cc2400_set(FREND, tx_pwr);
1160:bluetooth_rxtx.c **** 	//cc2400_set(FREND,   0b1011);    // amplifier level (-7 dBm, picked from hat)
1161:bluetooth_rxtx.c **** 	cc2400_set(MDMCTRL, 0x0040);    // 250 kHz frequency deviation
1162:bluetooth_rxtx.c **** 	cc2400_set(INT,     0x0014);    // FIFO_THRESHOLD: 20 bytes
1163:bluetooth_rxtx.c **** 
1164:bluetooth_rxtx.c **** 	// sync byte depends on the first transmitted bit of the AA
1165:bluetooth_rxtx.c **** 	if (aa & 1)
1166:bluetooth_rxtx.c **** 		cc2400_set(SYNCH,   0xaaaa);
1167:bluetooth_rxtx.c **** 	else
1168:bluetooth_rxtx.c **** 		cc2400_set(SYNCH,   0x5555);
1169:bluetooth_rxtx.c **** 
1170:bluetooth_rxtx.c **** 	// set GIO to FIFO_FULL
1171:bluetooth_rxtx.c **** 	gio_save = cc2400_get(IOCFG);
1172:bluetooth_rxtx.c **** 	cc2400_set(IOCFG, (GIO_FIFO_FULL << 9) | (gio_save & 0x1ff));
1173:bluetooth_rxtx.c **** 
ARM GAS  /tmp/ccTiCbBl.s 			page 22


1174:bluetooth_rxtx.c **** 	while (!(cc2400_status() & XOSC16M_STABLE));
1175:bluetooth_rxtx.c **** 	cc2400_strobe(SFSON);
1176:bluetooth_rxtx.c **** 	while (!(cc2400_status() & FS_LOCK));
1177:bluetooth_rxtx.c **** 	TXLED_SET;
1178:bluetooth_rxtx.c **** #ifdef UBERTOOTH_ONE
1179:bluetooth_rxtx.c **** 	PAEN_SET;
1180:bluetooth_rxtx.c **** #endif
1181:bluetooth_rxtx.c **** 	while ((cc2400_get(FSMSTATE) & 0x1f) != STATE_STROBE_FS_ON);
1182:bluetooth_rxtx.c **** 	cc2400_strobe(STX);
1183:bluetooth_rxtx.c **** 
1184:bluetooth_rxtx.c **** 	// put the packet into the FIFO
1185:bluetooth_rxtx.c **** 	/*
1186:bluetooth_rxtx.c **** 	for (i = 0; i < len; i += 16) {
1187:bluetooth_rxtx.c **** 		while (GIO6) ; // wait for the FIFO to drain (FIFO_FULL false)
1188:bluetooth_rxtx.c **** 		tx_len = len - i;
1189:bluetooth_rxtx.c **** 		if (tx_len >16)
1190:bluetooth_rxtx.c **** 			tx_len = 16;
1191:bluetooth_rxtx.c **** 		cc2400_fifo_write(tx_len, txbuf + i);
1192:bluetooth_rxtx.c **** 	}*/
1193:bluetooth_rxtx.c **** 
1194:bluetooth_rxtx.c **** 	//JWHUR cc2400 fifo write
1195:bluetooth_rxtx.c **** 	while (GIO6) ;
1196:bluetooth_rxtx.c **** 	if (len > 46) len = 46;
1197:bluetooth_rxtx.c **** 	cc2400_fifo_write(len, txbuf);
1198:bluetooth_rxtx.c **** 
1199:bluetooth_rxtx.c **** 	while ((cc2400_get(FSMSTATE) & 0x1f) != STATE_STROBE_FS_ON);
1200:bluetooth_rxtx.c **** 	TXLED_CLR;
1201:bluetooth_rxtx.c **** 
1202:bluetooth_rxtx.c **** 	cc2400_strobe(SRFOFF);
1203:bluetooth_rxtx.c **** 	while ((cc2400_status() & FS_LOCK));
1204:bluetooth_rxtx.c **** 
1205:bluetooth_rxtx.c **** #ifdef UBERTOOTH_ONE
1206:bluetooth_rxtx.c **** 	PAEN_CLR;
1207:bluetooth_rxtx.c **** #endif
1208:bluetooth_rxtx.c **** 
1209:bluetooth_rxtx.c **** 	// reset GIO
1210:bluetooth_rxtx.c **** 	cc2400_set(IOCFG, gio_save);
1211:bluetooth_rxtx.c **** }
1212:bluetooth_rxtx.c **** 
1213:bluetooth_rxtx.c **** void le_jam(void) {
1214:bluetooth_rxtx.c **** #ifdef TX_ENABLE
1215:bluetooth_rxtx.c **** 	cc2400_set(MANAND,  0x7fff);
1216:bluetooth_rxtx.c **** 	cc2400_set(LMTST,   0x2b22);    // LNA and receive mixers test register
1217:bluetooth_rxtx.c **** 	cc2400_set(MDMTST0, 0x234b);    // PRNG, 1 MHz offset
1218:bluetooth_rxtx.c **** 
1219:bluetooth_rxtx.c **** 	cc2400_set(GRMDM,   0x0c01);
1220:bluetooth_rxtx.c **** 	// 0 00 01 1 000 00 0 00 0 1
1221:bluetooth_rxtx.c **** 	//      |  | |   |  +--------> CRC off
1222:bluetooth_rxtx.c **** 	//      |  | |   +-----------> sync word: 8 MSB bits of SYNC_WORD
1223:bluetooth_rxtx.c **** 	//      |  | +---------------> 0 preamble bytes of 01010101
1224:bluetooth_rxtx.c **** 	//      |  +-----------------> packet mode
1225:bluetooth_rxtx.c **** 	//      +--------------------> buffered mode
1226:bluetooth_rxtx.c **** 
1227:bluetooth_rxtx.c **** 	// cc2400_set(FSDIV,   channel);
1228:bluetooth_rxtx.c **** 	cc2400_set(FREND,   0b1011);    // amplifier level (-7 dBm, picked from hat)
1229:bluetooth_rxtx.c **** 	cc2400_set(MDMCTRL, 0x0040);    // 250 kHz frequency deviation
1230:bluetooth_rxtx.c **** 
ARM GAS  /tmp/ccTiCbBl.s 			page 23


1231:bluetooth_rxtx.c **** 	while (!(cc2400_status() & XOSC16M_STABLE));
1232:bluetooth_rxtx.c **** 	cc2400_strobe(SFSON);
1233:bluetooth_rxtx.c **** 	while (!(cc2400_status() & FS_LOCK));
1234:bluetooth_rxtx.c **** 	TXLED_SET;
1235:bluetooth_rxtx.c **** #ifdef UBERTOOTH_ONE
1236:bluetooth_rxtx.c **** 	PAEN_SET;
1237:bluetooth_rxtx.c **** #endif
1238:bluetooth_rxtx.c **** 	while ((cc2400_get(FSMSTATE) & 0x1f) != STATE_STROBE_FS_ON);
1239:bluetooth_rxtx.c **** 	cc2400_strobe(STX);
1240:bluetooth_rxtx.c **** #endif
1241:bluetooth_rxtx.c **** }
1242:bluetooth_rxtx.c **** 
1243:bluetooth_rxtx.c **** /* TODO - return whether hop happened, or should caller have to keep
1244:bluetooth_rxtx.c ****  * track of this? */
1245:bluetooth_rxtx.c **** void hop(void)
1246:bluetooth_rxtx.c **** {
1247:bluetooth_rxtx.c **** 	do_hop = 0;
1248:bluetooth_rxtx.c **** 	last_hop = clkn;
1249:bluetooth_rxtx.c **** 
1250:bluetooth_rxtx.c **** 	// No hopping, if channel is set correctly, do nothing
1251:bluetooth_rxtx.c **** 	if (hop_mode == HOP_NONE) {
1252:bluetooth_rxtx.c **** 		if (cc2400_get(FSDIV) == (channel - 1))
1253:bluetooth_rxtx.c **** 			return;
1254:bluetooth_rxtx.c **** 	}
1255:bluetooth_rxtx.c **** 	/* Slow sweep (100 hops/sec)
1256:bluetooth_rxtx.c **** 	 * only hop to currently used channels if AFH is enabled
1257:bluetooth_rxtx.c **** 	 */
1258:bluetooth_rxtx.c **** 	else if (hop_mode == HOP_SWEEP) {
1259:bluetooth_rxtx.c **** 		do {
1260:bluetooth_rxtx.c **** 			channel += 32;
1261:bluetooth_rxtx.c **** 			if (channel > 2480)
1262:bluetooth_rxtx.c **** 				channel -= 79;
1263:bluetooth_rxtx.c **** 		} while ( used_channels != 0 && afh_enabled && !( afh_map[(channel-2402)/8] & 0x1<<((channel-2402
1264:bluetooth_rxtx.c **** 	}
1265:bluetooth_rxtx.c **** 
1266:bluetooth_rxtx.c **** 	/* AFH detection
1267:bluetooth_rxtx.c **** 	 * only hop to currently unused channesl
1268:bluetooth_rxtx.c **** 	 */
1269:bluetooth_rxtx.c **** 	else if (hop_mode == HOP_AFH) {
1270:bluetooth_rxtx.c **** 		do {
1271:bluetooth_rxtx.c **** 			channel += 32;
1272:bluetooth_rxtx.c **** 			if (channel > 2480)
1273:bluetooth_rxtx.c **** 				channel -= 79;
1274:bluetooth_rxtx.c **** 		} while( used_channels != 79 && (afh_map[(channel-2402)/8] & 0x1<<((channel-2402)%8)) );
1275:bluetooth_rxtx.c **** 	}
1276:bluetooth_rxtx.c **** 
1277:bluetooth_rxtx.c **** 	else if (hop_mode == HOP_BLUETOOTH) {
1278:bluetooth_rxtx.c **** 		channel = next_hop(clkn);
1279:bluetooth_rxtx.c **** 	}
1280:bluetooth_rxtx.c **** 
1281:bluetooth_rxtx.c **** 	else if (hop_mode == HOP_BTLE) {
1282:bluetooth_rxtx.c **** 		channel = btle_next_hop(&le);
1283:bluetooth_rxtx.c **** 	}
1284:bluetooth_rxtx.c **** 
1285:bluetooth_rxtx.c **** 	else if (hop_mode == HOP_DIRECT) {
1286:bluetooth_rxtx.c **** 		channel = hop_direct_channel;
1287:bluetooth_rxtx.c **** 	}
ARM GAS  /tmp/ccTiCbBl.s 			page 24


1288:bluetooth_rxtx.c **** 	/* IDLE mode, but leave amp on, so don't call cc2400_idle(). */
1289:bluetooth_rxtx.c **** 	cc2400_strobe(SRFOFF);
1290:bluetooth_rxtx.c **** 	while ((cc2400_status() & FS_LOCK)); // need to wait for unlock?
1291:bluetooth_rxtx.c **** 
1292:bluetooth_rxtx.c **** 	/* Retune */
1293:bluetooth_rxtx.c **** 	if(mode == MODE_TX_SYMBOLS)
1294:bluetooth_rxtx.c **** 		cc2400_set(FSDIV, channel);
1295:bluetooth_rxtx.c **** 	else
1296:bluetooth_rxtx.c **** 		cc2400_set(FSDIV, channel - 1);
1297:bluetooth_rxtx.c **** 
1298:bluetooth_rxtx.c **** 	/* Update CS register if hopping.  */
1299:bluetooth_rxtx.c **** 	if (hop_mode > 0) {
1300:bluetooth_rxtx.c **** 		cs_threshold_calc_and_set(channel);
1301:bluetooth_rxtx.c **** 	}
1302:bluetooth_rxtx.c **** 
1303:bluetooth_rxtx.c **** 	/* Wait for lock */
1304:bluetooth_rxtx.c **** 	cc2400_strobe(SFSON);
1305:bluetooth_rxtx.c **** 	while (!(cc2400_status() & FS_LOCK));
1306:bluetooth_rxtx.c **** 
1307:bluetooth_rxtx.c **** 	dma_discard = 1;
1308:bluetooth_rxtx.c **** 
1309:bluetooth_rxtx.c **** 	if(mode == MODE_TX_SYMBOLS)
1310:bluetooth_rxtx.c **** 		cc2400_strobe(STX);
1311:bluetooth_rxtx.c **** 	else
1312:bluetooth_rxtx.c **** 		cc2400_strobe(SRX);
1313:bluetooth_rxtx.c **** }
1314:bluetooth_rxtx.c **** 
1315:bluetooth_rxtx.c **** /* Bluetooth packet monitoring */
1316:bluetooth_rxtx.c **** void bt_stream_rx()
1317:bluetooth_rxtx.c **** {
1318:bluetooth_rxtx.c **** 	int8_t rssi;
1319:bluetooth_rxtx.c **** 	int8_t rssi_at_trigger;
1320:bluetooth_rxtx.c **** 
1321:bluetooth_rxtx.c **** 	RXLED_CLR;
1322:bluetooth_rxtx.c **** 
1323:bluetooth_rxtx.c **** 	queue_init();
1324:bluetooth_rxtx.c **** 	dio_ssp_init();
1325:bluetooth_rxtx.c **** 	dma_init();
1326:bluetooth_rxtx.c **** 	dio_ssp_start();
1327:bluetooth_rxtx.c **** 
1328:bluetooth_rxtx.c **** 	cc2400_rx();
1329:bluetooth_rxtx.c **** 
1330:bluetooth_rxtx.c **** 	cs_trigger_enable();
1331:bluetooth_rxtx.c **** 
1332:bluetooth_rxtx.c **** 	while ( requested_mode == MODE_RX_SYMBOLS || requested_mode == MODE_BT_FOLLOW )
1333:bluetooth_rxtx.c **** 	{
1334:bluetooth_rxtx.c **** 
1335:bluetooth_rxtx.c **** 		RXLED_CLR;
1336:bluetooth_rxtx.c **** 
1337:bluetooth_rxtx.c **** 		/* Wait for DMA transfer. TODO - need more work on
1338:bluetooth_rxtx.c **** 		 * RSSI. Should send RSSI indications to host even
1339:bluetooth_rxtx.c **** 		 * when not transferring data. That would also keep
1340:bluetooth_rxtx.c **** 		 * the USB stream going. This loop runs 50-80 times
1341:bluetooth_rxtx.c **** 		 * while waiting for DMA, but RSSI sampling does not
1342:bluetooth_rxtx.c **** 		 * cover all the symbols in a DMA transfer. Can not do
1343:bluetooth_rxtx.c **** 		 * RSSI sampling in CS interrupt, but could log time
1344:bluetooth_rxtx.c **** 		 * at multiple trigger points there. The MAX() below
ARM GAS  /tmp/ccTiCbBl.s 			page 25


1345:bluetooth_rxtx.c **** 		 * helps with statistics in the case that cs_trigger
1346:bluetooth_rxtx.c **** 		 * happened before the loop started. */
1347:bluetooth_rxtx.c **** 		rssi_reset();
1348:bluetooth_rxtx.c **** 		rssi_at_trigger = INT8_MIN;
1349:bluetooth_rxtx.c **** 		while (!rx_tc) {
1350:bluetooth_rxtx.c **** 			rssi = (int8_t)(cc2400_get(RSSI) >> 8);
1351:bluetooth_rxtx.c **** 			if (cs_trigger && (rssi_at_trigger == INT8_MIN)) {
1352:bluetooth_rxtx.c **** 				rssi = MAX(rssi,(cs_threshold_cur+54));
1353:bluetooth_rxtx.c **** 				rssi_at_trigger = rssi;
1354:bluetooth_rxtx.c **** 			}
1355:bluetooth_rxtx.c **** 			rssi_add(rssi);
1356:bluetooth_rxtx.c **** 
1357:bluetooth_rxtx.c **** 			handle_usb(clkn);
1358:bluetooth_rxtx.c **** 
1359:bluetooth_rxtx.c **** 			/* If timer says time to hop, do it. */
1360:bluetooth_rxtx.c **** 			if (do_hop) {
1361:bluetooth_rxtx.c **** 				hop();
1362:bluetooth_rxtx.c **** 			} else {
1363:bluetooth_rxtx.c **** 				TXLED_CLR;
1364:bluetooth_rxtx.c **** 			}
1365:bluetooth_rxtx.c **** 			/* TODO - set per-channel carrier sense threshold.
1366:bluetooth_rxtx.c **** 			 * Set by firmware or host. */
1367:bluetooth_rxtx.c **** 		}
1368:bluetooth_rxtx.c **** 
1369:bluetooth_rxtx.c **** 		RXLED_SET;
1370:bluetooth_rxtx.c **** 
1371:bluetooth_rxtx.c **** 		if (rx_err) {
1372:bluetooth_rxtx.c **** 			status |= DMA_ERROR;
1373:bluetooth_rxtx.c **** 		}
1374:bluetooth_rxtx.c **** 
1375:bluetooth_rxtx.c **** 		/* Missed a DMA trasfer? */
1376:bluetooth_rxtx.c **** 		if (rx_tc > 1)
1377:bluetooth_rxtx.c **** 			status |= DMA_OVERFLOW;
1378:bluetooth_rxtx.c **** 
1379:bluetooth_rxtx.c **** 		if (dma_discard) {
1380:bluetooth_rxtx.c **** 			status |= DISCARD;
1381:bluetooth_rxtx.c **** 			dma_discard = 0;
1382:bluetooth_rxtx.c **** 		}
1383:bluetooth_rxtx.c **** 
1384:bluetooth_rxtx.c **** 		rssi_iir_update(channel);
1385:bluetooth_rxtx.c **** 
1386:bluetooth_rxtx.c **** 		/* Set squelch hold if there was either a CS trigger, squelch
1387:bluetooth_rxtx.c **** 		 * is disabled, or if the current rssi_max is above the same
1388:bluetooth_rxtx.c **** 		 * threshold. Currently, this is redundant, but allows for
1389:bluetooth_rxtx.c **** 		 * per-channel or other rssi triggers in the future. */
1390:bluetooth_rxtx.c **** 		if (cs_trigger || cs_no_squelch) {
1391:bluetooth_rxtx.c **** 			status |= CS_TRIGGER;
1392:bluetooth_rxtx.c **** 			cs_trigger = 0;
1393:bluetooth_rxtx.c **** 		}
1394:bluetooth_rxtx.c **** 
1395:bluetooth_rxtx.c **** 		if (rssi_max >= (cs_threshold_cur + 54)) {
1396:bluetooth_rxtx.c **** 			status |= RSSI_TRIGGER;
1397:bluetooth_rxtx.c **** 		}
1398:bluetooth_rxtx.c **** 
1399:bluetooth_rxtx.c **** 		enqueue(BR_PACKET, (uint8_t*)idle_rxbuf);
1400:bluetooth_rxtx.c **** 
1401:bluetooth_rxtx.c **** 		handle_usb(clkn);
ARM GAS  /tmp/ccTiCbBl.s 			page 26


1402:bluetooth_rxtx.c **** 		rx_tc = 0;
1403:bluetooth_rxtx.c **** 		rx_err = 0;
1404:bluetooth_rxtx.c **** 	}
1405:bluetooth_rxtx.c **** 
1406:bluetooth_rxtx.c **** 	/* This call is a nop so far. Since bt_rx_stream() starts the
1407:bluetooth_rxtx.c **** 	 * stream, it makes sense that it would stop it. TODO - how
1408:bluetooth_rxtx.c **** 	 * should setup/teardown be handled? Should every new mode be
1409:bluetooth_rxtx.c **** 	 * starting from scratch? */
1410:bluetooth_rxtx.c **** 	dio_ssp_stop();
1411:bluetooth_rxtx.c **** 	cs_trigger_disable();
1412:bluetooth_rxtx.c **** }
1413:bluetooth_rxtx.c **** 
1414:bluetooth_rxtx.c **** static uint8_t reverse8(uint8_t data)
1415:bluetooth_rxtx.c **** {
  26              		.loc 1 1415 0
  27              		.cfi_startproc
  28              		@ args = 0, pretend = 0, frame = 0
  29              		@ frame_needed = 0, uses_anonymous_args = 0
  30              	.LVL0:
  31 0000 10B5     		push	{r4, lr}
  32              		.cfi_def_cfa_offset 8
  33              		.cfi_offset 4, -8
  34              		.cfi_offset 14, -4
  35              	.LVL1:
  36              	.LBB4:
1416:bluetooth_rxtx.c **** 	uint8_t reversed = 0;
1417:bluetooth_rxtx.c **** 
1418:bluetooth_rxtx.c **** 	for(size_t i=0; i<8; i++)
  37              		.loc 1 1418 0
  38 0002 0023     		movs	r3, #0
  39              	.LBE4:
1416:bluetooth_rxtx.c **** 	uint8_t reversed = 0;
  40              		.loc 1 1416 0
  41 0004 1A46     		mov	r2, r3
  42              	.LVL2:
  43              	.L3:
  44              	.LBB5:
1419:bluetooth_rxtx.c **** 	{
1420:bluetooth_rxtx.c **** 		reversed |= ((data >> i) & 0x01) << (7-i);
  45              		.loc 1 1420 0 discriminator 2
  46 0006 40FA03F1 		asr	r1, r0, r3
  47 000a C3F10704 		rsb	r4, r3, #7
  48 000e 01F00101 		and	r1, r1, #1
  49 0012 A140     		lsls	r1, r1, r4
1418:bluetooth_rxtx.c **** 	{
  50              		.loc 1 1418 0 discriminator 2
  51 0014 0133     		adds	r3, r3, #1
  52              	.LVL3:
  53              		.loc 1 1420 0 discriminator 2
  54 0016 0A43     		orrs	r2, r2, r1
  55              	.LVL4:
1418:bluetooth_rxtx.c **** 	{
  56              		.loc 1 1418 0 discriminator 2
  57 0018 082B     		cmp	r3, #8
  58              		.loc 1 1420 0 discriminator 2
  59 001a D2B2     		uxtb	r2, r2
  60              	.LVL5:
ARM GAS  /tmp/ccTiCbBl.s 			page 27


1418:bluetooth_rxtx.c **** 	{
  61              		.loc 1 1418 0 discriminator 2
  62 001c F3D1     		bne	.L3
  63              	.LBE5:
1421:bluetooth_rxtx.c **** 	}
1422:bluetooth_rxtx.c **** 
1423:bluetooth_rxtx.c **** 	return reversed;
1424:bluetooth_rxtx.c **** }
  64              		.loc 1 1424 0
  65 001e 1046     		mov	r0, r2
  66              	.LVL6:
  67 0020 10BD     		pop	{r4, pc}
  68              		.cfi_endproc
  69              	.LFE16:
  71              		.section	.text.cc2400_rx,"ax",%progbits
  72              		.align	1
  73              		.thumb
  74              		.thumb_func
  76              	cc2400_rx:
  77              	.LFB9:
 927:bluetooth_rxtx.c **** 	u16 mdmctrl = 0;
  78              		.loc 1 927 0
  79              		.cfi_startproc
  80              		@ args = 0, pretend = 0, frame = 0
  81              		@ frame_needed = 0, uses_anonymous_args = 0
  82 0000 38B5     		push	{r3, r4, r5, lr}
  83              		.cfi_def_cfa_offset 16
  84              		.cfi_offset 3, -16
  85              		.cfi_offset 4, -12
  86              		.cfi_offset 5, -8
  87              		.cfi_offset 14, -4
  88              	.LVL7:
 930:bluetooth_rxtx.c **** 		if (modulation == MOD_BT_BASIC_RATE) {
  89              		.loc 1 930 0
  90 0002 254B     		ldr	r3, .L19
  91 0004 254C     		ldr	r4, .L19+4
  92 0006 1A78     		ldrb	r2, [r3]	@ zero_extendqisi2
  93 0008 12B1     		cbz	r2, .L7
 930:bluetooth_rxtx.c **** 		if (modulation == MOD_BT_BASIC_RATE) {
  94              		.loc 1 930 0 is_stmt 0 discriminator 1
  95 000a 1A78     		ldrb	r2, [r3]	@ zero_extendqisi2
  96 000c 012A     		cmp	r2, #1
  97 000e 28D1     		bne	.L8
  98              	.L7:
 931:bluetooth_rxtx.c **** 			mdmctrl = 0x0029; // 160 kHz frequency deviation
  99              		.loc 1 931 0 is_stmt 1
 100 0010 1B78     		ldrb	r3, [r3]	@ zero_extendqisi2
 101 0012 33B1     		cbz	r3, .L14
 933:bluetooth_rxtx.c **** 			mdmctrl = 0x0040; // 250 kHz frequency deviation
 102              		.loc 1 933 0
 103 0014 204B     		ldr	r3, .L19
 104 0016 1D78     		ldrb	r5, [r3]	@ zero_extendqisi2
 928:bluetooth_rxtx.c **** 
 105              		.loc 1 928 0
 106 0018 012D     		cmp	r5, #1
 107 001a 0CBF     		ite	eq
 108 001c 4025     		moveq	r5, #64
ARM GAS  /tmp/ccTiCbBl.s 			page 28


 109 001e 0025     		movne	r5, #0
 110 0020 00E0     		b	.L9
 111              	.L14:
 932:bluetooth_rxtx.c **** 		} else if (modulation == MOD_BT_LOW_ENERGY) {
 112              		.loc 1 932 0
 113 0022 2925     		movs	r5, #41
 114              	.L9:
 115              	.LVL8:
 936:bluetooth_rxtx.c **** 		cc2400_set(LMTST,   0x2b22);
 116              		.loc 1 936 0
 117 0024 0D20     		movs	r0, #13
 118 0026 47F6FF71 		movw	r1, #32767
 119 002a FFF7FEFF 		bl	cc2400_set
 120              	.LVL9:
 937:bluetooth_rxtx.c **** 		cc2400_set(MDMTST0, 0x134b); // without PRNG 16 MAX MIN PAIRS
 121              		.loc 1 937 0
 122 002e 1220     		movs	r0, #18
 123 0030 42F62231 		movw	r1, #11042
 124 0034 FFF7FEFF 		bl	cc2400_set
 125              	.LVL10:
 938:bluetooth_rxtx.c **** 		cc2400_set(GRMDM,   0x0101); // un-buffered mode, GFSK
 126              		.loc 1 938 0
 127 0038 1420     		movs	r0, #20
 128 003a 41F24B31 		movw	r1, #4939
 129 003e FFF7FEFF 		bl	cc2400_set
 130              	.LVL11:
 939:bluetooth_rxtx.c **** 		// 0 00 00 0 010 00 0 00 0 1
 131              		.loc 1 939 0
 132 0042 2020     		movs	r0, #32
 133 0044 40F20111 		movw	r1, #257
 134 0048 FFF7FEFF 		bl	cc2400_set
 135              	.LVL12:
 946:bluetooth_rxtx.c **** 		cc2400_set(MDMCTRL, mdmctrl);
 136              		.loc 1 946 0
 137 004c 2188     		ldrh	r1, [r4]
 138 004e 0220     		movs	r0, #2
 139 0050 89B2     		uxth	r1, r1
 140 0052 0139     		subs	r1, r1, #1
 141 0054 89B2     		uxth	r1, r1
 142 0056 FFF7FEFF 		bl	cc2400_set
 143              	.LVL13:
 947:bluetooth_rxtx.c **** 	}
 144              		.loc 1 947 0
 145 005a 0320     		movs	r0, #3
 146 005c 2946     		mov	r1, r5
 147 005e FFF7FEFF 		bl	cc2400_set
 148              	.LVL14:
 149              	.L8:
 951:bluetooth_rxtx.c **** 
 150              		.loc 1 951 0
 151 0062 2088     		ldrh	r0, [r4]
 152 0064 80B2     		uxth	r0, r0
 153 0066 FFF7FEFF 		bl	cs_threshold_calc_and_set
 154              	.LVL15:
 953:bluetooth_rxtx.c **** 
 155              		.loc 1 953 0
 156 006a FFF7FEFF 		bl	clkn_start
ARM GAS  /tmp/ccTiCbBl.s 			page 29


 157              	.LVL16:
 158              	.L11:
 955:bluetooth_rxtx.c **** 	cc2400_strobe(SFSON);
 159              		.loc 1 955 0 discriminator 1
 160 006e FFF7FEFF 		bl	cc2400_status
 161              	.LVL17:
 162 0072 4206     		lsls	r2, r0, #25
 163 0074 FBD5     		bpl	.L11
 956:bluetooth_rxtx.c **** 	while (!(cc2400_status() & FS_LOCK));
 164              		.loc 1 956 0
 165 0076 6120     		movs	r0, #97
 166 0078 FFF7FEFF 		bl	cc2400_strobe
 167              	.LVL18:
 168              	.L13:
 957:bluetooth_rxtx.c **** 	cc2400_strobe(SRX);
 169              		.loc 1 957 0 discriminator 1
 170 007c FFF7FEFF 		bl	cc2400_status
 171              	.LVL19:
 172 0080 4307     		lsls	r3, r0, #29
 173 0082 FBD5     		bpl	.L13
 958:bluetooth_rxtx.c **** #ifdef UBERTOOTH_ONE
 174              		.loc 1 958 0
 175 0084 6220     		movs	r0, #98
 176 0086 FFF7FEFF 		bl	cc2400_strobe
 177              	.LVL20:
 960:bluetooth_rxtx.c **** 	HGM_SET;
 178              		.loc 1 960 0
 179 008a 054B     		ldr	r3, .L19+8
 180 008c 8022     		movs	r2, #128
 181 008e 1A60     		str	r2, [r3]
 961:bluetooth_rxtx.c **** #endif
 182              		.loc 1 961 0
 183 0090 4FF48072 		mov	r2, #256
 184 0094 1A60     		str	r2, [r3]
 185 0096 38BD     		pop	{r3, r4, r5, pc}
 186              	.L20:
 187              		.align	2
 188              	.L19:
 189 0098 00000000 		.word	.LANCHOR0
 190 009c 00000000 		.word	.LANCHOR1
 191 00a0 58C00920 		.word	537509976
 192              		.cfi_endproc
 193              	.LFE9:
 195              		.section	.text.cc2400_rx_sync,"ax",%progbits
 196              		.align	1
 197              		.thumb
 198              		.thumb_func
 200              	cc2400_rx_sync:
 201              	.LFB10:
 967:bluetooth_rxtx.c **** 	u16 grmdm, mdmctrl;
 202              		.loc 1 967 0
 203              		.cfi_startproc
 204              		@ args = 0, pretend = 0, frame = 0
 205              		@ frame_needed = 0, uses_anonymous_args = 0
 206              	.LVL21:
 207 0000 70B5     		push	{r4, r5, r6, lr}
 208              		.cfi_def_cfa_offset 16
ARM GAS  /tmp/ccTiCbBl.s 			page 30


 209              		.cfi_offset 4, -16
 210              		.cfi_offset 5, -12
 211              		.cfi_offset 6, -8
 212              		.cfi_offset 14, -4
 970:bluetooth_rxtx.c **** 		mdmctrl = 0x0029; // 160 kHz frequency deviation
 213              		.loc 1 970 0
 214 0002 2A4B     		ldr	r3, .L29
 967:bluetooth_rxtx.c **** 	u16 grmdm, mdmctrl;
 215              		.loc 1 967 0
 216 0004 0446     		mov	r4, r0
 970:bluetooth_rxtx.c **** 		mdmctrl = 0x0029; // 160 kHz frequency deviation
 217              		.loc 1 970 0
 218 0006 1A78     		ldrb	r2, [r3]	@ zero_extendqisi2
 219 0008 32B1     		cbz	r2, .L28
 981:bluetooth_rxtx.c **** 		mdmctrl = 0x0040; // 250 kHz frequency deviation
 220              		.loc 1 981 0
 221 000a 1B78     		ldrb	r3, [r3]	@ zero_extendqisi2
 222 000c 012B     		cmp	r3, #1
 223 000e 4BD1     		bne	.L21
 982:bluetooth_rxtx.c **** 		grmdm = 0x6561; // un-buffered mode, packet w/ sync word detection
 224              		.loc 1 982 0
 225 0010 4025     		movs	r5, #64
 983:bluetooth_rxtx.c **** 		// 0 11 00 1 010 11 0 00 0 1
 226              		.loc 1 983 0
 227 0012 46F26156 		movw	r6, #25953
 228 0016 02E0     		b	.L22
 229              	.L28:
 971:bluetooth_rxtx.c **** 		grmdm = 0x0461; // un-buffered mode, packet w/ sync word detection
 230              		.loc 1 971 0
 231 0018 2925     		movs	r5, #41
 972:bluetooth_rxtx.c **** 		// 0 00 00 1 000 11 0 00 0 1
 232              		.loc 1 972 0
 233 001a 40F26146 		movw	r6, #1121
 234              	.L22:
 235              	.LVL22:
 997:bluetooth_rxtx.c **** 	cc2400_set(LMTST,   0x2b22);
 236              		.loc 1 997 0
 237 001e 0D20     		movs	r0, #13
 238              	.LVL23:
 239 0020 47F6FF71 		movw	r1, #32767
 240 0024 FFF7FEFF 		bl	cc2400_set
 241              	.LVL24:
 998:bluetooth_rxtx.c **** 
 242              		.loc 1 998 0
 243 0028 1220     		movs	r0, #18
 244 002a 42F62231 		movw	r1, #11042
 245 002e FFF7FEFF 		bl	cc2400_set
 246              	.LVL25:
1000:bluetooth_rxtx.c **** 	//cc2400_set(MDMTST0, 0x124b);
 247              		.loc 1 1000 0
 248 0032 1420     		movs	r0, #20
 249 0034 41F24B01 		movw	r1, #4171
 250 0038 FFF7FEFF 		bl	cc2400_set
 251              	.LVL26:
1014:bluetooth_rxtx.c **** 
 252              		.loc 1 1014 0
 253 003c 2020     		movs	r0, #32
ARM GAS  /tmp/ccTiCbBl.s 			page 31


 254 003e 3146     		mov	r1, r6
 255 0040 FFF7FEFF 		bl	cc2400_set
 256              	.LVL27:
1016:bluetooth_rxtx.c **** 	cc2400_set(SYNCH,   (sync >> 16) & 0xffff);
 257              		.loc 1 1016 0
 258 0044 A1B2     		uxth	r1, r4
 259 0046 2C20     		movs	r0, #44
 260 0048 FFF7FEFF 		bl	cc2400_set
 261              	.LVL28:
1017:bluetooth_rxtx.c **** 
 262              		.loc 1 1017 0
 263 004c 210C     		lsrs	r1, r4, #16
1019:bluetooth_rxtx.c **** 	cc2400_set(MDMCTRL, mdmctrl);
 264              		.loc 1 1019 0
 265 004e 184C     		ldr	r4, .L29+4
 266              	.LVL29:
1017:bluetooth_rxtx.c **** 
 267              		.loc 1 1017 0
 268 0050 2D20     		movs	r0, #45
 269 0052 FFF7FEFF 		bl	cc2400_set
 270              	.LVL30:
1019:bluetooth_rxtx.c **** 	cc2400_set(MDMCTRL, mdmctrl);
 271              		.loc 1 1019 0
 272 0056 2188     		ldrh	r1, [r4]
 273 0058 0220     		movs	r0, #2
 274 005a 89B2     		uxth	r1, r1
 275 005c 0139     		subs	r1, r1, #1
 276 005e 89B2     		uxth	r1, r1
 277 0060 FFF7FEFF 		bl	cc2400_set
 278              	.LVL31:
1020:bluetooth_rxtx.c **** 
 279              		.loc 1 1020 0
 280 0064 0320     		movs	r0, #3
 281 0066 2946     		mov	r1, r5
 282 0068 FFF7FEFF 		bl	cc2400_set
 283              	.LVL32:
1023:bluetooth_rxtx.c **** 
 284              		.loc 1 1023 0
 285 006c 0620     		movs	r0, #6
 286 006e 3F21     		movs	r1, #63
 287 0070 FFF7FEFF 		bl	cc2400_set
 288              	.LVL33:
1026:bluetooth_rxtx.c **** 
 289              		.loc 1 1026 0
 290 0074 2088     		ldrh	r0, [r4]
 291 0076 80B2     		uxth	r0, r0
 292 0078 FFF7FEFF 		bl	cs_threshold_calc_and_set
 293              	.LVL34:
1028:bluetooth_rxtx.c **** 
 294              		.loc 1 1028 0
 295 007c FFF7FEFF 		bl	clkn_start
 296              	.LVL35:
 297              	.L25:
1030:bluetooth_rxtx.c **** 	cc2400_strobe(SFSON);
 298              		.loc 1 1030 0 discriminator 1
 299 0080 FFF7FEFF 		bl	cc2400_status
 300              	.LVL36:
ARM GAS  /tmp/ccTiCbBl.s 			page 32


 301 0084 4006     		lsls	r0, r0, #25
 302 0086 FBD5     		bpl	.L25
1031:bluetooth_rxtx.c **** 	while (!(cc2400_status() & FS_LOCK));
 303              		.loc 1 1031 0
 304 0088 6120     		movs	r0, #97
 305 008a FFF7FEFF 		bl	cc2400_strobe
 306              	.LVL37:
 307              	.L27:
1032:bluetooth_rxtx.c **** 	cc2400_strobe(SRX);
 308              		.loc 1 1032 0 discriminator 1
 309 008e FFF7FEFF 		bl	cc2400_status
 310              	.LVL38:
 311 0092 4107     		lsls	r1, r0, #29
 312 0094 FBD5     		bpl	.L27
1033:bluetooth_rxtx.c **** #ifdef UBERTOOTH_ONE
 313              		.loc 1 1033 0
 314 0096 6220     		movs	r0, #98
 315 0098 FFF7FEFF 		bl	cc2400_strobe
 316              	.LVL39:
1035:bluetooth_rxtx.c **** 	HGM_SET;
 317              		.loc 1 1035 0
 318 009c 054B     		ldr	r3, .L29+8
 319 009e 8022     		movs	r2, #128
 320 00a0 1A60     		str	r2, [r3]
1036:bluetooth_rxtx.c **** #endif
 321              		.loc 1 1036 0
 322 00a2 4FF48072 		mov	r2, #256
 323 00a6 1A60     		str	r2, [r3]
 324              	.LVL40:
 325              	.L21:
 326 00a8 70BD     		pop	{r4, r5, r6, pc}
 327              	.L30:
 328 00aa 00BF     		.align	2
 329              	.L29:
 330 00ac 00000000 		.word	.LANCHOR0
 331 00b0 00000000 		.word	.LANCHOR1
 332 00b4 58C00920 		.word	537509976
 333              		.cfi_endproc
 334              	.LFE10:
 336              		.section	.text.enqueue,"ax",%progbits
 337              		.align	1
 338              		.thumb
 339              		.thumb_func
 341              	enqueue:
 342              	.LFB0:
 133:bluetooth_rxtx.c **** 	usb_pkt_rx* f = usb_enqueue();
 343              		.loc 1 133 0
 344              		.cfi_startproc
 345              		@ args = 0, pretend = 0, frame = 0
 346              		@ frame_needed = 0, uses_anonymous_args = 0
 347              	.LVL41:
 348 0000 F8B5     		push	{r3, r4, r5, r6, r7, lr}
 349              		.cfi_def_cfa_offset 24
 350              		.cfi_offset 3, -24
 351              		.cfi_offset 4, -20
 352              		.cfi_offset 5, -16
 353              		.cfi_offset 6, -12
ARM GAS  /tmp/ccTiCbBl.s 			page 33


 354              		.cfi_offset 7, -8
 355              		.cfi_offset 14, -4
 133:bluetooth_rxtx.c **** 	usb_pkt_rx* f = usb_enqueue();
 356              		.loc 1 133 0
 357 0002 0646     		mov	r6, r0
 358 0004 0F46     		mov	r7, r1
 134:bluetooth_rxtx.c **** 	
 359              		.loc 1 134 0
 360 0006 FFF7FEFF 		bl	usb_enqueue
 361              	.LVL42:
 362 000a 1E4D     		ldr	r5, .L36
 137:bluetooth_rxtx.c **** 		status |= FIFO_OVERFLOW;
 363              		.loc 1 137 0
 364 000c 0446     		mov	r4, r0
 365 000e 20B9     		cbnz	r0, .L32
 138:bluetooth_rxtx.c **** 		return 0;
 366              		.loc 1 138 0
 367 0010 6B78     		ldrb	r3, [r5, #1]	@ zero_extendqisi2
 368 0012 43F00403 		orr	r3, r3, #4
 369 0016 6B70     		strb	r3, [r5, #1]
 139:bluetooth_rxtx.c **** 	}
 370              		.loc 1 139 0
 371 0018 F8BD     		pop	{r3, r4, r5, r6, r7, pc}
 372              	.LVL43:
 373              	.L32:
 143:bluetooth_rxtx.c **** 		f->clkn_high = (clkn >> 20) & 0xff;
 374              		.loc 1 143 0
 375 001a 042E     		cmp	r6, #4
 142:bluetooth_rxtx.c **** 	if(type == SPECAN) {
 376              		.loc 1 142 0
 377 001c 0670     		strb	r6, [r0]
 143:bluetooth_rxtx.c **** 		f->clkn_high = (clkn >> 20) & 0xff;
 378              		.loc 1 143 0
 379 001e 0ED1     		bne	.L34
 144:bluetooth_rxtx.c **** 		f->clk100ns = CLK100NS;
 380              		.loc 1 144 0
 381 0020 194B     		ldr	r3, .L36+4
 145:bluetooth_rxtx.c **** 	} else {
 382              		.loc 1 145 0
 383 0022 40F63541 		movw	r1, #3125
 144:bluetooth_rxtx.c **** 		f->clk100ns = CLK100NS;
 384              		.loc 1 144 0
 385 0026 1A68     		ldr	r2, [r3]
 386 0028 120D     		lsrs	r2, r2, #20
 387 002a C270     		strb	r2, [r0, #3]
 145:bluetooth_rxtx.c **** 	} else {
 388              		.loc 1 145 0
 389 002c 174A     		ldr	r2, .L36+8
 390 002e 1B68     		ldr	r3, [r3]
 391 0030 1268     		ldr	r2, [r2]
 392 0032 C3F31303 		ubfx	r3, r3, #0, #20
 393 0036 01FB0323 		mla	r3, r1, r3, r2
 394 003a 4360     		str	r3, [r0, #4]
 395 003c 15E0     		b	.L35
 396              	.L34:
 147:bluetooth_rxtx.c **** 		f->clk100ns = idle_buf_clk100ns;
 397              		.loc 1 147 0
ARM GAS  /tmp/ccTiCbBl.s 			page 34


 398 003e AB78     		ldrb	r3, [r5, #2]	@ zero_extendqisi2
 399 0040 C370     		strb	r3, [r0, #3]
 148:bluetooth_rxtx.c **** 		f->channel = (uint8_t)((idle_buf_channel - 2402) & 0xff);
 400              		.loc 1 148 0
 401 0042 6B68     		ldr	r3, [r5, #4]
 402 0044 4360     		str	r3, [r0, #4]
 149:bluetooth_rxtx.c **** 		f->rssi_min = rssi_min;
 403              		.loc 1 149 0
 404 0046 2B89     		ldrh	r3, [r5, #8]
 405 0048 9BB2     		uxth	r3, r3
 406 004a 623B     		subs	r3, r3, #98
 407 004c 8370     		strb	r3, [r0, #2]
 150:bluetooth_rxtx.c **** 		f->rssi_max = rssi_max;
 408              		.loc 1 150 0
 409 004e 104B     		ldr	r3, .L36+12
 410 0050 1B78     		ldrb	r3, [r3]	@ zero_extendqisi2
 411 0052 4372     		strb	r3, [r0, #9]
 151:bluetooth_rxtx.c **** 		f->rssi_avg = rssi_get_avg(idle_buf_channel);
 412              		.loc 1 151 0
 413 0054 0F4B     		ldr	r3, .L36+16
 414 0056 1B78     		ldrb	r3, [r3]	@ zero_extendqisi2
 415 0058 0372     		strb	r3, [r0, #8]
 152:bluetooth_rxtx.c **** 		f->rssi_count = rssi_count;
 416              		.loc 1 152 0
 417 005a 2889     		ldrh	r0, [r5, #8]
 418              	.LVL44:
 419 005c 80B2     		uxth	r0, r0
 420 005e FFF7FEFF 		bl	rssi_get_avg
 421              	.LVL45:
 153:bluetooth_rxtx.c **** 	}
 422              		.loc 1 153 0
 423 0062 0D4B     		ldr	r3, .L36+20
 152:bluetooth_rxtx.c **** 		f->rssi_count = rssi_count;
 424              		.loc 1 152 0
 425 0064 A072     		strb	r0, [r4, #10]
 153:bluetooth_rxtx.c **** 	}
 426              		.loc 1 153 0
 427 0066 1B78     		ldrb	r3, [r3]	@ zero_extendqisi2
 428 0068 E372     		strb	r3, [r4, #11]
 429              	.L35:
 156:bluetooth_rxtx.c **** 
 430              		.loc 1 156 0
 431 006a 04F10E00 		add	r0, r4, #14
 432 006e 3946     		mov	r1, r7
 433 0070 3222     		movs	r2, #50
 434 0072 FFF7FEFF 		bl	memcpy
 435              	.LVL46:
 158:bluetooth_rxtx.c **** 	status = 0;
 436              		.loc 1 158 0
 437 0076 6B78     		ldrb	r3, [r5, #1]	@ zero_extendqisi2
 161:bluetooth_rxtx.c **** }
 438              		.loc 1 161 0
 439 0078 0120     		movs	r0, #1
 158:bluetooth_rxtx.c **** 	status = 0;
 440              		.loc 1 158 0
 441 007a 6370     		strb	r3, [r4, #1]
 159:bluetooth_rxtx.c **** 
ARM GAS  /tmp/ccTiCbBl.s 			page 35


 442              		.loc 1 159 0
 443 007c 0023     		movs	r3, #0
 444 007e 6B70     		strb	r3, [r5, #1]
 162:bluetooth_rxtx.c **** 
 445              		.loc 1 162 0
 446 0080 F8BD     		pop	{r3, r4, r5, r6, r7, pc}
 447              	.LVL47:
 448              	.L37:
 449 0082 00BF     		.align	2
 450              	.L36:
 451 0084 00000000 		.word	.LANCHOR0
 452 0088 00000000 		.word	clkn
 453 008c 08400040 		.word	1073758216
 454 0090 00000000 		.word	rssi_min
 455 0094 00000000 		.word	rssi_max
 456 0098 00000000 		.word	rssi_count
 457              		.cfi_endproc
 458              	.LFE0:
 460              		.section	.text.le_set_access_address,"ax",%progbits
 461              		.align	1
 462              		.thumb
 463              		.thumb_func
 465              	le_set_access_address:
 466              	.LFB19:
1425:bluetooth_rxtx.c **** 
1426:bluetooth_rxtx.c **** static uint16_t reverse16(uint16_t data)
1427:bluetooth_rxtx.c **** {
1428:bluetooth_rxtx.c **** 	uint16_t reversed = 0;
1429:bluetooth_rxtx.c **** 
1430:bluetooth_rxtx.c **** 	for(size_t i=0; i<16; i++)
1431:bluetooth_rxtx.c **** 	{
1432:bluetooth_rxtx.c **** 		reversed |= ((data >> i) & 0x01) << (15-i);
1433:bluetooth_rxtx.c **** 	}
1434:bluetooth_rxtx.c **** 
1435:bluetooth_rxtx.c **** 	return reversed;
1436:bluetooth_rxtx.c **** }
1437:bluetooth_rxtx.c **** 
1438:bluetooth_rxtx.c **** /*
1439:bluetooth_rxtx.c ****  * Transmit a BTBR packet with the specified access code.
1440:bluetooth_rxtx.c ****  *
1441:bluetooth_rxtx.c ****  * All modulation parameters are set within this function.
1442:bluetooth_rxtx.c ****  */
1443:bluetooth_rxtx.c **** void br_transmit()
1444:bluetooth_rxtx.c **** {
1445:bluetooth_rxtx.c **** 	uint16_t gio_save;
1446:bluetooth_rxtx.c **** 
1447:bluetooth_rxtx.c **** 	uint32_t clkn_saved = 0;
1448:bluetooth_rxtx.c **** 
1449:bluetooth_rxtx.c **** 	uint16_t preamble = (target.syncword & 1) == 1 ? 0x5555 : 0xaaaa;
1450:bluetooth_rxtx.c **** 	uint8_t trailer = ((target.syncword >> 63) & 1) == 1 ? 0xaa : 0x55;
1451:bluetooth_rxtx.c **** 
1452:bluetooth_rxtx.c **** 	uint8_t data[16] = {
1453:bluetooth_rxtx.c **** 		reverse8((target.syncword >> 0) & 0xFF),
1454:bluetooth_rxtx.c **** 		reverse8((target.syncword >> 8) & 0xFF),
1455:bluetooth_rxtx.c **** 		reverse8((target.syncword >> 16) & 0xFF),
1456:bluetooth_rxtx.c **** 		reverse8((target.syncword >> 24) & 0xFF),
1457:bluetooth_rxtx.c **** 		reverse8((target.syncword >> 32) & 0xFF),
ARM GAS  /tmp/ccTiCbBl.s 			page 36


1458:bluetooth_rxtx.c **** 		reverse8((target.syncword >> 40) & 0xFF),
1459:bluetooth_rxtx.c **** 		reverse8((target.syncword >> 48) & 0xFF),
1460:bluetooth_rxtx.c **** 		reverse8((target.syncword >> 56) & 0xFF),
1461:bluetooth_rxtx.c **** 		reverse8(trailer),
1462:bluetooth_rxtx.c **** 		reverse8(0x77),
1463:bluetooth_rxtx.c **** 		reverse8(0x66),
1464:bluetooth_rxtx.c **** 		reverse8(0x55),
1465:bluetooth_rxtx.c **** 		reverse8(0x44),
1466:bluetooth_rxtx.c **** 		reverse8(0x33),
1467:bluetooth_rxtx.c **** 		reverse8(0x22),
1468:bluetooth_rxtx.c **** 		reverse8(0x11)
1469:bluetooth_rxtx.c **** 	};
1470:bluetooth_rxtx.c **** 
1471:bluetooth_rxtx.c **** 	cc2400_tx_sync(reverse16(preamble));
1472:bluetooth_rxtx.c **** 
1473:bluetooth_rxtx.c **** 	cc2400_set(INT,     0x0014);    // FIFO_THRESHOLD: 20 bytes
1474:bluetooth_rxtx.c **** 
1475:bluetooth_rxtx.c **** 	// set GIO to FIFO_FULL
1476:bluetooth_rxtx.c **** 	gio_save = cc2400_get(IOCFG);
1477:bluetooth_rxtx.c **** 	cc2400_set(IOCFG, (GIO_FIFO_FULL << 9) | (gio_save & 0x1ff));
1478:bluetooth_rxtx.c **** 
1479:bluetooth_rxtx.c **** 	while ( requested_mode == MODE_TX_SYMBOLS )
1480:bluetooth_rxtx.c **** 	{
1481:bluetooth_rxtx.c **** 
1482:bluetooth_rxtx.c **** 		while ((clkn >> 1) == (clkn_saved >> 1) || T0TC < 2250) {
1483:bluetooth_rxtx.c **** 
1484:bluetooth_rxtx.c **** 			// If timer says time to hop, do it.
1485:bluetooth_rxtx.c **** 			if (do_hop) {
1486:bluetooth_rxtx.c **** 				hop();
1487:bluetooth_rxtx.c **** 			}
1488:bluetooth_rxtx.c **** 		}
1489:bluetooth_rxtx.c **** 
1490:bluetooth_rxtx.c **** 		clkn_saved = clkn;
1491:bluetooth_rxtx.c **** 
1492:bluetooth_rxtx.c **** 		TXLED_SET;
1493:bluetooth_rxtx.c **** 
1494:bluetooth_rxtx.c **** 		cc2400_fifo_write(16, data);
1495:bluetooth_rxtx.c **** 
1496:bluetooth_rxtx.c **** 		while ((cc2400_get(FSMSTATE) & 0x1f) != STATE_STROBE_FS_ON);
1497:bluetooth_rxtx.c **** 		TXLED_CLR;
1498:bluetooth_rxtx.c **** 
1499:bluetooth_rxtx.c **** 		cc2400_strobe(SRFOFF);
1500:bluetooth_rxtx.c **** 		while ((cc2400_status() & FS_LOCK));
1501:bluetooth_rxtx.c **** 
1502:bluetooth_rxtx.c **** 		while (!(cc2400_status() & XOSC16M_STABLE));
1503:bluetooth_rxtx.c **** 		cc2400_strobe(SFSON);
1504:bluetooth_rxtx.c **** 		while (!(cc2400_status() & FS_LOCK));
1505:bluetooth_rxtx.c **** 
1506:bluetooth_rxtx.c **** 		while ((cc2400_get(FSMSTATE) & 0x1f) != STATE_STROBE_FS_ON);
1507:bluetooth_rxtx.c **** 		cc2400_strobe(STX);
1508:bluetooth_rxtx.c **** 
1509:bluetooth_rxtx.c **** 		handle_usb(clkn);
1510:bluetooth_rxtx.c **** 	}
1511:bluetooth_rxtx.c **** 
1512:bluetooth_rxtx.c **** #ifdef UBERTOOTH_ONE
1513:bluetooth_rxtx.c **** 	PAEN_CLR;
1514:bluetooth_rxtx.c **** #endif
ARM GAS  /tmp/ccTiCbBl.s 			page 37


1515:bluetooth_rxtx.c **** 
1516:bluetooth_rxtx.c **** 	// reset GIO
1517:bluetooth_rxtx.c **** 	cc2400_set(IOCFG, gio_save);
1518:bluetooth_rxtx.c **** }
1519:bluetooth_rxtx.c **** 
1520:bluetooth_rxtx.c **** /* set LE access address */
1521:bluetooth_rxtx.c **** static void le_set_access_address(u32 aa) {
 467              		.loc 1 1521 0
 468              		.cfi_startproc
 469              		@ args = 0, pretend = 0, frame = 0
 470              		@ frame_needed = 0, uses_anonymous_args = 0
 471              	.LVL48:
 472 0000 10B5     		push	{r4, lr}
 473              		.cfi_def_cfa_offset 8
 474              		.cfi_offset 4, -8
 475              		.cfi_offset 14, -4
1522:bluetooth_rxtx.c **** 	u32 aa_rev;
1523:bluetooth_rxtx.c **** 
1524:bluetooth_rxtx.c **** 	le.access_address = aa;
 476              		.loc 1 1524 0
 477 0002 044C     		ldr	r4, .L39
 478 0004 6060     		str	r0, [r4, #4]
1525:bluetooth_rxtx.c **** 	aa_rev = rbit(aa);
 479              		.loc 1 1525 0
 480 0006 FFF7FEFF 		bl	rbit
 481              	.LVL49:
1526:bluetooth_rxtx.c **** 	le.syncl = aa_rev & 0xffff;
 482              		.loc 1 1526 0
 483 000a 6081     		strh	r0, [r4, #10]	@ movhi
1527:bluetooth_rxtx.c **** 	le.synch = aa_rev >> 16;
 484              		.loc 1 1527 0
 485 000c 000C     		lsrs	r0, r0, #16
 486              	.LVL50:
 487 000e 2081     		strh	r0, [r4, #8]	@ movhi
 488 0010 10BD     		pop	{r4, pc}
 489              	.L40:
 490 0012 00BF     		.align	2
 491              	.L39:
 492 0014 00000000 		.word	.LANCHOR1
 493              		.cfi_endproc
 494              	.LFE19:
 496              		.section	.text.cc2400_idle,"ax",%progbits
 497              		.align	1
 498              		.thumb
 499              		.thumb_func
 501              	cc2400_idle:
 502              	.LFB8:
 873:bluetooth_rxtx.c **** 	cc2400_strobe(SRFOFF);
 503              		.loc 1 873 0
 504              		.cfi_startproc
 505              		@ args = 0, pretend = 0, frame = 0
 506              		@ frame_needed = 0, uses_anonymous_args = 0
 507 0000 10B5     		push	{r4, lr}
 508              		.cfi_def_cfa_offset 8
 509              		.cfi_offset 4, -8
 510              		.cfi_offset 14, -4
 874:bluetooth_rxtx.c **** 	while ((cc2400_status() & FS_LOCK)); // need to wait for unlock?
ARM GAS  /tmp/ccTiCbBl.s 			page 38


 511              		.loc 1 874 0
 512 0002 6420     		movs	r0, #100
 513 0004 FFF7FEFF 		bl	cc2400_strobe
 514              	.LVL51:
 515              	.L43:
 875:bluetooth_rxtx.c **** 
 516              		.loc 1 875 0 discriminator 1
 517 0008 FFF7FEFF 		bl	cc2400_status
 518              	.LVL52:
 519 000c 00F00400 		and	r0, r0, #4
 520 0010 00F0FF04 		and	r4, r0, #255
 521 0014 0028     		cmp	r0, #0
 522 0016 F7D1     		bne	.L43
 878:bluetooth_rxtx.c **** 	HGM_CLR;
 523              		.loc 1 878 0
 524 0018 204B     		ldr	r3, .L44
 525 001a 8022     		movs	r2, #128
 526 001c 1A60     		str	r2, [r3]
 882:bluetooth_rxtx.c **** 	TXLED_CLR;
 527              		.loc 1 882 0
 528 001e 1021     		movs	r1, #16
 879:bluetooth_rxtx.c **** #endif
 529              		.loc 1 879 0
 530 0020 4FF48072 		mov	r2, #256
 531 0024 1A60     		str	r2, [r3]
 882:bluetooth_rxtx.c **** 	TXLED_CLR;
 532              		.loc 1 882 0
 533 0026 43F8201C 		str	r1, [r3, #-32]
 883:bluetooth_rxtx.c **** 	USRLED_CLR;
 534              		.loc 1 883 0
 535 002a 43F8202C 		str	r2, [r3, #-32]
 884:bluetooth_rxtx.c **** 
 536              		.loc 1 884 0
 537 002e 0222     		movs	r2, #2
 538 0030 43F8202C 		str	r2, [r3, #-32]
 886:bluetooth_rxtx.c **** 	dio_ssp_stop();
 539              		.loc 1 886 0
 540 0034 FFF7FEFF 		bl	clkn_stop
 541              	.LVL53:
 887:bluetooth_rxtx.c **** 	cs_reset();
 542              		.loc 1 887 0
 543 0038 FFF7FEFF 		bl	dio_ssp_stop
 544              	.LVL54:
 888:bluetooth_rxtx.c **** 	rssi_reset();
 545              		.loc 1 888 0
 546 003c FFF7FEFF 		bl	cs_reset
 547              	.LVL55:
 889:bluetooth_rxtx.c **** 
 548              		.loc 1 889 0
 549 0040 FFF7FEFF 		bl	rssi_reset
 550              	.LVL56:
 892:bluetooth_rxtx.c **** 	do_hop = 0;
 551              		.loc 1 892 0
 552 0044 164B     		ldr	r3, .L44+4
 894:bluetooth_rxtx.c **** 	hop_direct_channel = 0;
 553              		.loc 1 894 0
 554 0046 174A     		ldr	r2, .L44+8
ARM GAS  /tmp/ccTiCbBl.s 			page 39


 555 0048 40F68911 		movw	r1, #2441
 892:bluetooth_rxtx.c **** 	do_hop = 0;
 556              		.loc 1 892 0
 557 004c 9C72     		strb	r4, [r3, #10]
 893:bluetooth_rxtx.c **** 	channel = 2441;
 558              		.loc 1 893 0
 559 004e DC72     		strb	r4, [r3, #11]
 894:bluetooth_rxtx.c **** 	hop_direct_channel = 0;
 560              		.loc 1 894 0
 561 0050 1180     		strh	r1, [r2]	@ movhi
 896:bluetooth_rxtx.c **** 	requested_channel = 0;
 562              		.loc 1 896 0
 563 0052 9E21     		movs	r1, #158
 895:bluetooth_rxtx.c **** 	hop_timeout = 158;
 564              		.loc 1 895 0
 565 0054 9C81     		strh	r4, [r3, #12]	@ movhi
 896:bluetooth_rxtx.c **** 	requested_channel = 0;
 566              		.loc 1 896 0
 567 0056 A2F84810 		strh	r1, [r2, #72]	@ movhi
 898:bluetooth_rxtx.c **** 
 568              		.loc 1 898 0
 569 005a 40F66211 		movw	r1, #2402
 897:bluetooth_rxtx.c **** 	le_adv_channel = 2402;
 570              		.loc 1 897 0
 571 005e DC81     		strh	r4, [r3, #14]	@ movhi
 898:bluetooth_rxtx.c **** 
 572              		.loc 1 898 0
 573 0060 A2F84A10 		strh	r1, [r2, #74]	@ movhi
 902:bluetooth_rxtx.c **** 	idle_buf_clk100ns = 0;
 574              		.loc 1 902 0
 575 0064 9C70     		strb	r4, [r3, #2]
 903:bluetooth_rxtx.c **** 	idle_buf_channel = 0;
 576              		.loc 1 903 0
 577 0066 5C60     		str	r4, [r3, #4]
 904:bluetooth_rxtx.c **** 	dma_discard = 0;
 578              		.loc 1 904 0
 579 0068 1C81     		strh	r4, [r3, #8]	@ movhi
 905:bluetooth_rxtx.c **** 	status = 0;
 580              		.loc 1 905 0
 581 006a 1C74     		strb	r4, [r3, #16]
 906:bluetooth_rxtx.c **** 
 582              		.loc 1 906 0
 583 006c 5C70     		strb	r4, [r3, #1]
 909:bluetooth_rxtx.c **** 	requested_mode = MODE_IDLE;
 584              		.loc 1 909 0
 585 006e 5C74     		strb	r4, [r3, #17]
 910:bluetooth_rxtx.c **** 	jam_mode = JAM_NONE;
 586              		.loc 1 910 0
 587 0070 9C74     		strb	r4, [r3, #18]
 911:bluetooth_rxtx.c **** 	ego_mode = EGO_FOLLOW;
 588              		.loc 1 911 0
 589 0072 DC74     		strb	r4, [r3, #19]
 912:bluetooth_rxtx.c **** 
 590              		.loc 1 912 0
 591 0074 1C75     		strb	r4, [r3, #20]
 914:bluetooth_rxtx.c **** 
 592              		.loc 1 914 0
ARM GAS  /tmp/ccTiCbBl.s 			page 40


 593 0076 1C70     		strb	r4, [r3]
 917:bluetooth_rxtx.c **** 	high_freq = 2483;
 594              		.loc 1 917 0
 595 0078 4FF41663 		mov	r3, #2400
 596 007c A2F84C30 		strh	r3, [r2, #76]	@ movhi
 918:bluetooth_rxtx.c **** 	rssi_threshold = -30;
 597              		.loc 1 918 0
 598 0080 5333     		adds	r3, r3, #83
 599 0082 A2F84E30 		strh	r3, [r2, #78]	@ movhi
 921:bluetooth_rxtx.c **** 	target.syncword = 0;
 600              		.loc 1 921 0
 601 0086 0849     		ldr	r1, .L44+12
 919:bluetooth_rxtx.c **** 
 602              		.loc 1 919 0
 603 0088 E223     		movs	r3, #226
 604 008a 82F85030 		strb	r3, [r2, #80]
 921:bluetooth_rxtx.c **** 	target.syncword = 0;
 605              		.loc 1 921 0
 606 008e 0022     		movs	r2, #0
 607 0090 0023     		movs	r3, #0
 608 0092 C1E90023 		strd	r2, [r1]
 922:bluetooth_rxtx.c **** }
 609              		.loc 1 922 0
 610 0096 C1E90223 		strd	r2, [r1, #8]
 611 009a 10BD     		pop	{r4, pc}
 612              	.L45:
 613              		.align	2
 614              	.L44:
 615 009c 5CC00920 		.word	537509980
 616 00a0 00000000 		.word	.LANCHOR0
 617 00a4 00000000 		.word	.LANCHOR1
 618 00a8 00000000 		.word	target
 619              		.cfi_endproc
 620              	.LFE8:
 622              		.section	.text.cb_follow_le,"ax",%progbits
 623              		.align	1
 624              		.global	cb_follow_le
 625              		.thumb
 626              		.thumb_func
 628              	cb_follow_le:
 629              	.LFB26:
1528:bluetooth_rxtx.c **** }
1529:bluetooth_rxtx.c **** 
1530:bluetooth_rxtx.c **** /* reset le state, called by bt_generic_le and bt_follow_le() */
1531:bluetooth_rxtx.c **** void reset_le() {
1532:bluetooth_rxtx.c **** 	le_set_access_address(0x8e89bed6);     // advertising channel access address
1533:bluetooth_rxtx.c **** 	le.crc_init  = 0x555555;               // advertising channel CRCInit
1534:bluetooth_rxtx.c **** 	le.crc_init_reversed = 0xAAAAAA;
1535:bluetooth_rxtx.c **** 	//JWHUR crc verify on
1536:bluetooth_rxtx.c **** 	le.crc_verify = 1;
1537:bluetooth_rxtx.c **** 	le.last_packet = 0;
1538:bluetooth_rxtx.c **** 
1539:bluetooth_rxtx.c **** 	le.link_state = LINK_INACTIVE;
1540:bluetooth_rxtx.c **** 
1541:bluetooth_rxtx.c **** 	le.channel_idx = 0;
1542:bluetooth_rxtx.c **** 	le.channel_increment = 0;
1543:bluetooth_rxtx.c **** 
ARM GAS  /tmp/ccTiCbBl.s 			page 41


1544:bluetooth_rxtx.c **** 	le.conn_epoch = 0;
1545:bluetooth_rxtx.c **** 	le.interval_timer = 0;
1546:bluetooth_rxtx.c **** 	le.conn_interval = 0;
1547:bluetooth_rxtx.c **** 	le.conn_interval = 0;
1548:bluetooth_rxtx.c **** 	le.conn_count = 0;
1549:bluetooth_rxtx.c **** 
1550:bluetooth_rxtx.c **** 	le.win_size = 0;
1551:bluetooth_rxtx.c **** 	le.win_offset = 0;
1552:bluetooth_rxtx.c **** 
1553:bluetooth_rxtx.c **** 	le.update_pending = 0;
1554:bluetooth_rxtx.c **** 	le.update_instant = 0;
1555:bluetooth_rxtx.c **** 	le.interval_update = 0;
1556:bluetooth_rxtx.c **** 	le.win_size_update = 0;
1557:bluetooth_rxtx.c **** 	le.win_offset_update = 0;
1558:bluetooth_rxtx.c **** 
1559:bluetooth_rxtx.c **** 	do_hop = 0;
1560:bluetooth_rxtx.c **** }
1561:bluetooth_rxtx.c **** 
1562:bluetooth_rxtx.c **** // reset LE Promisc state
1563:bluetooth_rxtx.c **** void reset_le_promisc(void) {
1564:bluetooth_rxtx.c **** 	memset(&le_promisc, 0, sizeof(le_promisc));
1565:bluetooth_rxtx.c **** 	le_promisc.smallest_hop_interval = 0xffffffff;
1566:bluetooth_rxtx.c **** }
1567:bluetooth_rxtx.c **** 
1568:bluetooth_rxtx.c **** /* generic le mode */
1569:bluetooth_rxtx.c **** void bt_generic_le(u8 active_mode)
1570:bluetooth_rxtx.c **** {
1571:bluetooth_rxtx.c **** 	u8 hold;
1572:bluetooth_rxtx.c **** 	int i, j;
1573:bluetooth_rxtx.c **** 	int8_t rssi, rssi_at_trigger;
1574:bluetooth_rxtx.c **** 
1575:bluetooth_rxtx.c **** 	modulation = MOD_BT_LOW_ENERGY;
1576:bluetooth_rxtx.c **** 	mode = active_mode;
1577:bluetooth_rxtx.c **** 
1578:bluetooth_rxtx.c **** 	reset_le();
1579:bluetooth_rxtx.c **** 
1580:bluetooth_rxtx.c **** 	// enable USB interrupts
1581:bluetooth_rxtx.c **** 	ISER0 = ISER0_ISE_USB;
1582:bluetooth_rxtx.c **** 
1583:bluetooth_rxtx.c **** 	RXLED_CLR;
1584:bluetooth_rxtx.c **** 
1585:bluetooth_rxtx.c **** 	queue_init();
1586:bluetooth_rxtx.c **** 	dio_ssp_init();
1587:bluetooth_rxtx.c **** 	dma_init();
1588:bluetooth_rxtx.c **** 	dio_ssp_start();
1589:bluetooth_rxtx.c **** 	cc2400_rx();
1590:bluetooth_rxtx.c **** 
1591:bluetooth_rxtx.c **** 	cs_trigger_enable();
1592:bluetooth_rxtx.c **** 
1593:bluetooth_rxtx.c **** 	hold = 0;
1594:bluetooth_rxtx.c **** 
1595:bluetooth_rxtx.c **** 	while (requested_mode == active_mode) {
1596:bluetooth_rxtx.c **** 		if (requested_channel != 0) {
1597:bluetooth_rxtx.c **** 			cc2400_strobe(SRFOFF);
1598:bluetooth_rxtx.c **** 			while ((cc2400_status() & FS_LOCK)); // need to wait for unlock?
1599:bluetooth_rxtx.c **** 
1600:bluetooth_rxtx.c **** 			/* Retune */
ARM GAS  /tmp/ccTiCbBl.s 			page 42


1601:bluetooth_rxtx.c **** 			cc2400_set(FSDIV, channel - 1);
1602:bluetooth_rxtx.c **** 
1603:bluetooth_rxtx.c **** 			/* Wait for lock */
1604:bluetooth_rxtx.c **** 			cc2400_strobe(SFSON);
1605:bluetooth_rxtx.c **** 			while (!(cc2400_status() & FS_LOCK));
1606:bluetooth_rxtx.c **** 
1607:bluetooth_rxtx.c **** 			/* RX mode */
1608:bluetooth_rxtx.c **** 			cc2400_strobe(SRX);
1609:bluetooth_rxtx.c **** 
1610:bluetooth_rxtx.c **** 			requested_channel = 0;
1611:bluetooth_rxtx.c **** 		}
1612:bluetooth_rxtx.c **** 
1613:bluetooth_rxtx.c **** 		if (do_hop) {
1614:bluetooth_rxtx.c **** 			hop();
1615:bluetooth_rxtx.c **** 		} else {
1616:bluetooth_rxtx.c **** 			TXLED_CLR;
1617:bluetooth_rxtx.c **** 		}
1618:bluetooth_rxtx.c **** 
1619:bluetooth_rxtx.c **** 		RXLED_CLR;
1620:bluetooth_rxtx.c **** 
1621:bluetooth_rxtx.c **** 		/* Wait for DMA. Meanwhile keep track of RSSI. */
1622:bluetooth_rxtx.c **** 		rssi_reset();
1623:bluetooth_rxtx.c **** 		rssi_at_trigger = INT8_MIN;
1624:bluetooth_rxtx.c **** 		while ((rx_tc == 0) && (rx_err == 0))
1625:bluetooth_rxtx.c **** 		{
1626:bluetooth_rxtx.c **** 			rssi = (int8_t)(cc2400_get(RSSI) >> 8);
1627:bluetooth_rxtx.c **** 			if (cs_trigger && (rssi_at_trigger == INT8_MIN)) {
1628:bluetooth_rxtx.c **** 				rssi = MAX(rssi,(cs_threshold_cur+54));
1629:bluetooth_rxtx.c **** 				rssi_at_trigger = rssi;
1630:bluetooth_rxtx.c **** 			}
1631:bluetooth_rxtx.c **** 			rssi_add(rssi);
1632:bluetooth_rxtx.c **** 		}
1633:bluetooth_rxtx.c **** 
1634:bluetooth_rxtx.c **** 		if (rx_err) {
1635:bluetooth_rxtx.c **** 			status |= DMA_ERROR;
1636:bluetooth_rxtx.c **** 		}
1637:bluetooth_rxtx.c **** 
1638:bluetooth_rxtx.c **** 		/* No DMA transfer? */
1639:bluetooth_rxtx.c **** 		if (!rx_tc)
1640:bluetooth_rxtx.c **** 			goto rx_continue;
1641:bluetooth_rxtx.c **** 
1642:bluetooth_rxtx.c **** 		/* Missed a DMA trasfer? */
1643:bluetooth_rxtx.c **** 		if (rx_tc > 1)
1644:bluetooth_rxtx.c **** 			status |= DMA_OVERFLOW;
1645:bluetooth_rxtx.c **** 
1646:bluetooth_rxtx.c **** 		rssi_iir_update(channel);
1647:bluetooth_rxtx.c **** 
1648:bluetooth_rxtx.c **** 		/* Set squelch hold if there was either a CS trigger, squelch
1649:bluetooth_rxtx.c **** 		 * is disabled, or if the current rssi_max is above the same
1650:bluetooth_rxtx.c **** 		 * threshold. Currently, this is redundant, but allows for
1651:bluetooth_rxtx.c **** 		 * per-channel or other rssi triggers in the future. */
1652:bluetooth_rxtx.c **** 		if (cs_trigger || cs_no_squelch) {
1653:bluetooth_rxtx.c **** 			status |= CS_TRIGGER;
1654:bluetooth_rxtx.c **** 			hold = CS_HOLD_TIME;
1655:bluetooth_rxtx.c **** 			cs_trigger = 0;
1656:bluetooth_rxtx.c **** 		}
1657:bluetooth_rxtx.c **** 
ARM GAS  /tmp/ccTiCbBl.s 			page 43


1658:bluetooth_rxtx.c **** 		if (rssi_max >= (cs_threshold_cur + 54)) {
1659:bluetooth_rxtx.c **** 			status |= RSSI_TRIGGER;
1660:bluetooth_rxtx.c **** 			hold = CS_HOLD_TIME;
1661:bluetooth_rxtx.c **** 		}
1662:bluetooth_rxtx.c **** 
1663:bluetooth_rxtx.c **** 		/* Hold expired? Ignore data. */
1664:bluetooth_rxtx.c **** 		if (hold == 0) {
1665:bluetooth_rxtx.c **** 			goto rx_continue;
1666:bluetooth_rxtx.c **** 		}
1667:bluetooth_rxtx.c **** 		hold--;
1668:bluetooth_rxtx.c **** 
1669:bluetooth_rxtx.c **** 		// copy the previously unpacked symbols to the front of the buffer
1670:bluetooth_rxtx.c **** 		memcpy(unpacked, unpacked + DMA_SIZE*8, DMA_SIZE*8);
1671:bluetooth_rxtx.c **** 
1672:bluetooth_rxtx.c **** 		// unpack the new packet to the end of the buffer
1673:bluetooth_rxtx.c **** 		for (i = 0; i < DMA_SIZE; ++i) {
1674:bluetooth_rxtx.c **** 			/* output one byte for each received symbol (0x00 or 0x01) */
1675:bluetooth_rxtx.c **** 			for (j = 0; j < 8; ++j) {
1676:bluetooth_rxtx.c **** 				unpacked[DMA_SIZE*8 + i * 8 + j] = (idle_rxbuf[i] & 0x80) >> 7;
1677:bluetooth_rxtx.c **** 				idle_rxbuf[i] <<= 1;
1678:bluetooth_rxtx.c **** 			}
1679:bluetooth_rxtx.c **** 		}
1680:bluetooth_rxtx.c **** 
1681:bluetooth_rxtx.c **** 		int ret = data_cb(unpacked);
1682:bluetooth_rxtx.c **** 		if (!ret) break;
1683:bluetooth_rxtx.c **** 
1684:bluetooth_rxtx.c **** 	rx_continue:
1685:bluetooth_rxtx.c **** 		rx_tc = 0;
1686:bluetooth_rxtx.c **** 		rx_err = 0;
1687:bluetooth_rxtx.c **** 	}
1688:bluetooth_rxtx.c **** 
1689:bluetooth_rxtx.c **** 	// disable USB interrupts
1690:bluetooth_rxtx.c **** 	ICER0 = ICER0_ICE_USB;
1691:bluetooth_rxtx.c **** 
1692:bluetooth_rxtx.c **** 	// reset the radio completely
1693:bluetooth_rxtx.c **** 	cc2400_idle();
1694:bluetooth_rxtx.c **** 	dio_ssp_stop();
1695:bluetooth_rxtx.c **** 	cs_trigger_disable();
1696:bluetooth_rxtx.c **** }
1697:bluetooth_rxtx.c **** 
1698:bluetooth_rxtx.c **** //JWHUR rssi tracking
1699:bluetooth_rxtx.c **** void bt_le_sync_rssi(u8 active_mode) 
1700:bluetooth_rxtx.c **** {
1701:bluetooth_rxtx.c **** 	int i;
1702:bluetooth_rxtx.c **** 	int8_t rssi;
1703:bluetooth_rxtx.c **** 	// channel 37 = 2402, channel 38 = 2426, channel 39 = 2480
1704:bluetooth_rxtx.c **** 	static int restart_jamming = 0;
1705:bluetooth_rxtx.c **** 	u8 rssi_buf[DMA_SIZE] = {0, };
1706:bluetooth_rxtx.c **** 
1707:bluetooth_rxtx.c **** 	if (start_sync >= ((uint32_t)1<<28)) {
1708:bluetooth_rxtx.c **** 		start_sync -= ((uint32_t)1<<28);
1709:bluetooth_rxtx.c **** 		while ((clkn & 0xffffff) >= now_sync || (clkn & 0xffffff) < start_sync);
1710:bluetooth_rxtx.c **** 	} else {
1711:bluetooth_rxtx.c **** 		while ((clkn & 0xffffff) < start_sync);
1712:bluetooth_rxtx.c **** 	}
1713:bluetooth_rxtx.c **** 
1714:bluetooth_rxtx.c **** 	// rssi sampling for only 100 ms
ARM GAS  /tmp/ccTiCbBl.s 			page 44


1715:bluetooth_rxtx.c **** 	uint32_t now = (clkn & 0xffffff);
1716:bluetooth_rxtx.c **** 	uint32_t stop_at = now + 100 * 10000 / 3125; // millis -> clkn ticks
1717:bluetooth_rxtx.c **** 	int overflow = 0;
1718:bluetooth_rxtx.c **** 	// handle clkn overflow
1719:bluetooth_rxtx.c **** 	if (stop_at >= ((uint32_t)1<<28)) {
1720:bluetooth_rxtx.c **** 		stop_at -= ((uint32_t)1<<28);
1721:bluetooth_rxtx.c **** 		overflow = 1;
1722:bluetooth_rxtx.c **** 	}
1723:bluetooth_rxtx.c **** 
1724:bluetooth_rxtx.c **** 	modulation = MOD_BT_LOW_ENERGY;
1725:bluetooth_rxtx.c **** 	requested_mode = active_mode;
1726:bluetooth_rxtx.c **** 	mode = active_mode;
1727:bluetooth_rxtx.c **** 
1728:bluetooth_rxtx.c **** 	le.link_state = LINK_LISTENING;
1729:bluetooth_rxtx.c **** 
1730:bluetooth_rxtx.c **** 	ISER0 = ISER0_ISE_USB;
1731:bluetooth_rxtx.c **** 	RXLED_CLR;
1732:bluetooth_rxtx.c **** 	queue_init();
1733:bluetooth_rxtx.c **** 	dio_ssp_init();
1734:bluetooth_rxtx.c **** 	dma_init_le();
1735:bluetooth_rxtx.c **** 	dio_ssp_start();
1736:bluetooth_rxtx.c **** 
1737:bluetooth_rxtx.c **** 	cc2400_rx_sync(rbit(le.access_address));
1738:bluetooth_rxtx.c **** 
1739:bluetooth_rxtx.c **** 	while (requested_mode == active_mode) {
1740:bluetooth_rxtx.c **** 		if (requested_channel != 0) {
1741:bluetooth_rxtx.c **** 			cc2400_strobe(SRFOFF);
1742:bluetooth_rxtx.c **** 			while ((cc2400_status() & FS_LOCK));
1743:bluetooth_rxtx.c **** 			cc2400_set(FSDIV, channel);
1744:bluetooth_rxtx.c **** 			cc2400_strobe(SFSON);
1745:bluetooth_rxtx.c **** 			while (!(cc2400_status() & FS_LOCK));
1746:bluetooth_rxtx.c **** 			cc2400_strobe(SRX);
1747:bluetooth_rxtx.c **** 			requested_channel = 0;
1748:bluetooth_rxtx.c **** 		}
1749:bluetooth_rxtx.c **** 		RXLED_CLR;
1750:bluetooth_rxtx.c **** 		if (requested_mode != active_mode) {
1751:bluetooth_rxtx.c **** 			goto cleanup;
1752:bluetooth_rxtx.c **** 		}
1753:bluetooth_rxtx.c **** 
1754:bluetooth_rxtx.c **** 		//JWHUR buffering time information
1755:bluetooth_rxtx.c **** 		u32 time_buf1[16] = {0, };
1756:bluetooth_rxtx.c **** 		u32 time_buf2[16] = {0, };
1757:bluetooth_rxtx.c **** 		u32 time_buf3[16] = {0, };
1758:bluetooth_rxtx.c **** 		u32 time_buf4[16] = {0, };
1759:bluetooth_rxtx.c **** 		for (i = 0; i < DMA_SIZE; i++) {
1760:bluetooth_rxtx.c **** 			if (i<16) time_buf1[i] = CLK100NS;
1761:bluetooth_rxtx.c **** 			if (15<i && i<32) time_buf2[i-16] = CLK100NS;
1762:bluetooth_rxtx.c **** 			if (31<i && i<48) time_buf3[i-32] = CLK100NS;
1763:bluetooth_rxtx.c **** 			if (47<i) time_buf4[i-48] = CLK100NS;
1764:bluetooth_rxtx.c **** 			rssi_buf[i] = (u8)(cc2400_get(RSSI) >> 8);
1765:bluetooth_rxtx.c **** 			volatile u32 j = 598; while (--j); // empty for loop ~= 70ns, 598 empty while loop ~= 41.8us, 24
1766:bluetooth_rxtx.c **** 		}
1767:bluetooth_rxtx.c **** 
1768:bluetooth_rxtx.c **** 		RXLED_SET;
1769:bluetooth_rxtx.c **** 
1770:bluetooth_rxtx.c **** 		ICER0 = ICER0_ICE_USB;
1771:bluetooth_rxtx.c **** 		enqueue_with_ts(RSSI_TRACK, (uint8_t *)rssi_buf, CLK100NS);
ARM GAS  /tmp/ccTiCbBl.s 			page 45


1772:bluetooth_rxtx.c **** 		enqueue_time((uint8_t *) time_buf1);
1773:bluetooth_rxtx.c **** 		enqueue_time((uint8_t *) time_buf2);
1774:bluetooth_rxtx.c **** 		enqueue_time((uint8_t *) time_buf3);
1775:bluetooth_rxtx.c **** 		enqueue_time((uint8_t *) time_buf4);
1776:bluetooth_rxtx.c **** 		ISER0 = ISER0_ISE_USB;
1777:bluetooth_rxtx.c **** 	
1778:bluetooth_rxtx.c **** 		if (overflow == 0) {
1779:bluetooth_rxtx.c **** 			if ((clkn & 0xffffff) > stop_at)
1780:bluetooth_rxtx.c **** 				goto cleanup;
1781:bluetooth_rxtx.c **** 		} else {
1782:bluetooth_rxtx.c **** 			if ((clkn & 0xffffff) < now_sync && (clkn & 0xffffff) > stop_at)
1783:bluetooth_rxtx.c **** 				goto cleanup;
1784:bluetooth_rxtx.c **** 		}
1785:bluetooth_rxtx.c **** 	
1786:bluetooth_rxtx.c **** 	}
1787:bluetooth_rxtx.c **** cleanup:
1788:bluetooth_rxtx.c **** 	ICER0 = ICER0_ICE_USB;
1789:bluetooth_rxtx.c **** 	cc2400_idle();
1790:bluetooth_rxtx.c **** 	dio_ssp_stop ();
1791:bluetooth_rxtx.c **** 	cs_trigger_disable();
1792:bluetooth_rxtx.c **** }
1793:bluetooth_rxtx.c **** 
1794:bluetooth_rxtx.c **** 
1795:bluetooth_rxtx.c **** void bt_le_sync(u8 active_mode)
1796:bluetooth_rxtx.c **** {
1797:bluetooth_rxtx.c **** 	int i;
1798:bluetooth_rxtx.c **** 	int8_t rssi;
1799:bluetooth_rxtx.c **** 	static int restart_jamming = 0;
1800:bluetooth_rxtx.c **** 	int sync_flag = 0; //JWHUR to detect packet with pdu sync
1801:bluetooth_rxtx.c **** 
1802:bluetooth_rxtx.c **** 	modulation = MOD_BT_LOW_ENERGY;
1803:bluetooth_rxtx.c **** 	mode = active_mode;
1804:bluetooth_rxtx.c **** 
1805:bluetooth_rxtx.c **** 	le.link_state = LINK_LISTENING;
1806:bluetooth_rxtx.c **** 
1807:bluetooth_rxtx.c **** 	// enable USB interrupts
1808:bluetooth_rxtx.c **** 	ISER0 = ISER0_ISE_USB;
1809:bluetooth_rxtx.c **** 
1810:bluetooth_rxtx.c **** 	RXLED_CLR;
1811:bluetooth_rxtx.c **** 
1812:bluetooth_rxtx.c **** 	queue_init();
1813:bluetooth_rxtx.c **** 	dio_ssp_init();
1814:bluetooth_rxtx.c **** 	dma_init_le();
1815:bluetooth_rxtx.c **** 	dio_ssp_start();
1816:bluetooth_rxtx.c **** 
1817:bluetooth_rxtx.c **** 	cc2400_rx_sync(rbit(le.access_address)); // bit-reversed access address
1818:bluetooth_rxtx.c **** 
1819:bluetooth_rxtx.c **** 	while (requested_mode == active_mode) {
1820:bluetooth_rxtx.c **** 		if (requested_channel != 0) {
1821:bluetooth_rxtx.c **** 			cc2400_strobe(SRFOFF);
1822:bluetooth_rxtx.c **** 			while ((cc2400_status() & FS_LOCK)); // need to wait for unlock?
1823:bluetooth_rxtx.c **** 
1824:bluetooth_rxtx.c **** 			/* Retune */
1825:bluetooth_rxtx.c **** 			cc2400_set(FSDIV, channel - 1);
1826:bluetooth_rxtx.c **** 
1827:bluetooth_rxtx.c **** 			/* Wait for lock */
1828:bluetooth_rxtx.c **** 			cc2400_strobe(SFSON);
ARM GAS  /tmp/ccTiCbBl.s 			page 46


1829:bluetooth_rxtx.c **** 			while (!(cc2400_status() & FS_LOCK));
1830:bluetooth_rxtx.c **** 
1831:bluetooth_rxtx.c **** 			/* RX mode */
1832:bluetooth_rxtx.c **** 			cc2400_strobe(SRX);
1833:bluetooth_rxtx.c **** 
1834:bluetooth_rxtx.c **** 			requested_channel = 0;
1835:bluetooth_rxtx.c **** 		}
1836:bluetooth_rxtx.c **** 
1837:bluetooth_rxtx.c **** 		RXLED_CLR;
1838:bluetooth_rxtx.c **** 
1839:bluetooth_rxtx.c **** 		/* Wait for DMA. Meanwhile keep track of RSSI. */
1840:bluetooth_rxtx.c **** 		rssi_reset();
1841:bluetooth_rxtx.c **** 		while ((rx_tc == 0) && (rx_err == 0) && (do_hop == 0) && requested_mode == active_mode)	;
1842:bluetooth_rxtx.c **** 
1843:bluetooth_rxtx.c **** 		rssi = (int8_t)(cc2400_get(RSSI) >> 8);
1844:bluetooth_rxtx.c **** 		rssi_min = rssi_max = rssi;
1845:bluetooth_rxtx.c **** 
1846:bluetooth_rxtx.c **** 		if (requested_mode != active_mode) {
1847:bluetooth_rxtx.c **** 			goto cleanup;
1848:bluetooth_rxtx.c **** 		}
1849:bluetooth_rxtx.c **** 
1850:bluetooth_rxtx.c **** 		if (rx_err) {
1851:bluetooth_rxtx.c **** 			status |= DMA_ERROR;
1852:bluetooth_rxtx.c **** 		}
1853:bluetooth_rxtx.c **** 
1854:bluetooth_rxtx.c **** 		if (do_hop)
1855:bluetooth_rxtx.c **** 			goto rx_flush;
1856:bluetooth_rxtx.c **** 
1857:bluetooth_rxtx.c **** 		/* No DMA transfer? */
1858:bluetooth_rxtx.c **** 		if (!rx_tc)
1859:bluetooth_rxtx.c **** 			continue;
1860:bluetooth_rxtx.c **** 
1861:bluetooth_rxtx.c **** 		/////////////////////
1862:bluetooth_rxtx.c **** 		// process the packet
1863:bluetooth_rxtx.c **** 
1864:bluetooth_rxtx.c **** 		uint32_t packet[48/4+1] = { 0, };
1865:bluetooth_rxtx.c **** 		u8 *p = (u8 *)packet;
1866:bluetooth_rxtx.c **** 		packet[0] = le.access_address;
1867:bluetooth_rxtx.c **** 
1868:bluetooth_rxtx.c **** 		const uint32_t *whit = whitening_word[btle_channel_index(channel-2402)];
1869:bluetooth_rxtx.c **** 		for (i = 0; i < 4; i+= 4) {
1870:bluetooth_rxtx.c **** 			uint32_t v = rxbuf1[i+0] << 24
1871:bluetooth_rxtx.c **** 					   | rxbuf1[i+1] << 16
1872:bluetooth_rxtx.c **** 					   | rxbuf1[i+2] << 8
1873:bluetooth_rxtx.c **** 					   | rxbuf1[i+3] << 0;
1874:bluetooth_rxtx.c **** 			packet[i/4+1] = rbit(v) ^ whit[i/4];
1875:bluetooth_rxtx.c **** 		}
1876:bluetooth_rxtx.c **** 
1877:bluetooth_rxtx.c **** 		unsigned len = (p[5] & 0x3f) + 2;
1878:bluetooth_rxtx.c **** 		if (len > 39)
1879:bluetooth_rxtx.c **** 			goto rx_flush;
1880:bluetooth_rxtx.c **** 
1881:bluetooth_rxtx.c **** 		// transfer the minimum number of bytes from the CC2400
1882:bluetooth_rxtx.c **** 		// this allows us enough time to resume RX for subsequent packets on the same channel
1883:bluetooth_rxtx.c **** 		unsigned total_transfers = ((len + 3) + 4 - 1) / 4;
1884:bluetooth_rxtx.c **** 		if (total_transfers < 11) {
1885:bluetooth_rxtx.c **** 			while (DMACC0DestAddr < (uint32_t)rxbuf1 + 4 * total_transfers && rx_err == 0)
ARM GAS  /tmp/ccTiCbBl.s 			page 47


1886:bluetooth_rxtx.c **** 				;
1887:bluetooth_rxtx.c **** 		} else { // max transfers? just wait till DMA's done
1888:bluetooth_rxtx.c **** 			while (DMACC0Config & DMACCxConfig_E && rx_err == 0)
1889:bluetooth_rxtx.c **** 				;
1890:bluetooth_rxtx.c **** 		}
1891:bluetooth_rxtx.c **** 		DIO_SSP_DMACR &= ~SSPDMACR_RXDMAE;
1892:bluetooth_rxtx.c **** 
1893:bluetooth_rxtx.c **** 		// strobe SFSON to allow the resync to occur while we process the packet
1894:bluetooth_rxtx.c **** 		cc2400_strobe(SFSON);
1895:bluetooth_rxtx.c **** 
1896:bluetooth_rxtx.c **** 		// unwhiten the rest of the packet
1897:bluetooth_rxtx.c **** 		for (i = 4; i < 44; i += 4) {
1898:bluetooth_rxtx.c **** 			uint32_t v = rxbuf1[i+0] << 24
1899:bluetooth_rxtx.c **** 					   | rxbuf1[i+1] << 16
1900:bluetooth_rxtx.c **** 					   | rxbuf1[i+2] << 8
1901:bluetooth_rxtx.c **** 					   | rxbuf1[i+3] << 0;
1902:bluetooth_rxtx.c **** 			packet[i/4+1] = rbit(v) ^ whit[i/4];
1903:bluetooth_rxtx.c **** 		}
1904:bluetooth_rxtx.c **** 
1905:bluetooth_rxtx.c **** 		if (le.crc_verify) {
1906:bluetooth_rxtx.c **** 			u32 calc_crc = btle_crcgen_lut(le.crc_init_reversed, p + 4, len);
1907:bluetooth_rxtx.c **** 			u32 wire_crc = (p[4+len+2] << 16)
1908:bluetooth_rxtx.c **** 						 | (p[4+len+1] << 8)
1909:bluetooth_rxtx.c **** 						 | (p[4+len+0] << 0);
1910:bluetooth_rxtx.c **** 			if (calc_crc != wire_crc) // skip packets with a bad CRC
1911:bluetooth_rxtx.c **** 				goto rx_flush;
1912:bluetooth_rxtx.c **** 		}
1913:bluetooth_rxtx.c **** 
1914:bluetooth_rxtx.c **** 		//JWHUR rssi sampling synchronization test
1915:bluetooth_rxtx.c **** 		//If a BLE advertising packet with pdu preamble 0xff, data SYNC received, after 100ms goto le_syn
1916:bluetooth_rxtx.c **** 		if (p[23] == 0xff && p[24] == 0x53 && p[25] == 0x59 && p[26] == 0x4e && p[27] == 0x43) {
1917:bluetooth_rxtx.c **** 			sync_flag = 1;
1918:bluetooth_rxtx.c **** 			now_sync = (clkn & 0xffffff);
1919:bluetooth_rxtx.c **** 			start_sync = now_sync + 100 * 10000 / 3125; // wait for 100 ms
1920:bluetooth_rxtx.c **** //			sync_channel = (u16)p[28];
1921:bluetooth_rxtx.c **** 		}
1922:bluetooth_rxtx.c **** 
1923:bluetooth_rxtx.c **** 
1924:bluetooth_rxtx.c **** 		RXLED_SET;
1925:bluetooth_rxtx.c **** 		packet_cb((uint8_t *)packet);
1926:bluetooth_rxtx.c **** 
1927:bluetooth_rxtx.c **** 		// disable USB interrupts while we touch USB data structures
1928:bluetooth_rxtx.c **** 		ICER0 = ICER0_ICE_USB;
1929:bluetooth_rxtx.c **** 		enqueue(LE_PACKET, (uint8_t *)packet);
1930:bluetooth_rxtx.c **** 		ISER0 = ISER0_ISE_USB;
1931:bluetooth_rxtx.c **** 
1932:bluetooth_rxtx.c **** 		le.last_packet = CLK100NS;
1933:bluetooth_rxtx.c **** 
1934:bluetooth_rxtx.c **** 		//JWHUR if sync_flag receive
1935:bluetooth_rxtx.c **** 		if (sync_flag == 1) {
1936:bluetooth_rxtx.c **** 			requested_mode = MODE_BT_RSSI_LE;
1937:bluetooth_rxtx.c **** 			bt_le_sync_rssi(MODE_BT_RSSI_LE);
1938:bluetooth_rxtx.c **** 			goto cleanup;
1939:bluetooth_rxtx.c **** 		}
1940:bluetooth_rxtx.c **** 	
1941:bluetooth_rxtx.c **** 	rx_flush:
1942:bluetooth_rxtx.c **** 		// this might happen twice, but it's safe to do so
ARM GAS  /tmp/ccTiCbBl.s 			page 48


1943:bluetooth_rxtx.c **** 		cc2400_strobe(SFSON);
1944:bluetooth_rxtx.c **** 
1945:bluetooth_rxtx.c **** 		// flush any excess bytes from the SSP's buffer
1946:bluetooth_rxtx.c **** 		DIO_SSP_DMACR &= ~SSPDMACR_RXDMAE;
1947:bluetooth_rxtx.c **** 		while (SSP1SR & SSPSR_RNE) {
1948:bluetooth_rxtx.c **** 			u8 tmp = (u8)DIO_SSP_DR;
1949:bluetooth_rxtx.c **** 		}
1950:bluetooth_rxtx.c **** 
1951:bluetooth_rxtx.c **** 		// timeout - FIXME this is an ugly hack
1952:bluetooth_rxtx.c **** 		u32 now = CLK100NS;
1953:bluetooth_rxtx.c **** 		if (now < le.last_packet)
1954:bluetooth_rxtx.c **** 			now += 3276800000; // handle rollover
1955:bluetooth_rxtx.c **** 		if  ( // timeout
1956:bluetooth_rxtx.c **** 			((le.link_state == LINK_CONNECTED || le.link_state == LINK_CONN_PENDING)
1957:bluetooth_rxtx.c **** 			&& (now - le.last_packet > 50000000))
1958:bluetooth_rxtx.c **** 			// jam finished
1959:bluetooth_rxtx.c **** 			|| (le_jam_count == 1)
1960:bluetooth_rxtx.c **** 			)
1961:bluetooth_rxtx.c **** 		{
1962:bluetooth_rxtx.c **** 			reset_le();
1963:bluetooth_rxtx.c **** 			le_jam_count = 0;
1964:bluetooth_rxtx.c **** 			TXLED_CLR;
1965:bluetooth_rxtx.c **** 
1966:bluetooth_rxtx.c **** 			if (jam_mode == JAM_ONCE) {
1967:bluetooth_rxtx.c **** 				jam_mode = JAM_NONE;
1968:bluetooth_rxtx.c **** 				requested_mode = MODE_IDLE;
1969:bluetooth_rxtx.c **** 				goto cleanup;
1970:bluetooth_rxtx.c **** 			}
1971:bluetooth_rxtx.c **** 
1972:bluetooth_rxtx.c **** 			// go back to promisc if the connection dies
1973:bluetooth_rxtx.c **** 			if (active_mode == MODE_BT_PROMISC_LE)
1974:bluetooth_rxtx.c **** 				goto cleanup;
1975:bluetooth_rxtx.c **** 
1976:bluetooth_rxtx.c **** 			le.link_state = LINK_LISTENING;
1977:bluetooth_rxtx.c **** 
1978:bluetooth_rxtx.c **** 			cc2400_strobe(SRFOFF);
1979:bluetooth_rxtx.c **** 			while ((cc2400_status() & FS_LOCK));
1980:bluetooth_rxtx.c **** 
1981:bluetooth_rxtx.c **** 			/* Retune */
1982:bluetooth_rxtx.c **** 			channel = le_adv_channel != 0 ? le_adv_channel : 2402;
1983:bluetooth_rxtx.c **** 			restart_jamming = 1;
1984:bluetooth_rxtx.c **** 		}
1985:bluetooth_rxtx.c **** 
1986:bluetooth_rxtx.c **** 		cc2400_set(SYNCL, le.syncl);
1987:bluetooth_rxtx.c **** 		cc2400_set(SYNCH, le.synch);
1988:bluetooth_rxtx.c **** 
1989:bluetooth_rxtx.c **** 		if (do_hop)
1990:bluetooth_rxtx.c **** 			hop();
1991:bluetooth_rxtx.c **** 
1992:bluetooth_rxtx.c **** 		//  you can jam but you keep turning off the light 
1993:bluetooth_rxtx.c **** 		if (le_jam_count > 0) {
1994:bluetooth_rxtx.c **** 			le_jam();
1995:bluetooth_rxtx.c **** 			--le_jam_count;
1996:bluetooth_rxtx.c **** 		} else {
1997:bluetooth_rxtx.c **** 			/* RX mode */
1998:bluetooth_rxtx.c **** 			dma_init_le();
1999:bluetooth_rxtx.c **** 			dio_ssp_start();
ARM GAS  /tmp/ccTiCbBl.s 			page 49


2000:bluetooth_rxtx.c **** 
2001:bluetooth_rxtx.c **** 			if (restart_jamming) {
2002:bluetooth_rxtx.c **** 				cc2400_rx_sync(rbit(le.access_address));
2003:bluetooth_rxtx.c **** 				restart_jamming = 0;
2004:bluetooth_rxtx.c **** 			} else {
2005:bluetooth_rxtx.c **** 				// wait till we're in FSLOCK before strobing RX
2006:bluetooth_rxtx.c **** 				while (!(cc2400_status() & FS_LOCK));
2007:bluetooth_rxtx.c **** 				cc2400_strobe(SRX);
2008:bluetooth_rxtx.c **** 			}
2009:bluetooth_rxtx.c **** 		}
2010:bluetooth_rxtx.c **** 
2011:bluetooth_rxtx.c **** 		rx_tc = 0;
2012:bluetooth_rxtx.c **** 		rx_err = 0;
2013:bluetooth_rxtx.c **** 	}
2014:bluetooth_rxtx.c **** 
2015:bluetooth_rxtx.c **** cleanup:
2016:bluetooth_rxtx.c **** 
2017:bluetooth_rxtx.c **** 	// disable USB interrupts
2018:bluetooth_rxtx.c **** 	ICER0 = ICER0_ICE_USB;
2019:bluetooth_rxtx.c **** 
2020:bluetooth_rxtx.c **** 	// reset the radio completely
2021:bluetooth_rxtx.c **** 	cc2400_idle();
2022:bluetooth_rxtx.c **** 	dio_ssp_stop();
2023:bluetooth_rxtx.c **** 	cs_trigger_disable();
2024:bluetooth_rxtx.c **** }
2025:bluetooth_rxtx.c **** 
2026:bluetooth_rxtx.c **** //JWHUR cfo estimation tracking
2027:bluetooth_rxtx.c **** void bt_le_sync_cfo(u8 active_mode) 
2028:bluetooth_rxtx.c **** {
2029:bluetooth_rxtx.c **** 	int i;
2030:bluetooth_rxtx.c **** 	int8_t rssi;
2031:bluetooth_rxtx.c **** 	static int restart_jamming = 0;
2032:bluetooth_rxtx.c **** 	u8 cfo_buf[DMA_SIZE] = {0, };
2033:bluetooth_rxtx.c **** 
2034:bluetooth_rxtx.c **** 	modulation = MOD_BT_LOW_ENERGY;
2035:bluetooth_rxtx.c **** 	mode = active_mode;
2036:bluetooth_rxtx.c **** 
2037:bluetooth_rxtx.c **** 	le.link_state = LINK_LISTENING;
2038:bluetooth_rxtx.c **** 
2039:bluetooth_rxtx.c **** 	ISER0 = ISER0_ISE_USB;
2040:bluetooth_rxtx.c **** 	RXLED_CLR;
2041:bluetooth_rxtx.c **** 	queue_init();
2042:bluetooth_rxtx.c **** 	dio_ssp_init();
2043:bluetooth_rxtx.c **** 	dma_init_le();
2044:bluetooth_rxtx.c **** 	dio_ssp_start();
2045:bluetooth_rxtx.c **** 
2046:bluetooth_rxtx.c **** 	cc2400_rx_sync(rbit(le.access_address));
2047:bluetooth_rxtx.c **** 
2048:bluetooth_rxtx.c **** 	while (requested_mode == active_mode) {
2049:bluetooth_rxtx.c **** 		if (requested_channel != 0) {
2050:bluetooth_rxtx.c **** 			cc2400_strobe(SRFOFF);
2051:bluetooth_rxtx.c **** 			while ((cc2400_status() & FS_LOCK));
2052:bluetooth_rxtx.c **** 			cc2400_set(FSDIV, channel - 1);
2053:bluetooth_rxtx.c **** 			cc2400_strobe(SFSON);
2054:bluetooth_rxtx.c **** 			while (!(cc2400_status() & FS_LOCK));
2055:bluetooth_rxtx.c **** 			cc2400_strobe(SRX);
2056:bluetooth_rxtx.c **** 			requested_channel = 0;
ARM GAS  /tmp/ccTiCbBl.s 			page 50


2057:bluetooth_rxtx.c **** 		}
2058:bluetooth_rxtx.c **** 		RXLED_CLR;
2059:bluetooth_rxtx.c **** 		rssi_reset();
2060:bluetooth_rxtx.c **** 		while ((rx_tc == 0) && (rx_err == 0) && (do_hop == 0) && requested_mode == active_mode) ;
2061:bluetooth_rxtx.c **** 		rssi = (int8_t)(cc2400_get(RSSI) >> 8);
2062:bluetooth_rxtx.c **** 		rssi_min = rssi_max = rssi;
2063:bluetooth_rxtx.c **** 
2064:bluetooth_rxtx.c **** 		if (requested_mode != active_mode) {
2065:bluetooth_rxtx.c **** 			goto cleanup;
2066:bluetooth_rxtx.c **** 		}
2067:bluetooth_rxtx.c **** 		if (rx_err) {
2068:bluetooth_rxtx.c **** 			status |= DMA_ERROR;
2069:bluetooth_rxtx.c **** 		}
2070:bluetooth_rxtx.c **** 		if (do_hop)
2071:bluetooth_rxtx.c **** 			goto rx_flush;
2072:bluetooth_rxtx.c **** 		if (!rx_tc)
2073:bluetooth_rxtx.c **** 			continue;
2074:bluetooth_rxtx.c **** 		
2075:bluetooth_rxtx.c **** 		uint32_t packet[48/4+1] = {0, };
2076:bluetooth_rxtx.c **** 		uint32_t whiten_packet[48/4+1] = {0, };
2077:bluetooth_rxtx.c **** 		u8 *p = (u8 *)packet;
2078:bluetooth_rxtx.c **** 
2079:bluetooth_rxtx.c **** 		//JWHUR buffering carrier frequency offset estimation
2080:bluetooth_rxtx.c **** 		for (i = 0; i < DMA_SIZE; i++) {
2081:bluetooth_rxtx.c **** 			cfo_buf[i] = cc2400_get_rev(FREQEST);
2082:bluetooth_rxtx.c **** 		}
2083:bluetooth_rxtx.c **** 
2084:bluetooth_rxtx.c **** 		packet[0] = le.access_address;
2085:bluetooth_rxtx.c **** 		
2086:bluetooth_rxtx.c **** 		const uint32_t *whit = whitening_word[btle_channel_index(channel-2402)];
2087:bluetooth_rxtx.c **** 		for (i=0; i<4; i+= 4) {
2088:bluetooth_rxtx.c **** 			uint32_t v = rxbuf1[i+0] << 24
2089:bluetooth_rxtx.c **** 					   | rxbuf1[i+1] << 16
2090:bluetooth_rxtx.c **** 					   | rxbuf1[i+2] << 8
2091:bluetooth_rxtx.c **** 					   | rxbuf1[i+3] << 0;
2092:bluetooth_rxtx.c **** 			packet[i/4+1] = rbit(v) ^ whit[i/4];
2093:bluetooth_rxtx.c **** 			whiten_packet[i/4+1] = rbit(v);
2094:bluetooth_rxtx.c **** 		}
2095:bluetooth_rxtx.c **** 
2096:bluetooth_rxtx.c **** 		unsigned len = (p[5] & 0x3f) + 2;
2097:bluetooth_rxtx.c **** 		cfo_buf[DMA_SIZE - 1] = p[5];
2098:bluetooth_rxtx.c **** 
2099:bluetooth_rxtx.c **** 		if (len > 39)
2100:bluetooth_rxtx.c **** 			goto rx_flush;
2101:bluetooth_rxtx.c **** 
2102:bluetooth_rxtx.c **** 		unsigned total_transfers = ((len + 3) + 4 - 1) / 4;
2103:bluetooth_rxtx.c **** 		if (total_transfers < 11) {
2104:bluetooth_rxtx.c **** 			while (DMACC0DestAddr < (uint32_t)rxbuf1 + 4 * total_transfers && rx_err == 0) ;
2105:bluetooth_rxtx.c **** 		} else { while (DMACC0Config & DMACCxConfig_E && rx_err == 0) ;
2106:bluetooth_rxtx.c **** 		}
2107:bluetooth_rxtx.c **** 
2108:bluetooth_rxtx.c **** 		DIO_SSP_DMACR &= ~SSPDMACR_RXDMAE;
2109:bluetooth_rxtx.c **** 		cc2400_strobe(SFSON);
2110:bluetooth_rxtx.c **** 
2111:bluetooth_rxtx.c **** 		for (i=4; i<44; i+=4) {
2112:bluetooth_rxtx.c **** 			uint32_t v = rxbuf1[i+0] << 24
2113:bluetooth_rxtx.c **** 					   | rxbuf1[i+1] << 16
ARM GAS  /tmp/ccTiCbBl.s 			page 51


2114:bluetooth_rxtx.c **** 					   | rxbuf1[i+2] << 8
2115:bluetooth_rxtx.c **** 					   | rxbuf1[i+3] << 0;
2116:bluetooth_rxtx.c **** 			packet[i/4+1] = rbit(v) ^ whit[i/4];
2117:bluetooth_rxtx.c **** 			whiten_packet[i/4+1] = rbit(v);
2118:bluetooth_rxtx.c **** 		}
2119:bluetooth_rxtx.c **** 
2120:bluetooth_rxtx.c **** 		if (le.crc_verify) {
2121:bluetooth_rxtx.c **** 			u32 calc_crc = btle_crcgen_lut(le.crc_init_reversed, p + 4, len);
2122:bluetooth_rxtx.c **** 			u32 wire_crc = (p[4+len+2] << 16)
2123:bluetooth_rxtx.c **** 						 | (p[4+len+1] << 8)
2124:bluetooth_rxtx.c **** 						 | (p[4+len+0] << 0);
2125:bluetooth_rxtx.c **** 			if (calc_crc != wire_crc)
2126:bluetooth_rxtx.c **** 				goto rx_flush;
2127:bluetooth_rxtx.c **** 		}
2128:bluetooth_rxtx.c **** 
2129:bluetooth_rxtx.c **** 		RXLED_SET;
2130:bluetooth_rxtx.c **** 		packet_cb((uint8_t *)packet);
2131:bluetooth_rxtx.c **** 
2132:bluetooth_rxtx.c **** 		ICER0 = ICER0_ICE_USB;
2133:bluetooth_rxtx.c **** 		if (p[10] == 0x55 && p[11] == 0xec) {
2134:bluetooth_rxtx.c **** 			enqueue(LE_PACKET, (uint8_t *)packet);
2135:bluetooth_rxtx.c **** 			enqueue(CFO_TRACK, (uint8_t *)cfo_buf);
2136:bluetooth_rxtx.c **** 			//enqueue(MESSAGE, (uint8_t *)whiten_packet);
2137:bluetooth_rxtx.c **** 		}
2138:bluetooth_rxtx.c **** 		ISER0 = ISER0_ISE_USB;
2139:bluetooth_rxtx.c **** 
2140:bluetooth_rxtx.c **** 		le.last_packet = CLK100NS;
2141:bluetooth_rxtx.c **** 
2142:bluetooth_rxtx.c **** 	rx_flush:
2143:bluetooth_rxtx.c **** 		cc2400_strobe(SFSON);
2144:bluetooth_rxtx.c **** 		DIO_SSP_DMACR &= ~SSPDMACR_RXDMAE;
2145:bluetooth_rxtx.c **** 		while (SSP1SR & SSPSR_RNE) {
2146:bluetooth_rxtx.c **** 			u8 tmp = (u8) DIO_SSP_DR;
2147:bluetooth_rxtx.c **** 		}
2148:bluetooth_rxtx.c **** 		u32 now = CLK100NS;
2149:bluetooth_rxtx.c **** 		if (now <le.last_packet)
2150:bluetooth_rxtx.c **** 			now += 3276800000;
2151:bluetooth_rxtx.c **** 		if ( ((le.link_state == LINK_CONNECTED || le.link_state == LINK_CONN_PENDING) && (now - le.last_p
2152:bluetooth_rxtx.c **** 			reset_le();
2153:bluetooth_rxtx.c **** 			le_jam_count = 0;
2154:bluetooth_rxtx.c **** 			TXLED_CLR;
2155:bluetooth_rxtx.c **** 			if (jam_mode == JAM_ONCE) {
2156:bluetooth_rxtx.c **** 				jam_mode = JAM_NONE;
2157:bluetooth_rxtx.c **** 				requested_mode = MODE_IDLE;
2158:bluetooth_rxtx.c **** 				goto cleanup;
2159:bluetooth_rxtx.c **** 			}
2160:bluetooth_rxtx.c **** 			le.link_state = LINK_LISTENING;
2161:bluetooth_rxtx.c **** 			cc2400_strobe(SRFOFF);
2162:bluetooth_rxtx.c **** 			while ((cc2400_status() & FS_LOCK));
2163:bluetooth_rxtx.c **** 
2164:bluetooth_rxtx.c **** 			channel = le_adv_channel != 0 ? le_adv_channel : 2402;
2165:bluetooth_rxtx.c **** 			restart_jamming = 1;
2166:bluetooth_rxtx.c **** 		}
2167:bluetooth_rxtx.c **** 
2168:bluetooth_rxtx.c **** 		cc2400_set(SYNCL, le.syncl);
2169:bluetooth_rxtx.c **** 		cc2400_set(SYNCH, le.synch);
2170:bluetooth_rxtx.c **** 
ARM GAS  /tmp/ccTiCbBl.s 			page 52


2171:bluetooth_rxtx.c **** 		if (do_hop)
2172:bluetooth_rxtx.c **** 			hop();
2173:bluetooth_rxtx.c **** 		if (le_jam_count > 0) {
2174:bluetooth_rxtx.c **** 			le_jam();
2175:bluetooth_rxtx.c **** 			--le_jam_count;
2176:bluetooth_rxtx.c **** 		} else {
2177:bluetooth_rxtx.c **** 			dma_init_le();
2178:bluetooth_rxtx.c **** 			dio_ssp_start();
2179:bluetooth_rxtx.c **** 
2180:bluetooth_rxtx.c **** 			if (restart_jamming) {
2181:bluetooth_rxtx.c **** 				cc2400_rx_sync(rbit(le.access_address));
2182:bluetooth_rxtx.c **** 				restart_jamming = 0;
2183:bluetooth_rxtx.c **** 			} else {
2184:bluetooth_rxtx.c **** 				while (!(cc2400_status() & FS_LOCK));
2185:bluetooth_rxtx.c **** 				cc2400_strobe(SRX);
2186:bluetooth_rxtx.c **** 			}
2187:bluetooth_rxtx.c **** 		}
2188:bluetooth_rxtx.c **** 		rx_tc = 0;
2189:bluetooth_rxtx.c **** 		rx_err = 0;
2190:bluetooth_rxtx.c **** 
2191:bluetooth_rxtx.c **** 	}
2192:bluetooth_rxtx.c **** 	goto cleanup;
2193:bluetooth_rxtx.c **** 
2194:bluetooth_rxtx.c **** cleanup:
2195:bluetooth_rxtx.c **** 	ICER0 = ICER0_ICE_USB;
2196:bluetooth_rxtx.c **** 	cc2400_idle();
2197:bluetooth_rxtx.c **** 	dio_ssp_stop ();
2198:bluetooth_rxtx.c **** 	cs_trigger_disable();
2199:bluetooth_rxtx.c **** }
2200:bluetooth_rxtx.c **** 
2201:bluetooth_rxtx.c **** /* low energy connection following
2202:bluetooth_rxtx.c ****  * follows a known AA around */
2203:bluetooth_rxtx.c **** int cb_follow_le() {
 630              		.loc 1 2203 0
 631              		.cfi_startproc
 632              		@ args = 0, pretend = 0, frame = 0
 633              		@ frame_needed = 0, uses_anonymous_args = 0
 634 0000 2DE9F843 		push	{r3, r4, r5, r6, r7, r8, r9, lr}
 635              		.cfi_def_cfa_offset 32
 636              		.cfi_offset 3, -32
 637              		.cfi_offset 4, -28
 638              		.cfi_offset 5, -24
 639              		.cfi_offset 6, -20
 640              		.cfi_offset 7, -16
 641              		.cfi_offset 8, -12
 642              		.cfi_offset 9, -8
 643              		.cfi_offset 14, -4
2204:bluetooth_rxtx.c **** 	int i, j, k;
2205:bluetooth_rxtx.c **** 	int idx = whitening_index[btle_channel_index(channel-2402)];
 644              		.loc 1 2205 0
 645 0004 394C     		ldr	r4, .L67
 646 0006 2088     		ldrh	r0, [r4]
 647 0008 2646     		mov	r6, r4
 648 000a 80B2     		uxth	r0, r0
 649 000c 6238     		subs	r0, r0, #98
 650 000e C0B2     		uxtb	r0, r0
 651 0010 FFF7FEFF 		bl	btle_channel_index
ARM GAS  /tmp/ccTiCbBl.s 			page 53


 652              	.LVL57:
 653 0014 3649     		ldr	r1, .L67+4
2206:bluetooth_rxtx.c **** 
2207:bluetooth_rxtx.c **** 	u32 access_address = 0;
 654              		.loc 1 2207 0
 655 0016 0022     		movs	r2, #0
2205:bluetooth_rxtx.c **** 
 656              		.loc 1 2205 0
 657 0018 0D5C     		ldrb	r5, [r1, r0]	@ zero_extendqisi2
 658              	.LVL58:
2208:bluetooth_rxtx.c **** 	for (i = 0; i < 31; ++i) {
 659              		.loc 1 2208 0
 660 001a 1346     		mov	r3, r2
 661 001c 8C46     		mov	ip, r1
 662              	.LVL59:
 663              	.L48:
2209:bluetooth_rxtx.c **** 		access_address >>= 1;
2210:bluetooth_rxtx.c **** 		access_address |= (unpacked[i] << 31);
 664              		.loc 1 2210 0 discriminator 2
 665 001e 354F     		ldr	r7, .L67+8
 666 0020 D95D     		ldrb	r1, [r3, r7]	@ zero_extendqisi2
2208:bluetooth_rxtx.c **** 	for (i = 0; i < 31; ++i) {
 667              		.loc 1 2208 0 discriminator 2
 668 0022 0133     		adds	r3, r3, #1
 669              	.LVL60:
 670              		.loc 1 2210 0 discriminator 2
 671 0024 C907     		lsls	r1, r1, #31
2208:bluetooth_rxtx.c **** 	for (i = 0; i < 31; ++i) {
 672              		.loc 1 2208 0 discriminator 2
 673 0026 1F2B     		cmp	r3, #31
 674              		.loc 1 2210 0 discriminator 2
 675 0028 41EA5202 		orr	r2, r1, r2, lsr #1
 676              	.LVL61:
2208:bluetooth_rxtx.c **** 	for (i = 0; i < 31; ++i) {
 677              		.loc 1 2208 0 discriminator 2
 678 002c F7D1     		bne	.L48
2211:bluetooth_rxtx.c **** 	}
2212:bluetooth_rxtx.c **** 
2213:bluetooth_rxtx.c **** 	for (i = 31; i < DMA_SIZE * 8 + 32; i++) {
2214:bluetooth_rxtx.c **** 		access_address >>= 1;
2215:bluetooth_rxtx.c **** 		access_address |= (unpacked[i] << 31);
2216:bluetooth_rxtx.c **** 		if (access_address == le.access_address) {
 679              		.loc 1 2216 0
 680 002e 7168     		ldr	r1, [r6, #4]
 681              	.L60:
 682              	.LVL62:
2215:bluetooth_rxtx.c **** 		if (access_address == le.access_address) {
 683              		.loc 1 2215 0
 684 0030 F85C     		ldrb	r0, [r7, r3]	@ zero_extendqisi2
 685 0032 C007     		lsls	r0, r0, #31
 686 0034 40EA5202 		orr	r2, r0, r2, lsr #1
 687              	.LVL63:
 688              		.loc 1 2216 0
 689 0038 8A42     		cmp	r2, r1
 690 003a 4FD1     		bne	.L49
 691 003c 0022     		movs	r2, #0
 692              	.LVL64:
ARM GAS  /tmp/ccTiCbBl.s 			page 54


 693              	.L50:
 694 003e 07EB0308 		add	r8, r7, r3
2208:bluetooth_rxtx.c **** 		access_address >>= 1;
 695              		.loc 1 2208 0 discriminator 1
 696 0042 0020     		movs	r0, #0
 697 0044 08EBC208 		add	r8, r8, r2, lsl #3
 698 0048 0146     		mov	r1, r0
 699              	.LVL65:
 700              	.L55:
 701 004a 08EB0104 		add	r4, r8, r1
 702              	.LBB6:
 703              	.LBB7:
2217:bluetooth_rxtx.c **** 			for (j = 0; j < 46; ++j) {
2218:bluetooth_rxtx.c **** 				u8 byte = 0;
2219:bluetooth_rxtx.c **** 				for (k = 0; k < 8; k++) {
2220:bluetooth_rxtx.c **** 					int offset = k + (j * 8) + i - 31;
2221:bluetooth_rxtx.c **** 					if (offset >= DMA_SIZE*8*2) break;
2222:bluetooth_rxtx.c **** 					int bit = unpacked[offset];
2223:bluetooth_rxtx.c **** 					if (j >= 4) { // unwhiten data bytes
 704              		.loc 1 2223 0
 705 004e 032A     		cmp	r2, #3
2222:bluetooth_rxtx.c **** 					if (j >= 4) { // unwhiten data bytes
 706              		.loc 1 2222 0
 707 0050 14F81F4C 		ldrb	r4, [r4, #-31]	@ zero_extendqisi2
 708              	.LVL66:
 709              		.loc 1 2223 0
 710 0054 0CDD     		ble	.L52
2224:bluetooth_rxtx.c **** 						bit ^= whitening[idx];
 711              		.loc 1 2224 0
 712 0056 0CEB050E 		add	lr, ip, r5
 713 005a 9EF828E0 		ldrb	lr, [lr, #40]	@ zero_extendqisi2
2225:bluetooth_rxtx.c **** 						idx = (idx + 1) % sizeof(whitening);
 714              		.loc 1 2225 0
 715 005e 0135     		adds	r5, r5, #1
 716              	.LVL67:
2224:bluetooth_rxtx.c **** 						bit ^= whitening[idx];
 717              		.loc 1 2224 0
 718 0060 84EA0E04 		eor	r4, r4, lr
 719              	.LVL68:
 720              		.loc 1 2225 0
 721 0064 4FF07F0E 		mov	lr, #127
 722 0068 B5FBFEF9 		udiv	r9, r5, lr
 723 006c 0EFB1955 		mls	r5, lr, r9, r5
 724              	.LVL69:
 725              	.L52:
2226:bluetooth_rxtx.c **** 					}
2227:bluetooth_rxtx.c **** 					byte |= bit << k;
 726              		.loc 1 2227 0
 727 0070 8C40     		lsls	r4, r4, r1
 728              	.LVL70:
 729              	.LBE7:
2219:bluetooth_rxtx.c **** 					int offset = k + (j * 8) + i - 31;
 730              		.loc 1 2219 0
 731 0072 0131     		adds	r1, r1, #1
 732              	.LVL71:
 733              	.LBB8:
 734              		.loc 1 2227 0
ARM GAS  /tmp/ccTiCbBl.s 			page 55


 735 0074 2043     		orrs	r0, r0, r4
 736              	.LVL72:
 737              	.LBE8:
2219:bluetooth_rxtx.c **** 					int offset = k + (j * 8) + i - 31;
 738              		.loc 1 2219 0
 739 0076 0829     		cmp	r1, #8
 740              	.LBB9:
 741              		.loc 1 2227 0
 742 0078 C0B2     		uxtb	r0, r0
 743              	.LVL73:
 744              	.LBE9:
2219:bluetooth_rxtx.c **** 					int offset = k + (j * 8) + i - 31;
 745              		.loc 1 2219 0
 746 007a E6D1     		bne	.L55
2228:bluetooth_rxtx.c **** 				}
2229:bluetooth_rxtx.c **** 				idle_rxbuf[j] = byte;
 747              		.loc 1 2229 0
 748 007c 1E4C     		ldr	r4, .L67+12
 749 007e 2168     		ldr	r1, [r4]
 750              	.LVL74:
 751 0080 8854     		strb	r0, [r1, r2]
 752              	.LBE6:
2217:bluetooth_rxtx.c **** 				u8 byte = 0;
 753              		.loc 1 2217 0
 754 0082 0132     		adds	r2, r2, #1
 755              	.LVL75:
 756 0084 2E2A     		cmp	r2, #46
 757 0086 DAD1     		bne	.L50
2230:bluetooth_rxtx.c **** 			}
2231:bluetooth_rxtx.c **** 
2232:bluetooth_rxtx.c **** 			// verify CRC
2233:bluetooth_rxtx.c **** 			if (le.crc_verify) {
 758              		.loc 1 2233 0
 759 0088 7369     		ldr	r3, [r6, #20]
 760              	.LVL76:
 761 008a 5BB9     		cbnz	r3, .L56
 762              	.LVL77:
 763              	.L58:
2234:bluetooth_rxtx.c **** 				int len		 = (idle_rxbuf[5] & 0x3f) + 2;
2235:bluetooth_rxtx.c **** 				u32 calc_crc = btle_crcgen_lut(le.crc_init_reversed, (uint8_t*)idle_rxbuf + 4, len);
2236:bluetooth_rxtx.c **** 				u32 wire_crc = (idle_rxbuf[4+len+2] << 16)
2237:bluetooth_rxtx.c **** 							 | (idle_rxbuf[4+len+1] << 8)
2238:bluetooth_rxtx.c **** 							 |  idle_rxbuf[4+len+0];
2239:bluetooth_rxtx.c **** 				if (calc_crc != wire_crc) // skip packets with a bad CRC
2240:bluetooth_rxtx.c **** 					break;
2241:bluetooth_rxtx.c **** 			}
2242:bluetooth_rxtx.c **** 
2243:bluetooth_rxtx.c **** 			// send to PC
2244:bluetooth_rxtx.c **** 			enqueue(LE_PACKET, (uint8_t*)idle_rxbuf);
 764              		.loc 1 2244 0
 765 008c 2168     		ldr	r1, [r4]
 766 008e 0120     		movs	r0, #1
 767 0090 FFF7FEFF 		bl	enqueue
 768              	.LVL78:
2245:bluetooth_rxtx.c **** 			RXLED_SET;
 769              		.loc 1 2245 0
 770 0094 194B     		ldr	r3, .L67+16
ARM GAS  /tmp/ccTiCbBl.s 			page 56


 771 0096 1022     		movs	r2, #16
 772 0098 1A60     		str	r2, [r3]
2246:bluetooth_rxtx.c **** 
2247:bluetooth_rxtx.c **** 			packet_cb((uint8_t*)idle_rxbuf);
 773              		.loc 1 2247 0
 774 009a 194B     		ldr	r3, .L67+20
 775 009c 2068     		ldr	r0, [r4]
 776 009e 9B69     		ldr	r3, [r3, #24]
 777 00a0 9847     		blx	r3
 778              	.LVL79:
2248:bluetooth_rxtx.c **** 
2249:bluetooth_rxtx.c **** 			break;
 779              		.loc 1 2249 0
 780 00a2 1FE0     		b	.L57
 781              	.LVL80:
 782              	.L56:
 783              	.LBB10:
2234:bluetooth_rxtx.c **** 				u32 calc_crc = btle_crcgen_lut(le.crc_init_reversed, (uint8_t*)idle_rxbuf + 4, len);
 784              		.loc 1 2234 0
 785 00a4 2368     		ldr	r3, [r4]
 786 00a6 5D79     		ldrb	r5, [r3, #5]	@ zero_extendqisi2
 787              	.LVL81:
2235:bluetooth_rxtx.c **** 				u32 wire_crc = (idle_rxbuf[4+len+2] << 16)
 788              		.loc 1 2235 0
 789 00a8 104B     		ldr	r3, .L67
 790 00aa 2168     		ldr	r1, [r4]
2234:bluetooth_rxtx.c **** 				u32 calc_crc = btle_crcgen_lut(le.crc_init_reversed, (uint8_t*)idle_rxbuf + 4, len);
 791              		.loc 1 2234 0
 792 00ac 05F03F05 		and	r5, r5, #63
 793              	.LVL82:
2235:bluetooth_rxtx.c **** 				u32 wire_crc = (idle_rxbuf[4+len+2] << 16)
 794              		.loc 1 2235 0
 795 00b0 AA1C     		adds	r2, r5, #2
 796              	.LVL83:
 797 00b2 1869     		ldr	r0, [r3, #16]
 798              	.LVL84:
 799 00b4 0431     		adds	r1, r1, #4
 800 00b6 FFF7FEFF 		bl	btle_crcgen_lut
 801              	.LVL85:
2236:bluetooth_rxtx.c **** 							 | (idle_rxbuf[4+len+1] << 8)
 802              		.loc 1 2236 0
 803 00ba 2268     		ldr	r2, [r4]
 804 00bc 05F10803 		add	r3, r5, #8
 805 00c0 D15C     		ldrb	r1, [r2, r3]	@ zero_extendqisi2
2237:bluetooth_rxtx.c **** 							 |  idle_rxbuf[4+len+0];
 806              		.loc 1 2237 0
 807 00c2 2268     		ldr	r2, [r4]
 808 00c4 EB1D     		adds	r3, r5, #7
 809 00c6 D35C     		ldrb	r3, [r2, r3]	@ zero_extendqisi2
2238:bluetooth_rxtx.c **** 				if (calc_crc != wire_crc) // skip packets with a bad CRC
 810              		.loc 1 2238 0
 811 00c8 2268     		ldr	r2, [r4]
 812 00ca 0635     		adds	r5, r5, #6
 813              	.LVL86:
 814 00cc 525D     		ldrb	r2, [r2, r5]	@ zero_extendqisi2
 815              	.LVL87:
2237:bluetooth_rxtx.c **** 							 |  idle_rxbuf[4+len+0];
ARM GAS  /tmp/ccTiCbBl.s 			page 57


 816              		.loc 1 2237 0
 817 00ce 1B02     		lsls	r3, r3, #8
 818              	.LVL88:
 819 00d0 43EA0143 		orr	r3, r3, r1, lsl #16
2238:bluetooth_rxtx.c **** 				if (calc_crc != wire_crc) // skip packets with a bad CRC
 820              		.loc 1 2238 0
 821 00d4 1343     		orrs	r3, r3, r2
2239:bluetooth_rxtx.c **** 					break;
 822              		.loc 1 2239 0
 823 00d6 9842     		cmp	r0, r3
 824 00d8 04D1     		bne	.L57
 825 00da D7E7     		b	.L58
 826              	.LVL89:
 827              	.L49:
 828              	.LBE10:
2213:bluetooth_rxtx.c **** 		access_address >>= 1;
 829              		.loc 1 2213 0
 830 00dc 0133     		adds	r3, r3, #1
 831              	.LVL90:
 832 00de B3F5D87F 		cmp	r3, #432
 833 00e2 A5D1     		bne	.L60
 834              	.LVL91:
 835              	.L57:
2250:bluetooth_rxtx.c **** 		}
2251:bluetooth_rxtx.c **** 	}
2252:bluetooth_rxtx.c **** 
2253:bluetooth_rxtx.c **** 	return 1;
2254:bluetooth_rxtx.c **** }
 836              		.loc 1 2254 0
 837 00e4 0120     		movs	r0, #1
 838 00e6 BDE8F883 		pop	{r3, r4, r5, r6, r7, r8, r9, pc}
 839              	.L68:
 840 00ea 00BF     		.align	2
 841              	.L67:
 842 00ec 00000000 		.word	.LANCHOR1
 843 00f0 00000000 		.word	.LANCHOR2
 844 00f4 00000000 		.word	unpacked
 845 00f8 00000000 		.word	idle_rxbuf
 846 00fc 38C00920 		.word	537509944
 847 0100 00000000 		.word	.LANCHOR0
 848              		.cfi_endproc
 849              	.LFE26:
 851              		.section	.text.connection_follow_cb,"ax",%progbits
 852              		.align	1
 853              		.global	connection_follow_cb
 854              		.thumb
 855              		.thumb_func
 857              	connection_follow_cb:
 858              	.LFB27:
2255:bluetooth_rxtx.c **** 
2256:bluetooth_rxtx.c **** /**
2257:bluetooth_rxtx.c ****  * Called when we receive a packet in connection following mode.
2258:bluetooth_rxtx.c ****  */
2259:bluetooth_rxtx.c **** void connection_follow_cb(u8 *packet) {
 859              		.loc 1 2259 0
 860              		.cfi_startproc
 861              		@ args = 0, pretend = 0, frame = 0
ARM GAS  /tmp/ccTiCbBl.s 			page 58


 862              		@ frame_needed = 0, uses_anonymous_args = 0
 863              	.LVL92:
 864 0000 38B5     		push	{r3, r4, r5, lr}
 865              		.cfi_def_cfa_offset 16
 866              		.cfi_offset 3, -16
 867              		.cfi_offset 4, -12
 868              		.cfi_offset 5, -8
 869              		.cfi_offset 14, -4
 870              	.LVL93:
2260:bluetooth_rxtx.c **** 	int i;
2261:bluetooth_rxtx.c **** 	u32 aa = 0;
2262:bluetooth_rxtx.c **** 
2263:bluetooth_rxtx.c **** #define ADV_ADDRESS_IDX 0
2264:bluetooth_rxtx.c **** #define HEADER_IDX 4
2265:bluetooth_rxtx.c **** #define DATA_LEN_IDX 5
2266:bluetooth_rxtx.c **** #define DATA_START_IDX 6
2267:bluetooth_rxtx.c **** 
2268:bluetooth_rxtx.c **** 	// u8 *adv_addr = &packet[ADV_ADDRESS_IDX];
2269:bluetooth_rxtx.c **** 	u8 header = packet[HEADER_IDX];
2270:bluetooth_rxtx.c **** 	u8 *data_len = &packet[DATA_LEN_IDX];
2271:bluetooth_rxtx.c **** 	u8 *data = &packet[DATA_START_IDX];
2272:bluetooth_rxtx.c **** 	// u8 *crc = &packet[DATA_START_IDX + *data_len];
2273:bluetooth_rxtx.c **** 
2274:bluetooth_rxtx.c **** 	if (le.link_state == LINK_CONN_PENDING) {
 871              		.loc 1 2274 0
 872 0002 584B     		ldr	r3, .L87
2259:bluetooth_rxtx.c **** 	int i;
 873              		.loc 1 2259 0
 874 0004 0546     		mov	r5, r0
 875              		.loc 1 2274 0
 876 0006 1A7E     		ldrb	r2, [r3, #24]	@ zero_extendqisi2
2269:bluetooth_rxtx.c **** 	u8 *data_len = &packet[DATA_LEN_IDX];
 877              		.loc 1 2269 0
 878 0008 0179     		ldrb	r1, [r0, #4]	@ zero_extendqisi2
 879              	.LVL94:
 880              		.loc 1 2274 0
 881 000a 022A     		cmp	r2, #2
 882 000c 1C46     		mov	r4, r3
 883 000e 13D1     		bne	.L70
2275:bluetooth_rxtx.c **** 		// We received a packet in the connection pending state, so now the device *should* be connected
2276:bluetooth_rxtx.c **** 		le.link_state = LINK_CONNECTED;
 884              		.loc 1 2276 0
 885 0010 0322     		movs	r2, #3
 886 0012 1A76     		strb	r2, [r3, #24]
 887              	.LVL95:
2277:bluetooth_rxtx.c **** 		le.conn_epoch = clkn;
 888              		.loc 1 2277 0
 889 0014 544A     		ldr	r2, .L87+4
 890 0016 1268     		ldr	r2, [r2]
 891 0018 DA61     		str	r2, [r3, #28]
2278:bluetooth_rxtx.c **** 		le.interval_timer = le.conn_interval - 1;
 892              		.loc 1 2278 0
 893 001a 5A8C     		ldrh	r2, [r3, #34]
 894 001c 013A     		subs	r2, r2, #1
 895 001e 92B2     		uxth	r2, r2
 896 0020 1A84     		strh	r2, [r3, #32]	@ movhi
2279:bluetooth_rxtx.c **** 		le.conn_count = 0;
ARM GAS  /tmp/ccTiCbBl.s 			page 59


 897              		.loc 1 2279 0
 898 0022 0022     		movs	r2, #0
 899 0024 9A84     		strh	r2, [r3, #36]	@ movhi
2280:bluetooth_rxtx.c **** 		le.update_pending = 0;
 900              		.loc 1 2280 0
 901 0026 DA62     		str	r2, [r3, #44]
2281:bluetooth_rxtx.c **** 
2282:bluetooth_rxtx.c **** 		// hue hue hue
2283:bluetooth_rxtx.c **** 		if (jam_mode != JAM_NONE)
 902              		.loc 1 2283 0
 903 0028 504B     		ldr	r3, .L87+8
 904 002a DA7C     		ldrb	r2, [r3, #19]	@ zero_extendqisi2
 905 002c 002A     		cmp	r2, #0
 906 002e 00F09880 		beq	.L69
2284:bluetooth_rxtx.c **** 			le_jam_count = JAM_COUNT_DEFAULT;
 907              		.loc 1 2284 0
 908 0032 2822     		movs	r2, #40
 909 0034 DA61     		str	r2, [r3, #28]
 910 0036 38BD     		pop	{r3, r4, r5, pc}
 911              	.LVL96:
 912              	.L70:
2285:bluetooth_rxtx.c **** 
2286:bluetooth_rxtx.c **** 	} else if (le.link_state == LINK_CONNECTED) {
 913              		.loc 1 2286 0
 914 0038 032A     		cmp	r2, #3
 915 003a 3BD1     		bne	.L73
 916              	.LBB11:
2287:bluetooth_rxtx.c **** 		u8 llid =  header & 0x03;
2288:bluetooth_rxtx.c **** 
2289:bluetooth_rxtx.c **** 		// Apply any connection parameter update if necessary
2290:bluetooth_rxtx.c **** 		if (le.update_pending && le.conn_count == le.update_instant) {
 917              		.loc 1 2290 0
 918 003c DB6A     		ldr	r3, [r3, #44]
2287:bluetooth_rxtx.c **** 		u8 llid =  header & 0x03;
 919              		.loc 1 2287 0
 920 003e 01F00301 		and	r1, r1, #3
 921              	.LVL97:
 922              		.loc 1 2290 0
 923 0042 A3B1     		cbz	r3, .L74
 924              		.loc 1 2290 0 is_stmt 0 discriminator 1
 925 0044 A38C     		ldrh	r3, [r4, #36]
 926 0046 228E     		ldrh	r2, [r4, #48]
 927 0048 9BB2     		uxth	r3, r3
 928 004a 9A42     		cmp	r2, r3
 929 004c 0FD1     		bne	.L74
2291:bluetooth_rxtx.c **** 			// This is the first packet received in the connection interval for which the new parameters app
2292:bluetooth_rxtx.c **** 			le.conn_epoch = clkn;
 930              		.loc 1 2292 0 is_stmt 1
 931 004e 464B     		ldr	r3, .L87+4
 932 0050 1B68     		ldr	r3, [r3]
 933 0052 E361     		str	r3, [r4, #28]
 934              	.LVL98:
2293:bluetooth_rxtx.c **** 			le.conn_interval = le.interval_update;
 935              		.loc 1 2293 0
 936 0054 638E     		ldrh	r3, [r4, #50]
 937 0056 6384     		strh	r3, [r4, #34]	@ movhi
2294:bluetooth_rxtx.c **** 			le.interval_timer = le.interval_update - 1;
ARM GAS  /tmp/ccTiCbBl.s 			page 60


 938              		.loc 1 2294 0
 939 0058 013B     		subs	r3, r3, #1
 940 005a 9BB2     		uxth	r3, r3
 941 005c 2384     		strh	r3, [r4, #32]	@ movhi
2295:bluetooth_rxtx.c **** 			le.win_size = le.win_size_update;
 942              		.loc 1 2295 0
 943 005e 94F83430 		ldrb	r3, [r4, #52]	@ zero_extendqisi2
 944 0062 84F82630 		strb	r3, [r4, #38]
2296:bluetooth_rxtx.c **** 			le.win_offset = le.win_offset_update;
 945              		.loc 1 2296 0
 946 0066 E38E     		ldrh	r3, [r4, #54]
 947 0068 2385     		strh	r3, [r4, #40]	@ movhi
2297:bluetooth_rxtx.c **** 			le.update_pending = 0;
 948              		.loc 1 2297 0
 949 006a 0023     		movs	r3, #0
 950 006c E362     		str	r3, [r4, #44]
 951              	.L74:
2298:bluetooth_rxtx.c **** 		}
2299:bluetooth_rxtx.c **** 
2300:bluetooth_rxtx.c **** 		if (llid == 0x03 && data[0] == 0x00) {
 952              		.loc 1 2300 0
 953 006e 0329     		cmp	r1, #3
 954 0070 77D1     		bne	.L69
 955              		.loc 1 2300 0 is_stmt 0 discriminator 1
 956 0072 AB79     		ldrb	r3, [r5, #6]	@ zero_extendqisi2
 957 0074 002B     		cmp	r3, #0
 958 0076 74D1     		bne	.L69
2301:bluetooth_rxtx.c **** 			// This is a CONNECTION_UPDATE_REQ.
2302:bluetooth_rxtx.c **** 			// The host is changing the connection parameters.
2303:bluetooth_rxtx.c **** 			le.win_size_update = packet[7];
 959              		.loc 1 2303 0 is_stmt 1
 960 0078 EB79     		ldrb	r3, [r5, #7]	@ zero_extendqisi2
 961 007a 84F83430 		strb	r3, [r4, #52]
2304:bluetooth_rxtx.c **** 			le.win_offset_update = packet[8] + ((u16)packet[9] << 8);
 962              		.loc 1 2304 0
 963 007e 6A7A     		ldrb	r2, [r5, #9]	@ zero_extendqisi2
 964 0080 2B7A     		ldrb	r3, [r5, #8]	@ zero_extendqisi2
 965 0082 03EB0223 		add	r3, r3, r2, lsl #8
 966 0086 E386     		strh	r3, [r4, #54]	@ movhi
2305:bluetooth_rxtx.c **** 			le.interval_update = packet[10] + ((u16)packet[11] << 8);
 967              		.loc 1 2305 0
 968 0088 EA7A     		ldrb	r2, [r5, #11]	@ zero_extendqisi2
 969 008a AB7A     		ldrb	r3, [r5, #10]	@ zero_extendqisi2
 970 008c 03EB0223 		add	r3, r3, r2, lsl #8
 971 0090 6386     		strh	r3, [r4, #50]	@ movhi
2306:bluetooth_rxtx.c **** 			le.update_instant = packet[16] + ((u16)packet[17] << 8);
 972              		.loc 1 2306 0
 973 0092 6A7C     		ldrb	r2, [r5, #17]	@ zero_extendqisi2
 974 0094 2B7C     		ldrb	r3, [r5, #16]	@ zero_extendqisi2
 975 0096 03EB0223 		add	r3, r3, r2, lsl #8
2307:bluetooth_rxtx.c **** 			if (le.update_instant - le.conn_count < 32767)
 976              		.loc 1 2307 0
 977 009a A28C     		ldrh	r2, [r4, #36]
2306:bluetooth_rxtx.c **** 			le.update_instant = packet[16] + ((u16)packet[17] << 8);
 978              		.loc 1 2306 0
 979 009c 9BB2     		uxth	r3, r3
 980              		.loc 1 2307 0
ARM GAS  /tmp/ccTiCbBl.s 			page 61


 981 009e 92B2     		uxth	r2, r2
2306:bluetooth_rxtx.c **** 			le.update_instant = packet[16] + ((u16)packet[17] << 8);
 982              		.loc 1 2306 0
 983 00a0 2386     		strh	r3, [r4, #48]	@ movhi
 984              		.loc 1 2307 0
 985 00a2 9B1A     		subs	r3, r3, r2
 986 00a4 47F6FE72 		movw	r2, #32766
 987 00a8 9342     		cmp	r3, r2
 988 00aa 5ADC     		bgt	.L69
2308:bluetooth_rxtx.c **** 				le.update_pending = 1;
 989              		.loc 1 2308 0
 990 00ac 2D4B     		ldr	r3, .L87
 991 00ae 0122     		movs	r2, #1
 992 00b0 DA62     		str	r2, [r3, #44]
 993 00b2 38BD     		pop	{r3, r4, r5, pc}
 994              	.LVL99:
 995              	.L73:
 996              	.LBE11:
2309:bluetooth_rxtx.c **** 		}
2310:bluetooth_rxtx.c **** 
2311:bluetooth_rxtx.c **** 	} else if (le.link_state == LINK_LISTENING) {
 997              		.loc 1 2311 0
 998 00b4 012A     		cmp	r2, #1
 999 00b6 54D1     		bne	.L69
 1000              	.LVL100:
 1001              	.LBB12:
2312:bluetooth_rxtx.c **** 		u8 pkt_type = packet[4] & 0x0F;
2313:bluetooth_rxtx.c **** 		if (pkt_type == 0x05) {
 1002              		.loc 1 2313 0
 1003 00b8 01F00F01 		and	r1, r1, #15
 1004              	.LVL101:
 1005 00bc 0529     		cmp	r1, #5
 1006 00be 50D1     		bne	.L69
 1007              	.LBB13:
2314:bluetooth_rxtx.c **** 			uint16_t conn_interval;
2315:bluetooth_rxtx.c **** 
2316:bluetooth_rxtx.c **** 			// ignore packets with incorrect length
2317:bluetooth_rxtx.c **** 			if (*data_len != 34)
 1008              		.loc 1 2317 0
 1009 00c0 4379     		ldrb	r3, [r0, #5]	@ zero_extendqisi2
 1010 00c2 222B     		cmp	r3, #34
 1011 00c4 4DD1     		bne	.L69
 1012              	.LVL102:
2318:bluetooth_rxtx.c **** 				return;
2319:bluetooth_rxtx.c **** 
2320:bluetooth_rxtx.c **** 			// conn interval must be [7.5 ms, 4.0s] in units of 1.25 ms
2321:bluetooth_rxtx.c **** 			conn_interval = (packet[29] << 8) | packet[28];
 1013              		.loc 1 2321 0
 1014 00c6 037F     		ldrb	r3, [r0, #28]	@ zero_extendqisi2
 1015 00c8 427F     		ldrb	r2, [r0, #29]	@ zero_extendqisi2
 1016 00ca 43EA0222 		orr	r2, r3, r2, lsl #8
2322:bluetooth_rxtx.c **** 			if (conn_interval < 6 || conn_interval > 3200)
 1017              		.loc 1 2322 0
 1018 00ce 063A     		subs	r2, r2, #6
 1019 00d0 92B2     		uxth	r2, r2
 1020 00d2 40F67A43 		movw	r3, #3194
 1021 00d6 9A42     		cmp	r2, r3
ARM GAS  /tmp/ccTiCbBl.s 			page 62


 1022 00d8 43D8     		bhi	.L69
2323:bluetooth_rxtx.c **** 				return;
2324:bluetooth_rxtx.c **** 
2325:bluetooth_rxtx.c **** 			// This is a connect packet
2326:bluetooth_rxtx.c **** 			// if we have a target, see if InitA or AdvA matches
2327:bluetooth_rxtx.c **** 			if (le.target_set &&
 1023              		.loc 1 2327 0
 1024 00da 236C     		ldr	r3, [r4, #64]
 1025 00dc 2BB9     		cbnz	r3, .L76
 1026              	.LVL103:
 1027              	.L78:
2328:bluetooth_rxtx.c **** 				memcmp(le.target, &packet[6], 6) &&  // Target address doesn't match Initiator.
2329:bluetooth_rxtx.c **** 				memcmp(le.target, &packet[12], 6)) {  // Target address doesn't match Advertiser.
2330:bluetooth_rxtx.c **** 				return;
2331:bluetooth_rxtx.c **** 			}
2332:bluetooth_rxtx.c **** 
2333:bluetooth_rxtx.c **** 			le.link_state = LINK_CONN_PENDING;
 1028              		.loc 1 2333 0
 1029 00de 0223     		movs	r3, #2
2334:bluetooth_rxtx.c **** 			le.crc_verify = 0; // we will drop many packets if we attempt to filter by CRC
 1030              		.loc 1 2334 0
 1031 00e0 0020     		movs	r0, #0
2333:bluetooth_rxtx.c **** 			le.crc_verify = 0; // we will drop many packets if we attempt to filter by CRC
 1032              		.loc 1 2333 0
 1033 00e2 2376     		strb	r3, [r4, #24]
 1034              		.loc 1 2334 0
 1035 00e4 6061     		str	r0, [r4, #20]
 1036              	.LVL104:
2335:bluetooth_rxtx.c **** 
2336:bluetooth_rxtx.c **** 			for (i = 0; i < 4; ++i)
 1037              		.loc 1 2336 0
 1038 00e6 0346     		mov	r3, r0
 1039 00e8 11E0     		b	.L77
 1040              	.LVL105:
 1041              	.L76:
2328:bluetooth_rxtx.c **** 				memcmp(le.target, &packet[12], 6)) {  // Target address doesn't match Advertiser.
 1042              		.loc 1 2328 0 discriminator 1
 1043 00ea 04F13800 		add	r0, r4, #56
 1044              	.LVL106:
 1045 00ee A91D     		adds	r1, r5, #6
 1046 00f0 0622     		movs	r2, #6
 1047 00f2 FFF7FEFF 		bl	memcmp
 1048              	.LVL107:
2327:bluetooth_rxtx.c **** 				memcmp(le.target, &packet[6], 6) &&  // Target address doesn't match Initiator.
 1049              		.loc 1 2327 0 discriminator 1
 1050 00f6 0028     		cmp	r0, #0
 1051 00f8 F1D0     		beq	.L78
2329:bluetooth_rxtx.c **** 				return;
 1052              		.loc 1 2329 0
 1053 00fa 04F13800 		add	r0, r4, #56
 1054 00fe 05F10C01 		add	r1, r5, #12
 1055 0102 0622     		movs	r2, #6
 1056 0104 FFF7FEFF 		bl	memcmp
 1057              	.LVL108:
2328:bluetooth_rxtx.c **** 				memcmp(le.target, &packet[12], 6)) {  // Target address doesn't match Advertiser.
 1058              		.loc 1 2328 0
 1059 0108 0028     		cmp	r0, #0
ARM GAS  /tmp/ccTiCbBl.s 			page 63


 1060 010a E8D0     		beq	.L78
 1061 010c 38BD     		pop	{r3, r4, r5, pc}
 1062              	.LVL109:
 1063              	.L77:
 1064 010e EA18     		adds	r2, r5, r3
2337:bluetooth_rxtx.c **** 				aa |= packet[18+i] << (i*8);
 1065              		.loc 1 2337 0 discriminator 2
 1066 0110 917C     		ldrb	r1, [r2, #18]	@ zero_extendqisi2
 1067 0112 DA00     		lsls	r2, r3, #3
 1068 0114 01FA02F2 		lsl	r2, r1, r2
2336:bluetooth_rxtx.c **** 				aa |= packet[18+i] << (i*8);
 1069              		.loc 1 2336 0 discriminator 2
 1070 0118 0133     		adds	r3, r3, #1
 1071              	.LVL110:
 1072 011a 042B     		cmp	r3, #4
 1073              		.loc 1 2337 0 discriminator 2
 1074 011c 40EA0200 		orr	r0, r0, r2
 1075              	.LVL111:
2336:bluetooth_rxtx.c **** 				aa |= packet[18+i] << (i*8);
 1076              		.loc 1 2336 0 discriminator 2
 1077 0120 F5D1     		bne	.L77
2338:bluetooth_rxtx.c **** 			le_set_access_address(aa);
 1078              		.loc 1 2338 0
 1079 0122 FFF7FEFF 		bl	le_set_access_address
 1080              	.LVL112:
2339:bluetooth_rxtx.c **** 
2340:bluetooth_rxtx.c **** #define CRC_INIT (2+4+6+6+4)
2341:bluetooth_rxtx.c **** 			le.crc_init = (packet[CRC_INIT+2] << 16)
2342:bluetooth_rxtx.c **** 						| (packet[CRC_INIT+1] << 8)
 1081              		.loc 1 2342 0
 1082 0126 E87D     		ldrb	r0, [r5, #23]	@ zero_extendqisi2
2341:bluetooth_rxtx.c **** 						| (packet[CRC_INIT+1] << 8)
 1083              		.loc 1 2341 0
 1084 0128 2B7E     		ldrb	r3, [r5, #24]	@ zero_extendqisi2
 1085              		.loc 1 2342 0
 1086 012a 0002     		lsls	r0, r0, #8
 1087 012c 40EA0340 		orr	r0, r0, r3, lsl #16
2343:bluetooth_rxtx.c **** 						|  packet[CRC_INIT+0];
 1088              		.loc 1 2343 0
 1089 0130 AB7D     		ldrb	r3, [r5, #22]	@ zero_extendqisi2
 1090 0132 1843     		orrs	r0, r0, r3
2341:bluetooth_rxtx.c **** 						| (packet[CRC_INIT+1] << 8)
 1091              		.loc 1 2341 0
 1092 0134 E060     		str	r0, [r4, #12]
2344:bluetooth_rxtx.c **** 			le.crc_init_reversed = rbit(le.crc_init);
 1093              		.loc 1 2344 0
 1094 0136 FFF7FEFF 		bl	rbit
 1095              	.LVL113:
2345:bluetooth_rxtx.c **** 
2346:bluetooth_rxtx.c **** #define WIN_SIZE (2+4+6+6+4+3)
2347:bluetooth_rxtx.c **** 			le.win_size = packet[WIN_SIZE];
 1096              		.loc 1 2347 0
 1097 013a 6B7E     		ldrb	r3, [r5, #25]	@ zero_extendqisi2
2344:bluetooth_rxtx.c **** 			le.crc_init_reversed = rbit(le.crc_init);
 1098              		.loc 1 2344 0
 1099 013c 2061     		str	r0, [r4, #16]
 1100              		.loc 1 2347 0
ARM GAS  /tmp/ccTiCbBl.s 			page 64


 1101 013e 84F82630 		strb	r3, [r4, #38]
2348:bluetooth_rxtx.c **** 
2349:bluetooth_rxtx.c **** #define WIN_OFFSET (2+4+6+6+4+3+1)
2350:bluetooth_rxtx.c **** 			le.win_offset = packet[WIN_OFFSET];
 1102              		.loc 1 2350 0
 1103 0142 AB7E     		ldrb	r3, [r5, #26]	@ zero_extendqisi2
 1104 0144 2385     		strh	r3, [r4, #40]	@ movhi
2351:bluetooth_rxtx.c **** 
2352:bluetooth_rxtx.c **** #define CONN_INTERVAL (2+4+6+6+4+3+1+2)
2353:bluetooth_rxtx.c **** 			le.conn_interval = (packet[CONN_INTERVAL+1] << 8)
 1105              		.loc 1 2353 0
 1106 0146 6A7F     		ldrb	r2, [r5, #29]	@ zero_extendqisi2
 1107 0148 2B7F     		ldrb	r3, [r5, #28]	@ zero_extendqisi2
 1108 014a 43EA0223 		orr	r3, r3, r2, lsl #8
 1109 014e 6384     		strh	r3, [r4, #34]	@ movhi
2354:bluetooth_rxtx.c **** 							 |  packet[CONN_INTERVAL+0];
2355:bluetooth_rxtx.c **** 
2356:bluetooth_rxtx.c **** #define CHANNEL_INC (2+4+6+6+4+3+1+2+2+2+2+5)
2357:bluetooth_rxtx.c **** 			le.channel_increment = packet[CHANNEL_INC] & 0x1f;
 1110              		.loc 1 2357 0
 1111 0150 95F82730 		ldrb	r3, [r5, #39]	@ zero_extendqisi2
2358:bluetooth_rxtx.c **** 			le.channel_idx = le.channel_increment;
2359:bluetooth_rxtx.c **** 
2360:bluetooth_rxtx.c **** 			// Hop to the initial channel immediately
2361:bluetooth_rxtx.c **** 			do_hop = 1;
 1112              		.loc 1 2361 0
 1113 0154 0122     		movs	r2, #1
2357:bluetooth_rxtx.c **** 			le.channel_idx = le.channel_increment;
 1114              		.loc 1 2357 0
 1115 0156 03F01F03 		and	r3, r3, #31
 1116 015a A376     		strb	r3, [r4, #26]
2358:bluetooth_rxtx.c **** 			le.channel_idx = le.channel_increment;
 1117              		.loc 1 2358 0
 1118 015c 6376     		strb	r3, [r4, #25]
 1119              		.loc 1 2361 0
 1120 015e 034B     		ldr	r3, .L87+8
 1121 0160 DA72     		strb	r2, [r3, #11]
 1122              	.L69:
 1123 0162 38BD     		pop	{r3, r4, r5, pc}
 1124              	.LVL114:
 1125              	.L88:
 1126              		.align	2
 1127              	.L87:
 1128 0164 00000000 		.word	.LANCHOR1
 1129 0168 00000000 		.word	clkn
 1130 016c 00000000 		.word	.LANCHOR0
 1131              	.LBE13:
 1132              	.LBE12:
 1133              		.cfi_endproc
 1134              	.LFE27:
 1136              		.global	__aeabi_llsl
 1137              		.section	.text.vendor_request_handler,"ax",%progbits
 1138              		.align	1
 1139              		.thumb
 1140              		.thumb_func
 1142              	vendor_request_handler:
 1143              	.LFB3:
ARM GAS  /tmp/ccTiCbBl.s 			page 65


 205:bluetooth_rxtx.c **** 	uint32_t clock;
 1144              		.loc 1 205 0
 1145              		.cfi_startproc
 1146              		@ args = 0, pretend = 0, frame = 0
 1147              		@ frame_needed = 0, uses_anonymous_args = 0
 1148              	.LVL115:
 1149 0000 2DE9F041 		push	{r4, r5, r6, r7, r8, lr}
 1150              		.cfi_def_cfa_offset 24
 1151              		.cfi_offset 4, -24
 1152              		.cfi_offset 5, -20
 1153              		.cfi_offset 6, -16
 1154              		.cfi_offset 7, -12
 1155              		.cfi_offset 8, -8
 1156              		.cfi_offset 14, -4
 1157              	.LVL116:
 211:bluetooth_rxtx.c **** 
 1158              		.loc 1 211 0
 1159 0004 974C     		ldr	r4, .L245
 205:bluetooth_rxtx.c **** 	uint32_t clock;
 1160              		.loc 1 205 0
 1161 0006 1D46     		mov	r5, r3
 211:bluetooth_rxtx.c **** 
 1162              		.loc 1 211 0
 1163 0008 1B68     		ldr	r3, [r3]
 1164              	.LVL117:
 205:bluetooth_rxtx.c **** 	uint32_t clock;
 1165              		.loc 1 205 0
 1166 000a 0F46     		mov	r7, r1
 1167 000c 1646     		mov	r6, r2
 211:bluetooth_rxtx.c **** 
 1168              		.loc 1 211 0
 1169 000e 2362     		str	r3, [r4, #32]
 213:bluetooth_rxtx.c **** 
 1170              		.loc 1 213 0
 1171 0010 4828     		cmp	r0, #72
 1172 0012 00F22683 		bhi	.L204
 1173 0016 DFE810F0 		tbh	[pc, r0, lsl #1]
 1174              	.LVL118:
 1175              	.L92:
 1176 001a 0001     		.2byte	(.L221-.L92)/2
 1177 001c 4B00     		.2byte	(.L93-.L92)/2
 1178 001e 4F00     		.2byte	(.L94-.L92)/2
 1179 0020 5200     		.2byte	(.L95-.L92)/2
 1180 0022 5700     		.2byte	(.L96-.L92)/2
 1181 0024 5A00     		.2byte	(.L97-.L92)/2
 1182 0026 5F00     		.2byte	(.L98-.L92)/2
 1183 0028 6200     		.2byte	(.L99-.L92)/2
 1184 002a 6400     		.2byte	(.L100-.L92)/2
 1185 002c 6800     		.2byte	(.L101-.L92)/2
 1186 002e 6D00     		.2byte	(.L102-.L92)/2
 1187 0030 C000     		.2byte	(.L103-.L92)/2
 1188 0032 C700     		.2byte	(.L104-.L92)/2
 1189 0034 0501     		.2byte	(.L236-.L92)/2
 1190 0036 7B00     		.2byte	(.L106-.L92)/2
 1191 0038 7600     		.2byte	(.L107-.L92)/2
 1192 003a 8000     		.2byte	(.L108-.L92)/2
 1193 003c 8500     		.2byte	(.L109-.L92)/2
ARM GAS  /tmp/ccTiCbBl.s 			page 66


 1194 003e 8800     		.2byte	(.L110-.L92)/2
 1195 0040 8D00     		.2byte	(.L111-.L92)/2
 1196 0042 9500     		.2byte	(.L112-.L92)/2
 1197 0044 B900     		.2byte	(.L113-.L92)/2
 1198 0046 BB00     		.2byte	(.L114-.L92)/2
 1199 0048 BD00     		.2byte	(.L115-.L92)/2
 1200 004a FE00     		.2byte	(.L116-.L92)/2
 1201 004c 0201     		.2byte	(.L117-.L92)/2
 1202 004e 2403     		.2byte	(.L204-.L92)/2
 1203 0050 0701     		.2byte	(.L118-.L92)/2
 1204 0052 9800     		.2byte	(.L119-.L92)/2
 1205 0054 9F00     		.2byte	(.L120-.L92)/2
 1206 0056 A900     		.2byte	(.L121-.L92)/2
 1207 0058 A700     		.2byte	(.L122-.L92)/2
 1208 005a AB00     		.2byte	(.L123-.L92)/2
 1209 005c 4B01     		.2byte	(.L124-.L92)/2
 1210 005e 3D01     		.2byte	(.L125-.L92)/2
 1211 0060 6801     		.2byte	(.L126-.L92)/2
 1212 0062 6B01     		.2byte	(.L127-.L92)/2
 1213 0064 6F01     		.2byte	(.L128-.L92)/2
 1214 0066 7301     		.2byte	(.L129-.L92)/2
 1215 0068 A601     		.2byte	(.L130-.L92)/2
 1216 006a DB01     		.2byte	(.L131-.L92)/2
 1217 006c FF01     		.2byte	(.L132-.L92)/2
 1218 006e 3F02     		.2byte	(.L133-.L92)/2
 1219 0070 5202     		.2byte	(.L134-.L92)/2
 1220 0072 5D02     		.2byte	(.L135-.L92)/2
 1221 0074 2103     		.2byte	(.L197-.L92)/2
 1222 0076 6C02     		.2byte	(.L137-.L92)/2
 1223 0078 7102     		.2byte	(.L138-.L92)/2
 1224 007a 7702     		.2byte	(.L139-.L92)/2
 1225 007c 7E02     		.2byte	(.L140-.L92)/2
 1226 007e 8D02     		.2byte	(.L141-.L92)/2
 1227 0080 E801     		.2byte	(.L142-.L92)/2
 1228 0082 F501     		.2byte	(.L143-.L92)/2
 1229 0084 9302     		.2byte	(.L144-.L92)/2
 1230 0086 EA02     		.2byte	(.L145-.L92)/2
 1231 0088 5A01     		.2byte	(.L146-.L92)/2
 1232 008a 0303     		.2byte	(.L147-.L92)/2
 1233 008c 2403     		.2byte	(.L204-.L92)/2
 1234 008e 9B02     		.2byte	(.L148-.L92)/2
 1235 0090 1A03     		.2byte	(.L149-.L92)/2
 1236 0092 1D03     		.2byte	(.L150-.L92)/2
 1237 0094 C501     		.2byte	(.L151-.L92)/2
 1238 0096 D701     		.2byte	(.L152-.L92)/2
 1239 0098 0A02     		.2byte	(.L153-.L92)/2
 1240 009a 2403     		.2byte	(.L204-.L92)/2
 1241 009c 4900     		.2byte	(.L154-.L92)/2
 1242 009e D102     		.2byte	(.L155-.L92)/2
 1243 00a0 3B01     		.2byte	(.L156-.L92)/2
 1244 00a2 E102     		.2byte	(.L157-.L92)/2
 1245 00a4 1102     		.2byte	(.L158-.L92)/2
 1246 00a6 4602     		.2byte	(.L159-.L92)/2
 1247 00a8 4C02     		.2byte	(.L160-.L92)/2
 1248 00aa F502     		.2byte	(.L161-.L92)/2
 1249              	.L154:
 1250 00ac 0024     		movs	r4, #0
ARM GAS  /tmp/ccTiCbBl.s 			page 67


 1251 00ae 75E2     		b	.L162
 1252              	.L93:
 220:bluetooth_rxtx.c **** 		*data_len = 0;
 1253              		.loc 1 220 0
 1254 00b0 0120     		movs	r0, #1
 1255              	.LVL119:
 1256 00b2 A074     		strb	r0, [r4, #18]
 221:bluetooth_rxtx.c **** 		break;
 1257              		.loc 1 221 0
 1258 00b4 0023     		movs	r3, #0
 1259 00b6 A2E1     		b	.L214
 1260              	.LVL120:
 1261              	.L94:
 225:bluetooth_rxtx.c **** 		requested_mode = MODE_TX_SYMBOLS;
 1262              		.loc 1 225 0
 1263 00b8 0223     		movs	r3, #2
 1264 00ba A372     		strb	r3, [r4, #10]
 1265 00bc F6E0     		b	.L237
 1266              	.L95:
 231:bluetooth_rxtx.c **** 		*data_len = 1;
 1267              		.loc 1 231 0
 1268 00be 6A4B     		ldr	r3, .L245+4
 1269 00c0 1B68     		ldr	r3, [r3]
 1270 00c2 C3F34003 		ubfx	r3, r3, #1, #1
 1271 00c6 19E1     		b	.L215
 1272              	.L96:
 236:bluetooth_rxtx.c **** 			USRLED_SET;
 1273              		.loc 1 236 0
 1274 00c8 0A88     		ldrh	r2, [r1]
 1275 00ca 0223     		movs	r3, #2
 1276 00cc 15E0     		b	.L233
 1277              	.L97:
 243:bluetooth_rxtx.c **** 		*data_len = 1;
 1278              		.loc 1 243 0
 1279 00ce 664B     		ldr	r3, .L245+4
 1280 00d0 1B68     		ldr	r3, [r3]
 1281 00d2 C3F30013 		ubfx	r3, r3, #4, #1
 1282 00d6 11E1     		b	.L215
 1283              	.L98:
 248:bluetooth_rxtx.c **** 			RXLED_SET;
 1284              		.loc 1 248 0
 1285 00d8 0A88     		ldrh	r2, [r1]
 1286 00da 1023     		movs	r3, #16
 1287 00dc 0DE0     		b	.L233
 1288              	.L99:
 255:bluetooth_rxtx.c **** 		*data_len = 1;
 1289              		.loc 1 255 0
 1290 00de 624B     		ldr	r3, .L245+4
 1291 00e0 24E0     		b	.L239
 1292              	.L100:
 260:bluetooth_rxtx.c **** 			TXLED_SET;
 1293              		.loc 1 260 0
 1294 00e2 0A88     		ldrh	r2, [r1]
 1295 00e4 4FF48073 		mov	r3, #256
 1296 00e8 07E0     		b	.L233
 1297              	.L101:
 267:bluetooth_rxtx.c **** 		*data_len = 1;
ARM GAS  /tmp/ccTiCbBl.s 			page 68


 1298              		.loc 1 267 0
 1299 00ea 5F4B     		ldr	r3, .L245+4
 1300 00ec 1B68     		ldr	r3, [r3]
 1301 00ee C3F34023 		ubfx	r3, r3, #9, #1
 1302 00f2 03E1     		b	.L215
 1303              	.L102:
 272:bluetooth_rxtx.c **** 			CC1V8_SET;
 1304              		.loc 1 272 0
 1305 00f4 0A88     		ldrh	r2, [r1]
 1306 00f6 4FF40073 		mov	r3, #512
 1307              	.L233:
 1308 00fa 12B9     		cbnz	r2, .L244
 263:bluetooth_rxtx.c **** 		break;
 1309              		.loc 1 263 0
 1310 00fc 5B4A     		ldr	r2, .L245+8
 1311              	.L217:
 1312 00fe 1360     		str	r3, [r2]
 1313 0100 ACE2     		b	.L197
 1314              	.L244:
 273:bluetooth_rxtx.c **** 		else
 1315              		.loc 1 273 0
 1316 0102 5B4A     		ldr	r2, .L245+12
 1317 0104 FBE7     		b	.L217
 1318              	.L107:
 279:bluetooth_rxtx.c **** 		break;
 1319              		.loc 1 279 0
 1320 0106 3046     		mov	r0, r6
 1321              	.LVL121:
 1322 0108 2946     		mov	r1, r5
 1323              	.LVL122:
 1324 010a FFF7FEFF 		bl	get_part_num
 1325              	.LVL123:
 1326 010e A5E2     		b	.L197
 1327              	.LVL124:
 1328              	.L106:
 287:bluetooth_rxtx.c **** 		break;
 1329              		.loc 1 287 0
 1330 0110 3046     		mov	r0, r6
 1331              	.LVL125:
 1332 0112 2946     		mov	r1, r5
 1333              	.LVL126:
 1334 0114 FFF7FEFF 		bl	get_device_serial
 1335              	.LVL127:
 1336 0118 A0E2     		b	.L197
 1337              	.LVL128:
 1338              	.L108:
 292:bluetooth_rxtx.c **** 		*data_len = 1;
 1339              		.loc 1 292 0
 1340 011a 564B     		ldr	r3, .L245+16
 1341 011c 1B68     		ldr	r3, [r3]
 1342 011e C3F3C013 		ubfx	r3, r3, #7, #1
 1343 0122 EBE0     		b	.L215
 1344              	.L109:
 297:bluetooth_rxtx.c **** 			PAEN_SET;
 1345              		.loc 1 297 0
 1346 0124 0A88     		ldrh	r2, [r1]
 1347 0126 8023     		movs	r3, #128
ARM GAS  /tmp/ccTiCbBl.s 			page 69


 1348 0128 07E0     		b	.L235
 1349              	.L110:
 304:bluetooth_rxtx.c **** 		*data_len = 1;
 1350              		.loc 1 304 0
 1351 012a 524B     		ldr	r3, .L245+16
 1352              	.L239:
 1353 012c 1B68     		ldr	r3, [r3]
 1354 012e C3F30023 		ubfx	r3, r3, #8, #1
 1355 0132 E3E0     		b	.L215
 1356              	.L111:
 309:bluetooth_rxtx.c **** 			HGM_SET;
 1357              		.loc 1 309 0
 1358 0134 0A88     		ldrh	r2, [r1]
 1359 0136 4FF48073 		mov	r3, #256
 1360              	.L235:
 1361 013a 0AB1     		cbz	r2, .L168
 310:bluetooth_rxtx.c **** 		else
 1362              		.loc 1 310 0
 1363 013c 4E4A     		ldr	r2, .L245+20
 1364 013e DEE7     		b	.L217
 1365              	.L168:
 312:bluetooth_rxtx.c **** 		break;
 1366              		.loc 1 312 0
 1367 0140 4E4A     		ldr	r2, .L245+24
 1368 0142 DCE7     		b	.L217
 1369              	.L112:
 318:bluetooth_rxtx.c **** 		break;
 1370              		.loc 1 318 0
 1371 0144 0323     		movs	r3, #3
 1372              	.LVL129:
 1373              	.L220:
 1374 0146 A374     		strb	r3, [r4, #18]
 1375 0148 88E2     		b	.L197
 1376              	.LVL130:
 1377              	.L119:
 322:bluetooth_rxtx.c **** 		*data_len = 1;
 1378              		.loc 1 322 0
 1379 014a 0520     		movs	r0, #5
 1380              	.LVL131:
 1381 014c FFF7FEFF 		bl	cc2400_get
 1382              	.LVL132:
 1383 0150 00F00700 		and	r0, r0, #7
 1384 0154 3070     		strb	r0, [r6]
 1385 0156 E9E1     		b	.L211
 1386              	.LVL133:
 1387              	.L120:
 327:bluetooth_rxtx.c **** 			cc2400_set(FREND, 8 | request_params[0]);
 1388              		.loc 1 327 0
 1389 0158 0988     		ldrh	r1, [r1]
 1390              	.LVL134:
 1391 015a 0729     		cmp	r1, #7
 1392 015c 00F28182 		bhi	.L204
 328:bluetooth_rxtx.c **** 		} else {
 1393              		.loc 1 328 0
 1394 0160 0520     		movs	r0, #5
 1395              	.LVL135:
 1396 0162 41F00801 		orr	r1, r1, #8
ARM GAS  /tmp/ccTiCbBl.s 			page 70


 1397 0166 F5E1     		b	.L225
 1398              	.LVL136:
 1399              	.L122:
 335:bluetooth_rxtx.c **** 		break;
 1400              		.loc 1 335 0
 1401 0168 0523     		movs	r3, #5
 1402 016a ECE7     		b	.L220
 1403              	.L121:
 339:bluetooth_rxtx.c **** 		break;
 1404              		.loc 1 339 0
 1405 016c 0623     		movs	r3, #6
 1406 016e EAE7     		b	.L220
 1407              	.L123:
 344:bluetooth_rxtx.c **** 		data[1] = rr.request_pa;
 1408              		.loc 1 344 0
 1409 0170 434B     		ldr	r3, .L245+28
 1410 0172 1A78     		ldrb	r2, [r3]	@ zero_extendqisi2
 1411 0174 3270     		strb	r2, [r6]
 345:bluetooth_rxtx.c **** 		data[2] = rr.request_num;
 1412              		.loc 1 345 0
 1413 0176 5A78     		ldrb	r2, [r3, #1]	@ zero_extendqisi2
 1414 0178 7270     		strb	r2, [r6, #1]
 346:bluetooth_rxtx.c **** 		data[3] = rr.reply_pa;
 1415              		.loc 1 346 0
 1416 017a 9A78     		ldrb	r2, [r3, #2]	@ zero_extendqisi2
 1417 017c B270     		strb	r2, [r6, #2]
 347:bluetooth_rxtx.c **** 		data[4] = rr.reply_num;
 1418              		.loc 1 347 0
 1419 017e DA78     		ldrb	r2, [r3, #3]	@ zero_extendqisi2
 1420 0180 F270     		strb	r2, [r6, #3]
 348:bluetooth_rxtx.c **** 		*data_len = 5;
 1421              		.loc 1 348 0
 1422 0182 1B79     		ldrb	r3, [r3, #4]	@ zero_extendqisi2
 1423 0184 3371     		strb	r3, [r6, #4]
 349:bluetooth_rxtx.c **** 		break;
 1424              		.loc 1 349 0
 1425 0186 0523     		movs	r3, #5
 1426              	.LVL137:
 1427              	.L223:
 1428 0188 2B60     		str	r3, [r5]
 1429 018a 67E2     		b	.L197
 1430              	.LVL138:
 1431              	.L113:
 353:bluetooth_rxtx.c **** 		break;
 1432              		.loc 1 353 0
 1433 018c 0023     		movs	r3, #0
 1434 018e DAE7     		b	.L220
 1435              	.L114:
 357:bluetooth_rxtx.c **** 		*data_len = 1;
 1436              		.loc 1 357 0
 1437 0190 2378     		ldrb	r3, [r4]	@ zero_extendqisi2
 1438 0192 B3E0     		b	.L215
 1439              	.L115:
 362:bluetooth_rxtx.c **** 		break;
 1440              		.loc 1 362 0
 1441 0194 0B78     		ldrb	r3, [r1]	@ zero_extendqisi2
 1442 0196 2370     		strb	r3, [r4]
ARM GAS  /tmp/ccTiCbBl.s 			page 71


 1443 0198 60E2     		b	.L197
 1444              	.L103:
 366:bluetooth_rxtx.c **** 		data[1] = (channel >> 8) & 0xFF;
 1445              		.loc 1 366 0
 1446 019a 3A4B     		ldr	r3, .L245+32
 1447 019c 1A88     		ldrh	r2, [r3]
 1448 019e 3270     		strb	r2, [r6]
 367:bluetooth_rxtx.c **** 		*data_len = 2;
 1449              		.loc 1 367 0
 1450 01a0 1B88     		ldrh	r3, [r3]
 1451 01a2 C3F30723 		ubfx	r3, r3, #8, #8
 1452 01a6 A7E1     		b	.L243
 1453              	.L104:
 372:bluetooth_rxtx.c **** 		/* bluetooth band sweep mode, start at channel 2402 */
 1454              		.loc 1 372 0
 1455 01a8 0A88     		ldrh	r2, [r1]
 1456 01aa 2E4B     		ldr	r3, .L245
 1457 01ac E281     		strh	r2, [r4, #14]	@ movhi
 374:bluetooth_rxtx.c **** 			hop_mode = HOP_SWEEP;
 1458              		.loc 1 374 0
 1459 01ae E189     		ldrh	r1, [r4, #14]
 1460              	.LVL139:
 1461 01b0 40F6EA22 		movw	r2, #2794
 1462 01b4 89B2     		uxth	r1, r1
 1463 01b6 9142     		cmp	r1, r2
 1464 01b8 05D9     		bls	.L169
 375:bluetooth_rxtx.c **** 			requested_channel = 2402;
 1465              		.loc 1 375 0
 1466 01ba 0122     		movs	r2, #1
 1467 01bc 9A72     		strb	r2, [r3, #10]
 376:bluetooth_rxtx.c **** 		}
 1468              		.loc 1 376 0
 1469 01be 40F66212 		movw	r2, #2402
 1470 01c2 DA81     		strh	r2, [r3, #14]	@ movhi
 1471 01c4 17E0     		b	.L170
 1472              	.L169:
 380:bluetooth_rxtx.c **** 			requested_channel = MAX(requested_channel, MIN_FREQ);
 1473              		.loc 1 380 0
 1474 01c6 0022     		movs	r2, #0
 1475 01c8 9A72     		strb	r2, [r3, #10]
 381:bluetooth_rxtx.c **** 			requested_channel = MIN(requested_channel, MAX_FREQ);
 1476              		.loc 1 381 0
 1477 01ca D989     		ldrh	r1, [r3, #14]
 1478 01cc 40F6DC02 		movw	r2, #2268
 1479 01d0 89B2     		uxth	r1, r1
 1480 01d2 9142     		cmp	r1, r2
 1481 01d4 8ABF     		itet	hi
 1482 01d6 DB89     		ldrhhi	r3, [r3, #14]
 1483 01d8 1346     		movls	r3, r2
 1484 01da 9BB2     		uxthhi	r3, r3
 1485 01dc E381     		strh	r3, [r4, #14]	@ movhi
 382:bluetooth_rxtx.c **** 		}
 1486              		.loc 1 382 0
 1487 01de E289     		ldrh	r2, [r4, #14]
 1488 01e0 40F6E923 		movw	r3, #2793
 1489 01e4 92B2     		uxth	r2, r2
 1490 01e6 9A42     		cmp	r2, r3
ARM GAS  /tmp/ccTiCbBl.s 			page 72


 1491 01e8 97BF     		itett	ls
 1492 01ea 1E4B     		ldrls	r3, .L245
 1493 01ec 40F6EA23 		movwhi	r3, #2794
 1494 01f0 DB89     		ldrhls	r3, [r3, #14]
 1495 01f2 9BB2     		uxthls	r3, r3
 1496 01f4 E381     		strh	r3, [r4, #14]	@ movhi
 1497              	.L170:
 385:bluetooth_rxtx.c **** 		if (mode != MODE_BT_FOLLOW_LE) {
 1498              		.loc 1 385 0
 1499 01f6 E189     		ldrh	r1, [r4, #14]
 1500 01f8 224B     		ldr	r3, .L245+32
 1501 01fa 89B2     		uxth	r1, r1
 1502 01fc A3F84A10 		strh	r1, [r3, #74]	@ movhi
 386:bluetooth_rxtx.c **** 			channel = requested_channel;
 1503              		.loc 1 386 0
 1504 0200 617C     		ldrb	r1, [r4, #17]	@ zero_extendqisi2
 385:bluetooth_rxtx.c **** 		if (mode != MODE_BT_FOLLOW_LE) {
 1505              		.loc 1 385 0
 1506 0202 184A     		ldr	r2, .L245
 386:bluetooth_rxtx.c **** 			channel = requested_channel;
 1507              		.loc 1 386 0
 1508 0204 0929     		cmp	r1, #9
 1509 0206 00F02982 		beq	.L197
 387:bluetooth_rxtx.c **** 			requested_channel = 0;
 1510              		.loc 1 387 0
 1511 020a D189     		ldrh	r1, [r2, #14]
 1512 020c 89B2     		uxth	r1, r1
 1513 020e 1980     		strh	r1, [r3]	@ movhi
 388:bluetooth_rxtx.c **** 
 1514              		.loc 1 388 0
 1515 0210 0021     		movs	r1, #0
 1516 0212 D181     		strh	r1, [r2, #14]	@ movhi
 1517 0214 FFE1     		b	.L227
 1518              	.LVL140:
 1519              	.L116:
 397:bluetooth_rxtx.c **** 		*data_len = 0; /* should never return */
 1520              		.loc 1 397 0
 1521 0216 FFF7FEFF 		bl	set_isp
 1522              	.LVL141:
 1523              	.L221:
 398:bluetooth_rxtx.c **** 		break;
 1524              		.loc 1 398 0
 1525 021a 0023     		movs	r3, #0
 1526 021c B4E7     		b	.L223
 1527              	.LVL142:
 1528              	.L117:
 402:bluetooth_rxtx.c **** 		requested_mode = MODE_RESET;
 1529              		.loc 1 402 0
 1530 021e 1A4A     		ldr	r2, .L245+36
 1531 0220 1A4B     		ldr	r3, .L245+40
 1532 0222 1A60     		str	r2, [r3]
 1533              	.L236:
 403:bluetooth_rxtx.c **** 		break;
 1534              		.loc 1 403 0
 1535 0224 0B23     		movs	r3, #11
 1536 0226 8EE7     		b	.L220
 1537              	.L118:
ARM GAS  /tmp/ccTiCbBl.s 			page 73


 407:bluetooth_rxtx.c **** 				request_params[1] < 2049 || request_params[1] > 3072 ||
 1538              		.loc 1 407 0
 1539 0228 0A88     		ldrh	r2, [r1]
 1540 022a 6FF4006C 		mvn	ip, #2048
 1541 022e 02EB0C03 		add	r3, r2, ip
 1542 0232 40F2FF31 		movw	r1, #1023
 1543              	.LVL143:
 1544 0236 9BB2     		uxth	r3, r3
 1545 0238 8B42     		cmp	r3, r1
 1546 023a 00F21282 		bhi	.L204
 408:bluetooth_rxtx.c **** 				request_params[1] < request_params[0])
 1547              		.loc 1 408 0 discriminator 1
 1548 023e 7B88     		ldrh	r3, [r7, #2]
 407:bluetooth_rxtx.c **** 				request_params[1] < 2049 || request_params[1] > 3072 ||
 1549              		.loc 1 407 0 discriminator 1
 1550 0240 6FF40066 		mvn	r6, #2048
 1551              	.LVL144:
 1552 0244 9819     		adds	r0, r3, r6
 1553              	.LVL145:
 1554 0246 80B2     		uxth	r0, r0
 1555 0248 8842     		cmp	r0, r1
 1556 024a 00F20A82 		bhi	.L204
 408:bluetooth_rxtx.c **** 				request_params[1] < request_params[0])
 1557              		.loc 1 408 0 discriminator 1
 1558 024e 9342     		cmp	r3, r2
 1559 0250 C0F00782 		bcc	.L204
 411:bluetooth_rxtx.c **** 		high_freq = request_params[1];
 1560              		.loc 1 411 0
 1561 0254 0B49     		ldr	r1, .L245+32
 1562 0256 A1F84C20 		strh	r2, [r1, #76]	@ movhi
 412:bluetooth_rxtx.c **** 		requested_mode = MODE_SPECAN;
 1563              		.loc 1 412 0
 1564 025a A1F84E30 		strh	r3, [r1, #78]	@ movhi
 413:bluetooth_rxtx.c **** 		*data_len = 0;
 1565              		.loc 1 413 0
 1566 025e 0423     		movs	r3, #4
 1567 0260 24E0     		b	.L237
 1568              	.L246:
 1569 0262 00BF     		.align	2
 1570              	.L245:
 1571 0264 00000000 		.word	.LANCHOR0
 1572 0268 34C00920 		.word	537509940
 1573 026c 3CC00920 		.word	537509948
 1574 0270 38C00920 		.word	537509944
 1575 0274 54C00920 		.word	537509972
 1576 0278 58C00920 		.word	537509976
 1577 027c 5CC00920 		.word	537509980
 1578 0280 00000000 		.word	rr
 1579 0284 00000000 		.word	.LANCHOR1
 1580 0288 21BB0543 		.word	1124449057
 1581 028c 00000000 		.word	bootloader_ctrl
 1582              	.LVL146:
 1583              	.L156:
 418:bluetooth_rxtx.c **** 		*data_len = 0;
 1584              		.loc 1 418 0
 1585 0290 0F23     		movs	r3, #15
 1586 0292 0BE0     		b	.L237
ARM GAS  /tmp/ccTiCbBl.s 			page 74


 1587              	.L125:
 423:bluetooth_rxtx.c **** 			return 0;
 1588              		.loc 1 423 0
 1589 0294 0B88     		ldrh	r3, [r1]
 1590 0296 B3F5807F 		cmp	r3, #256
 1591 029a 00F2E281 		bhi	.L204
 425:bluetooth_rxtx.c **** 		requested_mode = MODE_LED_SPECAN;
 1592              		.loc 1 425 0
 1593 029e C3F13603 		rsb	r3, r3, #54
 1594 02a2 AE4A     		ldr	r2, .L247
 1595 02a4 DBB2     		uxtb	r3, r3
 1596 02a6 82F85030 		strb	r3, [r2, #80]
 426:bluetooth_rxtx.c **** 		*data_len = 0;
 1597              		.loc 1 426 0
 1598 02aa 0723     		movs	r3, #7
 1599              	.LVL147:
 1600              	.L237:
 1601 02ac A374     		strb	r3, [r4, #18]
 1602 02ae B4E7     		b	.L221
 1603              	.LVL148:
 1604              	.L124:
 431:bluetooth_rxtx.c **** 		data[1] = 0x00;
 1605              		.loc 1 431 0
 1606 02b0 0023     		movs	r3, #0
 1607 02b2 3370     		strb	r3, [r6]
 432:bluetooth_rxtx.c **** 
 1608              		.loc 1 432 0
 1609 02b4 7370     		strb	r3, [r6, #1]
 434:bluetooth_rxtx.c **** 		data[2] = length;
 1610              		.loc 1 434 0
 1611 02b6 AA48     		ldr	r0, .L247+4
 1612              	.LVL149:
 1613 02b8 FFF7FEFF 		bl	strlen
 1614              	.LVL150:
 1615 02bc C4B2     		uxtb	r4, r0
 1616              	.LVL151:
 435:bluetooth_rxtx.c **** 
 1617              		.loc 1 435 0
 1618 02be B470     		strb	r4, [r6, #2]
 437:bluetooth_rxtx.c **** 
 1619              		.loc 1 437 0
 1620 02c0 2246     		mov	r2, r4
 1621 02c2 F01C     		adds	r0, r6, #3
 1622 02c4 A649     		ldr	r1, .L247+4
 1623 02c6 FFF7FEFF 		bl	memcpy
 1624              	.LVL152:
 439:bluetooth_rxtx.c **** 		break;
 1625              		.loc 1 439 0
 1626 02ca 0334     		adds	r4, r4, #3
 1627              	.LVL153:
 1628 02cc 0BE0     		b	.L226
 1629              	.LVL154:
 1630              	.L146:
 443:bluetooth_rxtx.c **** 		data[0] = length;
 1631              		.loc 1 443 0
 1632 02ce A548     		ldr	r0, .L247+8
 1633              	.LVL155:
ARM GAS  /tmp/ccTiCbBl.s 			page 75


 1634 02d0 FFF7FEFF 		bl	strlen
 1635              	.LVL156:
 1636 02d4 C4B2     		uxtb	r4, r0
 1637              	.LVL157:
 444:bluetooth_rxtx.c **** 		memcpy(&data[1], compile_info, length);
 1638              		.loc 1 444 0
 1639 02d6 3046     		mov	r0, r6
 1640 02d8 00F8014B 		strb	r4, [r0], #1
 445:bluetooth_rxtx.c **** 		*data_len = 1 + length;
 1641              		.loc 1 445 0
 1642 02dc 2246     		mov	r2, r4
 1643 02de A149     		ldr	r1, .L247+8
 1644 02e0 FFF7FEFF 		bl	memcpy
 1645              	.LVL158:
 446:bluetooth_rxtx.c **** 		break;
 1646              		.loc 1 446 0
 1647 02e4 0134     		adds	r4, r4, #1
 1648              	.LVL159:
 1649              	.L226:
 1650 02e6 2C60     		str	r4, [r5]
 1651 02e8 B8E1     		b	.L197
 1652              	.LVL160:
 1653              	.L126:
 450:bluetooth_rxtx.c **** 		*data_len = 1;
 1654              		.loc 1 450 0
 1655 02ea 0120     		movs	r0, #1
 1656              	.LVL161:
 1657 02ec 3070     		strb	r0, [r6]
 1658 02ee 1EE1     		b	.L212
 1659              	.LVL162:
 1660              	.L127:
 455:bluetooth_rxtx.c **** 		cs_threshold_calc_and_set(channel);
 1661              		.loc 1 455 0
 1662 02f0 0A88     		ldrh	r2, [r1]
 1663 02f2 9D4B     		ldr	r3, .L247+12
 1664 02f4 1A70     		strb	r2, [r3]
 1665 02f6 8DE1     		b	.L224
 1666              	.L128:
 460:bluetooth_rxtx.c **** 		*data_len = 1;
 1667              		.loc 1 460 0
 1668 02f8 9B4B     		ldr	r3, .L247+12
 1669 02fa 1B78     		ldrb	r3, [r3]	@ zero_extendqisi2
 1670              	.L215:
 1671 02fc 3370     		strb	r3, [r6]
 1672 02fe 15E1     		b	.L211
 1673              	.L129:
 465:bluetooth_rxtx.c **** 		target.syncword = 0;
 1674              		.loc 1 465 0
 1675 0300 9A4F     		ldr	r7, .L247+16
 1676 0302 0024     		movs	r4, #0
 1677 0304 0025     		movs	r5, #0
 1678              	.LVL163:
 1679 0306 C7E90045 		strd	r4, [r7]
 466:bluetooth_rxtx.c **** 		for(int i=0; i < 8; i++) {
 1680              		.loc 1 466 0
 1681 030a C7E90245 		strd	r4, [r7, #8]
 1682              	.LVL164:
ARM GAS  /tmp/ccTiCbBl.s 			page 76


 1683              	.LBB14:
 467:bluetooth_rxtx.c **** 			target.address |= (uint64_t)data[i] << 8*i;
 1684              		.loc 1 467 0
 1685 030e 4FF00008 		mov	r8, #0
 1686              	.LVL165:
 1687              	.L175:
 468:bluetooth_rxtx.c **** 		}
 1688              		.loc 1 468 0 discriminator 2
 1689 0312 16F80800 		ldrb	r0, [r6, r8]	@ zero_extendqisi2
 1690 0316 4FEAC802 		lsl	r2, r8, #3
 1691 031a 0021     		movs	r1, #0
 1692 031c FFF7FEFF 		bl	__aeabi_llsl
 1693              	.LVL166:
 1694 0320 D7E90045 		ldrd	r4, [r7]
 467:bluetooth_rxtx.c **** 			target.address |= (uint64_t)data[i] << 8*i;
 1695              		.loc 1 467 0 discriminator 2
 1696 0324 08F10108 		add	r8, r8, #1
 1697              	.LVL167:
 468:bluetooth_rxtx.c **** 		}
 1698              		.loc 1 468 0 discriminator 2
 1699 0328 2043     		orrs	r0, r0, r4
 1700 032a 2943     		orrs	r1, r1, r5
 467:bluetooth_rxtx.c **** 			target.address |= (uint64_t)data[i] << 8*i;
 1701              		.loc 1 467 0 discriminator 2
 1702 032c B8F1080F 		cmp	r8, #8
 468:bluetooth_rxtx.c **** 		}
 1703              		.loc 1 468 0 discriminator 2
 1704 0330 C7E90001 		strd	r0, [r7]
 467:bluetooth_rxtx.c **** 			target.address |= (uint64_t)data[i] << 8*i;
 1705              		.loc 1 467 0 discriminator 2
 1706 0334 EDD1     		bne	.L175
 467:bluetooth_rxtx.c **** 			target.address |= (uint64_t)data[i] << 8*i;
 1707              		.loc 1 467 0 is_stmt 0
 1708 0336 4FF00008 		mov	r8, #0
 1709              	.LVL168:
 1710              	.L177:
 1711 033a 06EB0803 		add	r3, r6, r8
 1712              	.LBE14:
 1713              	.LBB15:
 471:bluetooth_rxtx.c **** 		}
 1714              		.loc 1 471 0 is_stmt 1 discriminator 2
 1715 033e 187A     		ldrb	r0, [r3, #8]	@ zero_extendqisi2
 1716 0340 4FEAC802 		lsl	r2, r8, #3
 1717 0344 0021     		movs	r1, #0
 1718 0346 FFF7FEFF 		bl	__aeabi_llsl
 1719              	.LVL169:
 1720 034a D7E90245 		ldrd	r4, [r7, #8]
 470:bluetooth_rxtx.c **** 			target.syncword |= (uint64_t)data[i+8] << 8*i;
 1721              		.loc 1 470 0 discriminator 2
 1722 034e 08F10108 		add	r8, r8, #1
 1723              	.LVL170:
 471:bluetooth_rxtx.c **** 		}
 1724              		.loc 1 471 0 discriminator 2
 1725 0352 2043     		orrs	r0, r0, r4
 1726 0354 2943     		orrs	r1, r1, r5
 470:bluetooth_rxtx.c **** 			target.syncword |= (uint64_t)data[i+8] << 8*i;
 1727              		.loc 1 470 0 discriminator 2
ARM GAS  /tmp/ccTiCbBl.s 			page 77


 1728 0356 B8F1080F 		cmp	r8, #8
 471:bluetooth_rxtx.c **** 		}
 1729              		.loc 1 471 0 discriminator 2
 1730 035a C7E90201 		strd	r0, [r7, #8]
 470:bluetooth_rxtx.c **** 			target.syncword |= (uint64_t)data[i+8] << 8*i;
 1731              		.loc 1 470 0 discriminator 2
 1732 035e ECD1     		bne	.L177
 1733              	.LBE15:
 473:bluetooth_rxtx.c **** 		break;
 1734              		.loc 1 473 0
 1735 0360 FFF7FEFF 		bl	precalc
 1736              	.LVL171:
 1737 0364 7AE1     		b	.L197
 1738              	.LVL172:
 1739              	.L130:
 477:bluetooth_rxtx.c **** 		for(int i=0; i < 4; i++) {
 1740              		.loc 1 477 0
 1741 0366 824A     		ldr	r2, .L247+20
 1742 0368 0023     		movs	r3, #0
 1743 036a 1360     		str	r3, [r2]
 1744              	.LVL173:
 1745              	.L179:
 1746              	.LBB16:
 479:bluetooth_rxtx.c **** 			clkn_offset |= data[i];
 1747              		.loc 1 479 0 discriminator 2
 1748 036c 1168     		ldr	r1, [r2]
 1749 036e 0902     		lsls	r1, r1, #8
 1750 0370 1160     		str	r1, [r2]
 480:bluetooth_rxtx.c **** 		}
 1751              		.loc 1 480 0 discriminator 2
 1752 0372 F05C     		ldrb	r0, [r6, r3]	@ zero_extendqisi2
 1753 0374 1168     		ldr	r1, [r2]
 478:bluetooth_rxtx.c **** 			clkn_offset <<= 8;
 1754              		.loc 1 478 0 discriminator 2
 1755 0376 0133     		adds	r3, r3, #1
 1756              	.LVL174:
 480:bluetooth_rxtx.c **** 		}
 1757              		.loc 1 480 0 discriminator 2
 1758 0378 0143     		orrs	r1, r1, r0
 478:bluetooth_rxtx.c **** 			clkn_offset <<= 8;
 1759              		.loc 1 478 0 discriminator 2
 1760 037a 042B     		cmp	r3, #4
 480:bluetooth_rxtx.c **** 		}
 1761              		.loc 1 480 0 discriminator 2
 1762 037c 1160     		str	r1, [r2]
 478:bluetooth_rxtx.c **** 			clkn_offset <<= 8;
 1763              		.loc 1 478 0 discriminator 2
 1764 037e F5D1     		bne	.L179
 1765              	.LBE16:
 482:bluetooth_rxtx.c **** 		dma_discard = 1;
 1766              		.loc 1 482 0
 1767 0380 0223     		movs	r3, #2
 1768              	.LVL175:
 1769 0382 A372     		strb	r3, [r4, #10]
 484:bluetooth_rxtx.c **** 		clk100ns_offset = (data[4] << 8) | (data[5] << 0);
 1770              		.loc 1 484 0
 1771 0384 7B4B     		ldr	r3, .L247+24
ARM GAS  /tmp/ccTiCbBl.s 			page 78


 483:bluetooth_rxtx.c **** 		DIO_SSEL_SET;
 1772              		.loc 1 483 0
 1773 0386 0120     		movs	r0, #1
 484:bluetooth_rxtx.c **** 		clk100ns_offset = (data[4] << 8) | (data[5] << 0);
 1774              		.loc 1 484 0
 1775 0388 4FF08052 		mov	r2, #268435456
 483:bluetooth_rxtx.c **** 		DIO_SSEL_SET;
 1776              		.loc 1 483 0
 1777 038c 2074     		strb	r0, [r4, #16]
 484:bluetooth_rxtx.c **** 		clk100ns_offset = (data[4] << 8) | (data[5] << 0);
 1778              		.loc 1 484 0
 1779 038e 1A60     		str	r2, [r3]
 485:bluetooth_rxtx.c **** 		requested_mode = MODE_BT_FOLLOW;
 1780              		.loc 1 485 0
 1781 0390 7379     		ldrb	r3, [r6, #5]	@ zero_extendqisi2
 1782 0392 3279     		ldrb	r2, [r6, #4]	@ zero_extendqisi2
 1783 0394 43EA0222 		orr	r2, r3, r2, lsl #8
 1784 0398 774B     		ldr	r3, .L247+28
 1785 039a 1A80     		strh	r2, [r3]	@ movhi
 486:bluetooth_rxtx.c **** 		break;
 1786              		.loc 1 486 0
 1787 039c 0823     		movs	r3, #8
 1788 039e A374     		strb	r3, [r4, #18]
 487:bluetooth_rxtx.c **** 
 1789              		.loc 1 487 0
 1790 03a0 BDE8F081 		pop	{r4, r5, r6, r7, r8, pc}
 1791              	.LVL176:
 1792              	.L151:
 490:bluetooth_rxtx.c **** 		requested_mode = MODE_AFH;
 1793              		.loc 1 490 0
 1794 03a4 0523     		movs	r3, #5
 1795 03a6 A372     		strb	r3, [r4, #10]
 491:bluetooth_rxtx.c **** 
 1796              		.loc 1 491 0
 1797 03a8 0E23     		movs	r3, #14
 1798 03aa A374     		strb	r3, [r4, #18]
 1799              	.LVL177:
 1800              	.LBB17:
 493:bluetooth_rxtx.c **** 			afh_map[i] = 0;
 1801              		.loc 1 493 0
 1802 03ac 0023     		movs	r3, #0
 1803              	.LVL178:
 1804              	.L181:
 494:bluetooth_rxtx.c **** 		}
 1805              		.loc 1 494 0 discriminator 2
 1806 03ae 7349     		ldr	r1, .L247+32
 1807 03b0 0022     		movs	r2, #0
 1808 03b2 5A54     		strb	r2, [r3, r1]
 493:bluetooth_rxtx.c **** 			afh_map[i] = 0;
 1809              		.loc 1 493 0 discriminator 2
 1810 03b4 0133     		adds	r3, r3, #1
 1811              	.LVL179:
 1812 03b6 0A2B     		cmp	r3, #10
 1813 03b8 F9D1     		bne	.L181
 1814              	.LBE17:
 496:bluetooth_rxtx.c **** 		afh_enabled = 1;
 1815              		.loc 1 496 0
ARM GAS  /tmp/ccTiCbBl.s 			page 79


 1816 03ba 714B     		ldr	r3, .L247+36
 1817              	.LVL180:
 497:bluetooth_rxtx.c **** 		break;
 1818              		.loc 1 497 0
 1819 03bc 0120     		movs	r0, #1
 1820              	.LVL181:
 496:bluetooth_rxtx.c **** 		afh_enabled = 1;
 1821              		.loc 1 496 0
 1822 03be 1A70     		strb	r2, [r3]
 497:bluetooth_rxtx.c **** 		break;
 1823              		.loc 1 497 0
 1824 03c0 704B     		ldr	r3, .L247+40
 1825 03c2 1870     		strb	r0, [r3]
 498:bluetooth_rxtx.c **** 
 1826              		.loc 1 498 0
 1827 03c4 BDE8F081 		pop	{r4, r5, r6, r7, r8, pc}
 1828              	.LVL182:
 1829              	.L152:
 501:bluetooth_rxtx.c **** 		break;
 1830              		.loc 1 501 0
 1831 03c8 0120     		movs	r0, #1
 1832              	.LVL183:
 1833 03ca E072     		strb	r0, [r4, #11]
 502:bluetooth_rxtx.c **** 
 1834              		.loc 1 502 0
 1835 03cc BDE8F081 		pop	{r4, r5, r6, r7, r8, pc}
 1836              	.LVL184:
 1837              	.L131:
 505:bluetooth_rxtx.c **** 		clkn = clock;
 1838              		.loc 1 505 0
 1839 03d0 B278     		ldrb	r2, [r6, #2]	@ zero_extendqisi2
 1840 03d2 7378     		ldrb	r3, [r6, #1]	@ zero_extendqisi2
 1841 03d4 1204     		lsls	r2, r2, #16
 1842 03d6 42EA0322 		orr	r2, r2, r3, lsl #8
 1843 03da 3378     		ldrb	r3, [r6]	@ zero_extendqisi2
 1844 03dc 1A43     		orrs	r2, r2, r3
 1845 03de F378     		ldrb	r3, [r6, #3]	@ zero_extendqisi2
 1846 03e0 42EA0362 		orr	r2, r2, r3, lsl #24
 1847              	.LVL185:
 506:bluetooth_rxtx.c **** 		cs_threshold_calc_and_set(channel);
 1848              		.loc 1 506 0
 1849 03e4 684B     		ldr	r3, .L247+44
 1850 03e6 1A60     		str	r2, [r3]
 1851 03e8 14E1     		b	.L224
 1852              	.LVL186:
 1853              	.L142:
 213:bluetooth_rxtx.c **** 
 1854              		.loc 1 213 0
 1855 03ea 0023     		movs	r3, #0
 1856              	.LVL187:
 1857              	.L183:
 1858              	.LBB18:
 512:bluetooth_rxtx.c **** 		}
 1859              		.loc 1 512 0 discriminator 2
 1860 03ec F15C     		ldrb	r1, [r6, r3]	@ zero_extendqisi2
 1861 03ee 634A     		ldr	r2, .L247+32
 1862 03f0 9954     		strb	r1, [r3, r2]
ARM GAS  /tmp/ccTiCbBl.s 			page 80


 511:bluetooth_rxtx.c **** 			afh_map[i] = data[i];
 1863              		.loc 1 511 0 discriminator 2
 1864 03f2 0133     		adds	r3, r3, #1
 1865              	.LVL188:
 1866 03f4 0A2B     		cmp	r3, #10
 1867 03f6 F9D1     		bne	.L183
 1868              	.LBE18:
 514:bluetooth_rxtx.c **** 		*data_len = 10;
 1869              		.loc 1 514 0
 1870 03f8 624A     		ldr	r2, .L247+40
 1871 03fa 0120     		movs	r0, #1
 1872              	.LVL189:
 1873 03fc 1070     		strb	r0, [r2]
 1874              	.LVL190:
 1875              	.L214:
 515:bluetooth_rxtx.c **** 		break;
 1876              		.loc 1 515 0
 1877 03fe 2B60     		str	r3, [r5]
 516:bluetooth_rxtx.c **** 
 1878              		.loc 1 516 0
 1879 0400 BDE8F081 		pop	{r4, r5, r6, r7, r8, pc}
 1880              	.LVL191:
 1881              	.L143:
 213:bluetooth_rxtx.c **** 
 1882              		.loc 1 213 0
 1883 0404 0023     		movs	r3, #0
 1884              	.LVL192:
 1885              	.L185:
 1886              	.LBB19:
 520:bluetooth_rxtx.c **** 		}
 1887              		.loc 1 520 0 discriminator 2
 1888 0406 5D49     		ldr	r1, .L247+32
 1889 0408 0022     		movs	r2, #0
 1890 040a 5A54     		strb	r2, [r3, r1]
 519:bluetooth_rxtx.c **** 			afh_map[i] = 0;
 1891              		.loc 1 519 0 discriminator 2
 1892 040c 0133     		adds	r3, r3, #1
 1893              	.LVL193:
 1894 040e 0A2B     		cmp	r3, #10
 1895 0410 F9D1     		bne	.L185
 1896              	.LBE19:
 522:bluetooth_rxtx.c **** 		*data_len = 10;
 1897              		.loc 1 522 0
 1898 0412 5C49     		ldr	r1, .L247+40
 1899 0414 0A70     		strb	r2, [r1]
 1900 0416 B7E6     		b	.L223
 1901              	.LVL194:
 1902              	.L132:
 527:bluetooth_rxtx.c **** 		for(int i=0; i < 4; i++) {
 1903              		.loc 1 527 0
 1904 0418 5B4B     		ldr	r3, .L247+44
 1905 041a 1968     		ldr	r1, [r3]
 1906              	.LVL195:
 1907              	.LBB20:
 528:bluetooth_rxtx.c **** 			data[i] = (clock >> (8*i)) & 0xff;
 1908              		.loc 1 528 0
 1909 041c 0023     		movs	r3, #0
ARM GAS  /tmp/ccTiCbBl.s 			page 81


 1910              	.LVL196:
 1911              	.L187:
 1912 041e DA00     		lsls	r2, r3, #3
 529:bluetooth_rxtx.c **** 		}
 1913              		.loc 1 529 0 discriminator 2
 1914 0420 21FA02F2 		lsr	r2, r1, r2
 1915 0424 F254     		strb	r2, [r6, r3]
 528:bluetooth_rxtx.c **** 			data[i] = (clock >> (8*i)) & 0xff;
 1916              		.loc 1 528 0 discriminator 2
 1917 0426 0133     		adds	r3, r3, #1
 1918              	.LVL197:
 1919 0428 042B     		cmp	r3, #4
 1920 042a F8D1     		bne	.L187
 1921 042c ACE6     		b	.L223
 1922              	.LVL198:
 1923              	.L153:
 1924              	.LBE20:
 535:bluetooth_rxtx.c **** 		break;
 1925              		.loc 1 535 0
 1926 042e 7378     		ldrb	r3, [r6, #1]	@ zero_extendqisi2
 1927 0430 3278     		ldrb	r2, [r6]	@ zero_extendqisi2
 1928 0432 43EA0222 		orr	r2, r3, r2, lsl #8
 1929 0436 504B     		ldr	r3, .L247+28
 1930 0438 1A80     		strh	r2, [r3]	@ movhi
 1931 043a 0FE1     		b	.L197
 1932              	.L158:
 539:bluetooth_rxtx.c **** 
 1933              		.loc 1 539 0
 1934 043c 534B     		ldr	r3, .L247+48
 1935 043e 3078     		ldrb	r0, [r6]	@ zero_extendqisi2
 1936              	.LVL199:
 1937 0440 1988     		ldrh	r1, [r3]
 1938              	.LVL200:
 1939 0442 7278     		ldrb	r2, [r6, #1]	@ zero_extendqisi2
 1940 0444 89B2     		uxth	r1, r1
 1941 0446 42EA0022 		orr	r2, r2, r0, lsl #8
 1942 044a 0A44     		add	r2, r2, r1
 1943 044c 92B2     		uxth	r2, r2
 1944 044e 1A80     		strh	r2, [r3]	@ movhi
 542:bluetooth_rxtx.c **** 			clk_drift_correction = 320 / (uint16_t)(-clk_drift_ppm);
 1945              		.loc 1 542 0
 1946 0450 1A88     		ldrh	r2, [r3]
 1947 0452 4F49     		ldr	r1, .L247+52
 1948 0454 12B2     		sxth	r2, r2
 1949 0456 002A     		cmp	r2, #0
 1950 0458 4E4A     		ldr	r2, .L247+56
 1951 045a 07DA     		bge	.L188
 543:bluetooth_rxtx.c **** 			clkn_next_drift_fix = clkn_last_drift_fix + clk_drift_correction;
 1952              		.loc 1 543 0
 1953 045c 1B88     		ldrh	r3, [r3]
 1954 045e 4FF4A070 		mov	r0, #320
 1955 0462 5B42     		negs	r3, r3
 1956 0464 9BB2     		uxth	r3, r3
 1957 0466 90FBF3F3 		sdiv	r3, r0, r3
 1958 046a 0AE0     		b	.L240
 1959              	.L188:
 547:bluetooth_rxtx.c **** 			clk_drift_correction = 320 / clk_drift_ppm;
ARM GAS  /tmp/ccTiCbBl.s 			page 82


 1960              		.loc 1 547 0
 1961 046c 1888     		ldrh	r0, [r3]
 1962 046e 00B2     		sxth	r0, r0
 1963 0470 0028     		cmp	r0, #0
 1964 0472 0DDD     		ble	.L189
 548:bluetooth_rxtx.c **** 			clkn_next_drift_fix = clkn_last_drift_fix + clk_drift_correction;
 1965              		.loc 1 548 0
 1966 0474 1B88     		ldrh	r3, [r3]
 1967 0476 4FF4A070 		mov	r0, #320
 1968 047a 1BB2     		sxth	r3, r3
 1969 047c 90FBF3F3 		sdiv	r3, r0, r3
 1970 0480 9BB2     		uxth	r3, r3
 1971              	.L240:
 1972 0482 1380     		strh	r3, [r2]	@ movhi
 549:bluetooth_rxtx.c **** 		}
 1973              		.loc 1 549 0
 1974 0484 444B     		ldr	r3, .L247+60
 1975 0486 1868     		ldr	r0, [r3]
 1976 0488 1388     		ldrh	r3, [r2]
 1977 048a 9BB2     		uxth	r3, r3
 1978 048c 0344     		add	r3, r3, r0
 1979 048e 01E0     		b	.L218
 1980              	.L189:
 553:bluetooth_rxtx.c **** 			clkn_next_drift_fix = 0;
 1981              		.loc 1 553 0
 1982 0490 0023     		movs	r3, #0
 1983 0492 1380     		strh	r3, [r2]	@ movhi
 1984              	.L218:
 554:bluetooth_rxtx.c **** 		}
 1985              		.loc 1 554 0
 1986 0494 0B60     		str	r3, [r1]
 1987 0496 E1E0     		b	.L197
 1988              	.LVL201:
 1989              	.L133:
 560:bluetooth_rxtx.c **** 
 1990              		.loc 1 560 0
 1991 0498 0023     		movs	r3, #0
 1992 049a 2B60     		str	r3, [r5]
 562:bluetooth_rxtx.c **** 		hop_mode = HOP_BTLE;
 1993              		.loc 1 562 0
 1994 049c E372     		strb	r3, [r4, #11]
 563:bluetooth_rxtx.c **** 		requested_mode = MODE_BT_FOLLOW_LE;
 1995              		.loc 1 563 0
 1996 049e 0323     		movs	r3, #3
 1997 04a0 A372     		strb	r3, [r4, #10]
 564:bluetooth_rxtx.c **** 
 1998              		.loc 1 564 0
 1999 04a2 0923     		movs	r3, #9
 2000 04a4 4AE0     		b	.L241
 2001              	.L159:
 572:bluetooth_rxtx.c **** 		hop_mode = HOP_BTLE;
 2002              		.loc 1 572 0
 2003 04a6 0023     		movs	r3, #0
 2004 04a8 E372     		strb	r3, [r4, #11]
 573:bluetooth_rxtx.c **** 		requested_mode = MODE_BT_CFO_LE;
 2005              		.loc 1 573 0
 2006 04aa 0323     		movs	r3, #3
ARM GAS  /tmp/ccTiCbBl.s 			page 83


 2007 04ac A372     		strb	r3, [r4, #10]
 574:bluetooth_rxtx.c **** 
 2008              		.loc 1 574 0
 2009 04ae 1123     		movs	r3, #17
 2010 04b0 44E0     		b	.L241
 2011              	.L160:
 581:bluetooth_rxtx.c **** 		hop_mode = HOP_BTLE;
 2012              		.loc 1 581 0
 2013 04b2 0023     		movs	r3, #0
 2014 04b4 E372     		strb	r3, [r4, #11]
 582:bluetooth_rxtx.c **** 		requested_mode = MODE_BT_RSSI_LE;
 2015              		.loc 1 582 0
 2016 04b6 0323     		movs	r3, #3
 2017 04b8 A372     		strb	r3, [r4, #10]
 583:bluetooth_rxtx.c **** 
 2018              		.loc 1 583 0
 2019 04ba 1223     		movs	r3, #18
 2020 04bc 3EE0     		b	.L241
 2021              	.L134:
 213:bluetooth_rxtx.c **** 
 2022              		.loc 1 213 0
 2023 04be 0023     		movs	r3, #0
 2024              	.LVL202:
 2025              	.L191:
 2026              	.LBB21:
 591:bluetooth_rxtx.c **** 		}
 2027              		.loc 1 591 0 discriminator 2
 2028 04c0 2649     		ldr	r1, .L247
 2029 04c2 DA00     		lsls	r2, r3, #3
 2030 04c4 4968     		ldr	r1, [r1, #4]
 2031 04c6 21FA02F2 		lsr	r2, r1, r2
 2032 04ca F254     		strb	r2, [r6, r3]
 590:bluetooth_rxtx.c **** 			data[i] = (le.access_address >> (8*i)) & 0xff;
 2033              		.loc 1 590 0 discriminator 2
 2034 04cc 0133     		adds	r3, r3, #1
 2035              	.LVL203:
 2036 04ce 042B     		cmp	r3, #4
 2037 04d0 F6D1     		bne	.L191
 2038 04d2 59E6     		b	.L223
 2039              	.LVL204:
 2040              	.L135:
 2041              	.LBE21:
 597:bluetooth_rxtx.c **** 		le.target_set = 1;
 2042              		.loc 1 597 0
 2043 04d4 B378     		ldrb	r3, [r6, #2]	@ zero_extendqisi2
 2044 04d6 7278     		ldrb	r2, [r6, #1]	@ zero_extendqisi2
 2045 04d8 1B04     		lsls	r3, r3, #16
 2046 04da 43EA0223 		orr	r3, r3, r2, lsl #8
 2047 04de 3278     		ldrb	r2, [r6]	@ zero_extendqisi2
 2048 04e0 F078     		ldrb	r0, [r6, #3]	@ zero_extendqisi2
 2049              	.LVL205:
 2050 04e2 1343     		orrs	r3, r3, r2
 2051 04e4 43EA0060 		orr	r0, r3, r0, lsl #24
 2052 04e8 FFF7FEFF 		bl	le_set_access_address
 2053              	.LVL206:
 598:bluetooth_rxtx.c **** 		break;
 2054              		.loc 1 598 0
ARM GAS  /tmp/ccTiCbBl.s 			page 84


 2055 04ec 0120     		movs	r0, #1
 2056 04ee 1B4B     		ldr	r3, .L247
 2057 04f0 AAE0     		b	.L213
 2058              	.LVL207:
 2059              	.L137:
 608:bluetooth_rxtx.c **** 		data[1] = 0x37;
 2060              		.loc 1 608 0
 2061 04f2 1323     		movs	r3, #19
 2062 04f4 3370     		strb	r3, [r6]
 609:bluetooth_rxtx.c **** 		*data_len = 2;
 2063              		.loc 1 609 0
 2064 04f6 3723     		movs	r3, #55
 2065              	.L243:
 2066 04f8 7370     		strb	r3, [r6, #1]
 2067 04fa 27E0     		b	.L238
 2068              	.L138:
 614:bluetooth_rxtx.c **** 		*data_len = 1;
 2069              		.loc 1 614 0
 2070 04fc 174B     		ldr	r3, .L247
 2071 04fe 5B69     		ldr	r3, [r3, #20]
 2072 0500 0033     		adds	r3, r3, #0
 2073 0502 18BF     		it	ne
 2074 0504 0123     		movne	r3, #1
 2075 0506 F9E6     		b	.L215
 2076              	.L139:
 619:bluetooth_rxtx.c **** 		break;
 2077              		.loc 1 619 0
 2078 0508 0A88     		ldrh	r2, [r1]
 2079 050a 144B     		ldr	r3, .L247
 2080 050c 0032     		adds	r2, r2, #0
 2081 050e 18BF     		it	ne
 2082 0510 0122     		movne	r2, #1
 2083 0512 5A61     		str	r2, [r3, #20]
 2084 0514 A2E0     		b	.L197
 2085              	.L140:
 623:bluetooth_rxtx.c **** 		if (p != NULL) {
 2086              		.loc 1 623 0
 2087 0516 FFF7FEFF 		bl	dequeue
 2088              	.LVL208:
 624:bluetooth_rxtx.c **** 			memcpy(data, (void *)p, sizeof(usb_pkt_rx));
 2089              		.loc 1 624 0
 2090 051a 0146     		mov	r1, r0
 2091 051c 28B1     		cbz	r0, .L192
 625:bluetooth_rxtx.c **** 			*data_len = sizeof(usb_pkt_rx);
 2092              		.loc 1 625 0
 2093 051e 3046     		mov	r0, r6
 2094              	.LVL209:
 2095 0520 4022     		movs	r2, #64
 2096 0522 FFF7FEFF 		bl	memcpy
 2097              	.LVL210:
 626:bluetooth_rxtx.c **** 		} else {
 2098              		.loc 1 626 0
 2099 0526 4023     		movs	r3, #64
 2100 0528 2EE6     		b	.L223
 2101              	.LVL211:
 2102              	.L192:
 628:bluetooth_rxtx.c **** 			*data_len = 1;
ARM GAS  /tmp/ccTiCbBl.s 			page 85


 2103              		.loc 1 628 0
 2104 052a 3070     		strb	r0, [r6]
 2105              	.LVL212:
 2106              	.L211:
 629:bluetooth_rxtx.c **** 		}
 2107              		.loc 1 629 0
 2108 052c 0120     		movs	r0, #1
 2109              	.L212:
 2110 052e 2860     		str	r0, [r5]
 2111 0530 BDE8F081 		pop	{r4, r5, r6, r7, r8, pc}
 2112              	.LVL213:
 2113              	.L141:
 634:bluetooth_rxtx.c **** 
 2114              		.loc 1 634 0
 2115 0534 0023     		movs	r3, #0
 2116 0536 2B60     		str	r3, [r5]
 636:bluetooth_rxtx.c **** 		requested_mode = MODE_BT_PROMISC_LE;
 2117              		.loc 1 636 0
 2118 0538 A372     		strb	r3, [r4, #10]
 637:bluetooth_rxtx.c **** 
 2119              		.loc 1 637 0
 2120 053a 0A23     		movs	r3, #10
 2121              	.L241:
 2122 053c A374     		strb	r3, [r4, #18]
 2123 053e 67E0     		b	.L222
 2124              	.L144:
 644:bluetooth_rxtx.c **** 		data[0] = (reg_val >> 8) & 0xff;
 2125              		.loc 1 644 0
 2126 0540 0878     		ldrb	r0, [r1]	@ zero_extendqisi2
 2127              	.LVL214:
 2128 0542 FFF7FEFF 		bl	cc2400_get
 2129              	.LVL215:
 645:bluetooth_rxtx.c **** 		data[1] = reg_val & 0xff;
 2130              		.loc 1 645 0
 2131 0546 030A     		lsrs	r3, r0, #8
 2132 0548 3370     		strb	r3, [r6]
 646:bluetooth_rxtx.c **** 		*data_len = 2;
 2133              		.loc 1 646 0
 2134 054a 7070     		strb	r0, [r6, #1]
 2135              	.LVL216:
 2136              	.L238:
 647:bluetooth_rxtx.c **** 		break;
 2137              		.loc 1 647 0
 2138 054c 0223     		movs	r3, #2
 2139 054e 1BE6     		b	.L223
 2140              	.LVL217:
 2141              	.L148:
 651:bluetooth_rxtx.c **** 		break;
 2142              		.loc 1 651 0
 2143 0550 0878     		ldrb	r0, [r1]	@ zero_extendqisi2
 2144              	.LVL218:
 2145 0552 4988     		ldrh	r1, [r1, #2]
 2146              	.LVL219:
 2147              	.L225:
 2148 0554 FFF7FEFF 		bl	cc2400_set
 2149              	.LVL220:
 2150 0558 80E0     		b	.L197
ARM GAS  /tmp/ccTiCbBl.s 			page 86


 2151              	.L248:
 2152 055a 00BF     		.align	2
 2153              	.L247:
 2154 055c 00000000 		.word	.LANCHOR1
 2155 0560 00000000 		.word	.LC5
 2156 0564 A7000000 		.word	.LANCHOR2+167
 2157 0568 00000000 		.word	cs_threshold_req
 2158 056c 00000000 		.word	target
 2159 0570 00000000 		.word	clkn_offset
 2160 0574 98C00920 		.word	537510040
 2161 0578 00000000 		.word	clk100ns_offset
 2162 057c 00000000 		.word	afh_map
 2163 0580 00000000 		.word	used_channels
 2164 0584 00000000 		.word	afh_enabled
 2165 0588 00000000 		.word	clkn
 2166 058c 00000000 		.word	clk_drift_ppm
 2167 0590 00000000 		.word	clkn_next_drift_fix
 2168 0594 00000000 		.word	clk_drift_correction
 2169 0598 00000000 		.word	clkn_last_drift_fix
 2170              	.L162:
 2171              	.LVL221:
 655:bluetooth_rxtx.c **** 			reg_val = (data[(i*3)+1] << 8) | data[(i*3)+2];
 2172              		.loc 1 655 0 discriminator 1
 2173 059c 3B88     		ldrh	r3, [r7]
 2174 059e A342     		cmp	r3, r4
 2175 05a0 5CD9     		bls	.L197
 656:bluetooth_rxtx.c **** 			cc2400_set(data[i*3], reg_val);
 2176              		.loc 1 656 0 discriminator 2
 2177 05a2 0323     		movs	r3, #3
 2178 05a4 6343     		muls	r3, r4, r3
 2179              	.LVL222:
 2180 05a6 F218     		adds	r2, r6, r3
 2181              	.LVL223:
 2182 05a8 5178     		ldrb	r1, [r2, #1]	@ zero_extendqisi2
 2183 05aa 9278     		ldrb	r2, [r2, #2]	@ zero_extendqisi2
 2184              	.LVL224:
 657:bluetooth_rxtx.c **** 		}
 2185              		.loc 1 657 0 discriminator 2
 2186 05ac F05C     		ldrb	r0, [r6, r3]	@ zero_extendqisi2
 2187 05ae 42EA0121 		orr	r1, r2, r1, lsl #8
 655:bluetooth_rxtx.c **** 			reg_val = (data[(i*3)+1] << 8) | data[(i*3)+2];
 2188              		.loc 1 655 0 discriminator 2
 2189 05b2 0134     		adds	r4, r4, #1
 2190              	.LVL225:
 657:bluetooth_rxtx.c **** 		}
 2191              		.loc 1 657 0 discriminator 2
 2192 05b4 FFF7FEFF 		bl	cc2400_set
 2193              	.LVL226:
 655:bluetooth_rxtx.c **** 			reg_val = (data[(i*3)+1] << 8) | data[(i*3)+2];
 2194              		.loc 1 655 0 discriminator 2
 2195 05b8 E4B2     		uxtb	r4, r4
 2196              	.LVL227:
 2197 05ba EFE7     		b	.L162
 2198              	.LVL228:
 2199              	.L155:
 213:bluetooth_rxtx.c **** 
 2200              		.loc 1 213 0
ARM GAS  /tmp/ccTiCbBl.s 			page 87


 2201 05bc 0024     		movs	r4, #0
 2202              	.LVL229:
 2203              	.L196:
 664:bluetooth_rxtx.c **** 			data[i*3] = i;
 2204              		.loc 1 664 0 discriminator 2
 2205 05be 2046     		mov	r0, r4
 2206 05c0 FFF7FEFF 		bl	cc2400_get
 2207              	.LVL230:
 665:bluetooth_rxtx.c **** 			data[(i*3)+1] = (reg_val >> 8) & 0xff;
 2208              		.loc 1 665 0 discriminator 2
 2209 05c4 3470     		strb	r4, [r6]
 663:bluetooth_rxtx.c **** 			reg_val = cc2400_get(i);
 2210              		.loc 1 663 0 discriminator 2
 2211 05c6 0134     		adds	r4, r4, #1
 2212              	.LVL231:
 2213 05c8 E4B2     		uxtb	r4, r4
 2214              	.LVL232:
 666:bluetooth_rxtx.c **** 			data[(i*3)+2] = reg_val & 0xff;
 2215              		.loc 1 666 0 discriminator 2
 2216 05ca 030A     		lsrs	r3, r0, #8
 663:bluetooth_rxtx.c **** 			reg_val = cc2400_get(i);
 2217              		.loc 1 663 0 discriminator 2
 2218 05cc 2E2C     		cmp	r4, #46
 666:bluetooth_rxtx.c **** 			data[(i*3)+2] = reg_val & 0xff;
 2219              		.loc 1 666 0 discriminator 2
 2220 05ce 7370     		strb	r3, [r6, #1]
 667:bluetooth_rxtx.c **** 		}
 2221              		.loc 1 667 0 discriminator 2
 2222 05d0 B070     		strb	r0, [r6, #2]
 2223 05d2 06F10306 		add	r6, r6, #3
 663:bluetooth_rxtx.c **** 			reg_val = cc2400_get(i);
 2224              		.loc 1 663 0 discriminator 2
 2225 05d6 F2D1     		bne	.L196
 669:bluetooth_rxtx.c **** 		break;
 2226              		.loc 1 669 0
 2227 05d8 8723     		movs	r3, #135
 2228 05da D5E5     		b	.L223
 2229              	.LVL233:
 2230              	.L157:
 673:bluetooth_rxtx.c **** 		memcpy(&tx_pkt, data, i);
 2231              		.loc 1 673 0
 2232 05dc B279     		ldrb	r2, [r6, #6]	@ zero_extendqisi2
 674:bluetooth_rxtx.c **** 		//tx_pkt.channel = data[4] << 8 | data[5];
 2233              		.loc 1 674 0
 2234 05de 2248     		ldr	r0, .L249
 2235              	.LVL234:
 673:bluetooth_rxtx.c **** 		memcpy(&tx_pkt, data, i);
 2236              		.loc 1 673 0
 2237 05e0 0732     		adds	r2, r2, #7
 674:bluetooth_rxtx.c **** 		//tx_pkt.channel = data[4] << 8 | data[5];
 2238              		.loc 1 674 0
 2239 05e2 3146     		mov	r1, r6
 2240              	.LVL235:
 2241 05e4 D2B2     		uxtb	r2, r2
 2242 05e6 FFF7FEFF 		bl	memcpy
 2243              	.LVL236:
 676:bluetooth_rxtx.c **** 		*data_len = 0;
ARM GAS  /tmp/ccTiCbBl.s 			page 88


 2244              		.loc 1 676 0
 2245 05ea 1023     		movs	r3, #16
 2246 05ec 5EE6     		b	.L237
 2247              	.LVL237:
 2248              	.L145:
 681:bluetooth_rxtx.c **** 		memcpy(slave_mac_address_data, data, dlen);
 2249              		.loc 1 681 0
 2250 05ee 1846     		mov	r0, r3
 2251              	.LVL238:
 2252 05f0 FFF7FEFF 		bl	malloc
 2253              	.LVL239:
 2254 05f4 1D4B     		ldr	r3, .L249+4
 682:bluetooth_rxtx.c **** 		requested_mode = MODE_BT_SLAVE_LE;
 2255              		.loc 1 682 0
 2256 05f6 3146     		mov	r1, r6
 2257 05f8 226A     		ldr	r2, [r4, #32]
 681:bluetooth_rxtx.c **** 		memcpy(slave_mac_address_data, data, dlen);
 2258              		.loc 1 681 0
 2259 05fa 1860     		str	r0, [r3]
 682:bluetooth_rxtx.c **** 		requested_mode = MODE_BT_SLAVE_LE;
 2260              		.loc 1 682 0
 2261 05fc FFF7FEFF 		bl	memcpy
 2262              	.LVL240:
 683:bluetooth_rxtx.c **** 		break;
 2263              		.loc 1 683 0
 2264 0600 0C23     		movs	r3, #12
 2265 0602 A0E5     		b	.L220
 2266              	.LVL241:
 2267              	.L161:
 688:bluetooth_rxtx.c **** 		do_hop = 0;
 2268              		.loc 1 688 0
 2269 0604 1323     		movs	r3, #19
 2270 0606 A374     		strb	r3, [r4, #18]
 689:bluetooth_rxtx.c **** 		hop_mode = HOP_BTLE;
 2271              		.loc 1 689 0
 2272 0608 0023     		movs	r3, #0
 2273 060a E372     		strb	r3, [r4, #11]
 690:bluetooth_rxtx.c **** 		queue_init();
 2274              		.loc 1 690 0
 2275 060c 0323     		movs	r3, #3
 2276 060e A372     		strb	r3, [r4, #10]
 2277              	.L222:
 691:bluetooth_rxtx.c **** 		cs_threshold_calc_and_set(channel);
 2278              		.loc 1 691 0
 2279 0610 FFF7FEFF 		bl	queue_init
 2280              	.LVL242:
 2281              	.L224:
 692:bluetooth_rxtx.c **** 		break;
 2282              		.loc 1 692 0
 2283 0614 164B     		ldr	r3, .L249+8
 2284              	.L227:
 2285 0616 1888     		ldrh	r0, [r3]
 2286 0618 80B2     		uxth	r0, r0
 2287 061a FFF7FEFF 		bl	cs_threshold_calc_and_set
 2288              	.LVL243:
 2289 061e 1DE0     		b	.L197
 2290              	.LVL244:
ARM GAS  /tmp/ccTiCbBl.s 			page 89


 2291              	.L147:
 698:bluetooth_rxtx.c **** 		le.target[1] = data[4];
 2292              		.loc 1 698 0
 2293 0620 7279     		ldrb	r2, [r6, #5]	@ zero_extendqisi2
 2294 0622 134B     		ldr	r3, .L249+8
 704:bluetooth_rxtx.c **** 		break;
 2295              		.loc 1 704 0
 2296 0624 0120     		movs	r0, #1
 2297              	.LVL245:
 698:bluetooth_rxtx.c **** 		le.target[1] = data[4];
 2298              		.loc 1 698 0
 2299 0626 83F83820 		strb	r2, [r3, #56]
 699:bluetooth_rxtx.c **** 		le.target[2] = data[3];
 2300              		.loc 1 699 0
 2301 062a 3279     		ldrb	r2, [r6, #4]	@ zero_extendqisi2
 2302 062c 83F83920 		strb	r2, [r3, #57]
 700:bluetooth_rxtx.c **** 		le.target[3] = data[2];
 2303              		.loc 1 700 0
 2304 0630 F278     		ldrb	r2, [r6, #3]	@ zero_extendqisi2
 2305 0632 83F83A20 		strb	r2, [r3, #58]
 701:bluetooth_rxtx.c **** 		le.target[4] = data[1];
 2306              		.loc 1 701 0
 2307 0636 B278     		ldrb	r2, [r6, #2]	@ zero_extendqisi2
 2308 0638 83F83B20 		strb	r2, [r3, #59]
 702:bluetooth_rxtx.c **** 		le.target[5] = data[0];
 2309              		.loc 1 702 0
 2310 063c 7278     		ldrb	r2, [r6, #1]	@ zero_extendqisi2
 2311 063e 83F83C20 		strb	r2, [r3, #60]
 703:bluetooth_rxtx.c **** 		le.target_set = 1;
 2312              		.loc 1 703 0
 2313 0642 3278     		ldrb	r2, [r6]	@ zero_extendqisi2
 2314 0644 83F83D20 		strb	r2, [r3, #61]
 2315              	.LVL246:
 2316              	.L213:
 704:bluetooth_rxtx.c **** 		break;
 2317              		.loc 1 704 0
 2318 0648 1864     		str	r0, [r3, #64]
 705:bluetooth_rxtx.c **** 
 2319              		.loc 1 705 0
 2320 064a BDE8F081 		pop	{r4, r5, r6, r7, r8, pc}
 2321              	.LVL247:
 2322              	.L149:
 709:bluetooth_rxtx.c **** 		break;
 2323              		.loc 1 709 0
 2324 064e 0B78     		ldrb	r3, [r1]	@ zero_extendqisi2
 2325 0650 E374     		strb	r3, [r4, #19]
 2326 0652 03E0     		b	.L197
 2327              	.L150:
 718:bluetooth_rxtx.c **** 		ego_mode = request_params[0];
 2328              		.loc 1 718 0
 2329 0654 0D23     		movs	r3, #13
 2330 0656 A374     		strb	r3, [r4, #18]
 719:bluetooth_rxtx.c **** 		break;
 2331              		.loc 1 719 0
 2332 0658 0B78     		ldrb	r3, [r1]	@ zero_extendqisi2
 2333 065a 2375     		strb	r3, [r4, #20]
 2334              	.LVL248:
ARM GAS  /tmp/ccTiCbBl.s 			page 90


 2335              	.L197:
 725:bluetooth_rxtx.c **** }
 2336              		.loc 1 725 0
 2337 065c 0120     		movs	r0, #1
 2338 065e BDE8F081 		pop	{r4, r5, r6, r7, r8, pc}
 2339              	.LVL249:
 2340              	.L204:
 330:bluetooth_rxtx.c **** 		}
 2341              		.loc 1 330 0
 2342 0662 0020     		movs	r0, #0
 726:bluetooth_rxtx.c **** 
 2343              		.loc 1 726 0
 2344 0664 BDE8F081 		pop	{r4, r5, r6, r7, r8, pc}
 2345              	.LVL250:
 2346              	.L250:
 2347              		.align	2
 2348              	.L249:
 2349 0668 00000000 		.word	tx_pkt
 2350 066c 00000000 		.word	slave_mac_address_data
 2351 0670 00000000 		.word	.LANCHOR1
 2352              		.cfi_endproc
 2353              	.LFE3:
 2355              		.section	.text.enqueue_time,"ax",%progbits
 2356              		.align	1
 2357              		.thumb
 2358              		.thumb_func
 2360              	enqueue_time:
 2361              	.LFB1:
 166:bluetooth_rxtx.c **** 	usb_time_rx* f = usb_enqueue_time();
 2362              		.loc 1 166 0
 2363              		.cfi_startproc
 2364              		@ args = 0, pretend = 0, frame = 0
 2365              		@ frame_needed = 0, uses_anonymous_args = 0
 2366              	.LVL251:
 2367 0000 10B5     		push	{r4, lr}
 2368              		.cfi_def_cfa_offset 8
 2369              		.cfi_offset 4, -8
 2370              		.cfi_offset 14, -4
 166:bluetooth_rxtx.c **** 	usb_time_rx* f = usb_enqueue_time();
 2371              		.loc 1 166 0
 2372 0002 0446     		mov	r4, r0
 167:bluetooth_rxtx.c **** 	if  (f == NULL) {
 2373              		.loc 1 167 0
 2374 0004 FFF7FEFF 		bl	usb_enqueue_time
 2375              	.LVL252:
 168:bluetooth_rxtx.c **** 		status |= FIFO_OVERFLOW;
 2376              		.loc 1 168 0
 2377 0008 28B9     		cbnz	r0, .L252
 2378              	.LVL253:
 2379              	.LBB24:
 2380              	.LBB25:
 169:bluetooth_rxtx.c **** 		return 0;
 2381              		.loc 1 169 0
 2382 000a 064B     		ldr	r3, .L254
 2383 000c 5978     		ldrb	r1, [r3, #1]	@ zero_extendqisi2
 2384 000e 41F00401 		orr	r1, r1, #4
 2385 0012 5970     		strb	r1, [r3, #1]
ARM GAS  /tmp/ccTiCbBl.s 			page 91


 2386 0014 10BD     		pop	{r4, pc}
 2387              	.LVL254:
 2388              	.L252:
 2389              	.LBE25:
 2390              	.LBE24:
 172:bluetooth_rxtx.c **** 	return 1;
 2391              		.loc 1 172 0
 2392 0016 2146     		mov	r1, r4
 2393 0018 4022     		movs	r2, #64
 2394 001a FFF7FEFF 		bl	memcpy
 2395              	.LVL255:
 173:bluetooth_rxtx.c **** }
 2396              		.loc 1 173 0
 2397 001e 0120     		movs	r0, #1
 174:bluetooth_rxtx.c **** //
 2398              		.loc 1 174 0
 2399 0020 10BD     		pop	{r4, pc}
 2400              	.LVL256:
 2401              	.L255:
 2402 0022 00BF     		.align	2
 2403              	.L254:
 2404 0024 00000000 		.word	.LANCHOR0
 2405              		.cfi_endproc
 2406              	.LFE1:
 2408              		.section	.text.msleep.constprop.3,"ax",%progbits
 2409              		.align	1
 2410              		.thumb
 2411              		.thumb_func
 2413              	msleep.constprop.3:
 2414              	.LFB48:
 818:bluetooth_rxtx.c **** {
 2415              		.loc 1 818 0
 2416              		.cfi_startproc
 2417              		@ args = 0, pretend = 0, frame = 0
 2418              		@ frame_needed = 0, uses_anonymous_args = 0
 2419              		@ link register save eliminated.
 2420              	.LVL257:
 820:bluetooth_rxtx.c **** 	uint32_t stop_at = now + millis * 10000 / 3125; // millis -> clkn ticks
 2421              		.loc 1 820 0
 2422 0000 054B     		ldr	r3, .L259
 2423 0002 1A68     		ldr	r2, [r3]
 2424              	.LVL258:
 2425 0004 22F07F42 		bic	r2, r2, #-16777216
 2426              	.LVL259:
 821:bluetooth_rxtx.c **** 
 2427              		.loc 1 821 0
 2428 0008 2032     		adds	r2, r2, #32
 2429              	.LVL260:
 2430              	.L258:
 828:bluetooth_rxtx.c **** 	}
 2431              		.loc 1 828 0
 2432 000a 1968     		ldr	r1, [r3]
 2433 000c 21F07F41 		bic	r1, r1, #-16777216
 2434 0010 9142     		cmp	r1, r2
 2435 0012 FAD3     		bcc	.L258
 830:bluetooth_rxtx.c **** 
 2436              		.loc 1 830 0
ARM GAS  /tmp/ccTiCbBl.s 			page 92


 2437 0014 7047     		bx	lr
 2438              	.L260:
 2439 0016 00BF     		.align	2
 2440              	.L259:
 2441 0018 00000000 		.word	clkn
 2442              		.cfi_endproc
 2443              	.LFE48:
 2445              		.section	.text.enqueue_with_ts,"ax",%progbits
 2446              		.align	1
 2447              		.global	enqueue_with_ts
 2448              		.thumb
 2449              		.thumb_func
 2451              	enqueue_with_ts:
 2452              	.LFB2:
 178:bluetooth_rxtx.c **** 	usb_pkt_rx* f = usb_enqueue();
 2453              		.loc 1 178 0
 2454              		.cfi_startproc
 2455              		@ args = 0, pretend = 0, frame = 0
 2456              		@ frame_needed = 0, uses_anonymous_args = 0
 2457              	.LVL261:
 2458 0000 2DE9F041 		push	{r4, r5, r6, r7, r8, lr}
 2459              		.cfi_def_cfa_offset 24
 2460              		.cfi_offset 4, -24
 2461              		.cfi_offset 5, -20
 2462              		.cfi_offset 6, -16
 2463              		.cfi_offset 7, -12
 2464              		.cfi_offset 8, -8
 2465              		.cfi_offset 14, -4
 178:bluetooth_rxtx.c **** 	usb_pkt_rx* f = usb_enqueue();
 2466              		.loc 1 178 0
 2467 0004 0646     		mov	r6, r0
 2468 0006 0F46     		mov	r7, r1
 2469 0008 9046     		mov	r8, r2
 179:bluetooth_rxtx.c **** 
 2470              		.loc 1 179 0
 2471 000a FFF7FEFF 		bl	usb_enqueue
 2472              	.LVL262:
 2473 000e 104D     		ldr	r5, .L264
 182:bluetooth_rxtx.c **** 		status |= FIFO_OVERFLOW;
 2474              		.loc 1 182 0
 2475 0010 0446     		mov	r4, r0
 2476 0012 28B9     		cbnz	r0, .L262
 183:bluetooth_rxtx.c **** 		return 0;
 2477              		.loc 1 183 0
 2478 0014 6B78     		ldrb	r3, [r5, #1]	@ zero_extendqisi2
 2479 0016 43F00403 		orr	r3, r3, #4
 2480 001a 6B70     		strb	r3, [r5, #1]
 184:bluetooth_rxtx.c **** 	}
 2481              		.loc 1 184 0
 2482 001c BDE8F081 		pop	{r4, r5, r6, r7, r8, pc}
 2483              	.LVL263:
 2484              	.L262:
 192:bluetooth_rxtx.c **** 	f->rssi_avg = 0;
 2485              		.loc 1 192 0
 2486 0020 0C4B     		ldr	r3, .L264+4
 187:bluetooth_rxtx.c **** 
 2487              		.loc 1 187 0
ARM GAS  /tmp/ccTiCbBl.s 			page 93


 2488 0022 0670     		strb	r6, [r0]
 192:bluetooth_rxtx.c **** 	f->rssi_avg = 0;
 2489              		.loc 1 192 0
 2490 0024 1B88     		ldrh	r3, [r3]
 189:bluetooth_rxtx.c **** 	f->clk100ns = ts;
 2491              		.loc 1 189 0
 2492 0026 0026     		movs	r6, #0
 192:bluetooth_rxtx.c **** 	f->rssi_avg = 0;
 2493              		.loc 1 192 0
 2494 0028 9BB2     		uxth	r3, r3
 2495 002a 623B     		subs	r3, r3, #98
 189:bluetooth_rxtx.c **** 	f->clk100ns = ts;
 2496              		.loc 1 189 0
 2497 002c C670     		strb	r6, [r0, #3]
 190:bluetooth_rxtx.c **** 
 2498              		.loc 1 190 0
 2499 002e C0F80480 		str	r8, [r0, #4]
 192:bluetooth_rxtx.c **** 	f->rssi_avg = 0;
 2500              		.loc 1 192 0
 2501 0032 8370     		strb	r3, [r0, #2]
 193:bluetooth_rxtx.c **** 	f->rssi_count = 0;
 2502              		.loc 1 193 0
 2503 0034 8672     		strb	r6, [r0, #10]
 194:bluetooth_rxtx.c **** 
 2504              		.loc 1 194 0
 2505 0036 C672     		strb	r6, [r0, #11]
 196:bluetooth_rxtx.c **** 
 2506              		.loc 1 196 0
 2507 0038 3946     		mov	r1, r7
 2508 003a 3222     		movs	r2, #50
 2509 003c 0E30     		adds	r0, r0, #14
 2510              	.LVL264:
 2511 003e FFF7FEFF 		bl	memcpy
 2512              	.LVL265:
 198:bluetooth_rxtx.c **** 	status = 0;
 2513              		.loc 1 198 0
 2514 0042 6B78     		ldrb	r3, [r5, #1]	@ zero_extendqisi2
 199:bluetooth_rxtx.c **** 
 2515              		.loc 1 199 0
 2516 0044 6E70     		strb	r6, [r5, #1]
 198:bluetooth_rxtx.c **** 	status = 0;
 2517              		.loc 1 198 0
 2518 0046 6370     		strb	r3, [r4, #1]
 201:bluetooth_rxtx.c **** }
 2519              		.loc 1 201 0
 2520 0048 0120     		movs	r0, #1
 202:bluetooth_rxtx.c **** 
 2521              		.loc 1 202 0
 2522 004a BDE8F081 		pop	{r4, r5, r6, r7, r8, pc}
 2523              	.LVL266:
 2524              	.L265:
 2525 004e 00BF     		.align	2
 2526              	.L264:
 2527 0050 00000000 		.word	.LANCHOR0
 2528 0054 00000000 		.word	.LANCHOR1
 2529              		.cfi_endproc
 2530              	.LFE2:
ARM GAS  /tmp/ccTiCbBl.s 			page 94


 2532              		.section	.text.TIMER0_IRQHandler,"ax",%progbits
 2533              		.align	1
 2534              		.global	TIMER0_IRQHandler
 2535              		.thumb
 2536              		.thumb_func
 2538              	TIMER0_IRQHandler:
 2539              	.LFB4:
 730:bluetooth_rxtx.c **** 	if (T0IR & TIR_MR0_Interrupt) {
 2540              		.loc 1 730 0
 2541              		.cfi_startproc
 2542              		@ args = 0, pretend = 0, frame = 0
 2543              		@ frame_needed = 0, uses_anonymous_args = 0
 2544 0000 70B5     		push	{r4, r5, r6, lr}
 2545              		.cfi_def_cfa_offset 16
 2546              		.cfi_offset 4, -16
 2547              		.cfi_offset 5, -12
 2548              		.cfi_offset 6, -8
 2549              		.cfi_offset 14, -4
 731:bluetooth_rxtx.c **** 
 2550              		.loc 1 731 0
 2551 0002 4FF04023 		mov	r3, #1073758208
 2552 0006 1B68     		ldr	r3, [r3]
 2553 0008 DB07     		lsls	r3, r3, #31
 2554 000a 7FD5     		bpl	.L266
 2555              	.LBB26:
 733:bluetooth_rxtx.c **** 		clkn_offset = 0;
 2556              		.loc 1 733 0
 2557 000c 4049     		ldr	r1, .L289
 2558 000e 414B     		ldr	r3, .L289+4
 2559 0010 0868     		ldr	r0, [r1]
 2560 0012 1A68     		ldr	r2, [r3]
 2561 0014 0244     		add	r2, r2, r0
 2562 0016 0132     		adds	r2, r2, #1
 2563 0018 0A60     		str	r2, [r1]
 734:bluetooth_rxtx.c **** 
 2564              		.loc 1 734 0
 2565 001a 0022     		movs	r2, #0
 2566 001c 1A60     		str	r2, [r3]
 741:bluetooth_rxtx.c **** 			if ((clkn & 0x7f) == 0)
 2567              		.loc 1 741 0
 2568 001e 3E4A     		ldr	r2, .L289+8
 736:bluetooth_rxtx.c **** 
 2569              		.loc 1 736 0
 2570 0020 0C68     		ldr	r4, [r1]
 2571 0022 3E4B     		ldr	r3, .L289+12
 741:bluetooth_rxtx.c **** 			if ((clkn & 0x7f) == 0)
 2572              		.loc 1 741 0
 2573 0024 967A     		ldrb	r6, [r2, #10]	@ zero_extendqisi2
 736:bluetooth_rxtx.c **** 
 2574              		.loc 1 736 0
 2575 0026 D869     		ldr	r0, [r3, #28]
 2576              	.LVL267:
 2577 0028 1546     		mov	r5, r2
 741:bluetooth_rxtx.c **** 			if ((clkn & 0x7f) == 0)
 2578              		.loc 1 741 0
 2579 002a 16B1     		cbz	r6, .L268
 741:bluetooth_rxtx.c **** 			if ((clkn & 0x7f) == 0)
ARM GAS  /tmp/ccTiCbBl.s 			page 95


 2580              		.loc 1 741 0 is_stmt 0 discriminator 1
 2581 002c 967A     		ldrb	r6, [r2, #10]	@ zero_extendqisi2
 2582 002e 012E     		cmp	r6, #1
 2583 0030 05D1     		bne	.L269
 2584              	.L268:
 742:bluetooth_rxtx.c **** 				do_hop = 1;
 2585              		.loc 1 742 0 is_stmt 1
 2586 0032 0B68     		ldr	r3, [r1]
 2587 0034 5E06     		lsls	r6, r3, #25
 2588 0036 37D1     		bne	.L270
 743:bluetooth_rxtx.c **** 		}
 2589              		.loc 1 743 0
 2590 0038 0123     		movs	r3, #1
 2591 003a EB72     		strb	r3, [r5, #11]
 2592 003c 34E0     		b	.L270
 2593              	.L269:
 746:bluetooth_rxtx.c **** 			if ((clkn & 0x1) == 0)
 2594              		.loc 1 746 0
 2595 003e 957A     		ldrb	r5, [r2, #10]	@ zero_extendqisi2
 2596 0040 022D     		cmp	r5, #2
 2597 0042 03D1     		bne	.L271
 747:bluetooth_rxtx.c **** 				do_hop = 1;
 2598              		.loc 1 747 0
 2599 0044 0B68     		ldr	r3, [r1]
 2600 0046 DC07     		lsls	r4, r3, #31
 2601              	.LVL268:
 2602 0048 2ED4     		bmi	.L270
 2603 004a 2BE0     		b	.L287
 2604              	.LVL269:
 2605              	.L271:
 751:bluetooth_rxtx.c **** 			// Only hop if connected
 2606              		.loc 1 751 0
 2607 004c 957A     		ldrb	r5, [r2, #10]	@ zero_extendqisi2
 2608 004e 032D     		cmp	r5, #3
 2609 0050 1CD1     		bne	.L272
 753:bluetooth_rxtx.c **** 				--le.interval_timer;
 2610              		.loc 1 753 0
 2611 0052 1D7E     		ldrb	r5, [r3, #24]	@ zero_extendqisi2
 2612 0054 032D     		cmp	r5, #3
 2613 0056 27D1     		bne	.L270
 736:bluetooth_rxtx.c **** 
 2614              		.loc 1 736 0 discriminator 1
 2615 0058 201A     		subs	r0, r4, r0
 2616              	.LVL270:
 753:bluetooth_rxtx.c **** 				--le.interval_timer;
 2617              		.loc 1 753 0 discriminator 1
 2618 005a 8007     		lsls	r0, r0, #30
 2619 005c 24D1     		bne	.L270
 754:bluetooth_rxtx.c **** 				if (le.interval_timer == 0) {
 2620              		.loc 1 754 0
 2621 005e 188C     		ldrh	r0, [r3, #32]
 2622 0060 80B2     		uxth	r0, r0
 2623 0062 0138     		subs	r0, r0, #1
 2624 0064 80B2     		uxth	r0, r0
 2625 0066 1884     		strh	r0, [r3, #32]	@ movhi
 755:bluetooth_rxtx.c **** 					do_hop = 1;
 2626              		.loc 1 755 0
ARM GAS  /tmp/ccTiCbBl.s 			page 96


 2627 0068 188C     		ldrh	r0, [r3, #32]
 2628 006a 80B2     		uxth	r0, r0
 2629 006c 48B9     		cbnz	r0, .L273
 756:bluetooth_rxtx.c **** 					++le.conn_count;
 2630              		.loc 1 756 0
 2631 006e 0120     		movs	r0, #1
 2632 0070 D072     		strb	r0, [r2, #11]
 757:bluetooth_rxtx.c **** 					le.interval_timer = le.conn_interval;
 2633              		.loc 1 757 0
 2634 0072 9A8C     		ldrh	r2, [r3, #36]
 2635 0074 92B2     		uxth	r2, r2
 2636 0076 0244     		add	r2, r2, r0
 2637 0078 92B2     		uxth	r2, r2
 2638 007a 9A84     		strh	r2, [r3, #36]	@ movhi
 758:bluetooth_rxtx.c **** 				} else {
 2639              		.loc 1 758 0
 2640 007c 5A8C     		ldrh	r2, [r3, #34]
 2641 007e 1A84     		strh	r2, [r3, #32]	@ movhi
 2642 0080 12E0     		b	.L270
 2643              	.L273:
 760:bluetooth_rxtx.c **** 				}
 2644              		.loc 1 760 0
 2645 0082 274B     		ldr	r3, .L289+16
 2646 0084 4FF48072 		mov	r2, #256
 2647 0088 1A60     		str	r2, [r3]
 2648 008a 0DE0     		b	.L270
 2649              	.LVL271:
 2650              	.L272:
 764:bluetooth_rxtx.c **** 			if( (last_hop + hop_timeout) == clkn ) {
 2651              		.loc 1 764 0
 2652 008c 907A     		ldrb	r0, [r2, #10]	@ zero_extendqisi2
 2653              	.LVL272:
 2654 008e 0528     		cmp	r0, #5
 2655 0090 0AD1     		bne	.L270
 765:bluetooth_rxtx.c **** 				do_hop = 1;
 2656              		.loc 1 765 0
 2657 0092 2448     		ldr	r0, .L289+20
 2658 0094 0468     		ldr	r4, [r0]
 2659              	.LVL273:
 2660 0096 B3F84800 		ldrh	r0, [r3, #72]
 2661 009a 0B68     		ldr	r3, [r1]
 2662 009c 80B2     		uxth	r0, r0
 2663 009e 2044     		add	r0, r0, r4
 2664 00a0 9842     		cmp	r0, r3
 2665 00a2 01D1     		bne	.L270
 2666              	.L287:
 766:bluetooth_rxtx.c **** 			}
 2667              		.loc 1 766 0
 2668 00a4 0123     		movs	r3, #1
 2669 00a6 D372     		strb	r3, [r2, #11]
 2670              	.L270:
 771:bluetooth_rxtx.c **** 			if(clkn >= clkn_next_drift_fix) {
 2671              		.loc 1 771 0
 2672 00a8 1F4A     		ldr	r2, .L289+24
 2673 00aa 204B     		ldr	r3, .L289+28
 2674 00ac 1068     		ldr	r0, [r2]
 2675 00ae C0B1     		cbz	r0, .L274
ARM GAS  /tmp/ccTiCbBl.s 			page 97


 771:bluetooth_rxtx.c **** 			if(clkn >= clkn_next_drift_fix) {
 2676              		.loc 1 771 0 is_stmt 0 discriminator 1
 2677 00b0 1888     		ldrh	r0, [r3]
 2678 00b2 80B2     		uxth	r0, r0
 2679 00b4 A8B9     		cbnz	r0, .L274
 772:bluetooth_rxtx.c **** 
 2680              		.loc 1 772 0 is_stmt 1
 2681 00b6 0C68     		ldr	r4, [r1]
 2682 00b8 1068     		ldr	r0, [r2]
 2683 00ba 8442     		cmp	r4, r0
 2684 00bc 11D3     		bcc	.L274
 775:bluetooth_rxtx.c **** 					clk100ns_offset = 1;
 2685              		.loc 1 775 0
 2686 00be 1C48     		ldr	r0, .L289+32
 2687 00c0 0088     		ldrh	r0, [r0]
 2688 00c2 00B2     		sxth	r0, r0
 2689 00c4 0028     		cmp	r0, #0
 776:bluetooth_rxtx.c **** 				}
 2690              		.loc 1 776 0
 2691 00c6 ACBF     		ite	ge
 2692 00c8 0120     		movge	r0, #1
 781:bluetooth_rxtx.c **** 				}
 2693              		.loc 1 781 0
 2694 00ca 41F66900 		movwlt	r0, #6249
 2695 00ce 1880     		strh	r0, [r3]	@ movhi
 783:bluetooth_rxtx.c **** 				clkn_next_drift_fix = clkn_last_drift_fix + clk_drift_correction;
 2696              		.loc 1 783 0
 2697 00d0 0C68     		ldr	r4, [r1]
 2698 00d2 1848     		ldr	r0, .L289+36
 2699 00d4 0460     		str	r4, [r0]
 784:bluetooth_rxtx.c **** 			}
 2700              		.loc 1 784 0
 2701 00d6 0468     		ldr	r4, [r0]
 2702 00d8 1748     		ldr	r0, .L289+40
 2703 00da 0088     		ldrh	r0, [r0]
 2704 00dc 80B2     		uxth	r0, r0
 2705 00de 2044     		add	r0, r0, r4
 2706 00e0 1060     		str	r0, [r2]
 2707              	.L274:
 789:bluetooth_rxtx.c **** 			clkn += 2;
 2708              		.loc 1 789 0
 2709 00e2 1888     		ldrh	r0, [r3]
 2710 00e4 40F63442 		movw	r2, #3124
 2711 00e8 80B2     		uxth	r0, r0
 2712 00ea 9042     		cmp	r0, r2
 2713 00ec 02D9     		bls	.L277
 790:bluetooth_rxtx.c **** 
 2714              		.loc 1 790 0
 2715 00ee 0A68     		ldr	r2, [r1]
 2716 00f0 0232     		adds	r2, r2, #2
 2717 00f2 0A60     		str	r2, [r1]
 2718              	.L277:
 792:bluetooth_rxtx.c **** 		clk100ns_offset = 0;
 2719              		.loc 1 792 0
 2720 00f4 1988     		ldrh	r1, [r3]
 2721 00f6 114A     		ldr	r2, .L289+44
 2722 00f8 89B2     		uxth	r1, r1
ARM GAS  /tmp/ccTiCbBl.s 			page 98


 2723 00fa 01F63441 		addw	r1, r1, #3124
 2724 00fe 1160     		str	r1, [r2]
 793:bluetooth_rxtx.c **** 
 2725              		.loc 1 793 0
 2726 0100 0022     		movs	r2, #0
 2727 0102 1A80     		strh	r2, [r3]	@ movhi
 796:bluetooth_rxtx.c **** 	}
 2728              		.loc 1 796 0
 2729 0104 0122     		movs	r2, #1
 2730 0106 4FF04023 		mov	r3, #1073758208
 2731 010a 1A60     		str	r2, [r3]
 2732              	.L266:
 2733 010c 70BD     		pop	{r4, r5, r6, pc}
 2734              	.L290:
 2735 010e 00BF     		.align	2
 2736              	.L289:
 2737 0110 00000000 		.word	clkn
 2738 0114 00000000 		.word	clkn_offset
 2739 0118 00000000 		.word	.LANCHOR0
 2740 011c 00000000 		.word	.LANCHOR1
 2741 0120 3CC00920 		.word	537509948
 2742 0124 00000000 		.word	last_hop
 2743 0128 00000000 		.word	clkn_next_drift_fix
 2744 012c 00000000 		.word	clk100ns_offset
 2745 0130 00000000 		.word	clk_drift_ppm
 2746 0134 00000000 		.word	clkn_last_drift_fix
 2747 0138 00000000 		.word	clk_drift_correction
 2748 013c 18400040 		.word	1073758232
 2749              	.LBE26:
 2750              		.cfi_endproc
 2751              	.LFE4:
 2753              		.section	.text.EINT3_IRQHandler,"ax",%progbits
 2754              		.align	1
 2755              		.global	EINT3_IRQHandler
 2756              		.thumb
 2757              		.thumb_func
 2759              	EINT3_IRQHandler:
 2760              	.LFB5:
 803:bluetooth_rxtx.c **** 	/* TODO - check specific source of shared interrupt */
 2761              		.loc 1 803 0
 2762              		.cfi_startproc
 2763              		@ args = 0, pretend = 0, frame = 0
 2764              		@ frame_needed = 0, uses_anonymous_args = 0
 2765              		@ link register save eliminated.
 805:bluetooth_rxtx.c **** 	DIO_SSEL_CLR;           // enable SPI
 2766              		.loc 1 805 0
 2767 0000 084B     		ldr	r3, .L293
 2768 0002 0422     		movs	r2, #4
 2769 0004 1A60     		str	r2, [r3]
 806:bluetooth_rxtx.c **** 	cs_trigger  = 1;        // signal trigger
 2770              		.loc 1 806 0
 2771 0006 084B     		ldr	r3, .L293+4
 2772 0008 4FF08052 		mov	r2, #268435456
 2773 000c 1A60     		str	r2, [r3]
 807:bluetooth_rxtx.c **** 	if (hop_mode == HOP_BLUETOOTH)
 2774              		.loc 1 807 0
 2775 000e 074B     		ldr	r3, .L293+8
ARM GAS  /tmp/ccTiCbBl.s 			page 99


 2776 0010 0122     		movs	r2, #1
 2777 0012 1A70     		strb	r2, [r3]
 808:bluetooth_rxtx.c **** 		dma_discard = 0; 
 2778              		.loc 1 808 0
 2779 0014 064B     		ldr	r3, .L293+12
 2780 0016 9A7A     		ldrb	r2, [r3, #10]	@ zero_extendqisi2
 2781 0018 022A     		cmp	r2, #2
 809:bluetooth_rxtx.c **** 
 2782              		.loc 1 809 0
 2783 001a 04BF     		itt	eq
 2784 001c 0022     		moveq	r2, #0
 2785 001e 1A74     		strbeq	r2, [r3, #16]
 2786 0020 7047     		bx	lr
 2787              	.L294:
 2788 0022 00BF     		.align	2
 2789              	.L293:
 2790 0024 AC800240 		.word	1073905836
 2791 0028 9CC00920 		.word	537510044
 2792 002c 00000000 		.word	cs_trigger
 2793 0030 00000000 		.word	.LANCHOR0
 2794              		.cfi_endproc
 2795              	.LFE5:
 2797              		.section	.text.DMA_IRQHandler,"ax",%progbits
 2798              		.align	1
 2799              		.global	DMA_IRQHandler
 2800              		.thumb
 2801              		.thumb_func
 2803              	DMA_IRQHandler:
 2804              	.LFB7:
 833:bluetooth_rxtx.c **** 	if ( mode == MODE_RX_SYMBOLS
 2805              		.loc 1 833 0
 2806              		.cfi_startproc
 2807              		@ args = 0, pretend = 0, frame = 0
 2808              		@ frame_needed = 0, uses_anonymous_args = 0
 2809 0000 10B5     		push	{r4, lr}
 2810              		.cfi_def_cfa_offset 8
 2811              		.cfi_offset 4, -8
 2812              		.cfi_offset 14, -4
 834:bluetooth_rxtx.c **** 	   || mode == MODE_BT_FOLLOW
 2813              		.loc 1 834 0
 2814 0002 2D4B     		ldr	r3, .L340
 2815 0004 5A7C     		ldrb	r2, [r3, #17]	@ zero_extendqisi2
 2816 0006 012A     		cmp	r2, #1
 2817 0008 1AD0     		beq	.L296
 835:bluetooth_rxtx.c **** 	   || mode == MODE_SPECAN
 2818              		.loc 1 835 0
 2819 000a 5A7C     		ldrb	r2, [r3, #17]	@ zero_extendqisi2
 2820 000c 082A     		cmp	r2, #8
 2821 000e 17D0     		beq	.L296
 836:bluetooth_rxtx.c **** 	   || mode == MODE_BT_FOLLOW_LE
 2822              		.loc 1 836 0
 2823 0010 5A7C     		ldrb	r2, [r3, #17]	@ zero_extendqisi2
 2824 0012 042A     		cmp	r2, #4
 2825 0014 14D0     		beq	.L296
 837:bluetooth_rxtx.c **** 	   || mode == MODE_BT_CFO_LE
 2826              		.loc 1 837 0
 2827 0016 5A7C     		ldrb	r2, [r3, #17]	@ zero_extendqisi2
ARM GAS  /tmp/ccTiCbBl.s 			page 100


 2828 0018 092A     		cmp	r2, #9
 2829 001a 11D0     		beq	.L296
 838:bluetooth_rxtx.c **** 	   || mode == MODE_BT_RSSI_LE
 2830              		.loc 1 838 0
 2831 001c 5A7C     		ldrb	r2, [r3, #17]	@ zero_extendqisi2
 2832 001e 112A     		cmp	r2, #17
 2833 0020 0ED0     		beq	.L296
 839:bluetooth_rxtx.c **** 	   || mode == MODE_BT_PROMISC_LE
 2834              		.loc 1 839 0
 2835 0022 5A7C     		ldrb	r2, [r3, #17]	@ zero_extendqisi2
 2836 0024 122A     		cmp	r2, #18
 2837 0026 0BD0     		beq	.L296
 840:bluetooth_rxtx.c **** 	   || mode == MODE_BT_SLAVE_LE
 2838              		.loc 1 840 0
 2839 0028 5A7C     		ldrb	r2, [r3, #17]	@ zero_extendqisi2
 2840 002a 0A2A     		cmp	r2, #10
 2841 002c 08D0     		beq	.L296
 841:bluetooth_rxtx.c **** 	   || mode == MODE_BT_SYNC_LE
 2842              		.loc 1 841 0
 2843 002e 5A7C     		ldrb	r2, [r3, #17]	@ zero_extendqisi2
 2844 0030 0C2A     		cmp	r2, #12
 2845 0032 05D0     		beq	.L296
 842:bluetooth_rxtx.c **** 	   || mode == MODE_RX_GENERIC)
 2846              		.loc 1 842 0
 2847 0034 5A7C     		ldrb	r2, [r3, #17]	@ zero_extendqisi2
 2848 0036 132A     		cmp	r2, #19
 2849 0038 02D0     		beq	.L296
 843:bluetooth_rxtx.c **** 	{
 2850              		.loc 1 843 0
 2851 003a 5A7C     		ldrb	r2, [r3, #17]	@ zero_extendqisi2
 2852 003c 0F2A     		cmp	r2, #15
 2853 003e 39D1     		bne	.L295
 2854              	.L296:
 846:bluetooth_rxtx.c **** 			if (DMACIntTCStat & (1 << 0)) {
 2855              		.loc 1 846 0
 2856 0040 1E4A     		ldr	r2, .L340+4
 2857 0042 1268     		ldr	r2, [r2]
 2858 0044 D007     		lsls	r0, r2, #31
 2859 0046 35D5     		bpl	.L295
 847:bluetooth_rxtx.c **** 				DMACIntTCClear = (1 << 0);
 2860              		.loc 1 847 0
 2861 0048 1D4A     		ldr	r2, .L340+8
 2862 004a 1268     		ldr	r2, [r2]
 2863 004c D107     		lsls	r1, r2, #31
 2864 004e 26D5     		bpl	.L299
 2865              	.LBB27:
 848:bluetooth_rxtx.c **** 
 2866              		.loc 1 848 0
 2867 0050 1C4A     		ldr	r2, .L340+12
 2868 0052 0121     		movs	r1, #1
 2869 0054 1160     		str	r1, [r2]
 850:bluetooth_rxtx.c **** 					DIO_SSEL_SET;
 2870              		.loc 1 850 0
 2871 0056 9A7A     		ldrb	r2, [r3, #10]	@ zero_extendqisi2
 2872 0058 022A     		cmp	r2, #2
 2873 005a 03D1     		bne	.L300
 851:bluetooth_rxtx.c **** 
ARM GAS  /tmp/ccTiCbBl.s 			page 101


 2874              		.loc 1 851 0
 2875 005c 1A4A     		ldr	r2, .L340+16
 2876 005e 4FF08051 		mov	r1, #268435456
 2877 0062 1160     		str	r1, [r2]
 2878              	.L300:
 853:bluetooth_rxtx.c **** 				idle_buf_clkn_high = (clkn >> 20) & 0xff;
 2879              		.loc 1 853 0
 2880 0064 194A     		ldr	r2, .L340+20
 2881 0066 1A48     		ldr	r0, .L340+24
 2882 0068 1168     		ldr	r1, [r2]
 2883 006a 0068     		ldr	r0, [r0]
 2884 006c C1F31301 		ubfx	r1, r1, #0, #20
 2885 0070 40F63544 		movw	r4, #3125
 2886 0074 04FB0101 		mla	r1, r4, r1, r0
 2887 0078 5960     		str	r1, [r3, #4]
 854:bluetooth_rxtx.c **** 				idle_buf_channel   = channel;
 2888              		.loc 1 854 0
 2889 007a 1268     		ldr	r2, [r2]
 2890 007c C2F30752 		ubfx	r2, r2, #20, #8
 2891 0080 9A70     		strb	r2, [r3, #2]
 855:bluetooth_rxtx.c **** 
 2892              		.loc 1 855 0
 2893 0082 144A     		ldr	r2, .L340+28
 2894 0084 1288     		ldrh	r2, [r2]
 2895 0086 92B2     		uxth	r2, r2
 2896 0088 1A81     		strh	r2, [r3, #8]	@ movhi
 858:bluetooth_rxtx.c **** 				active_rxbuf = idle_rxbuf;
 2897              		.loc 1 858 0
 2898 008a 134A     		ldr	r2, .L340+32
 859:bluetooth_rxtx.c **** 				idle_rxbuf = tmp;
 2899              		.loc 1 859 0
 2900 008c 134B     		ldr	r3, .L340+36
 858:bluetooth_rxtx.c **** 				active_rxbuf = idle_rxbuf;
 2901              		.loc 1 858 0
 2902 008e 1168     		ldr	r1, [r2]
 2903              	.LVL274:
 859:bluetooth_rxtx.c **** 				idle_rxbuf = tmp;
 2904              		.loc 1 859 0
 2905 0090 1868     		ldr	r0, [r3]
 2906 0092 1060     		str	r0, [r2]
 860:bluetooth_rxtx.c **** 
 2907              		.loc 1 860 0
 2908 0094 1960     		str	r1, [r3]
 862:bluetooth_rxtx.c **** 			}
 2909              		.loc 1 862 0
 2910 0096 124B     		ldr	r3, .L340+40
 2911 0098 1A68     		ldr	r2, [r3]
 2912 009a 0132     		adds	r2, r2, #1
 2913 009c 1A60     		str	r2, [r3]
 2914              	.LVL275:
 2915              	.L299:
 2916              	.LBE27:
 864:bluetooth_rxtx.c **** 				DMACIntErrClr = (1 << 0);
 2917              		.loc 1 864 0
 2918 009e 114B     		ldr	r3, .L340+44
 2919 00a0 1B68     		ldr	r3, [r3]
 2920 00a2 DA07     		lsls	r2, r3, #31
ARM GAS  /tmp/ccTiCbBl.s 			page 102


 2921 00a4 06D5     		bpl	.L295
 865:bluetooth_rxtx.c **** 				++rx_err;
 2922              		.loc 1 865 0
 2923 00a6 104B     		ldr	r3, .L340+48
 2924 00a8 0122     		movs	r2, #1
 2925 00aa 1A60     		str	r2, [r3]
 866:bluetooth_rxtx.c **** 			}
 2926              		.loc 1 866 0
 2927 00ac 0F4B     		ldr	r3, .L340+52
 2928 00ae 1A68     		ldr	r2, [r3]
 2929 00b0 0132     		adds	r2, r2, #1
 2930 00b2 1A60     		str	r2, [r3]
 2931              	.L295:
 2932 00b4 10BD     		pop	{r4, pc}
 2933              	.L341:
 2934 00b6 00BF     		.align	2
 2935              	.L340:
 2936 00b8 00000000 		.word	.LANCHOR0
 2937 00bc 00400050 		.word	1342193664
 2938 00c0 04400050 		.word	1342193668
 2939 00c4 08400050 		.word	1342193672
 2940 00c8 98C00920 		.word	537510040
 2941 00cc 00000000 		.word	clkn
 2942 00d0 08400040 		.word	1073758216
 2943 00d4 00000000 		.word	.LANCHOR1
 2944 00d8 00000000 		.word	active_rxbuf
 2945 00dc 00000000 		.word	idle_rxbuf
 2946 00e0 00000000 		.word	rx_tc
 2947 00e4 0C400050 		.word	1342193676
 2948 00e8 10400050 		.word	1342193680
 2949 00ec 00000000 		.word	rx_err
 2950              		.cfi_endproc
 2951              	.LFE7:
 2953              		.section	.text.le_transmit,"ax",%progbits
 2954              		.align	1
 2955              		.global	le_transmit
 2956              		.thumb
 2957              		.thumb_func
 2959              	le_transmit:
 2960              	.LFB12:
1096:bluetooth_rxtx.c **** 	unsigned i, j;
 2961              		.loc 1 1096 0
 2962              		.cfi_startproc
 2963              		@ args = 0, pretend = 0, frame = 64
 2964              		@ frame_needed = 0, uses_anonymous_args = 0
 2965              	.LVL276:
 2966 0000 2DE9F047 		push	{r4, r5, r6, r7, r8, r9, r10, lr}
 2967              		.cfi_def_cfa_offset 32
 2968              		.cfi_offset 4, -32
 2969              		.cfi_offset 5, -28
 2970              		.cfi_offset 6, -24
 2971              		.cfi_offset 7, -20
 2972              		.cfi_offset 8, -16
 2973              		.cfi_offset 9, -12
 2974              		.cfi_offset 10, -8
 2975              		.cfi_offset 14, -4
 2976 0004 90B0     		sub	sp, sp, #64
ARM GAS  /tmp/ccTiCbBl.s 			page 103


 2977              		.cfi_def_cfa_offset 96
1096:bluetooth_rxtx.c **** 	unsigned i, j;
 2978              		.loc 1 1096 0
 2979 0006 0546     		mov	r5, r0
 2980 0008 8946     		mov	r9, r1
 2981 000a 9246     		mov	r10, r2
 2982 000c 9846     		mov	r8, r3
 2983              	.LVL277:
 2984 000e 0DF1FF30 		add	r0, sp, #-1
 2985              	.LVL278:
 2986 0012 0DF10301 		add	r1, sp, #3
 2987              	.LVL279:
 2988              	.L346:
1112:bluetooth_rxtx.c **** 		for (j = 0; j < 8; ++j) {
 2989              		.loc 1 1112 0
 2990 0016 0022     		movs	r2, #0
1110:bluetooth_rxtx.c **** 		aa >>= 8;
 2991              		.loc 1 1110 0
 2992 0018 EBB2     		uxtb	r3, r5
 2993              	.LVL280:
1112:bluetooth_rxtx.c **** 		for (j = 0; j < 8; ++j) {
 2994              		.loc 1 1112 0
 2995 001a 4270     		strb	r2, [r0, #1]
1111:bluetooth_rxtx.c **** 		txbuf[i] = 0;
 2996              		.loc 1 1111 0
 2997 001c 2D0A     		lsrs	r5, r5, #8
 2998              	.LVL281:
1112:bluetooth_rxtx.c **** 		for (j = 0; j < 8; ++j) {
 2999              		.loc 1 1112 0
 3000 001e 0724     		movs	r4, #7
 3001              	.LVL282:
 3002              	.L344:
1114:bluetooth_rxtx.c **** 			byte >>= 1;
 3003              		.loc 1 1114 0 discriminator 2
 3004 0020 03F00106 		and	r6, r3, #1
 3005 0024 A640     		lsls	r6, r6, r4
1113:bluetooth_rxtx.c **** 			txbuf[i] |= (byte & 1) << (7 - j);
 3006              		.loc 1 1113 0 discriminator 2
 3007 0026 14F1FF34 		adds	r4, r4, #-1
 3008              	.LVL283:
1114:bluetooth_rxtx.c **** 			byte >>= 1;
 3009              		.loc 1 1114 0 discriminator 2
 3010 002a 46EA0202 		orr	r2, r6, r2
 3011 002e D2B2     		uxtb	r2, r2
1115:bluetooth_rxtx.c **** 		}
 3012              		.loc 1 1115 0 discriminator 2
 3013 0030 4FEA5303 		lsr	r3, r3, #1
 3014              	.LVL284:
1113:bluetooth_rxtx.c **** 			txbuf[i] |= (byte & 1) << (7 - j);
 3015              		.loc 1 1113 0 discriminator 2
 3016 0034 F4D2     		bcs	.L344
 3017 0036 00F8012F 		strb	r2, [r0, #1]!
 3018              	.LVL285:
1109:bluetooth_rxtx.c **** 		byte = aa & 0xff;
 3019              		.loc 1 1109 0
 3020 003a 8842     		cmp	r0, r1
 3021 003c EBD1     		bne	.L346
ARM GAS  /tmp/ccTiCbBl.s 			page 104


1120:bluetooth_rxtx.c **** 	for (i = 0; i < len; ++i) {
 3022              		.loc 1 1120 0
 3023 003e A8F16200 		sub	r0, r8, #98
 3024              	.LVL286:
 3025 0042 C0B2     		uxtb	r0, r0
 3026 0044 FFF7FEFF 		bl	btle_channel_index
 3027              	.LVL287:
 3028 0048 524B     		ldr	r3, .L370
1121:bluetooth_rxtx.c **** 		byte = data[i];
 3029              		.loc 1 1121 0
 3030 004a 0024     		movs	r4, #0
1120:bluetooth_rxtx.c **** 	for (i = 0; i < len; ++i) {
 3031              		.loc 1 1120 0
 3032 004c 1E5C     		ldrb	r6, [r3, r0]	@ zero_extendqisi2
 3033              	.LVL288:
 3034              	.L347:
1121:bluetooth_rxtx.c **** 		byte = data[i];
 3035              		.loc 1 1121 0 discriminator 1
 3036 004e 4C45     		cmp	r4, r9
 3037 0050 20D2     		bcs	.L369
 3038 0052 00A9     		add	r1, sp, #0
1122:bluetooth_rxtx.c **** 		txbuf[i+4] = 0;
 3039              		.loc 1 1122 0
 3040 0054 1AF80470 		ldrb	r7, [r10, r4]	@ zero_extendqisi2
 3041              	.LVL289:
 3042 0058 2144     		add	r1, r1, r4
 3043              	.LVL290:
 3044 005a 0720     		movs	r0, #7
 3045 005c 0023     		movs	r3, #0
 3046              	.LVL291:
 3047              	.L349:
1125:bluetooth_rxtx.c **** 			idx = (idx + 1) % sizeof(whitening);
 3048              		.loc 1 1125 0 discriminator 2
 3049 005e 4D4A     		ldr	r2, .L370
 3050 0060 07F0010E 		and	lr, r7, #1
 3051 0064 3244     		add	r2, r2, r6
 3052 0066 92F82820 		ldrb	r2, [r2, #40]	@ zero_extendqisi2
1126:bluetooth_rxtx.c **** 			//bit = (byte & 1);
 3053              		.loc 1 1126 0 discriminator 2
 3054 006a 0136     		adds	r6, r6, #1
 3055              	.LVL292:
1125:bluetooth_rxtx.c **** 			idx = (idx + 1) % sizeof(whitening);
 3056              		.loc 1 1125 0 discriminator 2
 3057 006c 8EEA020E 		eor	lr, lr, r2
 3058              	.LVL293:
1126:bluetooth_rxtx.c **** 			//bit = (byte & 1);
 3059              		.loc 1 1126 0 discriminator 2
 3060 0070 7F22     		movs	r2, #127
 3061 0072 B6FBF2FC 		udiv	ip, r6, r2
 3062 0076 02FB1C66 		mls	r6, r2, ip, r6
 3063              	.LVL294:
1129:bluetooth_rxtx.c **** 		}
 3064              		.loc 1 1129 0 discriminator 2
 3065 007a 0EFA00F2 		lsl	r2, lr, r0
1124:bluetooth_rxtx.c **** 			bit = (byte & 1) ^ whitening[idx];
 3066              		.loc 1 1124 0 discriminator 2
 3067 007e 10F1FF30 		adds	r0, r0, #-1
ARM GAS  /tmp/ccTiCbBl.s 			page 105


 3068              	.LVL295:
1129:bluetooth_rxtx.c **** 		}
 3069              		.loc 1 1129 0 discriminator 2
 3070 0082 42EA0303 		orr	r3, r2, r3
1128:bluetooth_rxtx.c **** 			txbuf[i+4] |= bit << (7 - j);
 3071              		.loc 1 1128 0 discriminator 2
 3072 0086 4FEA5707 		lsr	r7, r7, #1
 3073              	.LVL296:
1129:bluetooth_rxtx.c **** 		}
 3074              		.loc 1 1129 0 discriminator 2
 3075 008a DBB2     		uxtb	r3, r3
 3076              	.LVL297:
1124:bluetooth_rxtx.c **** 			bit = (byte & 1) ^ whitening[idx];
 3077              		.loc 1 1124 0 discriminator 2
 3078 008c E7D2     		bcs	.L349
 3079 008e 0B71     		strb	r3, [r1, #4]
1121:bluetooth_rxtx.c **** 		byte = data[i];
 3080              		.loc 1 1121 0
 3081 0090 0134     		adds	r4, r4, #1
 3082              	.LVL298:
 3083 0092 DCE7     		b	.L347
 3084              	.LVL299:
 3085              	.L369:
1136:bluetooth_rxtx.c **** 	cc2400_set(LMTST,   0x2b22);    // LNA and receive mixers test register
 3086              		.loc 1 1136 0
 3087 0094 0D20     		movs	r0, #13
 3088 0096 47F6FF71 		movw	r1, #32767
 3089 009a FFF7FEFF 		bl	cc2400_set
 3090              	.LVL300:
1137:bluetooth_rxtx.c **** 	cc2400_set(MDMTST0, 0x134b);    // no PRNG
 3091              		.loc 1 1137 0
 3092 009e 1220     		movs	r0, #18
 3093 00a0 42F62231 		movw	r1, #11042
 3094 00a4 FFF7FEFF 		bl	cc2400_set
 3095              	.LVL301:
1138:bluetooth_rxtx.c **** 
 3096              		.loc 1 1138 0
 3097 00a8 1420     		movs	r0, #20
 3098 00aa 41F24B31 		movw	r1, #4939
 3099 00ae FFF7FEFF 		bl	cc2400_set
 3100              	.LVL302:
1140:bluetooth_rxtx.c **** 	// 0 00 01 1 001 00 0 00 0 1
 3101              		.loc 1 1140 0
 3102 00b2 2020     		movs	r0, #32
 3103 00b4 40F60141 		movw	r1, #3073
 3104 00b8 FFF7FEFF 		bl	cc2400_set
 3105              	.LVL303:
1148:bluetooth_rxtx.c **** 	// JWHUR cc2400 data sheet about power control
 3106              		.loc 1 1148 0
 3107 00bc 0220     		movs	r0, #2
 3108 00be 4146     		mov	r1, r8
 3109 00c0 FFF7FEFF 		bl	cc2400_set
 3110              	.LVL304:
1159:bluetooth_rxtx.c **** 	//cc2400_set(FREND,   0b1011);    // amplifier level (-7 dBm, picked from hat)
 3111              		.loc 1 1159 0
 3112 00c4 0520     		movs	r0, #5
 3113 00c6 0721     		movs	r1, #7
ARM GAS  /tmp/ccTiCbBl.s 			page 106


 3114 00c8 FFF7FEFF 		bl	cc2400_set
 3115              	.LVL305:
1161:bluetooth_rxtx.c **** 	cc2400_set(INT,     0x0014);    // FIFO_THRESHOLD: 20 bytes
 3116              		.loc 1 1161 0
 3117 00cc 0320     		movs	r0, #3
 3118 00ce 4021     		movs	r1, #64
 3119 00d0 FFF7FEFF 		bl	cc2400_set
 3120              	.LVL306:
1162:bluetooth_rxtx.c **** 
 3121              		.loc 1 1162 0
 3122 00d4 1421     		movs	r1, #20
 3123 00d6 2320     		movs	r0, #35
 3124 00d8 FFF7FEFF 		bl	cc2400_set
 3125              	.LVL307:
1165:bluetooth_rxtx.c **** 		cc2400_set(SYNCH,   0xaaaa);
 3126              		.loc 1 1165 0
 3127 00dc EA07     		lsls	r2, r5, #31
1166:bluetooth_rxtx.c **** 	else
 3128              		.loc 1 1166 0
 3129 00de 4CBF     		ite	mi
 3130 00e0 4AF6AA21 		movwmi	r1, #43690
1168:bluetooth_rxtx.c **** 
 3131              		.loc 1 1168 0
 3132 00e4 45F25551 		movwpl	r1, #21845
1166:bluetooth_rxtx.c **** 	else
 3133              		.loc 1 1166 0
 3134 00e8 2D20     		movs	r0, #45
1168:bluetooth_rxtx.c **** 
 3135              		.loc 1 1168 0
 3136 00ea FFF7FEFF 		bl	cc2400_set
 3137              	.LVL308:
1171:bluetooth_rxtx.c **** 	cc2400_set(IOCFG, (GIO_FIFO_FULL << 9) | (gio_save & 0x1ff));
 3138              		.loc 1 1171 0
 3139 00ee 0820     		movs	r0, #8
 3140 00f0 FFF7FEFF 		bl	cc2400_get
 3141              	.LVL309:
1172:bluetooth_rxtx.c **** 
 3142              		.loc 1 1172 0
 3143 00f4 C0F30801 		ubfx	r1, r0, #0, #9
1133:bluetooth_rxtx.c **** 
 3144              		.loc 1 1133 0
 3145 00f8 09F10409 		add	r9, r9, #4
1171:bluetooth_rxtx.c **** 	cc2400_set(IOCFG, (GIO_FIFO_FULL << 9) | (gio_save & 0x1ff));
 3146              		.loc 1 1171 0
 3147 00fc 0446     		mov	r4, r0
 3148              	.LVL310:
1172:bluetooth_rxtx.c **** 
 3149              		.loc 1 1172 0
 3150 00fe 41F49C41 		orr	r1, r1, #19968
 3151 0102 0820     		movs	r0, #8
1133:bluetooth_rxtx.c **** 
 3152              		.loc 1 1133 0
 3153 0104 5FFA89F9 		uxtb	r9, r9
 3154              	.LVL311:
1172:bluetooth_rxtx.c **** 
 3155              		.loc 1 1172 0
 3156 0108 FFF7FEFF 		bl	cc2400_set
ARM GAS  /tmp/ccTiCbBl.s 			page 107


 3157              	.LVL312:
 3158              	.L354:
1174:bluetooth_rxtx.c **** 	cc2400_strobe(SFSON);
 3159              		.loc 1 1174 0 discriminator 1
 3160 010c FFF7FEFF 		bl	cc2400_status
 3161              	.LVL313:
 3162 0110 4306     		lsls	r3, r0, #25
 3163 0112 FBD5     		bpl	.L354
1175:bluetooth_rxtx.c **** 	while (!(cc2400_status() & FS_LOCK));
 3164              		.loc 1 1175 0
 3165 0114 6120     		movs	r0, #97
 3166 0116 FFF7FEFF 		bl	cc2400_strobe
 3167              	.LVL314:
 3168              	.L356:
1176:bluetooth_rxtx.c **** 	TXLED_SET;
 3169              		.loc 1 1176 0 discriminator 1
 3170 011a FFF7FEFF 		bl	cc2400_status
 3171              	.LVL315:
 3172 011e 4707     		lsls	r7, r0, #29
 3173 0120 FBD5     		bpl	.L356
1177:bluetooth_rxtx.c **** #ifdef UBERTOOTH_ONE
 3174              		.loc 1 1177 0
 3175 0122 1D4B     		ldr	r3, .L370+4
 3176 0124 4FF48072 		mov	r2, #256
 3177 0128 1A60     		str	r2, [r3]
1179:bluetooth_rxtx.c **** #endif
 3178              		.loc 1 1179 0
 3179 012a 8022     		movs	r2, #128
 3180 012c 1A62     		str	r2, [r3, #32]
 3181              	.L358:
1181:bluetooth_rxtx.c **** 	cc2400_strobe(STX);
 3182              		.loc 1 1181 0 discriminator 1
 3183 012e 0E20     		movs	r0, #14
 3184 0130 FFF7FEFF 		bl	cc2400_get
 3185              	.LVL316:
 3186 0134 00F01F00 		and	r0, r0, #31
 3187 0138 0F28     		cmp	r0, #15
 3188 013a F8D1     		bne	.L358
1182:bluetooth_rxtx.c **** 
 3189              		.loc 1 1182 0
 3190 013c 6320     		movs	r0, #99
 3191 013e FFF7FEFF 		bl	cc2400_strobe
 3192              	.LVL317:
 3193              	.L360:
1195:bluetooth_rxtx.c **** 	if (len > 46) len = 46;
 3194              		.loc 1 1195 0 discriminator 1
 3195 0142 164B     		ldr	r3, .L370+8
 3196 0144 1B68     		ldr	r3, [r3]
 3197 0146 5E07     		lsls	r6, r3, #29
 3198 0148 FBD4     		bmi	.L360
 3199              	.LVL318:
1197:bluetooth_rxtx.c **** 
 3200              		.loc 1 1197 0
 3201 014a B9F12E0F 		cmp	r9, #46
 3202 014e 34BF     		ite	cc
 3203 0150 4846     		movcc	r0, r9
 3204 0152 2E20     		movcs	r0, #46
ARM GAS  /tmp/ccTiCbBl.s 			page 108


 3205 0154 6946     		mov	r1, sp
 3206 0156 FFF7FEFF 		bl	cc2400_fifo_write
 3207              	.LVL319:
 3208              	.L362:
1199:bluetooth_rxtx.c **** 	TXLED_CLR;
 3209              		.loc 1 1199 0 discriminator 1
 3210 015a 0E20     		movs	r0, #14
 3211 015c FFF7FEFF 		bl	cc2400_get
 3212              	.LVL320:
 3213 0160 00F01F00 		and	r0, r0, #31
 3214 0164 0F28     		cmp	r0, #15
 3215 0166 F8D1     		bne	.L362
1200:bluetooth_rxtx.c **** 
 3216              		.loc 1 1200 0
 3217 0168 0D4B     		ldr	r3, .L370+12
 3218 016a 4FF48072 		mov	r2, #256
 3219 016e 1A60     		str	r2, [r3]
1202:bluetooth_rxtx.c **** 	while ((cc2400_status() & FS_LOCK));
 3220              		.loc 1 1202 0
 3221 0170 6420     		movs	r0, #100
 3222 0172 FFF7FEFF 		bl	cc2400_strobe
 3223              	.LVL321:
 3224              	.L364:
1203:bluetooth_rxtx.c **** 
 3225              		.loc 1 1203 0 discriminator 1
 3226 0176 FFF7FEFF 		bl	cc2400_status
 3227              	.LVL322:
 3228 017a 4507     		lsls	r5, r0, #29
 3229 017c FBD4     		bmi	.L364
1206:bluetooth_rxtx.c **** #endif
 3230              		.loc 1 1206 0
 3231 017e 094B     		ldr	r3, .L370+16
 3232 0180 8022     		movs	r2, #128
 3233 0182 1A60     		str	r2, [r3]
1210:bluetooth_rxtx.c **** }
 3234              		.loc 1 1210 0
 3235 0184 0820     		movs	r0, #8
 3236 0186 2146     		mov	r1, r4
 3237 0188 FFF7FEFF 		bl	cc2400_set
 3238              	.LVL323:
1211:bluetooth_rxtx.c **** 
 3239              		.loc 1 1211 0
 3240 018c 10B0     		add	sp, sp, #64
 3241              		@ sp needed
 3242 018e BDE8F087 		pop	{r4, r5, r6, r7, r8, r9, r10, pc}
 3243              	.LVL324:
 3244              	.L371:
 3245 0192 00BF     		.align	2
 3246              	.L370:
 3247 0194 00000000 		.word	.LANCHOR2
 3248 0198 38C00920 		.word	537509944
 3249 019c 54C00920 		.word	537509972
 3250 01a0 3CC00920 		.word	537509948
 3251 01a4 5CC00920 		.word	537509980
 3252              		.cfi_endproc
 3253              	.LFE12:
 3255              		.section	.text.le_jam,"ax",%progbits
ARM GAS  /tmp/ccTiCbBl.s 			page 109


 3256              		.align	1
 3257              		.global	le_jam
 3258              		.thumb
 3259              		.thumb_func
 3261              	le_jam:
 3262              	.LFB13:
1213:bluetooth_rxtx.c **** #ifdef TX_ENABLE
 3263              		.loc 1 1213 0
 3264              		.cfi_startproc
 3265              		@ args = 0, pretend = 0, frame = 0
 3266              		@ frame_needed = 0, uses_anonymous_args = 0
 3267 0000 08B5     		push	{r3, lr}
 3268              		.cfi_def_cfa_offset 8
 3269              		.cfi_offset 3, -8
 3270              		.cfi_offset 14, -4
1215:bluetooth_rxtx.c **** 	cc2400_set(LMTST,   0x2b22);    // LNA and receive mixers test register
 3271              		.loc 1 1215 0
 3272 0002 0D20     		movs	r0, #13
 3273 0004 47F6FF71 		movw	r1, #32767
 3274 0008 FFF7FEFF 		bl	cc2400_set
 3275              	.LVL325:
1216:bluetooth_rxtx.c **** 	cc2400_set(MDMTST0, 0x234b);    // PRNG, 1 MHz offset
 3276              		.loc 1 1216 0
 3277 000c 1220     		movs	r0, #18
 3278 000e 42F62231 		movw	r1, #11042
 3279 0012 FFF7FEFF 		bl	cc2400_set
 3280              	.LVL326:
1217:bluetooth_rxtx.c **** 
 3281              		.loc 1 1217 0
 3282 0016 1420     		movs	r0, #20
 3283 0018 42F24B31 		movw	r1, #9035
 3284 001c FFF7FEFF 		bl	cc2400_set
 3285              	.LVL327:
1219:bluetooth_rxtx.c **** 	// 0 00 01 1 000 00 0 00 0 1
 3286              		.loc 1 1219 0
 3287 0020 2020     		movs	r0, #32
 3288 0022 40F60141 		movw	r1, #3073
 3289 0026 FFF7FEFF 		bl	cc2400_set
 3290              	.LVL328:
1228:bluetooth_rxtx.c **** 	cc2400_set(MDMCTRL, 0x0040);    // 250 kHz frequency deviation
 3291              		.loc 1 1228 0
 3292 002a 0520     		movs	r0, #5
 3293 002c 0B21     		movs	r1, #11
 3294 002e FFF7FEFF 		bl	cc2400_set
 3295              	.LVL329:
1229:bluetooth_rxtx.c **** 
 3296              		.loc 1 1229 0
 3297 0032 0320     		movs	r0, #3
 3298 0034 4021     		movs	r1, #64
 3299 0036 FFF7FEFF 		bl	cc2400_set
 3300              	.LVL330:
 3301              	.L374:
1231:bluetooth_rxtx.c **** 	cc2400_strobe(SFSON);
 3302              		.loc 1 1231 0 discriminator 1
 3303 003a FFF7FEFF 		bl	cc2400_status
 3304              	.LVL331:
 3305 003e 4006     		lsls	r0, r0, #25
ARM GAS  /tmp/ccTiCbBl.s 			page 110


 3306 0040 FBD5     		bpl	.L374
1232:bluetooth_rxtx.c **** 	while (!(cc2400_status() & FS_LOCK));
 3307              		.loc 1 1232 0
 3308 0042 6120     		movs	r0, #97
 3309 0044 FFF7FEFF 		bl	cc2400_strobe
 3310              	.LVL332:
 3311              	.L376:
1233:bluetooth_rxtx.c **** 	TXLED_SET;
 3312              		.loc 1 1233 0 discriminator 1
 3313 0048 FFF7FEFF 		bl	cc2400_status
 3314              	.LVL333:
 3315 004c 4107     		lsls	r1, r0, #29
 3316 004e FBD5     		bpl	.L376
1234:bluetooth_rxtx.c **** #ifdef UBERTOOTH_ONE
 3317              		.loc 1 1234 0
 3318 0050 084B     		ldr	r3, .L379
 3319 0052 4FF48072 		mov	r2, #256
 3320 0056 1A60     		str	r2, [r3]
1236:bluetooth_rxtx.c **** #endif
 3321              		.loc 1 1236 0
 3322 0058 8022     		movs	r2, #128
 3323 005a 1A62     		str	r2, [r3, #32]
 3324              	.L378:
1238:bluetooth_rxtx.c **** 	cc2400_strobe(STX);
 3325              		.loc 1 1238 0 discriminator 1
 3326 005c 0E20     		movs	r0, #14
 3327 005e FFF7FEFF 		bl	cc2400_get
 3328              	.LVL334:
 3329 0062 00F01F00 		and	r0, r0, #31
 3330 0066 0F28     		cmp	r0, #15
 3331 0068 F8D1     		bne	.L378
1239:bluetooth_rxtx.c **** #endif
 3332              		.loc 1 1239 0
 3333 006a 6320     		movs	r0, #99
1241:bluetooth_rxtx.c **** 
 3334              		.loc 1 1241 0
 3335 006c BDE80840 		pop	{r3, lr}
1239:bluetooth_rxtx.c **** #endif
 3336              		.loc 1 1239 0
 3337 0070 FFF7FEBF 		b	cc2400_strobe
 3338              	.LVL335:
 3339              	.L380:
 3340              		.align	2
 3341              	.L379:
 3342 0074 38C00920 		.word	537509944
 3343              		.cfi_endproc
 3344              	.LFE13:
 3346              		.section	.text.hop,"ax",%progbits
 3347              		.align	1
 3348              		.global	hop
 3349              		.thumb
 3350              		.thumb_func
 3352              	hop:
 3353              	.LFB14:
1246:bluetooth_rxtx.c **** 	do_hop = 0;
 3354              		.loc 1 1246 0
 3355              		.cfi_startproc
ARM GAS  /tmp/ccTiCbBl.s 			page 111


 3356              		@ args = 0, pretend = 0, frame = 0
 3357              		@ frame_needed = 0, uses_anonymous_args = 0
 3358 0000 38B5     		push	{r3, r4, r5, lr}
 3359              		.cfi_def_cfa_offset 16
 3360              		.cfi_offset 3, -16
 3361              		.cfi_offset 4, -12
 3362              		.cfi_offset 5, -8
 3363              		.cfi_offset 14, -4
1247:bluetooth_rxtx.c **** 	last_hop = clkn;
 3364              		.loc 1 1247 0
 3365 0002 5F4C     		ldr	r4, .L421
 3366 0004 0023     		movs	r3, #0
 3367 0006 E372     		strb	r3, [r4, #11]
1248:bluetooth_rxtx.c **** 
 3368              		.loc 1 1248 0
 3369 0008 5E4B     		ldr	r3, .L421+4
 3370 000a 5F4A     		ldr	r2, .L421+8
 3371 000c 1968     		ldr	r1, [r3]
 3372 000e 1160     		str	r1, [r2]
1251:bluetooth_rxtx.c **** 		if (cc2400_get(FSDIV) == (channel - 1))
 3373              		.loc 1 1251 0
 3374 0010 A27A     		ldrb	r2, [r4, #10]	@ zero_extendqisi2
 3375 0012 4AB9     		cbnz	r2, .L382
1252:bluetooth_rxtx.c **** 			return;
 3376              		.loc 1 1252 0
 3377 0014 0220     		movs	r0, #2
 3378 0016 FFF7FEFF 		bl	cc2400_get
 3379              	.LVL336:
 3380 001a 5C4B     		ldr	r3, .L421+12
 3381 001c 1B88     		ldrh	r3, [r3]
 3382 001e 9BB2     		uxth	r3, r3
 3383 0020 013B     		subs	r3, r3, #1
 3384 0022 9842     		cmp	r0, r3
 3385 0024 7FD1     		bne	.L384
 3386 0026 38BD     		pop	{r3, r4, r5, pc}
 3387              	.L382:
1258:bluetooth_rxtx.c **** 		do {
 3388              		.loc 1 1258 0
 3389 0028 A27A     		ldrb	r2, [r4, #10]	@ zero_extendqisi2
 3390 002a 012A     		cmp	r2, #1
 3391 002c 31D1     		bne	.L385
1263:bluetooth_rxtx.c **** 	}
 3392              		.loc 1 1263 0
 3393 002e 584B     		ldr	r3, .L421+16
 3394 0030 1978     		ldrb	r1, [r3]	@ zero_extendqisi2
 3395 0032 584B     		ldr	r3, .L421+20
 3396 0034 1878     		ldrb	r0, [r3]	@ zero_extendqisi2
 3397              	.L389:
1260:bluetooth_rxtx.c **** 			if (channel > 2480)
 3398              		.loc 1 1260 0
 3399 0036 554B     		ldr	r3, .L421+12
 3400 0038 1A88     		ldrh	r2, [r3]
 3401 003a 92B2     		uxth	r2, r2
 3402 003c 2032     		adds	r2, r2, #32
 3403 003e 92B2     		uxth	r2, r2
 3404 0040 1A80     		strh	r2, [r3]	@ movhi
1261:bluetooth_rxtx.c **** 				channel -= 79;
ARM GAS  /tmp/ccTiCbBl.s 			page 112


 3405              		.loc 1 1261 0
 3406 0042 1A88     		ldrh	r2, [r3]
 3407 0044 92B2     		uxth	r2, r2
 3408 0046 B2F51B6F 		cmp	r2, #2480
 3409 004a 04D9     		bls	.L386
1262:bluetooth_rxtx.c **** 		} while ( used_channels != 0 && afh_enabled && !( afh_map[(channel-2402)/8] & 0x1<<((channel-2402
 3410              		.loc 1 1262 0
 3411 004c 1A88     		ldrh	r2, [r3]
 3412 004e 92B2     		uxth	r2, r2
 3413 0050 4F3A     		subs	r2, r2, #79
 3414 0052 92B2     		uxth	r2, r2
 3415 0054 1A80     		strh	r2, [r3]	@ movhi
 3416              	.L386:
1263:bluetooth_rxtx.c **** 	}
 3417              		.loc 1 1263 0
 3418 0056 0029     		cmp	r1, #0
 3419 0058 65D0     		beq	.L384
1263:bluetooth_rxtx.c **** 	}
 3420              		.loc 1 1263 0 is_stmt 0 discriminator 1
 3421 005a 0028     		cmp	r0, #0
 3422 005c 63D0     		beq	.L384
 3423 005e 1A88     		ldrh	r2, [r3]
 3424 0060 1D88     		ldrh	r5, [r3]
 3425 0062 92B2     		uxth	r2, r2
 3426 0064 A2F66213 		subw	r3, r2, #2402
 3427 0068 0822     		movs	r2, #8
 3428 006a 93FBF2F3 		sdiv	r3, r3, r2
 3429 006e 4A4A     		ldr	r2, .L421+24
 3430 0070 ADB2     		uxth	r5, r5
 3431 0072 D25C     		ldrb	r2, [r2, r3]	@ zero_extendqisi2
 3432 0074 494B     		ldr	r3, .L421+28
 3433 0076 A5F66215 		subw	r5, r5, #2402
 3434 007a 2B40     		ands	r3, r3, r5
 3435 007c 002B     		cmp	r3, #0
 3436 007e 03DA     		bge	.L388
 3437 0080 013B     		subs	r3, r3, #1
 3438 0082 63F00703 		orn	r3, r3, #7
 3439 0086 0133     		adds	r3, r3, #1
 3440              	.L388:
 3441 0088 42FA03F3 		asr	r3, r2, r3
 3442 008c DD07     		lsls	r5, r3, #31
 3443 008e D2D5     		bpl	.L389
 3444 0090 49E0     		b	.L384
 3445              	.L385:
1269:bluetooth_rxtx.c **** 		do {
 3446              		.loc 1 1269 0 is_stmt 1
 3447 0092 A27A     		ldrb	r2, [r4, #10]	@ zero_extendqisi2
 3448 0094 052A     		cmp	r2, #5
 3449 0096 2DD1     		bne	.L390
1274:bluetooth_rxtx.c **** 	}
 3450              		.loc 1 1274 0
 3451 0098 3D4B     		ldr	r3, .L421+16
 3452 009a 1978     		ldrb	r1, [r3]	@ zero_extendqisi2
 3453              	.L393:
1271:bluetooth_rxtx.c **** 			if (channel > 2480)
 3454              		.loc 1 1271 0
 3455 009c 3B4B     		ldr	r3, .L421+12
ARM GAS  /tmp/ccTiCbBl.s 			page 113


 3456 009e 1A88     		ldrh	r2, [r3]
 3457 00a0 92B2     		uxth	r2, r2
 3458 00a2 2032     		adds	r2, r2, #32
 3459 00a4 92B2     		uxth	r2, r2
 3460 00a6 1A80     		strh	r2, [r3]	@ movhi
1272:bluetooth_rxtx.c **** 				channel -= 79;
 3461              		.loc 1 1272 0
 3462 00a8 1A88     		ldrh	r2, [r3]
 3463 00aa 92B2     		uxth	r2, r2
 3464 00ac B2F51B6F 		cmp	r2, #2480
 3465 00b0 04D9     		bls	.L391
1273:bluetooth_rxtx.c **** 		} while( used_channels != 79 && (afh_map[(channel-2402)/8] & 0x1<<((channel-2402)%8)) );
 3466              		.loc 1 1273 0
 3467 00b2 1A88     		ldrh	r2, [r3]
 3468 00b4 92B2     		uxth	r2, r2
 3469 00b6 4F3A     		subs	r2, r2, #79
 3470 00b8 92B2     		uxth	r2, r2
 3471 00ba 1A80     		strh	r2, [r3]	@ movhi
 3472              	.L391:
1274:bluetooth_rxtx.c **** 	}
 3473              		.loc 1 1274 0
 3474 00bc 4F29     		cmp	r1, #79
 3475 00be 32D0     		beq	.L384
1274:bluetooth_rxtx.c **** 	}
 3476              		.loc 1 1274 0 is_stmt 0 discriminator 1
 3477 00c0 1A88     		ldrh	r2, [r3]
 3478 00c2 1888     		ldrh	r0, [r3]
 3479 00c4 92B2     		uxth	r2, r2
 3480 00c6 A2F66213 		subw	r3, r2, #2402
 3481 00ca 0822     		movs	r2, #8
 3482 00cc 93FBF2F3 		sdiv	r3, r3, r2
 3483 00d0 314A     		ldr	r2, .L421+24
 3484 00d2 80B2     		uxth	r0, r0
 3485 00d4 D25C     		ldrb	r2, [r2, r3]	@ zero_extendqisi2
 3486 00d6 314B     		ldr	r3, .L421+28
 3487 00d8 A0F66210 		subw	r0, r0, #2402
 3488 00dc 0340     		ands	r3, r3, r0
 3489 00de 002B     		cmp	r3, #0
 3490 00e0 03DA     		bge	.L392
 3491 00e2 013B     		subs	r3, r3, #1
 3492 00e4 63F00703 		orn	r3, r3, #7
 3493 00e8 0133     		adds	r3, r3, #1
 3494              	.L392:
 3495 00ea 42FA03F3 		asr	r3, r2, r3
 3496 00ee DA07     		lsls	r2, r3, #31
 3497 00f0 D4D4     		bmi	.L393
 3498 00f2 18E0     		b	.L384
 3499              	.L390:
1277:bluetooth_rxtx.c **** 		channel = next_hop(clkn);
 3500              		.loc 1 1277 0 is_stmt 1
 3501 00f4 A27A     		ldrb	r2, [r4, #10]	@ zero_extendqisi2
 3502 00f6 022A     		cmp	r2, #2
 3503 00f8 05D1     		bne	.L394
1278:bluetooth_rxtx.c **** 	}
 3504              		.loc 1 1278 0
 3505 00fa 1868     		ldr	r0, [r3]
 3506 00fc FFF7FEFF 		bl	next_hop
ARM GAS  /tmp/ccTiCbBl.s 			page 114


 3507              	.LVL337:
 3508 0100 224B     		ldr	r3, .L421+12
 3509 0102 1880     		strh	r0, [r3]	@ movhi
 3510 0104 0FE0     		b	.L384
 3511              	.L394:
1281:bluetooth_rxtx.c **** 		channel = btle_next_hop(&le);
 3512              		.loc 1 1281 0
 3513 0106 A37A     		ldrb	r3, [r4, #10]	@ zero_extendqisi2
 3514 0108 032B     		cmp	r3, #3
 3515 010a 05D1     		bne	.L395
1282:bluetooth_rxtx.c **** 	}
 3516              		.loc 1 1282 0
 3517 010c 1F4D     		ldr	r5, .L421+12
 3518 010e 281D     		adds	r0, r5, #4
 3519 0110 FFF7FEFF 		bl	btle_next_hop
 3520              	.LVL338:
 3521 0114 2880     		strh	r0, [r5]	@ movhi
 3522 0116 06E0     		b	.L384
 3523              	.L395:
1285:bluetooth_rxtx.c **** 		channel = hop_direct_channel;
 3524              		.loc 1 1285 0
 3525 0118 A37A     		ldrb	r3, [r4, #10]	@ zero_extendqisi2
 3526 011a 042B     		cmp	r3, #4
 3527 011c 03D1     		bne	.L384
1286:bluetooth_rxtx.c **** 	}
 3528              		.loc 1 1286 0
 3529 011e A289     		ldrh	r2, [r4, #12]
 3530 0120 1A4B     		ldr	r3, .L421+12
 3531 0122 92B2     		uxth	r2, r2
 3532 0124 1A80     		strh	r2, [r3]	@ movhi
 3533              	.L384:
1289:bluetooth_rxtx.c **** 	while ((cc2400_status() & FS_LOCK)); // need to wait for unlock?
 3534              		.loc 1 1289 0
 3535 0126 6420     		movs	r0, #100
 3536 0128 FFF7FEFF 		bl	cc2400_strobe
 3537              	.LVL339:
 3538              	.L397:
1290:bluetooth_rxtx.c **** 
 3539              		.loc 1 1290 0 discriminator 1
 3540 012c FFF7FEFF 		bl	cc2400_status
 3541              	.LVL340:
 3542 0130 4307     		lsls	r3, r0, #29
 3543 0132 FBD4     		bmi	.L397
 3544 0134 154D     		ldr	r5, .L421+12
1293:bluetooth_rxtx.c **** 		cc2400_set(FSDIV, channel);
 3545              		.loc 1 1293 0
 3546 0136 607C     		ldrb	r0, [r4, #17]	@ zero_extendqisi2
1294:bluetooth_rxtx.c **** 	else
 3547              		.loc 1 1294 0
 3548 0138 2988     		ldrh	r1, [r5]
1293:bluetooth_rxtx.c **** 		cc2400_set(FSDIV, channel);
 3549              		.loc 1 1293 0
 3550 013a C0B2     		uxtb	r0, r0
 3551 013c 0228     		cmp	r0, #2
1294:bluetooth_rxtx.c **** 	else
 3552              		.loc 1 1294 0
 3553 013e 89B2     		uxth	r1, r1
ARM GAS  /tmp/ccTiCbBl.s 			page 115


1296:bluetooth_rxtx.c **** 
 3554              		.loc 1 1296 0
 3555 0140 1EBF     		ittt	ne
 3556 0142 01F1FF31 		addne	r1, r1, #-1
 3557 0146 0220     		movne	r0, #2
 3558 0148 89B2     		uxthne	r1, r1
 3559 014a FFF7FEFF 		bl	cc2400_set
 3560              	.LVL341:
1299:bluetooth_rxtx.c **** 		cs_threshold_calc_and_set(channel);
 3561              		.loc 1 1299 0
 3562 014e A37A     		ldrb	r3, [r4, #10]	@ zero_extendqisi2
 3563 0150 1BB1     		cbz	r3, .L400
1300:bluetooth_rxtx.c **** 	}
 3564              		.loc 1 1300 0
 3565 0152 2888     		ldrh	r0, [r5]
 3566 0154 80B2     		uxth	r0, r0
 3567 0156 FFF7FEFF 		bl	cs_threshold_calc_and_set
 3568              	.LVL342:
 3569              	.L400:
1304:bluetooth_rxtx.c **** 	while (!(cc2400_status() & FS_LOCK));
 3570              		.loc 1 1304 0
 3571 015a 6120     		movs	r0, #97
 3572 015c FFF7FEFF 		bl	cc2400_strobe
 3573              	.LVL343:
 3574              	.L402:
1305:bluetooth_rxtx.c **** 
 3575              		.loc 1 1305 0 discriminator 1
 3576 0160 FFF7FEFF 		bl	cc2400_status
 3577              	.LVL344:
 3578 0164 4507     		lsls	r5, r0, #29
 3579 0166 FBD5     		bpl	.L402
1307:bluetooth_rxtx.c **** 
 3580              		.loc 1 1307 0
 3581 0168 0123     		movs	r3, #1
 3582 016a 2374     		strb	r3, [r4, #16]
1309:bluetooth_rxtx.c **** 		cc2400_strobe(STX);
 3583              		.loc 1 1309 0
 3584 016c 637C     		ldrb	r3, [r4, #17]	@ zero_extendqisi2
 3585 016e 022B     		cmp	r3, #2
1310:bluetooth_rxtx.c **** 	else
 3586              		.loc 1 1310 0
 3587 0170 0CBF     		ite	eq
 3588 0172 6320     		moveq	r0, #99
1312:bluetooth_rxtx.c **** }
 3589              		.loc 1 1312 0
 3590 0174 6220     		movne	r0, #98
1313:bluetooth_rxtx.c **** 
 3591              		.loc 1 1313 0
 3592 0176 BDE83840 		pop	{r3, r4, r5, lr}
1312:bluetooth_rxtx.c **** }
 3593              		.loc 1 1312 0
 3594 017a FFF7FEBF 		b	cc2400_strobe
 3595              	.LVL345:
 3596              	.L422:
 3597 017e 00BF     		.align	2
 3598              	.L421:
 3599 0180 00000000 		.word	.LANCHOR0
ARM GAS  /tmp/ccTiCbBl.s 			page 116


 3600 0184 00000000 		.word	clkn
 3601 0188 00000000 		.word	last_hop
 3602 018c 00000000 		.word	.LANCHOR1
 3603 0190 00000000 		.word	used_channels
 3604 0194 00000000 		.word	afh_enabled
 3605 0198 00000000 		.word	afh_map
 3606 019c 07000080 		.word	-2147483641
 3607              		.cfi_endproc
 3608              	.LFE14:
 3610              		.section	.text.bt_stream_rx,"ax",%progbits
 3611              		.align	1
 3612              		.global	bt_stream_rx
 3613              		.thumb
 3614              		.thumb_func
 3616              	bt_stream_rx:
 3617              	.LFB15:
1317:bluetooth_rxtx.c **** 	int8_t rssi;
 3618              		.loc 1 1317 0
 3619              		.cfi_startproc
 3620              		@ args = 0, pretend = 0, frame = 0
 3621              		@ frame_needed = 0, uses_anonymous_args = 0
 3622 0000 2DE9F843 		push	{r3, r4, r5, r6, r7, r8, r9, lr}
 3623              		.cfi_def_cfa_offset 32
 3624              		.cfi_offset 3, -32
 3625              		.cfi_offset 4, -28
 3626              		.cfi_offset 5, -24
 3627              		.cfi_offset 6, -20
 3628              		.cfi_offset 7, -16
 3629              		.cfi_offset 8, -12
 3630              		.cfi_offset 9, -8
 3631              		.cfi_offset 14, -4
1321:bluetooth_rxtx.c **** 
 3632              		.loc 1 1321 0
 3633 0004 494B     		ldr	r3, .L457
 3634 0006 1022     		movs	r2, #16
 3635 0008 1A60     		str	r2, [r3]
1323:bluetooth_rxtx.c **** 	dio_ssp_init();
 3636              		.loc 1 1323 0
 3637 000a FFF7FEFF 		bl	queue_init
 3638              	.LVL346:
1324:bluetooth_rxtx.c **** 	dma_init();
 3639              		.loc 1 1324 0
 3640 000e FFF7FEFF 		bl	dio_ssp_init
 3641              	.LVL347:
1325:bluetooth_rxtx.c **** 	dio_ssp_start();
 3642              		.loc 1 1325 0
 3643 0012 FFF7FEFF 		bl	dma_init
 3644              	.LVL348:
1326:bluetooth_rxtx.c **** 
 3645              		.loc 1 1326 0
 3646 0016 FFF7FEFF 		bl	dio_ssp_start
 3647              	.LVL349:
1328:bluetooth_rxtx.c **** 
 3648              		.loc 1 1328 0
 3649 001a FFF7FEFF 		bl	cc2400_rx
 3650              	.LVL350:
1330:bluetooth_rxtx.c **** 
ARM GAS  /tmp/ccTiCbBl.s 			page 117


 3651              		.loc 1 1330 0
 3652 001e FFF7FEFF 		bl	cs_trigger_enable
 3653              	.LVL351:
 3654              	.L424:
1332:bluetooth_rxtx.c **** 	{
 3655              		.loc 1 1332 0 discriminator 1
 3656 0022 434C     		ldr	r4, .L457+4
 3657 0024 A37C     		ldrb	r3, [r4, #18]	@ zero_extendqisi2
 3658 0026 A146     		mov	r9, r4
 3659 0028 012B     		cmp	r3, #1
 3660 002a 75D1     		bne	.L455
 3661              	.L436:
1335:bluetooth_rxtx.c **** 
 3662              		.loc 1 1335 0
 3663 002c 3F4B     		ldr	r3, .L457
 3664 002e 1022     		movs	r2, #16
 3665 0030 1A60     		str	r2, [r3]
1347:bluetooth_rxtx.c **** 		rssi_at_trigger = INT8_MIN;
 3666              		.loc 1 1347 0
 3667 0032 FFF7FEFF 		bl	rssi_reset
 3668              	.LVL352:
1348:bluetooth_rxtx.c **** 		while (!rx_tc) {
 3669              		.loc 1 1348 0
 3670 0036 8025     		movs	r5, #128
 3671              	.LVL353:
 3672              	.L425:
1349:bluetooth_rxtx.c **** 			rssi = (int8_t)(cc2400_get(RSSI) >> 8);
 3673              		.loc 1 1349 0 discriminator 1
 3674 0038 3E4F     		ldr	r7, .L457+8
 3675 003a 3F4E     		ldr	r6, .L457+12
 3676 003c 3B68     		ldr	r3, [r7]
 3677 003e DFF81881 		ldr	r8, .L457+44
 3678 0042 2BBB     		cbnz	r3, .L456
1350:bluetooth_rxtx.c **** 			if (cs_trigger && (rssi_at_trigger == INT8_MIN)) {
 3679              		.loc 1 1350 0
 3680 0044 0620     		movs	r0, #6
 3681 0046 FFF7FEFF 		bl	cc2400_get
 3682              	.LVL354:
1351:bluetooth_rxtx.c **** 				rssi = MAX(rssi,(cs_threshold_cur+54));
 3683              		.loc 1 1351 0
 3684 004a 3378     		ldrb	r3, [r6]	@ zero_extendqisi2
1350:bluetooth_rxtx.c **** 			if (cs_trigger && (rssi_at_trigger == INT8_MIN)) {
 3685              		.loc 1 1350 0
 3686 004c C0F30720 		ubfx	r0, r0, #8, #8
 3687              	.LVL355:
1351:bluetooth_rxtx.c **** 				rssi = MAX(rssi,(cs_threshold_cur+54));
 3688              		.loc 1 1351 0
 3689 0050 63B1     		cbz	r3, .L426
1351:bluetooth_rxtx.c **** 				rssi = MAX(rssi,(cs_threshold_cur+54));
 3690              		.loc 1 1351 0 is_stmt 0 discriminator 1
 3691 0052 6BB2     		sxtb	r3, r5
 3692 0054 8033     		adds	r3, r3, #128
 3693 0056 09D1     		bne	.L426
1352:bluetooth_rxtx.c **** 				rssi_at_trigger = rssi;
 3694              		.loc 1 1352 0 is_stmt 1
 3695 0058 384B     		ldr	r3, .L457+16
 3696 005a 40B2     		sxtb	r0, r0
ARM GAS  /tmp/ccTiCbBl.s 			page 118


 3697              	.LVL356:
 3698 005c 93F90050 		ldrsb	r5, [r3]
 3699              	.LVL357:
 3700 0060 3635     		adds	r5, r5, #54
 3701 0062 A842     		cmp	r0, r5
 3702 0064 A8BF     		it	ge
 3703 0066 0546     		movge	r5, r0
 3704 0068 EDB2     		uxtb	r5, r5
1353:bluetooth_rxtx.c **** 			}
 3705              		.loc 1 1353 0
 3706 006a 2846     		mov	r0, r5
 3707              	.L426:
 3708              	.LVL358:
1355:bluetooth_rxtx.c **** 
 3709              		.loc 1 1355 0
 3710 006c 40B2     		sxtb	r0, r0
 3711              	.LVL359:
 3712 006e FFF7FEFF 		bl	rssi_add
 3713              	.LVL360:
1357:bluetooth_rxtx.c **** 
 3714              		.loc 1 1357 0
 3715 0072 D8F80000 		ldr	r0, [r8]
 3716 0076 FFF7FEFF 		bl	handle_usb
 3717              	.LVL361:
1360:bluetooth_rxtx.c **** 				hop();
 3718              		.loc 1 1360 0
 3719 007a 99F80B30 		ldrb	r3, [r9, #11]	@ zero_extendqisi2
 3720 007e 13B1     		cbz	r3, .L427
1361:bluetooth_rxtx.c **** 			} else {
 3721              		.loc 1 1361 0
 3722 0080 FFF7FEFF 		bl	hop
 3723              	.LVL362:
 3724 0084 D8E7     		b	.L425
 3725              	.L427:
1363:bluetooth_rxtx.c **** 			}
 3726              		.loc 1 1363 0
 3727 0086 294B     		ldr	r3, .L457
 3728 0088 4FF48072 		mov	r2, #256
 3729 008c 1A60     		str	r2, [r3]
 3730 008e D3E7     		b	.L425
 3731              	.L456:
1369:bluetooth_rxtx.c **** 
 3732              		.loc 1 1369 0
 3733 0090 2B4B     		ldr	r3, .L457+20
 3734 0092 1022     		movs	r2, #16
1371:bluetooth_rxtx.c **** 			status |= DMA_ERROR;
 3735              		.loc 1 1371 0
 3736 0094 2B4D     		ldr	r5, .L457+24
 3737              	.LVL363:
1369:bluetooth_rxtx.c **** 
 3738              		.loc 1 1369 0
 3739 0096 1A60     		str	r2, [r3]
1371:bluetooth_rxtx.c **** 			status |= DMA_ERROR;
 3740              		.loc 1 1371 0
 3741 0098 2B68     		ldr	r3, [r5]
 3742 009a 1BB1     		cbz	r3, .L430
1372:bluetooth_rxtx.c **** 		}
ARM GAS  /tmp/ccTiCbBl.s 			page 119


 3743              		.loc 1 1372 0
 3744 009c 6378     		ldrb	r3, [r4, #1]	@ zero_extendqisi2
 3745 009e 43F00203 		orr	r3, r3, #2
 3746 00a2 6370     		strb	r3, [r4, #1]
 3747              	.L430:
1376:bluetooth_rxtx.c **** 			status |= DMA_OVERFLOW;
 3748              		.loc 1 1376 0
 3749 00a4 3B68     		ldr	r3, [r7]
 3750 00a6 012B     		cmp	r3, #1
 3751 00a8 03D9     		bls	.L431
1377:bluetooth_rxtx.c **** 
 3752              		.loc 1 1377 0
 3753 00aa 6378     		ldrb	r3, [r4, #1]	@ zero_extendqisi2
 3754 00ac 43F00103 		orr	r3, r3, #1
 3755 00b0 6370     		strb	r3, [r4, #1]
 3756              	.L431:
1379:bluetooth_rxtx.c **** 			status |= DISCARD;
 3757              		.loc 1 1379 0
 3758 00b2 227C     		ldrb	r2, [r4, #16]	@ zero_extendqisi2
 3759 00b4 1E4B     		ldr	r3, .L457+4
 3760 00b6 2AB1     		cbz	r2, .L432
1380:bluetooth_rxtx.c **** 			dma_discard = 0;
 3761              		.loc 1 1380 0
 3762 00b8 5A78     		ldrb	r2, [r3, #1]	@ zero_extendqisi2
 3763 00ba 42F02002 		orr	r2, r2, #32
 3764 00be 5A70     		strb	r2, [r3, #1]
1381:bluetooth_rxtx.c **** 		}
 3765              		.loc 1 1381 0
 3766 00c0 0022     		movs	r2, #0
 3767 00c2 1A74     		strb	r2, [r3, #16]
 3768              	.L432:
1384:bluetooth_rxtx.c **** 
 3769              		.loc 1 1384 0
 3770 00c4 204B     		ldr	r3, .L457+28
 3771 00c6 1888     		ldrh	r0, [r3]
 3772 00c8 80B2     		uxth	r0, r0
 3773 00ca FFF7FEFF 		bl	rssi_iir_update
 3774              	.LVL364:
1390:bluetooth_rxtx.c **** 			status |= CS_TRIGGER;
 3775              		.loc 1 1390 0
 3776 00ce 3378     		ldrb	r3, [r6]	@ zero_extendqisi2
 3777 00d0 13B9     		cbnz	r3, .L433
1390:bluetooth_rxtx.c **** 			status |= CS_TRIGGER;
 3778              		.loc 1 1390 0 is_stmt 0 discriminator 1
 3779 00d2 1E4B     		ldr	r3, .L457+32
 3780 00d4 1B78     		ldrb	r3, [r3]	@ zero_extendqisi2
 3781 00d6 2BB1     		cbz	r3, .L434
 3782              	.L433:
1391:bluetooth_rxtx.c **** 			cs_trigger = 0;
 3783              		.loc 1 1391 0 is_stmt 1
 3784 00d8 6378     		ldrb	r3, [r4, #1]	@ zero_extendqisi2
 3785 00da 43F00803 		orr	r3, r3, #8
 3786 00de 6370     		strb	r3, [r4, #1]
1392:bluetooth_rxtx.c **** 		}
 3787              		.loc 1 1392 0
 3788 00e0 0023     		movs	r3, #0
 3789 00e2 3370     		strb	r3, [r6]
ARM GAS  /tmp/ccTiCbBl.s 			page 120


 3790              	.L434:
1395:bluetooth_rxtx.c **** 			status |= RSSI_TRIGGER;
 3791              		.loc 1 1395 0
 3792 00e4 154B     		ldr	r3, .L457+16
 3793 00e6 93F90020 		ldrsb	r2, [r3]
 3794 00ea 194B     		ldr	r3, .L457+36
 3795 00ec 3532     		adds	r2, r2, #53
 3796 00ee 93F90030 		ldrsb	r3, [r3]
 3797 00f2 9A42     		cmp	r2, r3
 3798 00f4 03DA     		bge	.L435
1396:bluetooth_rxtx.c **** 		}
 3799              		.loc 1 1396 0
 3800 00f6 6378     		ldrb	r3, [r4, #1]	@ zero_extendqisi2
 3801 00f8 43F01003 		orr	r3, r3, #16
 3802 00fc 6370     		strb	r3, [r4, #1]
 3803              	.L435:
1399:bluetooth_rxtx.c **** 
 3804              		.loc 1 1399 0
 3805 00fe 154B     		ldr	r3, .L457+40
 3806 0100 0020     		movs	r0, #0
 3807 0102 1968     		ldr	r1, [r3]
 3808 0104 FFF7FEFF 		bl	enqueue
 3809              	.LVL365:
1401:bluetooth_rxtx.c **** 		rx_tc = 0;
 3810              		.loc 1 1401 0
 3811 0108 D8F80000 		ldr	r0, [r8]
 3812 010c FFF7FEFF 		bl	handle_usb
 3813              	.LVL366:
1402:bluetooth_rxtx.c **** 		rx_err = 0;
 3814              		.loc 1 1402 0
 3815 0110 0023     		movs	r3, #0
 3816 0112 3B60     		str	r3, [r7]
1403:bluetooth_rxtx.c **** 	}
 3817              		.loc 1 1403 0
 3818 0114 2B60     		str	r3, [r5]
 3819 0116 84E7     		b	.L424
 3820              	.L455:
1332:bluetooth_rxtx.c **** 	{
 3821              		.loc 1 1332 0 discriminator 2
 3822 0118 A37C     		ldrb	r3, [r4, #18]	@ zero_extendqisi2
 3823 011a 082B     		cmp	r3, #8
 3824 011c 86D0     		beq	.L436
1410:bluetooth_rxtx.c **** 	cs_trigger_disable();
 3825              		.loc 1 1410 0
 3826 011e FFF7FEFF 		bl	dio_ssp_stop
 3827              	.LVL367:
1412:bluetooth_rxtx.c **** 
 3828              		.loc 1 1412 0
 3829 0122 BDE8F843 		pop	{r3, r4, r5, r6, r7, r8, r9, lr}
1411:bluetooth_rxtx.c **** }
 3830              		.loc 1 1411 0
 3831 0126 FFF7FEBF 		b	cs_trigger_disable
 3832              	.LVL368:
 3833              	.L458:
 3834 012a 00BF     		.align	2
 3835              	.L457:
 3836 012c 3CC00920 		.word	537509948
ARM GAS  /tmp/ccTiCbBl.s 			page 121


 3837 0130 00000000 		.word	.LANCHOR0
 3838 0134 00000000 		.word	rx_tc
 3839 0138 00000000 		.word	cs_trigger
 3840 013c 00000000 		.word	cs_threshold_cur
 3841 0140 38C00920 		.word	537509944
 3842 0144 00000000 		.word	rx_err
 3843 0148 00000000 		.word	.LANCHOR1
 3844 014c 00000000 		.word	cs_no_squelch
 3845 0150 00000000 		.word	rssi_max
 3846 0154 00000000 		.word	idle_rxbuf
 3847 0158 00000000 		.word	clkn
 3848              		.cfi_endproc
 3849              	.LFE15:
 3851              		.section	.text.br_transmit,"ax",%progbits
 3852              		.align	1
 3853              		.global	br_transmit
 3854              		.thumb
 3855              		.thumb_func
 3857              	br_transmit:
 3858              	.LFB18:
1444:bluetooth_rxtx.c **** 	uint16_t gio_save;
 3859              		.loc 1 1444 0
 3860              		.cfi_startproc
 3861              		@ args = 0, pretend = 0, frame = 16
 3862              		@ frame_needed = 0, uses_anonymous_args = 0
 3863 0000 2DE9FF41 		push	{r0, r1, r2, r3, r4, r5, r6, r7, r8, lr}
 3864              		.cfi_def_cfa_offset 40
 3865              		.cfi_offset 0, -40
 3866              		.cfi_offset 1, -36
 3867              		.cfi_offset 2, -32
 3868              		.cfi_offset 3, -28
 3869              		.cfi_offset 4, -24
 3870              		.cfi_offset 5, -20
 3871              		.cfi_offset 6, -16
 3872              		.cfi_offset 7, -12
 3873              		.cfi_offset 8, -8
 3874              		.cfi_offset 14, -4
 3875              	.LVL369:
1449:bluetooth_rxtx.c **** 	uint8_t trailer = ((target.syncword >> 63) & 1) == 1 ? 0xaa : 0x55;
 3876              		.loc 1 1449 0
 3877 0004 954B     		ldr	r3, .L495
 3878 0006 0122     		movs	r2, #1
 3879 0008 D3E90245 		ldrd	r4, [r3, #8]
 3880 000c 0023     		movs	r3, #0
 3881 000e 2240     		ands	r2, r2, r4
 3882 0010 2B40     		ands	r3, r3, r5
 3883 0012 52EA0301 		orrs	r1, r2, r3
1450:bluetooth_rxtx.c **** 
 3884              		.loc 1 1450 0
 3885 0016 4FF00007 		mov	r7, #0
1449:bluetooth_rxtx.c **** 	uint8_t trailer = ((target.syncword >> 63) & 1) == 1 ? 0xaa : 0x55;
 3886              		.loc 1 1449 0
 3887 001a 45F25553 		movw	r3, #21845
1450:bluetooth_rxtx.c **** 
 3888              		.loc 1 1450 0
 3889 001e 4FEAD576 		lsr	r6, r5, #31
1449:bluetooth_rxtx.c **** 	uint8_t trailer = ((target.syncword >> 63) & 1) == 1 ? 0xaa : 0x55;
ARM GAS  /tmp/ccTiCbBl.s 			page 122


 3890              		.loc 1 1449 0
 3891 0022 4AF6AA28 		movw	r8, #43690
 3892 0026 18BF     		it	ne
 3893 0028 9846     		movne	r8, r3
 3894              	.LVL370:
1453:bluetooth_rxtx.c **** 		reverse8((target.syncword >> 8) & 0xFF),
 3895              		.loc 1 1453 0
 3896 002a E0B2     		uxtb	r0, r4
1450:bluetooth_rxtx.c **** 
 3897              		.loc 1 1450 0
 3898 002c 002F     		cmp	r7, #0
 3899 002e 08BF     		it eq
 3900 0030 012E     		cmpeq	r6, #1
 3901 0032 14BF     		ite	ne
 3902 0034 5526     		movne	r6, #85
 3903 0036 AA26     		moveq	r6, #170
 3904              	.LVL371:
1453:bluetooth_rxtx.c **** 		reverse8((target.syncword >> 8) & 0xFF),
 3905              		.loc 1 1453 0
 3906 0038 FFF7FEFF 		bl	reverse8
 3907              	.LVL372:
1452:bluetooth_rxtx.c **** 		reverse8((target.syncword >> 0) & 0xFF),
 3908              		.loc 1 1452 0
 3909 003c 8DF80000 		strb	r0, [sp]
1454:bluetooth_rxtx.c **** 		reverse8((target.syncword >> 16) & 0xFF),
 3910              		.loc 1 1454 0
 3911 0040 C4F30720 		ubfx	r0, r4, #8, #8
 3912 0044 FFF7FEFF 		bl	reverse8
 3913              	.LVL373:
1452:bluetooth_rxtx.c **** 		reverse8((target.syncword >> 0) & 0xFF),
 3914              		.loc 1 1452 0
 3915 0048 8DF80100 		strb	r0, [sp, #1]
1455:bluetooth_rxtx.c **** 		reverse8((target.syncword >> 24) & 0xFF),
 3916              		.loc 1 1455 0
 3917 004c C4F30740 		ubfx	r0, r4, #16, #8
 3918 0050 FFF7FEFF 		bl	reverse8
 3919              	.LVL374:
1452:bluetooth_rxtx.c **** 		reverse8((target.syncword >> 0) & 0xFF),
 3920              		.loc 1 1452 0
 3921 0054 8DF80200 		strb	r0, [sp, #2]
1456:bluetooth_rxtx.c **** 		reverse8((target.syncword >> 32) & 0xFF),
 3922              		.loc 1 1456 0
 3923 0058 200E     		lsrs	r0, r4, #24
 3924 005a FFF7FEFF 		bl	reverse8
 3925              	.LVL375:
1452:bluetooth_rxtx.c **** 		reverse8((target.syncword >> 0) & 0xFF),
 3926              		.loc 1 1452 0
 3927 005e 8DF80300 		strb	r0, [sp, #3]
1457:bluetooth_rxtx.c **** 		reverse8((target.syncword >> 40) & 0xFF),
 3928              		.loc 1 1457 0
 3929 0062 E8B2     		uxtb	r0, r5
 3930 0064 FFF7FEFF 		bl	reverse8
 3931              	.LVL376:
1452:bluetooth_rxtx.c **** 		reverse8((target.syncword >> 0) & 0xFF),
 3932              		.loc 1 1452 0
 3933 0068 8DF80400 		strb	r0, [sp, #4]
1458:bluetooth_rxtx.c **** 		reverse8((target.syncword >> 48) & 0xFF),
ARM GAS  /tmp/ccTiCbBl.s 			page 123


 3934              		.loc 1 1458 0
 3935 006c C5F30720 		ubfx	r0, r5, #8, #8
 3936 0070 FFF7FEFF 		bl	reverse8
 3937              	.LVL377:
1452:bluetooth_rxtx.c **** 		reverse8((target.syncword >> 0) & 0xFF),
 3938              		.loc 1 1452 0
 3939 0074 8DF80500 		strb	r0, [sp, #5]
1459:bluetooth_rxtx.c **** 		reverse8((target.syncword >> 56) & 0xFF),
 3940              		.loc 1 1459 0
 3941 0078 C5F30740 		ubfx	r0, r5, #16, #8
 3942 007c FFF7FEFF 		bl	reverse8
 3943              	.LVL378:
1452:bluetooth_rxtx.c **** 		reverse8((target.syncword >> 0) & 0xFF),
 3944              		.loc 1 1452 0
 3945 0080 8DF80600 		strb	r0, [sp, #6]
1460:bluetooth_rxtx.c **** 		reverse8(trailer),
 3946              		.loc 1 1460 0
 3947 0084 280E     		lsrs	r0, r5, #24
 3948 0086 FFF7FEFF 		bl	reverse8
 3949              	.LVL379:
1452:bluetooth_rxtx.c **** 		reverse8((target.syncword >> 0) & 0xFF),
 3950              		.loc 1 1452 0
 3951 008a 8DF80700 		strb	r0, [sp, #7]
1461:bluetooth_rxtx.c **** 		reverse8(0x77),
 3952              		.loc 1 1461 0
 3953 008e 3046     		mov	r0, r6
 3954 0090 FFF7FEFF 		bl	reverse8
 3955              	.LVL380:
1452:bluetooth_rxtx.c **** 		reverse8((target.syncword >> 0) & 0xFF),
 3956              		.loc 1 1452 0
 3957 0094 8DF80800 		strb	r0, [sp, #8]
1462:bluetooth_rxtx.c **** 		reverse8(0x66),
 3958              		.loc 1 1462 0
 3959 0098 7720     		movs	r0, #119
 3960 009a FFF7FEFF 		bl	reverse8
 3961              	.LVL381:
1452:bluetooth_rxtx.c **** 		reverse8((target.syncword >> 0) & 0xFF),
 3962              		.loc 1 1452 0
 3963 009e 8DF80900 		strb	r0, [sp, #9]
1463:bluetooth_rxtx.c **** 		reverse8(0x55),
 3964              		.loc 1 1463 0
 3965 00a2 6620     		movs	r0, #102
 3966 00a4 FFF7FEFF 		bl	reverse8
 3967              	.LVL382:
1452:bluetooth_rxtx.c **** 		reverse8((target.syncword >> 0) & 0xFF),
 3968              		.loc 1 1452 0
 3969 00a8 8DF80A00 		strb	r0, [sp, #10]
1464:bluetooth_rxtx.c **** 		reverse8(0x44),
 3970              		.loc 1 1464 0
 3971 00ac 5520     		movs	r0, #85
 3972 00ae FFF7FEFF 		bl	reverse8
 3973              	.LVL383:
1452:bluetooth_rxtx.c **** 		reverse8((target.syncword >> 0) & 0xFF),
 3974              		.loc 1 1452 0
 3975 00b2 8DF80B00 		strb	r0, [sp, #11]
1465:bluetooth_rxtx.c **** 		reverse8(0x33),
 3976              		.loc 1 1465 0
ARM GAS  /tmp/ccTiCbBl.s 			page 124


 3977 00b6 4420     		movs	r0, #68
 3978 00b8 FFF7FEFF 		bl	reverse8
 3979              	.LVL384:
1452:bluetooth_rxtx.c **** 		reverse8((target.syncword >> 0) & 0xFF),
 3980              		.loc 1 1452 0
 3981 00bc 8DF80C00 		strb	r0, [sp, #12]
1466:bluetooth_rxtx.c **** 		reverse8(0x22),
 3982              		.loc 1 1466 0
 3983 00c0 3320     		movs	r0, #51
 3984 00c2 FFF7FEFF 		bl	reverse8
 3985              	.LVL385:
1452:bluetooth_rxtx.c **** 		reverse8((target.syncword >> 0) & 0xFF),
 3986              		.loc 1 1452 0
 3987 00c6 8DF80D00 		strb	r0, [sp, #13]
1467:bluetooth_rxtx.c **** 		reverse8(0x11)
 3988              		.loc 1 1467 0
 3989 00ca 2220     		movs	r0, #34
 3990 00cc FFF7FEFF 		bl	reverse8
 3991              	.LVL386:
1452:bluetooth_rxtx.c **** 		reverse8((target.syncword >> 0) & 0xFF),
 3992              		.loc 1 1452 0
 3993 00d0 8DF80E00 		strb	r0, [sp, #14]
1468:bluetooth_rxtx.c **** 	};
 3994              		.loc 1 1468 0
 3995 00d4 1120     		movs	r0, #17
 3996 00d6 FFF7FEFF 		bl	reverse8
 3997              	.LVL387:
 3998              	.LBB33:
 3999              	.LBB34:
1428:bluetooth_rxtx.c **** 
 4000              		.loc 1 1428 0
 4001 00da 3C46     		mov	r4, r7
 4002              	.LBE34:
 4003              	.LBE33:
1452:bluetooth_rxtx.c **** 		reverse8((target.syncword >> 0) & 0xFF),
 4004              		.loc 1 1452 0
 4005 00dc 8DF80F00 		strb	r0, [sp, #15]
 4006              	.LVL388:
 4007              	.LBB37:
 4008              	.LBB36:
 4009              	.LBB35:
1430:bluetooth_rxtx.c **** 	{
 4010              		.loc 1 1430 0
 4011 00e0 3B46     		mov	r3, r7
 4012              	.LVL389:
 4013              	.L463:
1432:bluetooth_rxtx.c **** 	}
 4014              		.loc 1 1432 0
 4015 00e2 48FA03F2 		asr	r2, r8, r3
 4016 00e6 C3F10F01 		rsb	r1, r3, #15
 4017 00ea 02F00102 		and	r2, r2, #1
 4018 00ee 8A40     		lsls	r2, r2, r1
1430:bluetooth_rxtx.c **** 	{
 4019              		.loc 1 1430 0
 4020 00f0 0133     		adds	r3, r3, #1
 4021              	.LVL390:
1432:bluetooth_rxtx.c **** 	}
ARM GAS  /tmp/ccTiCbBl.s 			page 125


 4022              		.loc 1 1432 0
 4023 00f2 1443     		orrs	r4, r4, r2
 4024              	.LVL391:
1430:bluetooth_rxtx.c **** 	{
 4025              		.loc 1 1430 0
 4026 00f4 102B     		cmp	r3, #16
1432:bluetooth_rxtx.c **** 	}
 4027              		.loc 1 1432 0
 4028 00f6 A4B2     		uxth	r4, r4
 4029              	.LVL392:
1430:bluetooth_rxtx.c **** 	{
 4030              		.loc 1 1430 0
 4031 00f8 F3D1     		bne	.L463
 4032              	.LVL393:
 4033              	.LBE35:
 4034              	.LBE36:
 4035              	.LBE37:
 4036              	.LBB38:
 4037              	.LBB39:
1045:bluetooth_rxtx.c **** 	cc2400_set(LMTST,   0x2b22);    // LNA and receive mixers test register
 4038              		.loc 1 1045 0
 4039 00fa 0D20     		movs	r0, #13
 4040 00fc 47F6FF71 		movw	r1, #32767
 4041 0100 FFF7FEFF 		bl	cc2400_set
 4042              	.LVL394:
1046:bluetooth_rxtx.c **** 	cc2400_set(MDMTST0, 0x134b);    // no PRNG
 4043              		.loc 1 1046 0
 4044 0104 1220     		movs	r0, #18
 4045 0106 42F62231 		movw	r1, #11042
 4046 010a FFF7FEFF 		bl	cc2400_set
 4047              	.LVL395:
1047:bluetooth_rxtx.c **** 
 4048              		.loc 1 1047 0
 4049 010e 1420     		movs	r0, #20
 4050 0110 41F24B31 		movw	r1, #4939
 4051 0114 FFF7FEFF 		bl	cc2400_set
 4052              	.LVL396:
1049:bluetooth_rxtx.c **** 	// 0 00 01 1 000 00 0 00 0 1
 4053              		.loc 1 1049 0
 4054 0118 2020     		movs	r0, #32
 4055 011a 40F60141 		movw	r1, #3073
 4056 011e FFF7FEFF 		bl	cc2400_set
 4057              	.LVL397:
1057:bluetooth_rxtx.c **** 	cc2400_set(SYNCH,   (sync >> 16) & 0xffff);
 4058              		.loc 1 1057 0
 4059 0122 2146     		mov	r1, r4
 4060 0124 2C20     		movs	r0, #44
 4061 0126 FFF7FEFF 		bl	cc2400_set
 4062              	.LVL398:
1058:bluetooth_rxtx.c **** 
 4063              		.loc 1 1058 0
 4064 012a 2D20     		movs	r0, #45
 4065 012c 0021     		movs	r1, #0
 4066 012e FFF7FEFF 		bl	cc2400_set
 4067              	.LVL399:
1060:bluetooth_rxtx.c **** 	cc2400_set(FREND,   0b1011);    // amplifier level (-7 dBm, picked from hat)
 4068              		.loc 1 1060 0
ARM GAS  /tmp/ccTiCbBl.s 			page 126


 4069 0132 4B4B     		ldr	r3, .L495+4
 4070 0134 0220     		movs	r0, #2
 4071 0136 1988     		ldrh	r1, [r3]
1063:bluetooth_rxtx.c **** 		cc2400_set(MDMCTRL, 0x0029);    // 160 kHz frequency deviation
 4072              		.loc 1 1063 0
 4073 0138 4A4C     		ldr	r4, .L495+8
 4074              	.LVL400:
1060:bluetooth_rxtx.c **** 	cc2400_set(FREND,   0b1011);    // amplifier level (-7 dBm, picked from hat)
 4075              		.loc 1 1060 0
 4076 013a 89B2     		uxth	r1, r1
 4077 013c FFF7FEFF 		bl	cc2400_set
 4078              	.LVL401:
1061:bluetooth_rxtx.c **** 
 4079              		.loc 1 1061 0
 4080 0140 0520     		movs	r0, #5
 4081 0142 0B21     		movs	r1, #11
 4082 0144 FFF7FEFF 		bl	cc2400_set
 4083              	.LVL402:
1063:bluetooth_rxtx.c **** 		cc2400_set(MDMCTRL, 0x0029);    // 160 kHz frequency deviation
 4084              		.loc 1 1063 0
 4085 0148 2378     		ldrb	r3, [r4]	@ zero_extendqisi2
 4086 014a 13B9     		cbnz	r3, .L464
1064:bluetooth_rxtx.c **** 	} else if (modulation == MOD_BT_LOW_ENERGY) {
 4087              		.loc 1 1064 0
 4088 014c 0320     		movs	r0, #3
 4089 014e 2921     		movs	r1, #41
 4090 0150 04E0     		b	.L493
 4091              	.L464:
1065:bluetooth_rxtx.c **** 		cc2400_set(MDMCTRL, 0x0040);    // 250 kHz frequency deviation
 4092              		.loc 1 1065 0
 4093 0152 2378     		ldrb	r3, [r4]	@ zero_extendqisi2
 4094 0154 012B     		cmp	r3, #1
 4095 0156 1DD1     		bne	.L466
1066:bluetooth_rxtx.c **** 	} else {
 4096              		.loc 1 1066 0
 4097 0158 0320     		movs	r0, #3
 4098 015a 4021     		movs	r1, #64
 4099              	.L493:
 4100 015c FFF7FEFF 		bl	cc2400_set
 4101              	.LVL403:
1072:bluetooth_rxtx.c **** 
 4102              		.loc 1 1072 0
 4103 0160 FFF7FEFF 		bl	clkn_start
 4104              	.LVL404:
 4105              	.L468:
1074:bluetooth_rxtx.c **** 	cc2400_strobe(SFSON);
 4106              		.loc 1 1074 0
 4107 0164 FFF7FEFF 		bl	cc2400_status
 4108              	.LVL405:
 4109 0168 4506     		lsls	r5, r0, #25
 4110 016a FBD5     		bpl	.L468
1075:bluetooth_rxtx.c **** 	while (!(cc2400_status() & FS_LOCK));
 4111              		.loc 1 1075 0
 4112 016c 6120     		movs	r0, #97
 4113 016e FFF7FEFF 		bl	cc2400_strobe
 4114              	.LVL406:
 4115              	.L470:
ARM GAS  /tmp/ccTiCbBl.s 			page 127


1076:bluetooth_rxtx.c **** 
 4116              		.loc 1 1076 0
 4117 0172 FFF7FEFF 		bl	cc2400_status
 4118              	.LVL407:
 4119 0176 4007     		lsls	r0, r0, #29
 4120 0178 FBD5     		bpl	.L470
1079:bluetooth_rxtx.c **** #endif
 4121              		.loc 1 1079 0
 4122 017a 3B4B     		ldr	r3, .L495+12
 4123 017c 8022     		movs	r2, #128
 4124 017e 1A60     		str	r2, [r3]
 4125              	.L472:
1082:bluetooth_rxtx.c **** 	cc2400_strobe(STX);
 4126              		.loc 1 1082 0
 4127 0180 0E20     		movs	r0, #14
 4128 0182 FFF7FEFF 		bl	cc2400_get
 4129              	.LVL408:
 4130 0186 00F01F00 		and	r0, r0, #31
 4131 018a 0F28     		cmp	r0, #15
 4132 018c F8D1     		bne	.L472
1083:bluetooth_rxtx.c **** 
 4133              		.loc 1 1083 0
 4134 018e 6320     		movs	r0, #99
 4135 0190 FFF7FEFF 		bl	cc2400_strobe
 4136              	.LVL409:
 4137              	.L466:
 4138              	.LBE39:
 4139              	.LBE38:
1473:bluetooth_rxtx.c **** 
 4140              		.loc 1 1473 0 discriminator 3
 4141 0194 1421     		movs	r1, #20
 4142 0196 2320     		movs	r0, #35
 4143 0198 FFF7FEFF 		bl	cc2400_set
 4144              	.LVL410:
1476:bluetooth_rxtx.c **** 	cc2400_set(IOCFG, (GIO_FIFO_FULL << 9) | (gio_save & 0x1ff));
 4145              		.loc 1 1476 0 discriminator 3
 4146 019c 0820     		movs	r0, #8
 4147 019e FFF7FEFF 		bl	cc2400_get
 4148              	.LVL411:
1477:bluetooth_rxtx.c **** 
 4149              		.loc 1 1477 0 discriminator 3
 4150 01a2 C0F30801 		ubfx	r1, r0, #0, #9
1476:bluetooth_rxtx.c **** 	cc2400_set(IOCFG, (GIO_FIFO_FULL << 9) | (gio_save & 0x1ff));
 4151              		.loc 1 1476 0 discriminator 3
 4152 01a6 0546     		mov	r5, r0
 4153              	.LVL412:
1477:bluetooth_rxtx.c **** 
 4154              		.loc 1 1477 0 discriminator 3
 4155 01a8 41F49C41 		orr	r1, r1, #19968
 4156 01ac 0820     		movs	r0, #8
 4157              	.LVL413:
 4158 01ae FFF7FEFF 		bl	cc2400_set
 4159              	.LVL414:
1447:bluetooth_rxtx.c **** 
 4160              		.loc 1 1447 0 discriminator 3
 4161 01b2 0026     		movs	r6, #0
 4162              	.LVL415:
ARM GAS  /tmp/ccTiCbBl.s 			page 128


 4163              	.L473:
1479:bluetooth_rxtx.c **** 	{
 4164              		.loc 1 1479 0 discriminator 1
 4165 01b4 A37C     		ldrb	r3, [r4, #18]	@ zero_extendqisi2
 4166 01b6 022B     		cmp	r3, #2
 4167 01b8 45D1     		bne	.L487
1482:bluetooth_rxtx.c **** 
 4168              		.loc 1 1482 0
 4169 01ba 7608     		lsrs	r6, r6, #1
 4170              	.LVL416:
 4171              	.L475:
1482:bluetooth_rxtx.c **** 
 4172              		.loc 1 1482 0 is_stmt 0 discriminator 1
 4173 01bc 2B4F     		ldr	r7, .L495+16
 4174 01be 3B68     		ldr	r3, [r7]
 4175 01c0 B6EB530F 		cmp	r6, r3, lsr #1
 4176 01c4 05D1     		bne	.L494
 4177              	.L476:
1485:bluetooth_rxtx.c **** 				hop();
 4178              		.loc 1 1485 0 is_stmt 1
 4179 01c6 E37A     		ldrb	r3, [r4, #11]	@ zero_extendqisi2
 4180 01c8 002B     		cmp	r3, #0
 4181 01ca F7D0     		beq	.L475
1486:bluetooth_rxtx.c **** 			}
 4182              		.loc 1 1486 0
 4183 01cc FFF7FEFF 		bl	hop
 4184              	.LVL417:
 4185 01d0 F4E7     		b	.L475
 4186              	.L494:
1482:bluetooth_rxtx.c **** 
 4187              		.loc 1 1482 0 discriminator 2
 4188 01d2 274B     		ldr	r3, .L495+20
 4189 01d4 1A68     		ldr	r2, [r3]
 4190 01d6 40F6C903 		movw	r3, #2249
 4191 01da 9A42     		cmp	r2, r3
 4192 01dc F3D9     		bls	.L476
1492:bluetooth_rxtx.c **** 
 4193              		.loc 1 1492 0
 4194 01de 254B     		ldr	r3, .L495+24
 4195 01e0 4FF48072 		mov	r2, #256
1490:bluetooth_rxtx.c **** 
 4196              		.loc 1 1490 0
 4197 01e4 3E68     		ldr	r6, [r7]
 4198              	.LVL418:
1494:bluetooth_rxtx.c **** 
 4199              		.loc 1 1494 0
 4200 01e6 1020     		movs	r0, #16
1492:bluetooth_rxtx.c **** 
 4201              		.loc 1 1492 0
 4202 01e8 1A60     		str	r2, [r3]
1494:bluetooth_rxtx.c **** 
 4203              		.loc 1 1494 0
 4204 01ea 6946     		mov	r1, sp
 4205 01ec FFF7FEFF 		bl	cc2400_fifo_write
 4206              	.LVL419:
 4207              	.L478:
1496:bluetooth_rxtx.c **** 		TXLED_CLR;
ARM GAS  /tmp/ccTiCbBl.s 			page 129


 4208              		.loc 1 1496 0 discriminator 1
 4209 01f0 0E20     		movs	r0, #14
 4210 01f2 FFF7FEFF 		bl	cc2400_get
 4211              	.LVL420:
 4212 01f6 00F01F00 		and	r0, r0, #31
 4213 01fa 0F28     		cmp	r0, #15
 4214 01fc F8D1     		bne	.L478
1497:bluetooth_rxtx.c **** 
 4215              		.loc 1 1497 0
 4216 01fe 1E4B     		ldr	r3, .L495+28
 4217 0200 4FF48072 		mov	r2, #256
 4218 0204 1A60     		str	r2, [r3]
1499:bluetooth_rxtx.c **** 		while ((cc2400_status() & FS_LOCK));
 4219              		.loc 1 1499 0
 4220 0206 6420     		movs	r0, #100
 4221 0208 FFF7FEFF 		bl	cc2400_strobe
 4222              	.LVL421:
 4223              	.L480:
1500:bluetooth_rxtx.c **** 
 4224              		.loc 1 1500 0 discriminator 1
 4225 020c FFF7FEFF 		bl	cc2400_status
 4226              	.LVL422:
 4227 0210 4107     		lsls	r1, r0, #29
 4228 0212 FBD4     		bmi	.L480
 4229              	.L482:
1502:bluetooth_rxtx.c **** 		cc2400_strobe(SFSON);
 4230              		.loc 1 1502 0
 4231 0214 FFF7FEFF 		bl	cc2400_status
 4232              	.LVL423:
 4233 0218 4206     		lsls	r2, r0, #25
 4234 021a FBD5     		bpl	.L482
1503:bluetooth_rxtx.c **** 		while (!(cc2400_status() & FS_LOCK));
 4235              		.loc 1 1503 0
 4236 021c 6120     		movs	r0, #97
 4237 021e FFF7FEFF 		bl	cc2400_strobe
 4238              	.LVL424:
 4239              	.L484:
1504:bluetooth_rxtx.c **** 
 4240              		.loc 1 1504 0 discriminator 1
 4241 0222 FFF7FEFF 		bl	cc2400_status
 4242              	.LVL425:
 4243 0226 4307     		lsls	r3, r0, #29
 4244 0228 FBD5     		bpl	.L484
 4245              	.L486:
1506:bluetooth_rxtx.c **** 		cc2400_strobe(STX);
 4246              		.loc 1 1506 0
 4247 022a 0E20     		movs	r0, #14
 4248 022c FFF7FEFF 		bl	cc2400_get
 4249              	.LVL426:
 4250 0230 00F01F00 		and	r0, r0, #31
 4251 0234 0F28     		cmp	r0, #15
 4252 0236 F8D1     		bne	.L486
1507:bluetooth_rxtx.c **** 
 4253              		.loc 1 1507 0
 4254 0238 6320     		movs	r0, #99
 4255 023a FFF7FEFF 		bl	cc2400_strobe
 4256              	.LVL427:
ARM GAS  /tmp/ccTiCbBl.s 			page 130


1509:bluetooth_rxtx.c **** 	}
 4257              		.loc 1 1509 0
 4258 023e 3868     		ldr	r0, [r7]
 4259 0240 FFF7FEFF 		bl	handle_usb
 4260              	.LVL428:
 4261 0244 B6E7     		b	.L473
 4262              	.L487:
1513:bluetooth_rxtx.c **** #endif
 4263              		.loc 1 1513 0
 4264 0246 0D4B     		ldr	r3, .L495+32
 4265 0248 8022     		movs	r2, #128
 4266 024a 1A60     		str	r2, [r3]
1517:bluetooth_rxtx.c **** }
 4267              		.loc 1 1517 0
 4268 024c 0820     		movs	r0, #8
 4269 024e 2946     		mov	r1, r5
 4270 0250 FFF7FEFF 		bl	cc2400_set
 4271              	.LVL429:
1518:bluetooth_rxtx.c **** 
 4272              		.loc 1 1518 0
 4273 0254 04B0     		add	sp, sp, #16
 4274              		@ sp needed
 4275 0256 BDE8F081 		pop	{r4, r5, r6, r7, r8, pc}
 4276              	.LVL430:
 4277              	.L496:
 4278 025a 00BF     		.align	2
 4279              	.L495:
 4280 025c 00000000 		.word	target
 4281 0260 00000000 		.word	.LANCHOR1
 4282 0264 00000000 		.word	.LANCHOR0
 4283 0268 58C00920 		.word	537509976
 4284 026c 00000000 		.word	clkn
 4285 0270 08400040 		.word	1073758216
 4286 0274 38C00920 		.word	537509944
 4287 0278 3CC00920 		.word	537509948
 4288 027c 5CC00920 		.word	537509980
 4289              		.cfi_endproc
 4290              	.LFE18:
 4292              		.section	.text.reset_le,"ax",%progbits
 4293              		.align	1
 4294              		.global	reset_le
 4295              		.thumb
 4296              		.thumb_func
 4298              	reset_le:
 4299              	.LFB20:
1531:bluetooth_rxtx.c **** 	le_set_access_address(0x8e89bed6);     // advertising channel access address
 4300              		.loc 1 1531 0
 4301              		.cfi_startproc
 4302              		@ args = 0, pretend = 0, frame = 0
 4303              		@ frame_needed = 0, uses_anonymous_args = 0
 4304 0000 08B5     		push	{r3, lr}
 4305              		.cfi_def_cfa_offset 8
 4306              		.cfi_offset 3, -8
 4307              		.cfi_offset 14, -4
1532:bluetooth_rxtx.c **** 	le.crc_init  = 0x555555;               // advertising channel CRCInit
 4308              		.loc 1 1532 0
 4309 0002 0F48     		ldr	r0, .L498
ARM GAS  /tmp/ccTiCbBl.s 			page 131


 4310 0004 FFF7FEFF 		bl	le_set_access_address
 4311              	.LVL431:
1533:bluetooth_rxtx.c **** 	le.crc_init_reversed = 0xAAAAAA;
 4312              		.loc 1 1533 0
 4313 0008 0E4B     		ldr	r3, .L498+4
 4314 000a 0F4A     		ldr	r2, .L498+8
 4315 000c DA60     		str	r2, [r3, #12]
1534:bluetooth_rxtx.c **** 	//JWHUR crc verify on
 4316              		.loc 1 1534 0
 4317 000e 0F4A     		ldr	r2, .L498+12
 4318 0010 1A61     		str	r2, [r3, #16]
1536:bluetooth_rxtx.c **** 	le.last_packet = 0;
 4319              		.loc 1 1536 0
 4320 0012 0122     		movs	r2, #1
 4321 0014 5A61     		str	r2, [r3, #20]
1537:bluetooth_rxtx.c **** 
 4322              		.loc 1 1537 0
 4323 0016 0022     		movs	r2, #0
1545:bluetooth_rxtx.c **** 	le.conn_interval = 0;
 4324              		.loc 1 1545 0
 4325 0018 1A84     		strh	r2, [r3, #32]	@ movhi
1537:bluetooth_rxtx.c **** 
 4326              		.loc 1 1537 0
 4327 001a 5A64     		str	r2, [r3, #68]
1548:bluetooth_rxtx.c **** 
 4328              		.loc 1 1548 0
 4329 001c 9A84     		strh	r2, [r3, #36]	@ movhi
1539:bluetooth_rxtx.c **** 
 4330              		.loc 1 1539 0
 4331 001e 1A76     		strb	r2, [r3, #24]
1541:bluetooth_rxtx.c **** 	le.channel_increment = 0;
 4332              		.loc 1 1541 0
 4333 0020 5A76     		strb	r2, [r3, #25]
1542:bluetooth_rxtx.c **** 
 4334              		.loc 1 1542 0
 4335 0022 9A76     		strb	r2, [r3, #26]
1544:bluetooth_rxtx.c **** 	le.interval_timer = 0;
 4336              		.loc 1 1544 0
 4337 0024 DA61     		str	r2, [r3, #28]
1546:bluetooth_rxtx.c **** 	le.conn_interval = 0;
 4338              		.loc 1 1546 0
 4339 0026 5A84     		strh	r2, [r3, #34]	@ movhi
1550:bluetooth_rxtx.c **** 	le.win_offset = 0;
 4340              		.loc 1 1550 0
 4341 0028 83F82620 		strb	r2, [r3, #38]
1551:bluetooth_rxtx.c **** 
 4342              		.loc 1 1551 0
 4343 002c 1A85     		strh	r2, [r3, #40]	@ movhi
1553:bluetooth_rxtx.c **** 	le.update_instant = 0;
 4344              		.loc 1 1553 0
 4345 002e DA62     		str	r2, [r3, #44]
1554:bluetooth_rxtx.c **** 	le.interval_update = 0;
 4346              		.loc 1 1554 0
 4347 0030 1A86     		strh	r2, [r3, #48]	@ movhi
1555:bluetooth_rxtx.c **** 	le.win_size_update = 0;
 4348              		.loc 1 1555 0
 4349 0032 5A86     		strh	r2, [r3, #50]	@ movhi
ARM GAS  /tmp/ccTiCbBl.s 			page 132


1556:bluetooth_rxtx.c **** 	le.win_offset_update = 0;
 4350              		.loc 1 1556 0
 4351 0034 83F83420 		strb	r2, [r3, #52]
1557:bluetooth_rxtx.c **** 
 4352              		.loc 1 1557 0
 4353 0038 DA86     		strh	r2, [r3, #54]	@ movhi
1559:bluetooth_rxtx.c **** }
 4354              		.loc 1 1559 0
 4355 003a 054B     		ldr	r3, .L498+16
 4356 003c DA72     		strb	r2, [r3, #11]
 4357 003e 08BD     		pop	{r3, pc}
 4358              	.L499:
 4359              		.align	2
 4360              	.L498:
 4361 0040 D6BE898E 		.word	-1903575338
 4362 0044 00000000 		.word	.LANCHOR1
 4363 0048 55555500 		.word	5592405
 4364 004c AAAAAA00 		.word	11184810
 4365 0050 00000000 		.word	.LANCHOR0
 4366              		.cfi_endproc
 4367              	.LFE20:
 4369              		.section	.text.reset_le_promisc,"ax",%progbits
 4370              		.align	1
 4371              		.global	reset_le_promisc
 4372              		.thumb
 4373              		.thumb_func
 4375              	reset_le_promisc:
 4376              	.LFB21:
1563:bluetooth_rxtx.c **** 	memset(&le_promisc, 0, sizeof(le_promisc));
 4377              		.loc 1 1563 0
 4378              		.cfi_startproc
 4379              		@ args = 0, pretend = 0, frame = 0
 4380              		@ frame_needed = 0, uses_anonymous_args = 0
 4381 0000 10B5     		push	{r4, lr}
 4382              		.cfi_def_cfa_offset 8
 4383              		.cfi_offset 4, -8
 4384              		.cfi_offset 14, -4
1564:bluetooth_rxtx.c **** 	le_promisc.smallest_hop_interval = 0xffffffff;
 4385              		.loc 1 1564 0
 4386 0002 064C     		ldr	r4, .L501
 4387 0004 0021     		movs	r1, #0
 4388 0006 2046     		mov	r0, r4
 4389 0008 4FF48472 		mov	r2, #264
 4390 000c FFF7FEFF 		bl	memset
 4391              	.LVL432:
1565:bluetooth_rxtx.c **** }
 4392              		.loc 1 1565 0
 4393 0010 4FF0FF33 		mov	r3, #-1
 4394 0014 C4F80031 		str	r3, [r4, #256]
 4395 0018 10BD     		pop	{r4, pc}
 4396              	.L502:
 4397 001a 00BF     		.align	2
 4398              	.L501:
 4399 001c 00000000 		.word	le_promisc
 4400              		.cfi_endproc
 4401              	.LFE21:
 4403              		.section	.text.bt_generic_le,"ax",%progbits
ARM GAS  /tmp/ccTiCbBl.s 			page 133


 4404              		.align	1
 4405              		.global	bt_generic_le
 4406              		.thumb
 4407              		.thumb_func
 4409              	bt_generic_le:
 4410              	.LFB22:
1570:bluetooth_rxtx.c **** 	u8 hold;
 4411              		.loc 1 1570 0
 4412              		.cfi_startproc
 4413              		@ args = 0, pretend = 0, frame = 0
 4414              		@ frame_needed = 0, uses_anonymous_args = 0
 4415              	.LVL433:
 4416 0000 2DE9F843 		push	{r3, r4, r5, r6, r7, r8, r9, lr}
 4417              		.cfi_def_cfa_offset 32
 4418              		.cfi_offset 3, -32
 4419              		.cfi_offset 4, -28
 4420              		.cfi_offset 5, -24
 4421              		.cfi_offset 6, -20
 4422              		.cfi_offset 7, -16
 4423              		.cfi_offset 8, -12
 4424              		.cfi_offset 9, -8
 4425              		.cfi_offset 14, -4
1575:bluetooth_rxtx.c **** 	mode = active_mode;
 4426              		.loc 1 1575 0
 4427 0004 694C     		ldr	r4, .L548
 4428 0006 0123     		movs	r3, #1
1570:bluetooth_rxtx.c **** 	u8 hold;
 4429              		.loc 1 1570 0
 4430 0008 8046     		mov	r8, r0
1575:bluetooth_rxtx.c **** 	mode = active_mode;
 4431              		.loc 1 1575 0
 4432 000a 2370     		strb	r3, [r4]
1576:bluetooth_rxtx.c **** 
 4433              		.loc 1 1576 0
 4434 000c 6074     		strb	r0, [r4, #17]
1578:bluetooth_rxtx.c **** 
 4435              		.loc 1 1578 0
 4436 000e FFF7FEFF 		bl	reset_le
 4437              	.LVL434:
1581:bluetooth_rxtx.c **** 
 4438              		.loc 1 1581 0
 4439 0012 674B     		ldr	r3, .L548+4
 4440 0014 4FF08072 		mov	r2, #16777216
 4441 0018 1A60     		str	r2, [r3]
1583:bluetooth_rxtx.c **** 
 4442              		.loc 1 1583 0
 4443 001a 664B     		ldr	r3, .L548+8
 4444 001c 1022     		movs	r2, #16
 4445 001e 1A60     		str	r2, [r3]
1585:bluetooth_rxtx.c **** 	dio_ssp_init();
 4446              		.loc 1 1585 0
 4447 0020 FFF7FEFF 		bl	queue_init
 4448              	.LVL435:
1586:bluetooth_rxtx.c **** 	dma_init();
 4449              		.loc 1 1586 0
 4450 0024 FFF7FEFF 		bl	dio_ssp_init
 4451              	.LVL436:
ARM GAS  /tmp/ccTiCbBl.s 			page 134


1587:bluetooth_rxtx.c **** 	dio_ssp_start();
 4452              		.loc 1 1587 0
 4453 0028 FFF7FEFF 		bl	dma_init
 4454              	.LVL437:
1588:bluetooth_rxtx.c **** 	cc2400_rx();
 4455              		.loc 1 1588 0
 4456 002c FFF7FEFF 		bl	dio_ssp_start
 4457              	.LVL438:
1589:bluetooth_rxtx.c **** 
 4458              		.loc 1 1589 0
 4459 0030 FFF7FEFF 		bl	cc2400_rx
 4460              	.LVL439:
1591:bluetooth_rxtx.c **** 
 4461              		.loc 1 1591 0
 4462 0034 FFF7FEFF 		bl	cs_trigger_enable
 4463              	.LVL440:
1593:bluetooth_rxtx.c **** 
 4464              		.loc 1 1593 0
 4465 0038 0025     		movs	r5, #0
 4466              	.LVL441:
 4467              	.L504:
1595:bluetooth_rxtx.c **** 		if (requested_channel != 0) {
 4468              		.loc 1 1595 0 discriminator 1
 4469 003a A37C     		ldrb	r3, [r4, #18]	@ zero_extendqisi2
 4470 003c 4345     		cmp	r3, r8
 4471 003e 40F0A380 		bne	.L528
 4472              	.LBB40:
1596:bluetooth_rxtx.c **** 			cc2400_strobe(SRFOFF);
 4473              		.loc 1 1596 0
 4474 0042 5A4B     		ldr	r3, .L548
 4475 0044 DB89     		ldrh	r3, [r3, #14]
 4476 0046 9BB2     		uxth	r3, r3
 4477 0048 D3B1     		cbz	r3, .L505
1597:bluetooth_rxtx.c **** 			while ((cc2400_status() & FS_LOCK)); // need to wait for unlock?
 4478              		.loc 1 1597 0
 4479 004a 6420     		movs	r0, #100
 4480 004c FFF7FEFF 		bl	cc2400_strobe
 4481              	.LVL442:
 4482              	.L507:
1598:bluetooth_rxtx.c **** 
 4483              		.loc 1 1598 0 discriminator 1
 4484 0050 FFF7FEFF 		bl	cc2400_status
 4485              	.LVL443:
 4486 0054 4707     		lsls	r7, r0, #29
 4487 0056 FBD4     		bmi	.L507
1601:bluetooth_rxtx.c **** 
 4488              		.loc 1 1601 0
 4489 0058 574B     		ldr	r3, .L548+12
 4490 005a 0220     		movs	r0, #2
 4491 005c 1988     		ldrh	r1, [r3]
 4492 005e 89B2     		uxth	r1, r1
 4493 0060 0139     		subs	r1, r1, #1
 4494 0062 89B2     		uxth	r1, r1
 4495 0064 FFF7FEFF 		bl	cc2400_set
 4496              	.LVL444:
1604:bluetooth_rxtx.c **** 			while (!(cc2400_status() & FS_LOCK));
 4497              		.loc 1 1604 0
ARM GAS  /tmp/ccTiCbBl.s 			page 135


 4498 0068 6120     		movs	r0, #97
 4499 006a FFF7FEFF 		bl	cc2400_strobe
 4500              	.LVL445:
 4501              	.L509:
1605:bluetooth_rxtx.c **** 
 4502              		.loc 1 1605 0 discriminator 1
 4503 006e FFF7FEFF 		bl	cc2400_status
 4504              	.LVL446:
 4505 0072 4607     		lsls	r6, r0, #29
 4506 0074 FBD5     		bpl	.L509
1608:bluetooth_rxtx.c **** 
 4507              		.loc 1 1608 0
 4508 0076 6220     		movs	r0, #98
 4509 0078 FFF7FEFF 		bl	cc2400_strobe
 4510              	.LVL447:
1610:bluetooth_rxtx.c **** 		}
 4511              		.loc 1 1610 0
 4512 007c 0023     		movs	r3, #0
 4513 007e E381     		strh	r3, [r4, #14]	@ movhi
 4514              	.L505:
1613:bluetooth_rxtx.c **** 			hop();
 4515              		.loc 1 1613 0
 4516 0080 E37A     		ldrb	r3, [r4, #11]	@ zero_extendqisi2
 4517 0082 4C4E     		ldr	r6, .L548+8
 4518 0084 13B1     		cbz	r3, .L510
1614:bluetooth_rxtx.c **** 		} else {
 4519              		.loc 1 1614 0
 4520 0086 FFF7FEFF 		bl	hop
 4521              	.LVL448:
 4522 008a 02E0     		b	.L511
 4523              	.L510:
1616:bluetooth_rxtx.c **** 		}
 4524              		.loc 1 1616 0
 4525 008c 4FF48073 		mov	r3, #256
 4526 0090 3360     		str	r3, [r6]
 4527              	.L511:
1619:bluetooth_rxtx.c **** 
 4528              		.loc 1 1619 0
 4529 0092 1023     		movs	r3, #16
 4530 0094 3360     		str	r3, [r6]
1622:bluetooth_rxtx.c **** 		rssi_at_trigger = INT8_MIN;
 4531              		.loc 1 1622 0
 4532 0096 FFF7FEFF 		bl	rssi_reset
 4533              	.LVL449:
1623:bluetooth_rxtx.c **** 		while ((rx_tc == 0) && (rx_err == 0))
 4534              		.loc 1 1623 0
 4535 009a 8027     		movs	r7, #128
 4536              	.LVL450:
 4537              	.L512:
1624:bluetooth_rxtx.c **** 		{
 4538              		.loc 1 1624 0 discriminator 1
 4539 009c 474B     		ldr	r3, .L548+16
 4540 009e 484E     		ldr	r6, .L548+20
 4541 00a0 1A68     		ldr	r2, [r3]
 4542 00a2 9946     		mov	r9, r3
 4543 00a4 D2B9     		cbnz	r2, .L514
1624:bluetooth_rxtx.c **** 		{
ARM GAS  /tmp/ccTiCbBl.s 			page 136


 4544              		.loc 1 1624 0 is_stmt 0 discriminator 2
 4545 00a6 3368     		ldr	r3, [r6]
 4546 00a8 C3B9     		cbnz	r3, .L514
1626:bluetooth_rxtx.c **** 			if (cs_trigger && (rssi_at_trigger == INT8_MIN)) {
 4547              		.loc 1 1626 0 is_stmt 1
 4548 00aa 0620     		movs	r0, #6
 4549 00ac FFF7FEFF 		bl	cc2400_get
 4550              	.LVL451:
1627:bluetooth_rxtx.c **** 				rssi = MAX(rssi,(cs_threshold_cur+54));
 4551              		.loc 1 1627 0
 4552 00b0 444B     		ldr	r3, .L548+24
1626:bluetooth_rxtx.c **** 			if (cs_trigger && (rssi_at_trigger == INT8_MIN)) {
 4553              		.loc 1 1626 0
 4554 00b2 C0F30720 		ubfx	r0, r0, #8, #8
 4555              	.LVL452:
1627:bluetooth_rxtx.c **** 				rssi = MAX(rssi,(cs_threshold_cur+54));
 4556              		.loc 1 1627 0
 4557 00b6 1B78     		ldrb	r3, [r3]	@ zero_extendqisi2
 4558 00b8 63B1     		cbz	r3, .L513
1627:bluetooth_rxtx.c **** 				rssi = MAX(rssi,(cs_threshold_cur+54));
 4559              		.loc 1 1627 0 is_stmt 0 discriminator 1
 4560 00ba 7BB2     		sxtb	r3, r7
 4561 00bc 8033     		adds	r3, r3, #128
 4562 00be 09D1     		bne	.L513
1628:bluetooth_rxtx.c **** 				rssi_at_trigger = rssi;
 4563              		.loc 1 1628 0 is_stmt 1
 4564 00c0 414B     		ldr	r3, .L548+28
 4565 00c2 40B2     		sxtb	r0, r0
 4566              	.LVL453:
 4567 00c4 93F90070 		ldrsb	r7, [r3]
 4568              	.LVL454:
 4569 00c8 3637     		adds	r7, r7, #54
 4570 00ca B842     		cmp	r0, r7
 4571 00cc A8BF     		it	ge
 4572 00ce 0746     		movge	r7, r0
 4573 00d0 FFB2     		uxtb	r7, r7
1629:bluetooth_rxtx.c **** 			}
 4574              		.loc 1 1629 0
 4575 00d2 3846     		mov	r0, r7
 4576              	.L513:
 4577              	.LVL455:
1631:bluetooth_rxtx.c **** 		}
 4578              		.loc 1 1631 0
 4579 00d4 40B2     		sxtb	r0, r0
 4580              	.LVL456:
 4581 00d6 FFF7FEFF 		bl	rssi_add
 4582              	.LVL457:
 4583 00da DFE7     		b	.L512
 4584              	.L514:
1634:bluetooth_rxtx.c **** 			status |= DMA_ERROR;
 4585              		.loc 1 1634 0
 4586 00dc 3368     		ldr	r3, [r6]
 4587 00de 1BB1     		cbz	r3, .L516
1635:bluetooth_rxtx.c **** 		}
 4588              		.loc 1 1635 0
 4589 00e0 6378     		ldrb	r3, [r4, #1]	@ zero_extendqisi2
 4590 00e2 43F00203 		orr	r3, r3, #2
ARM GAS  /tmp/ccTiCbBl.s 			page 137


 4591 00e6 6370     		strb	r3, [r4, #1]
 4592              	.L516:
1639:bluetooth_rxtx.c **** 			goto rx_continue;
 4593              		.loc 1 1639 0
 4594 00e8 D9F80030 		ldr	r3, [r9]
 4595 00ec 002B     		cmp	r3, #0
 4596 00ee 57D0     		beq	.L517
1643:bluetooth_rxtx.c **** 			status |= DMA_OVERFLOW;
 4597              		.loc 1 1643 0
 4598 00f0 324B     		ldr	r3, .L548+16
 4599 00f2 1B68     		ldr	r3, [r3]
 4600 00f4 012B     		cmp	r3, #1
 4601 00f6 03D9     		bls	.L518
1644:bluetooth_rxtx.c **** 
 4602              		.loc 1 1644 0
 4603 00f8 6378     		ldrb	r3, [r4, #1]	@ zero_extendqisi2
 4604 00fa 43F00103 		orr	r3, r3, #1
 4605 00fe 6370     		strb	r3, [r4, #1]
 4606              	.L518:
1646:bluetooth_rxtx.c **** 
 4607              		.loc 1 1646 0
 4608 0100 2D4B     		ldr	r3, .L548+12
 4609 0102 1888     		ldrh	r0, [r3]
 4610 0104 80B2     		uxth	r0, r0
 4611 0106 FFF7FEFF 		bl	rssi_iir_update
 4612              	.LVL458:
1652:bluetooth_rxtx.c **** 			status |= CS_TRIGGER;
 4613              		.loc 1 1652 0
 4614 010a 2E4B     		ldr	r3, .L548+24
 4615 010c 1A78     		ldrb	r2, [r3]	@ zero_extendqisi2
 4616 010e 12B9     		cbnz	r2, .L519
1652:bluetooth_rxtx.c **** 			status |= CS_TRIGGER;
 4617              		.loc 1 1652 0 is_stmt 0 discriminator 1
 4618 0110 2E4A     		ldr	r2, .L548+32
 4619 0112 1278     		ldrb	r2, [r2]	@ zero_extendqisi2
 4620 0114 32B1     		cbz	r2, .L520
 4621              	.L519:
1653:bluetooth_rxtx.c **** 			hold = CS_HOLD_TIME;
 4622              		.loc 1 1653 0 is_stmt 1
 4623 0116 6278     		ldrb	r2, [r4, #1]	@ zero_extendqisi2
1654:bluetooth_rxtx.c **** 			cs_trigger = 0;
 4624              		.loc 1 1654 0
 4625 0118 0225     		movs	r5, #2
 4626              	.LVL459:
1653:bluetooth_rxtx.c **** 			hold = CS_HOLD_TIME;
 4627              		.loc 1 1653 0
 4628 011a 42F00802 		orr	r2, r2, #8
 4629 011e 6270     		strb	r2, [r4, #1]
 4630              	.LVL460:
1655:bluetooth_rxtx.c **** 		}
 4631              		.loc 1 1655 0
 4632 0120 0022     		movs	r2, #0
 4633 0122 1A70     		strb	r2, [r3]
 4634              	.LVL461:
 4635              	.L520:
1658:bluetooth_rxtx.c **** 			status |= RSSI_TRIGGER;
 4636              		.loc 1 1658 0
ARM GAS  /tmp/ccTiCbBl.s 			page 138


 4637 0124 284B     		ldr	r3, .L548+28
 4638 0126 93F90020 		ldrsb	r2, [r3]
 4639 012a 294B     		ldr	r3, .L548+36
 4640 012c 3532     		adds	r2, r2, #53
 4641 012e 93F90030 		ldrsb	r3, [r3]
 4642 0132 9A42     		cmp	r2, r3
 4643 0134 05DA     		bge	.L521
1659:bluetooth_rxtx.c **** 			hold = CS_HOLD_TIME;
 4644              		.loc 1 1659 0
 4645 0136 6378     		ldrb	r3, [r4, #1]	@ zero_extendqisi2
1660:bluetooth_rxtx.c **** 		}
 4646              		.loc 1 1660 0
 4647 0138 0225     		movs	r5, #2
 4648              	.LVL462:
1659:bluetooth_rxtx.c **** 			hold = CS_HOLD_TIME;
 4649              		.loc 1 1659 0
 4650 013a 43F01003 		orr	r3, r3, #16
 4651 013e 6370     		strb	r3, [r4, #1]
 4652              	.LVL463:
 4653 0140 00E0     		b	.L522
 4654              	.LVL464:
 4655              	.L521:
1664:bluetooth_rxtx.c **** 			goto rx_continue;
 4656              		.loc 1 1664 0
 4657 0142 6DB3     		cbz	r5, .L517
 4658              	.LVL465:
 4659              	.L522:
1670:bluetooth_rxtx.c **** 
 4660              		.loc 1 1670 0
 4661 0144 2348     		ldr	r0, .L548+40
1667:bluetooth_rxtx.c **** 
 4662              		.loc 1 1667 0
 4663 0146 013D     		subs	r5, r5, #1
 4664              	.LVL466:
1670:bluetooth_rxtx.c **** 
 4665              		.loc 1 1670 0
 4666 0148 00F5C871 		add	r1, r0, #400
 4667 014c 4FF4C872 		mov	r2, #400
 4668 0150 FFF7FEFF 		bl	memcpy
 4669              	.LVL467:
1667:bluetooth_rxtx.c **** 
 4670              		.loc 1 1667 0
 4671 0154 EDB2     		uxtb	r5, r5
 4672              	.LVL468:
1673:bluetooth_rxtx.c **** 			/* output one byte for each received symbol (0x00 or 0x01) */
 4673              		.loc 1 1673 0
 4674 0156 0023     		movs	r3, #0
 4675              	.LVL469:
 4676              	.L523:
 4677 0158 1F48     		ldr	r0, .L548+44
1660:bluetooth_rxtx.c **** 		}
 4678              		.loc 1 1660 0 discriminator 1
 4679 015a 0022     		movs	r2, #0
 4680 015c 00EBC300 		add	r0, r0, r3, lsl #3
 4681              	.LVL470:
 4682              	.L526:
1676:bluetooth_rxtx.c **** 				idle_rxbuf[i] <<= 1;
ARM GAS  /tmp/ccTiCbBl.s 			page 139


 4683              		.loc 1 1676 0 discriminator 2
 4684 0160 1E49     		ldr	r1, .L548+48
 4685 0162 0F68     		ldr	r7, [r1]
 4686 0164 FF5C     		ldrb	r7, [r7, r3]	@ zero_extendqisi2
1677:bluetooth_rxtx.c **** 			}
 4687              		.loc 1 1677 0 discriminator 2
 4688 0166 0968     		ldr	r1, [r1]
1676:bluetooth_rxtx.c **** 				idle_rxbuf[i] <<= 1;
 4689              		.loc 1 1676 0 discriminator 2
 4690 0168 FF09     		lsrs	r7, r7, #7
 4691 016a 8754     		strb	r7, [r0, r2]
1677:bluetooth_rxtx.c **** 			}
 4692              		.loc 1 1677 0 discriminator 2
 4693 016c CF5C     		ldrb	r7, [r1, r3]	@ zero_extendqisi2
1675:bluetooth_rxtx.c **** 				unpacked[DMA_SIZE*8 + i * 8 + j] = (idle_rxbuf[i] & 0x80) >> 7;
 4694              		.loc 1 1675 0 discriminator 2
 4695 016e 0132     		adds	r2, r2, #1
 4696              	.LVL471:
1677:bluetooth_rxtx.c **** 			}
 4697              		.loc 1 1677 0 discriminator 2
 4698 0170 7F00     		lsls	r7, r7, #1
 4699 0172 FFB2     		uxtb	r7, r7
1675:bluetooth_rxtx.c **** 				unpacked[DMA_SIZE*8 + i * 8 + j] = (idle_rxbuf[i] & 0x80) >> 7;
 4700              		.loc 1 1675 0 discriminator 2
 4701 0174 082A     		cmp	r2, #8
1677:bluetooth_rxtx.c **** 			}
 4702              		.loc 1 1677 0 discriminator 2
 4703 0176 CF54     		strb	r7, [r1, r3]
1675:bluetooth_rxtx.c **** 				unpacked[DMA_SIZE*8 + i * 8 + j] = (idle_rxbuf[i] & 0x80) >> 7;
 4704              		.loc 1 1675 0 discriminator 2
 4705 0178 F2D1     		bne	.L526
1673:bluetooth_rxtx.c **** 			/* output one byte for each received symbol (0x00 or 0x01) */
 4706              		.loc 1 1673 0
 4707 017a 0133     		adds	r3, r3, #1
 4708              	.LVL472:
 4709 017c 322B     		cmp	r3, #50
 4710 017e EBD1     		bne	.L523
1681:bluetooth_rxtx.c **** 		if (!ret) break;
 4711              		.loc 1 1681 0
 4712 0180 636A     		ldr	r3, [r4, #36]
 4713              	.LVL473:
 4714 0182 1448     		ldr	r0, .L548+40
 4715 0184 9847     		blx	r3
 4716              	.LVL474:
1682:bluetooth_rxtx.c **** 
 4717              		.loc 1 1682 0
 4718 0186 58B9     		cbnz	r0, .L517
 4719              	.LVL475:
 4720              	.L528:
 4721              	.LBE40:
1690:bluetooth_rxtx.c **** 
 4722              		.loc 1 1690 0
 4723 0188 154B     		ldr	r3, .L548+52
 4724 018a 4FF08072 		mov	r2, #16777216
 4725 018e 1A60     		str	r2, [r3]
1693:bluetooth_rxtx.c **** 	dio_ssp_stop();
 4726              		.loc 1 1693 0
ARM GAS  /tmp/ccTiCbBl.s 			page 140


 4727 0190 FFF7FEFF 		bl	cc2400_idle
 4728              	.LVL476:
1694:bluetooth_rxtx.c **** 	cs_trigger_disable();
 4729              		.loc 1 1694 0
 4730 0194 FFF7FEFF 		bl	dio_ssp_stop
 4731              	.LVL477:
1696:bluetooth_rxtx.c **** 
 4732              		.loc 1 1696 0
 4733 0198 BDE8F843 		pop	{r3, r4, r5, r6, r7, r8, r9, lr}
1695:bluetooth_rxtx.c **** }
 4734              		.loc 1 1695 0
 4735 019c FFF7FEBF 		b	cs_trigger_disable
 4736              	.LVL478:
 4737              	.L517:
 4738              	.LBB41:
1685:bluetooth_rxtx.c **** 		rx_err = 0;
 4739              		.loc 1 1685 0
 4740 01a0 0023     		movs	r3, #0
 4741 01a2 C9F80030 		str	r3, [r9]
1686:bluetooth_rxtx.c **** 	}
 4742              		.loc 1 1686 0
 4743 01a6 3360     		str	r3, [r6]
 4744 01a8 47E7     		b	.L504
 4745              	.L549:
 4746 01aa 00BF     		.align	2
 4747              	.L548:
 4748 01ac 00000000 		.word	.LANCHOR0
 4749 01b0 00E100E0 		.word	-536813312
 4750 01b4 3CC00920 		.word	537509948
 4751 01b8 00000000 		.word	.LANCHOR1
 4752 01bc 00000000 		.word	rx_tc
 4753 01c0 00000000 		.word	rx_err
 4754 01c4 00000000 		.word	cs_trigger
 4755 01c8 00000000 		.word	cs_threshold_cur
 4756 01cc 00000000 		.word	cs_no_squelch
 4757 01d0 00000000 		.word	rssi_max
 4758 01d4 00000000 		.word	unpacked
 4759 01d8 90010000 		.word	unpacked+400
 4760 01dc 00000000 		.word	idle_rxbuf
 4761 01e0 80E100E0 		.word	-536813184
 4762              	.LBE41:
 4763              		.cfi_endproc
 4764              	.LFE22:
 4766              		.section	.text.bt_le_sync_rssi,"ax",%progbits
 4767              		.align	1
 4768              		.global	bt_le_sync_rssi
 4769              		.thumb
 4770              		.thumb_func
 4772              	bt_le_sync_rssi:
 4773              	.LFB23:
1700:bluetooth_rxtx.c **** 	int i;
 4774              		.loc 1 1700 0
 4775              		.cfi_startproc
 4776              		@ args = 0, pretend = 0, frame = 312
 4777              		@ frame_needed = 0, uses_anonymous_args = 0
 4778              	.LVL479:
 4779 0000 2DE9F04F 		push	{r4, r5, r6, r7, r8, r9, r10, fp, lr}
ARM GAS  /tmp/ccTiCbBl.s 			page 141


 4780              		.cfi_def_cfa_offset 36
 4781              		.cfi_offset 4, -36
 4782              		.cfi_offset 5, -32
 4783              		.cfi_offset 6, -28
 4784              		.cfi_offset 7, -24
 4785              		.cfi_offset 8, -20
 4786              		.cfi_offset 9, -16
 4787              		.cfi_offset 10, -12
 4788              		.cfi_offset 11, -8
 4789              		.cfi_offset 14, -4
 4790 0004 CFB0     		sub	sp, sp, #316
 4791              		.cfi_def_cfa_offset 352
1707:bluetooth_rxtx.c **** 		start_sync -= ((uint32_t)1<<28);
 4792              		.loc 1 1707 0
 4793 0006 854D     		ldr	r5, .L576
1705:bluetooth_rxtx.c **** 
 4794              		.loc 1 1705 0
 4795 0008 0DF10408 		add	r8, sp, #4
1700:bluetooth_rxtx.c **** 	int i;
 4796              		.loc 1 1700 0
 4797 000c 0746     		mov	r7, r0
1705:bluetooth_rxtx.c **** 
 4798              		.loc 1 1705 0
 4799 000e 0021     		movs	r1, #0
 4800 0010 4046     		mov	r0, r8
 4801              	.LVL480:
 4802 0012 3222     		movs	r2, #50
 4803 0014 FFF7FEFF 		bl	memset
 4804              	.LVL481:
1707:bluetooth_rxtx.c **** 		start_sync -= ((uint32_t)1<<28);
 4805              		.loc 1 1707 0
 4806 0018 AB6A     		ldr	r3, [r5, #40]
 4807 001a 814C     		ldr	r4, .L576+4
 4808 001c B3F1805F 		cmp	r3, #268435456
 4809 0020 2ED3     		bcc	.L556
1708:bluetooth_rxtx.c **** 		while ((clkn & 0xffffff) >= now_sync || (clkn & 0xffffff) < start_sync);
 4810              		.loc 1 1708 0
 4811 0022 03F17043 		add	r3, r3, #-268435456
1709:bluetooth_rxtx.c **** 	} else {
 4812              		.loc 1 1709 0
 4813 0026 E96A     		ldr	r1, [r5, #44]
1708:bluetooth_rxtx.c **** 		while ((clkn & 0xffffff) >= now_sync || (clkn & 0xffffff) < start_sync);
 4814              		.loc 1 1708 0
 4815 0028 AB62     		str	r3, [r5, #40]
 4816              	.L552:
1709:bluetooth_rxtx.c **** 	} else {
 4817              		.loc 1 1709 0 discriminator 1
 4818 002a 2268     		ldr	r2, [r4]
 4819 002c 22F07F42 		bic	r2, r2, #-16777216
 4820 0030 8A42     		cmp	r2, r1
 4821 0032 FAD2     		bcs	.L552
1709:bluetooth_rxtx.c **** 	} else {
 4822              		.loc 1 1709 0 is_stmt 0 discriminator 2
 4823 0034 7A4A     		ldr	r2, .L576+4
 4824 0036 1268     		ldr	r2, [r2]
 4825 0038 22F07F42 		bic	r2, r2, #-16777216
 4826 003c 9A42     		cmp	r2, r3
ARM GAS  /tmp/ccTiCbBl.s 			page 142


 4827 003e F4D3     		bcc	.L552
 4828              	.L555:
1715:bluetooth_rxtx.c **** 	uint32_t stop_at = now + 100 * 10000 / 3125; // millis -> clkn ticks
 4829              		.loc 1 1715 0 is_stmt 1
 4830 0040 2368     		ldr	r3, [r4]
 4831              	.LVL482:
1728:bluetooth_rxtx.c **** 
 4832              		.loc 1 1728 0
 4833 0042 784E     		ldr	r6, .L576+8
1715:bluetooth_rxtx.c **** 	uint32_t stop_at = now + 100 * 10000 / 3125; // millis -> clkn ticks
 4834              		.loc 1 1715 0
 4835 0044 23F07F4A 		bic	r10, r3, #-16777216
 4836              	.LVL483:
1724:bluetooth_rxtx.c **** 	requested_mode = active_mode;
 4837              		.loc 1 1724 0
 4838 0048 0123     		movs	r3, #1
 4839 004a 2B70     		strb	r3, [r5]
1728:bluetooth_rxtx.c **** 
 4840              		.loc 1 1728 0
 4841 004c 3376     		strb	r3, [r6, #24]
1730:bluetooth_rxtx.c **** 	RXLED_CLR;
 4842              		.loc 1 1730 0
 4843 004e 764B     		ldr	r3, .L576+12
 4844 0050 4FF08072 		mov	r2, #16777216
1725:bluetooth_rxtx.c **** 	mode = active_mode;
 4845              		.loc 1 1725 0
 4846 0054 AF74     		strb	r7, [r5, #18]
1726:bluetooth_rxtx.c **** 
 4847              		.loc 1 1726 0
 4848 0056 6F74     		strb	r7, [r5, #17]
1730:bluetooth_rxtx.c **** 	RXLED_CLR;
 4849              		.loc 1 1730 0
 4850 0058 1A60     		str	r2, [r3]
1731:bluetooth_rxtx.c **** 	queue_init();
 4851              		.loc 1 1731 0
 4852 005a 744B     		ldr	r3, .L576+16
 4853 005c 1022     		movs	r2, #16
 4854 005e 1A60     		str	r2, [r3]
1732:bluetooth_rxtx.c **** 	dio_ssp_init();
 4855              		.loc 1 1732 0
 4856 0060 FFF7FEFF 		bl	queue_init
 4857              	.LVL484:
1733:bluetooth_rxtx.c **** 	dma_init_le();
 4858              		.loc 1 1733 0
 4859 0064 FFF7FEFF 		bl	dio_ssp_init
 4860              	.LVL485:
1734:bluetooth_rxtx.c **** 	dio_ssp_start();
 4861              		.loc 1 1734 0
 4862 0068 FFF7FEFF 		bl	dma_init_le
 4863              	.LVL486:
1735:bluetooth_rxtx.c **** 
 4864              		.loc 1 1735 0
 4865 006c FFF7FEFF 		bl	dio_ssp_start
 4866              	.LVL487:
1737:bluetooth_rxtx.c **** 
 4867              		.loc 1 1737 0
 4868 0070 7068     		ldr	r0, [r6, #4]
ARM GAS  /tmp/ccTiCbBl.s 			page 143


1716:bluetooth_rxtx.c **** 	int overflow = 0;
 4869              		.loc 1 1716 0
 4870 0072 0AF5A07A 		add	r10, r10, #320
 4871              	.LVL488:
1737:bluetooth_rxtx.c **** 
 4872              		.loc 1 1737 0
 4873 0076 FFF7FEFF 		bl	rbit
 4874              	.LVL489:
 4875 007a FFF7FEFF 		bl	cc2400_rx_sync
 4876              	.LVL490:
1739:bluetooth_rxtx.c **** 		if (requested_channel != 0) {
 4877              		.loc 1 1739 0
 4878 007e ABE0     		b	.L554
 4879              	.LVL491:
 4880              	.L556:
1711:bluetooth_rxtx.c **** 	}
 4881              		.loc 1 1711 0
 4882 0080 2268     		ldr	r2, [r4]
 4883 0082 22F07F42 		bic	r2, r2, #-16777216
 4884 0086 9A42     		cmp	r2, r3
 4885 0088 FAD3     		bcc	.L556
 4886 008a D9E7     		b	.L555
 4887              	.LVL492:
 4888              	.L572:
 4889              	.LBB42:
1740:bluetooth_rxtx.c **** 			cc2400_strobe(SRFOFF);
 4890              		.loc 1 1740 0
 4891 008c 634B     		ldr	r3, .L576
 4892 008e DB89     		ldrh	r3, [r3, #14]
 4893 0090 9BB2     		uxth	r3, r3
 4894 0092 C3B1     		cbz	r3, .L557
1741:bluetooth_rxtx.c **** 			while ((cc2400_status() & FS_LOCK));
 4895              		.loc 1 1741 0
 4896 0094 6420     		movs	r0, #100
 4897 0096 FFF7FEFF 		bl	cc2400_strobe
 4898              	.LVL493:
 4899              	.L559:
1742:bluetooth_rxtx.c **** 			cc2400_set(FSDIV, channel);
 4900              		.loc 1 1742 0 discriminator 1
 4901 009a FFF7FEFF 		bl	cc2400_status
 4902              	.LVL494:
 4903 009e 4207     		lsls	r2, r0, #29
 4904 00a0 FBD4     		bmi	.L559
1743:bluetooth_rxtx.c **** 			cc2400_strobe(SFSON);
 4905              		.loc 1 1743 0
 4906 00a2 604B     		ldr	r3, .L576+8
 4907 00a4 0220     		movs	r0, #2
 4908 00a6 1988     		ldrh	r1, [r3]
 4909 00a8 89B2     		uxth	r1, r1
 4910 00aa FFF7FEFF 		bl	cc2400_set
 4911              	.LVL495:
1744:bluetooth_rxtx.c **** 			while (!(cc2400_status() & FS_LOCK));
 4912              		.loc 1 1744 0
 4913 00ae 6120     		movs	r0, #97
 4914 00b0 FFF7FEFF 		bl	cc2400_strobe
 4915              	.LVL496:
 4916              	.L561:
ARM GAS  /tmp/ccTiCbBl.s 			page 144


1745:bluetooth_rxtx.c **** 			cc2400_strobe(SRX);
 4917              		.loc 1 1745 0 discriminator 1
 4918 00b4 FFF7FEFF 		bl	cc2400_status
 4919              	.LVL497:
 4920 00b8 4307     		lsls	r3, r0, #29
 4921 00ba FBD5     		bpl	.L561
1746:bluetooth_rxtx.c **** 			requested_channel = 0;
 4922              		.loc 1 1746 0
 4923 00bc 6220     		movs	r0, #98
 4924 00be FFF7FEFF 		bl	cc2400_strobe
 4925              	.LVL498:
1747:bluetooth_rxtx.c **** 		}
 4926              		.loc 1 1747 0
 4927 00c2 0023     		movs	r3, #0
 4928 00c4 EB81     		strh	r3, [r5, #14]	@ movhi
 4929              	.L557:
1749:bluetooth_rxtx.c **** 		if (requested_mode != active_mode) {
 4930              		.loc 1 1749 0
 4931 00c6 594B     		ldr	r3, .L576+16
 4932 00c8 1022     		movs	r2, #16
 4933 00ca 1A60     		str	r2, [r3]
1750:bluetooth_rxtx.c **** 			goto cleanup;
 4934              		.loc 1 1750 0
 4935 00cc AB7C     		ldrb	r3, [r5, #18]	@ zero_extendqisi2
 4936 00ce BB42     		cmp	r3, r7
 4937 00d0 40F09780 		bne	.L571
1755:bluetooth_rxtx.c **** 		u32 time_buf2[16] = {0, };
 4938              		.loc 1 1755 0
 4939 00d4 0DF13809 		add	r9, sp, #56
 4940 00d8 0021     		movs	r1, #0
 4941 00da 4022     		movs	r2, #64
 4942 00dc 4846     		mov	r0, r9
 4943 00de FFF7FEFF 		bl	memset
 4944              	.LVL499:
1756:bluetooth_rxtx.c **** 		u32 time_buf3[16] = {0, };
 4945              		.loc 1 1756 0
 4946 00e2 0021     		movs	r1, #0
 4947 00e4 4022     		movs	r2, #64
 4948 00e6 1EA8     		add	r0, sp, #120
 4949 00e8 FFF7FEFF 		bl	memset
 4950              	.LVL500:
1757:bluetooth_rxtx.c **** 		u32 time_buf4[16] = {0, };
 4951              		.loc 1 1757 0
 4952 00ec 0021     		movs	r1, #0
 4953 00ee 4022     		movs	r2, #64
 4954 00f0 2EA8     		add	r0, sp, #184
 4955 00f2 FFF7FEFF 		bl	memset
 4956              	.LVL501:
1758:bluetooth_rxtx.c **** 		for (i = 0; i < DMA_SIZE; i++) {
 4957              		.loc 1 1758 0
 4958 00f6 3EA8     		add	r0, sp, #248
 4959 00f8 0021     		movs	r1, #0
 4960 00fa 4022     		movs	r2, #64
 4961 00fc FFF7FEFF 		bl	memset
 4962              	.LVL502:
 4963 0100 4FF0000B 		mov	fp, #0
1759:bluetooth_rxtx.c **** 			if (i<16) time_buf1[i] = CLK100NS;
ARM GAS  /tmp/ccTiCbBl.s 			page 145


 4964              		.loc 1 1759 0
 4965 0104 5E46     		mov	r6, fp
 4966              	.LVL503:
 4967              	.L570:
 4968              	.LBB43:
1760:bluetooth_rxtx.c **** 			if (15<i && i<32) time_buf2[i-16] = CLK100NS;
 4969              		.loc 1 1760 0
 4970 0106 0F2E     		cmp	r6, #15
 4971 0108 0ADC     		bgt	.L563
1760:bluetooth_rxtx.c **** 			if (15<i && i<32) time_buf2[i-16] = CLK100NS;
 4972              		.loc 1 1760 0 is_stmt 0 discriminator 1
 4973 010a 4949     		ldr	r1, .L576+20
 4974 010c 2268     		ldr	r2, [r4]
 4975 010e 0968     		ldr	r1, [r1]
 4976 0110 C2F31302 		ubfx	r2, r2, #0, #20
 4977 0114 40F63540 		movw	r0, #3125
 4978 0118 00FB0212 		mla	r2, r0, r2, r1
 4979 011c 49F80B20 		str	r2, [r9, fp]
 4980              	.L563:
 4981 0120 A6F11002 		sub	r2, r6, #16
1761:bluetooth_rxtx.c **** 			if (31<i && i<48) time_buf3[i-32] = CLK100NS;
 4982              		.loc 1 1761 0 is_stmt 1
 4983 0124 0F2A     		cmp	r2, #15
 4984 0126 0CD8     		bhi	.L564
1761:bluetooth_rxtx.c **** 			if (31<i && i<48) time_buf3[i-32] = CLK100NS;
 4985              		.loc 1 1761 0 is_stmt 0 discriminator 1
 4986 0128 414A     		ldr	r2, .L576+20
 4987 012a 2168     		ldr	r1, [r4]
 4988 012c 1068     		ldr	r0, [r2]
 4989 012e C1F31301 		ubfx	r1, r1, #0, #20
 4990 0132 40F6354E 		movw	lr, #3125
 4991 0136 0EFB0101 		mla	r1, lr, r1, r0
 4992 013a 1EAA     		add	r2, sp, #120
 4993 013c 5A44     		add	r2, r2, fp
 4994 013e 42F8401C 		str	r1, [r2, #-64]
 4995              	.L564:
 4996 0142 A6F12002 		sub	r2, r6, #32
1762:bluetooth_rxtx.c **** 			if (47<i) time_buf4[i-48] = CLK100NS;
 4997              		.loc 1 1762 0 is_stmt 1
 4998 0146 0F2A     		cmp	r2, #15
 4999 0148 4BD8     		bhi	.L565
1762:bluetooth_rxtx.c **** 			if (47<i) time_buf4[i-48] = CLK100NS;
 5000              		.loc 1 1762 0 is_stmt 0 discriminator 1
 5001 014a 394A     		ldr	r2, .L576+20
 5002 014c 2168     		ldr	r1, [r4]
 5003 014e 1068     		ldr	r0, [r2]
 5004 0150 C1F31301 		ubfx	r1, r1, #0, #20
 5005 0154 40F6354E 		movw	lr, #3125
 5006 0158 0EFB0101 		mla	r1, lr, r1, r0
 5007 015c 2EAA     		add	r2, sp, #184
 5008 015e 5A44     		add	r2, r2, fp
 5009 0160 42F8801C 		str	r1, [r2, #-128]
 5010              	.L566:
1764:bluetooth_rxtx.c **** 			volatile u32 j = 598; while (--j); // empty for loop ~= 70ns, 598 empty while loop ~= 41.8us, 24
 5011              		.loc 1 1764 0 is_stmt 1
 5012 0164 0620     		movs	r0, #6
 5013 0166 FFF7FEFF 		bl	cc2400_get
ARM GAS  /tmp/ccTiCbBl.s 			page 146


 5014              	.LVL504:
1765:bluetooth_rxtx.c **** 		}
 5015              		.loc 1 1765 0
 5016 016a 40F25622 		movw	r2, #598
1764:bluetooth_rxtx.c **** 			volatile u32 j = 598; while (--j); // empty for loop ~= 70ns, 598 empty while loop ~= 41.8us, 24
 5017              		.loc 1 1764 0
 5018 016e 000A     		lsrs	r0, r0, #8
 5019 0170 08F80600 		strb	r0, [r8, r6]
1765:bluetooth_rxtx.c **** 		}
 5020              		.loc 1 1765 0
 5021 0174 0092     		str	r2, [sp]
 5022              	.L568:
1765:bluetooth_rxtx.c **** 		}
 5023              		.loc 1 1765 0 is_stmt 0 discriminator 1
 5024 0176 009A     		ldr	r2, [sp]
 5025 0178 013A     		subs	r2, r2, #1
 5026 017a 0092     		str	r2, [sp]
 5027 017c 002A     		cmp	r2, #0
 5028 017e FAD1     		bne	.L568
 5029              	.LBE43:
1759:bluetooth_rxtx.c **** 			if (i<16) time_buf1[i] = CLK100NS;
 5030              		.loc 1 1759 0 is_stmt 1
 5031 0180 0136     		adds	r6, r6, #1
 5032              	.LVL505:
 5033 0182 322E     		cmp	r6, #50
 5034 0184 0BF1040B 		add	fp, fp, #4
 5035 0188 BDD1     		bne	.L570
1768:bluetooth_rxtx.c **** 
 5036              		.loc 1 1768 0
 5037 018a 2A4B     		ldr	r3, .L576+24
 5038 018c 1022     		movs	r2, #16
 5039 018e 1A60     		str	r2, [r3]
1770:bluetooth_rxtx.c **** 		enqueue_with_ts(RSSI_TRACK, (uint8_t *)rssi_buf, CLK100NS);
 5040              		.loc 1 1770 0
 5041 0190 294B     		ldr	r3, .L576+28
 5042 0192 4FF08076 		mov	r6, #16777216
 5043              	.LVL506:
 5044 0196 1E60     		str	r6, [r3]
1771:bluetooth_rxtx.c **** 		enqueue_time((uint8_t *) time_buf1);
 5045              		.loc 1 1771 0
 5046 0198 254B     		ldr	r3, .L576+20
 5047 019a 2268     		ldr	r2, [r4]
 5048 019c 1B68     		ldr	r3, [r3]
 5049 019e 40F6354E 		movw	lr, #3125
 5050 01a2 C2F31302 		ubfx	r2, r2, #0, #20
 5051 01a6 0EFB0232 		mla	r2, lr, r2, r3
 5052 01aa 4146     		mov	r1, r8
 5053 01ac 0820     		movs	r0, #8
 5054 01ae FFF7FEFF 		bl	enqueue_with_ts
 5055              	.LVL507:
1772:bluetooth_rxtx.c **** 		enqueue_time((uint8_t *) time_buf2);
 5056              		.loc 1 1772 0
 5057 01b2 4846     		mov	r0, r9
 5058 01b4 FFF7FEFF 		bl	enqueue_time
 5059              	.LVL508:
1773:bluetooth_rxtx.c **** 		enqueue_time((uint8_t *) time_buf3);
 5060              		.loc 1 1773 0
ARM GAS  /tmp/ccTiCbBl.s 			page 147


 5061 01b8 1EA8     		add	r0, sp, #120
 5062 01ba FFF7FEFF 		bl	enqueue_time
 5063              	.LVL509:
1774:bluetooth_rxtx.c **** 		enqueue_time((uint8_t *) time_buf4);
 5064              		.loc 1 1774 0
 5065 01be 2EA8     		add	r0, sp, #184
 5066 01c0 FFF7FEFF 		bl	enqueue_time
 5067              	.LVL510:
1775:bluetooth_rxtx.c **** 		ISER0 = ISER0_ISE_USB;
 5068              		.loc 1 1775 0
 5069 01c4 3EA8     		add	r0, sp, #248
 5070 01c6 FFF7FEFF 		bl	enqueue_time
 5071              	.LVL511:
1776:bluetooth_rxtx.c **** 	
 5072              		.loc 1 1776 0
 5073 01ca 174B     		ldr	r3, .L576+12
 5074 01cc 1E60     		str	r6, [r3]
1779:bluetooth_rxtx.c **** 				goto cleanup;
 5075              		.loc 1 1779 0
 5076 01ce 2368     		ldr	r3, [r4]
 5077 01d0 23F07F43 		bic	r3, r3, #-16777216
 5078 01d4 5345     		cmp	r3, r10
 5079 01d6 14D8     		bhi	.L571
 5080              	.L554:
 5081              	.LBE42:
1739:bluetooth_rxtx.c **** 		if (requested_channel != 0) {
 5082              		.loc 1 1739 0 discriminator 1
 5083 01d8 AB7C     		ldrb	r3, [r5, #18]	@ zero_extendqisi2
 5084 01da BB42     		cmp	r3, r7
 5085 01dc 3FF456AF 		beq	.L572
 5086 01e0 0FE0     		b	.L571
 5087              	.LVL512:
 5088              	.L565:
 5089              	.LBB45:
 5090              	.LBB44:
1763:bluetooth_rxtx.c **** 			rssi_buf[i] = (u8)(cc2400_get(RSSI) >> 8);
 5091              		.loc 1 1763 0
 5092 01e2 2F2E     		cmp	r6, #47
 5093 01e4 BEDD     		ble	.L566
1763:bluetooth_rxtx.c **** 			rssi_buf[i] = (u8)(cc2400_get(RSSI) >> 8);
 5094              		.loc 1 1763 0 is_stmt 0 discriminator 1
 5095 01e6 124A     		ldr	r2, .L576+20
 5096 01e8 2168     		ldr	r1, [r4]
 5097 01ea 1068     		ldr	r0, [r2]
 5098 01ec C1F31301 		ubfx	r1, r1, #0, #20
 5099 01f0 40F6354E 		movw	lr, #3125
 5100 01f4 0EFB0101 		mla	r1, lr, r1, r0
 5101 01f8 3EAA     		add	r2, sp, #248
 5102 01fa 5A44     		add	r2, r2, fp
 5103 01fc 42F8C01C 		str	r1, [r2, #-192]
 5104 0200 B0E7     		b	.L566
 5105              	.LVL513:
 5106              	.L571:
 5107              	.LBE44:
 5108              	.LBE45:
1788:bluetooth_rxtx.c **** 	cc2400_idle();
 5109              		.loc 1 1788 0 is_stmt 1
ARM GAS  /tmp/ccTiCbBl.s 			page 148


 5110 0202 0D4B     		ldr	r3, .L576+28
 5111 0204 4FF08072 		mov	r2, #16777216
 5112 0208 1A60     		str	r2, [r3]
1789:bluetooth_rxtx.c **** 	dio_ssp_stop ();
 5113              		.loc 1 1789 0
 5114 020a FFF7FEFF 		bl	cc2400_idle
 5115              	.LVL514:
1790:bluetooth_rxtx.c **** 	cs_trigger_disable();
 5116              		.loc 1 1790 0
 5117 020e FFF7FEFF 		bl	dio_ssp_stop
 5118              	.LVL515:
1791:bluetooth_rxtx.c **** }
 5119              		.loc 1 1791 0
 5120 0212 FFF7FEFF 		bl	cs_trigger_disable
 5121              	.LVL516:
1792:bluetooth_rxtx.c **** 
 5122              		.loc 1 1792 0
 5123 0216 4FB0     		add	sp, sp, #316
 5124              		@ sp needed
 5125 0218 BDE8F08F 		pop	{r4, r5, r6, r7, r8, r9, r10, fp, pc}
 5126              	.LVL517:
 5127              	.L577:
 5128              		.align	2
 5129              	.L576:
 5130 021c 00000000 		.word	.LANCHOR0
 5131 0220 00000000 		.word	clkn
 5132 0224 00000000 		.word	.LANCHOR1
 5133 0228 00E100E0 		.word	-536813312
 5134 022c 3CC00920 		.word	537509948
 5135 0230 08400040 		.word	1073758216
 5136 0234 38C00920 		.word	537509944
 5137 0238 80E100E0 		.word	-536813184
 5138              		.cfi_endproc
 5139              	.LFE23:
 5141              		.section	.text.bt_le_sync,"ax",%progbits
 5142              		.align	1
 5143              		.global	bt_le_sync
 5144              		.thumb
 5145              		.thumb_func
 5147              	bt_le_sync:
 5148              	.LFB24:
1796:bluetooth_rxtx.c **** 	int i;
 5149              		.loc 1 1796 0
 5150              		.cfi_startproc
 5151              		@ args = 0, pretend = 0, frame = 64
 5152              		@ frame_needed = 0, uses_anonymous_args = 0
 5153              	.LVL518:
 5154 0000 2DE9F04F 		push	{r4, r5, r6, r7, r8, r9, r10, fp, lr}
 5155              		.cfi_def_cfa_offset 36
 5156              		.cfi_offset 4, -36
 5157              		.cfi_offset 5, -32
 5158              		.cfi_offset 6, -28
 5159              		.cfi_offset 7, -24
 5160              		.cfi_offset 8, -20
 5161              		.cfi_offset 9, -16
 5162              		.cfi_offset 10, -12
 5163              		.cfi_offset 11, -8
ARM GAS  /tmp/ccTiCbBl.s 			page 149


 5164              		.cfi_offset 14, -4
 5165 0004 91B0     		sub	sp, sp, #68
 5166              		.cfi_def_cfa_offset 104
 5167              	.LVL519:
1802:bluetooth_rxtx.c **** 	mode = active_mode;
 5168              		.loc 1 1802 0
 5169 0006 AF4C     		ldr	r4, .L645
1805:bluetooth_rxtx.c **** 
 5170              		.loc 1 1805 0
 5171 0008 AF4D     		ldr	r5, .L645+4
1802:bluetooth_rxtx.c **** 	mode = active_mode;
 5172              		.loc 1 1802 0
 5173 000a 0123     		movs	r3, #1
 5174 000c 2370     		strb	r3, [r4]
1805:bluetooth_rxtx.c **** 
 5175              		.loc 1 1805 0
 5176 000e 2B76     		strb	r3, [r5, #24]
1808:bluetooth_rxtx.c **** 
 5177              		.loc 1 1808 0
 5178 0010 AE4B     		ldr	r3, .L645+8
 5179 0012 4FF08072 		mov	r2, #16777216
1803:bluetooth_rxtx.c **** 
 5180              		.loc 1 1803 0
 5181 0016 6074     		strb	r0, [r4, #17]
1808:bluetooth_rxtx.c **** 
 5182              		.loc 1 1808 0
 5183 0018 1A60     		str	r2, [r3]
1810:bluetooth_rxtx.c **** 
 5184              		.loc 1 1810 0
 5185 001a AD4B     		ldr	r3, .L645+12
 5186 001c 1022     		movs	r2, #16
 5187 001e 1A60     		str	r2, [r3]
1796:bluetooth_rxtx.c **** 	int i;
 5188              		.loc 1 1796 0
 5189 0020 0646     		mov	r6, r0
1812:bluetooth_rxtx.c **** 	dio_ssp_init();
 5190              		.loc 1 1812 0
 5191 0022 FFF7FEFF 		bl	queue_init
 5192              	.LVL520:
1813:bluetooth_rxtx.c **** 	dma_init_le();
 5193              		.loc 1 1813 0
 5194 0026 FFF7FEFF 		bl	dio_ssp_init
 5195              	.LVL521:
1814:bluetooth_rxtx.c **** 	dio_ssp_start();
 5196              		.loc 1 1814 0
 5197 002a FFF7FEFF 		bl	dma_init_le
 5198              	.LVL522:
1815:bluetooth_rxtx.c **** 
 5199              		.loc 1 1815 0
 5200 002e FFF7FEFF 		bl	dio_ssp_start
 5201              	.LVL523:
1817:bluetooth_rxtx.c **** 
 5202              		.loc 1 1817 0
 5203 0032 6868     		ldr	r0, [r5, #4]
 5204 0034 FFF7FEFF 		bl	rbit
 5205              	.LVL524:
 5206 0038 FFF7FEFF 		bl	cc2400_rx_sync
ARM GAS  /tmp/ccTiCbBl.s 			page 150


 5207              	.LVL525:
 5208              	.L579:
1819:bluetooth_rxtx.c **** 		if (requested_channel != 0) {
 5209              		.loc 1 1819 0 discriminator 1
 5210 003c A37C     		ldrb	r3, [r4, #18]	@ zero_extendqisi2
 5211 003e B342     		cmp	r3, r6
 5212 0040 40F0E281 		bne	.L619
 5213              	.LBB46:
1820:bluetooth_rxtx.c **** 			cc2400_strobe(SRFOFF);
 5214              		.loc 1 1820 0
 5215 0044 9F4B     		ldr	r3, .L645
 5216 0046 DB89     		ldrh	r3, [r3, #14]
 5217 0048 9BB2     		uxth	r3, r3
 5218 004a CBB1     		cbz	r3, .L580
1821:bluetooth_rxtx.c **** 			while ((cc2400_status() & FS_LOCK)); // need to wait for unlock?
 5219              		.loc 1 1821 0
 5220 004c 6420     		movs	r0, #100
 5221 004e FFF7FEFF 		bl	cc2400_strobe
 5222              	.LVL526:
 5223              	.L582:
1822:bluetooth_rxtx.c **** 
 5224              		.loc 1 1822 0 discriminator 1
 5225 0052 FFF7FEFF 		bl	cc2400_status
 5226              	.LVL527:
 5227 0056 4007     		lsls	r0, r0, #29
 5228 0058 FBD4     		bmi	.L582
1825:bluetooth_rxtx.c **** 
 5229              		.loc 1 1825 0
 5230 005a 2988     		ldrh	r1, [r5]
 5231 005c 0220     		movs	r0, #2
 5232 005e 89B2     		uxth	r1, r1
 5233 0060 0139     		subs	r1, r1, #1
 5234 0062 89B2     		uxth	r1, r1
 5235 0064 FFF7FEFF 		bl	cc2400_set
 5236              	.LVL528:
1828:bluetooth_rxtx.c **** 			while (!(cc2400_status() & FS_LOCK));
 5237              		.loc 1 1828 0
 5238 0068 6120     		movs	r0, #97
 5239 006a FFF7FEFF 		bl	cc2400_strobe
 5240              	.LVL529:
 5241              	.L584:
1829:bluetooth_rxtx.c **** 
 5242              		.loc 1 1829 0 discriminator 1
 5243 006e FFF7FEFF 		bl	cc2400_status
 5244              	.LVL530:
 5245 0072 4107     		lsls	r1, r0, #29
 5246 0074 FBD5     		bpl	.L584
1832:bluetooth_rxtx.c **** 
 5247              		.loc 1 1832 0
 5248 0076 6220     		movs	r0, #98
 5249 0078 FFF7FEFF 		bl	cc2400_strobe
 5250              	.LVL531:
1834:bluetooth_rxtx.c **** 		}
 5251              		.loc 1 1834 0
 5252 007c 0023     		movs	r3, #0
 5253 007e E381     		strh	r3, [r4, #14]	@ movhi
 5254              	.L580:
ARM GAS  /tmp/ccTiCbBl.s 			page 151


1837:bluetooth_rxtx.c **** 
 5255              		.loc 1 1837 0
 5256 0080 934B     		ldr	r3, .L645+12
 5257 0082 1022     		movs	r2, #16
 5258 0084 1A60     		str	r2, [r3]
1840:bluetooth_rxtx.c **** 		while ((rx_tc == 0) && (rx_err == 0) && (do_hop == 0) && requested_mode == active_mode)	;
 5259              		.loc 1 1840 0
 5260 0086 FFF7FEFF 		bl	rssi_reset
 5261              	.LVL532:
 5262              	.L586:
1841:bluetooth_rxtx.c **** 
 5263              		.loc 1 1841 0 discriminator 1
 5264 008a 924B     		ldr	r3, .L645+16
 5265 008c 1A68     		ldr	r2, [r3]
 5266 008e 9946     		mov	r9, r3
 5267 0090 42B9     		cbnz	r2, .L585
1841:bluetooth_rxtx.c **** 
 5268              		.loc 1 1841 0 is_stmt 0 discriminator 2
 5269 0092 914B     		ldr	r3, .L645+20
 5270 0094 1B68     		ldr	r3, [r3]
 5271 0096 2BB9     		cbnz	r3, .L585
1841:bluetooth_rxtx.c **** 
 5272              		.loc 1 1841 0 discriminator 1
 5273 0098 E37A     		ldrb	r3, [r4, #11]	@ zero_extendqisi2
 5274 009a 1BB9     		cbnz	r3, .L585
 5275 009c 894B     		ldr	r3, .L645
 5276 009e 9B7C     		ldrb	r3, [r3, #18]	@ zero_extendqisi2
 5277 00a0 B342     		cmp	r3, r6
 5278 00a2 F2D0     		beq	.L586
 5279              	.L585:
1843:bluetooth_rxtx.c **** 		rssi_min = rssi_max = rssi;
 5280              		.loc 1 1843 0 is_stmt 1
 5281 00a4 0620     		movs	r0, #6
 5282 00a6 FFF7FEFF 		bl	cc2400_get
 5283              	.LVL533:
1844:bluetooth_rxtx.c **** 
 5284              		.loc 1 1844 0
 5285 00aa 8C4B     		ldr	r3, .L645+24
1843:bluetooth_rxtx.c **** 		rssi_min = rssi_max = rssi;
 5286              		.loc 1 1843 0
 5287 00ac C0F30720 		ubfx	r0, r0, #8, #8
 5288              	.LVL534:
1846:bluetooth_rxtx.c **** 			goto cleanup;
 5289              		.loc 1 1846 0
 5290 00b0 A27C     		ldrb	r2, [r4, #18]	@ zero_extendqisi2
1844:bluetooth_rxtx.c **** 
 5291              		.loc 1 1844 0
 5292 00b2 1870     		strb	r0, [r3]
 5293 00b4 8A4B     		ldr	r3, .L645+28
1846:bluetooth_rxtx.c **** 			goto cleanup;
 5294              		.loc 1 1846 0
 5295 00b6 B242     		cmp	r2, r6
1844:bluetooth_rxtx.c **** 
 5296              		.loc 1 1844 0
 5297 00b8 1870     		strb	r0, [r3]
1846:bluetooth_rxtx.c **** 			goto cleanup;
 5298              		.loc 1 1846 0
ARM GAS  /tmp/ccTiCbBl.s 			page 152


 5299 00ba 824B     		ldr	r3, .L645
 5300 00bc 40F0A481 		bne	.L619
1850:bluetooth_rxtx.c **** 			status |= DMA_ERROR;
 5301              		.loc 1 1850 0
 5302 00c0 854F     		ldr	r7, .L645+20
 5303 00c2 3A68     		ldr	r2, [r7]
 5304 00c4 BB46     		mov	fp, r7
 5305 00c6 1AB1     		cbz	r2, .L588
1851:bluetooth_rxtx.c **** 		}
 5306              		.loc 1 1851 0
 5307 00c8 5A78     		ldrb	r2, [r3, #1]	@ zero_extendqisi2
 5308 00ca 42F00202 		orr	r2, r2, #2
 5309 00ce 5A70     		strb	r2, [r3, #1]
 5310              	.L588:
1854:bluetooth_rxtx.c **** 			goto rx_flush;
 5311              		.loc 1 1854 0
 5312 00d0 E37A     		ldrb	r3, [r4, #11]	@ zero_extendqisi2
 5313 00d2 03F0FF01 		and	r1, r3, #255
 5314 00d6 002B     		cmp	r3, #0
 5315 00d8 40F0E480 		bne	.L589
1858:bluetooth_rxtx.c **** 			continue;
 5316              		.loc 1 1858 0
 5317 00dc D9F80030 		ldr	r3, [r9]
 5318 00e0 002B     		cmp	r3, #0
 5319 00e2 ABD0     		beq	.L579
1864:bluetooth_rxtx.c **** 		u8 *p = (u8 *)packet;
 5320              		.loc 1 1864 0
 5321 00e4 3422     		movs	r2, #52
 5322 00e6 03A8     		add	r0, sp, #12
 5323              	.LVL535:
 5324 00e8 FFF7FEFF 		bl	memset
 5325              	.LVL536:
1868:bluetooth_rxtx.c **** 		for (i = 0; i < 4; i+= 4) {
 5326              		.loc 1 1868 0
 5327 00ec 2888     		ldrh	r0, [r5]
1866:bluetooth_rxtx.c **** 
 5328              		.loc 1 1866 0
 5329 00ee 6B68     		ldr	r3, [r5, #4]
1868:bluetooth_rxtx.c **** 		for (i = 0; i < 4; i+= 4) {
 5330              		.loc 1 1868 0
 5331 00f0 80B2     		uxth	r0, r0
 5332 00f2 6238     		subs	r0, r0, #98
 5333 00f4 C0B2     		uxtb	r0, r0
1866:bluetooth_rxtx.c **** 
 5334              		.loc 1 1866 0
 5335 00f6 0393     		str	r3, [sp, #12]
1868:bluetooth_rxtx.c **** 		for (i = 0; i < 4; i+= 4) {
 5336              		.loc 1 1868 0
 5337 00f8 FFF7FEFF 		bl	btle_channel_index
 5338              	.LVL537:
 5339 00fc 4FF03008 		mov	r8, #48
 5340 0100 08FB00F8 		mul	r8, r8, r0
 5341 0104 DFF804A2 		ldr	r10, .L645+72
 5342 0108 0AEB0803 		add	r3, r10, r8
 5343 010c 0193     		str	r3, [sp, #4]
 5344              	.LVL538:
 5345              	.LBB47:
ARM GAS  /tmp/ccTiCbBl.s 			page 153


1870:bluetooth_rxtx.c **** 					   | rxbuf1[i+1] << 16
 5346              		.loc 1 1870 0
 5347 010e 754B     		ldr	r3, .L645+32
 5348              	.LVL539:
 5349 0110 93F800E0 		ldrb	lr, [r3]	@ zero_extendqisi2
1871:bluetooth_rxtx.c **** 					   | rxbuf1[i+2] << 8
 5350              		.loc 1 1871 0
 5351 0114 5A78     		ldrb	r2, [r3, #1]	@ zero_extendqisi2
1872:bluetooth_rxtx.c **** 					   | rxbuf1[i+3] << 0;
 5352              		.loc 1 1872 0
 5353 0116 9878     		ldrb	r0, [r3, #2]	@ zero_extendqisi2
1871:bluetooth_rxtx.c **** 					   | rxbuf1[i+2] << 8
 5354              		.loc 1 1871 0
 5355 0118 1204     		lsls	r2, r2, #16
1873:bluetooth_rxtx.c **** 			packet[i/4+1] = rbit(v) ^ whit[i/4];
 5356              		.loc 1 1873 0
 5357 011a D978     		ldrb	r1, [r3, #3]	@ zero_extendqisi2
 5358              	.LVL540:
1871:bluetooth_rxtx.c **** 					   | rxbuf1[i+2] << 8
 5359              		.loc 1 1871 0
 5360 011c 42EA0E62 		orr	r2, r2, lr, lsl #24
1872:bluetooth_rxtx.c **** 					   | rxbuf1[i+3] << 0;
 5361              		.loc 1 1872 0
 5362 0120 0A43     		orrs	r2, r2, r1
1874:bluetooth_rxtx.c **** 		}
 5363              		.loc 1 1874 0
 5364 0122 42EA0020 		orr	r0, r2, r0, lsl #8
 5365 0126 0093     		str	r3, [sp]
 5366 0128 FFF7FEFF 		bl	rbit
 5367              	.LVL541:
 5368 012c 5AF80820 		ldr	r2, [r10, r8]
 5369              	.LBE47:
1878:bluetooth_rxtx.c **** 			goto rx_flush;
 5370              		.loc 1 1878 0
 5371 0130 009B     		ldr	r3, [sp]
 5372              	.LBB48:
1874:bluetooth_rxtx.c **** 		}
 5373              		.loc 1 1874 0
 5374 0132 5040     		eors	r0, r0, r2
 5375              	.LBE48:
1877:bluetooth_rxtx.c **** 		if (len > 39)
 5376              		.loc 1 1877 0
 5377 0134 C0F3052A 		ubfx	r10, r0, #8, #6
 5378 0138 0AF10208 		add	r8, r10, #2
1878:bluetooth_rxtx.c **** 			goto rx_flush;
 5379              		.loc 1 1878 0
 5380 013c B8F1270F 		cmp	r8, #39
 5381              	.LBB49:
1874:bluetooth_rxtx.c **** 		}
 5382              		.loc 1 1874 0
 5383 0140 0490     		str	r0, [sp, #16]
 5384              	.LVL542:
 5385              	.LBE49:
1878:bluetooth_rxtx.c **** 			goto rx_flush;
 5386              		.loc 1 1878 0
 5387 0142 00F2AF80 		bhi	.L589
1883:bluetooth_rxtx.c **** 		if (total_transfers < 11) {
ARM GAS  /tmp/ccTiCbBl.s 			page 154


 5388              		.loc 1 1883 0
 5389 0146 0AF1080A 		add	r10, r10, #8
 5390 014a 4FEA9A02 		lsr	r2, r10, #2
 5391              	.LVL543:
1884:bluetooth_rxtx.c **** 			while (DMACC0DestAddr < (uint32_t)rxbuf1 + 4 * total_transfers && rx_err == 0)
 5392              		.loc 1 1884 0
 5393 014e 0B2A     		cmp	r2, #11
 5394 0150 0DD0     		beq	.L595
1885:bluetooth_rxtx.c **** 				;
 5395              		.loc 1 1885 0
 5396 0152 03EB8203 		add	r3, r3, r2, lsl #2
 5397              	.LVL544:
 5398              	.L594:
 5399 0156 644A     		ldr	r2, .L645+36
 5400 0158 1268     		ldr	r2, [r2]
 5401 015a 9A42     		cmp	r2, r3
 5402 015c 0BD2     		bcs	.L593
1885:bluetooth_rxtx.c **** 				;
 5403              		.loc 1 1885 0 is_stmt 0 discriminator 2
 5404 015e DBF80010 		ldr	r1, [fp]
 5405 0162 0029     		cmp	r1, #0
 5406 0164 F7D0     		beq	.L594
 5407 0166 06E0     		b	.L593
 5408              	.L643:
1888:bluetooth_rxtx.c **** 				;
 5409              		.loc 1 1888 0 is_stmt 1 discriminator 2
 5410 0168 DBF80030 		ldr	r3, [fp]
 5411 016c 1BB9     		cbnz	r3, .L593
 5412              	.L595:
1888:bluetooth_rxtx.c **** 				;
 5413              		.loc 1 1888 0 is_stmt 0
 5414 016e 5F4B     		ldr	r3, .L645+40
 5415 0170 1B68     		ldr	r3, [r3]
 5416 0172 DA07     		lsls	r2, r3, #31
 5417 0174 F8D4     		bmi	.L643
 5418              	.L593:
1891:bluetooth_rxtx.c **** 
 5419              		.loc 1 1891 0 is_stmt 1
 5420 0176 5E4B     		ldr	r3, .L645+44
1894:bluetooth_rxtx.c **** 
 5421              		.loc 1 1894 0
 5422 0178 6120     		movs	r0, #97
1891:bluetooth_rxtx.c **** 
 5423              		.loc 1 1891 0
 5424 017a 1A68     		ldr	r2, [r3]
1897:bluetooth_rxtx.c **** 			uint32_t v = rxbuf1[i+0] << 24
 5425              		.loc 1 1897 0
 5426 017c 4FF0040B 		mov	fp, #4
1891:bluetooth_rxtx.c **** 
 5427              		.loc 1 1891 0
 5428 0180 22F00102 		bic	r2, r2, #1
 5429 0184 1A60     		str	r2, [r3]
1894:bluetooth_rxtx.c **** 
 5430              		.loc 1 1894 0
 5431 0186 FFF7FEFF 		bl	cc2400_strobe
 5432              	.LVL545:
 5433              	.L597:
ARM GAS  /tmp/ccTiCbBl.s 			page 155


 5434              	.LBB50:
1898:bluetooth_rxtx.c **** 					   | rxbuf1[i+1] << 16
 5435              		.loc 1 1898 0 discriminator 2
 5436 018a 564A     		ldr	r2, .L645+32
 5437 018c 0BF10100 		add	r0, fp, #1
 5438 0190 12F80B10 		ldrb	r1, [r2, fp]	@ zero_extendqisi2
 5439 0194 0BF1030C 		add	ip, fp, #3
1899:bluetooth_rxtx.c **** 					   | rxbuf1[i+2] << 8
 5440              		.loc 1 1899 0 discriminator 2
 5441 0198 12F800E0 		ldrb	lr, [r2, r0]	@ zero_extendqisi2
 5442 019c 0BF10200 		add	r0, fp, #2
1900:bluetooth_rxtx.c **** 					   | rxbuf1[i+3] << 0;
 5443              		.loc 1 1900 0 discriminator 2
 5444 01a0 105C     		ldrb	r0, [r2, r0]	@ zero_extendqisi2
1901:bluetooth_rxtx.c **** 			packet[i/4+1] = rbit(v) ^ whit[i/4];
 5445              		.loc 1 1901 0 discriminator 2
 5446 01a2 12F80CC0 		ldrb	ip, [r2, ip]	@ zero_extendqisi2
 5447              	.LVL546:
1902:bluetooth_rxtx.c **** 		}
 5448              		.loc 1 1902 0 discriminator 2
 5449 01a6 4FEAAB02 		asr	r2, fp, #2
1899:bluetooth_rxtx.c **** 					   | rxbuf1[i+2] << 8
 5450              		.loc 1 1899 0 discriminator 2
 5451 01aa 4CEA0161 		orr	r1, ip, r1, lsl #24
 5452              	.LVL547:
1900:bluetooth_rxtx.c **** 					   | rxbuf1[i+3] << 0;
 5453              		.loc 1 1900 0 discriminator 2
 5454 01ae 41EA0E41 		orr	r1, r1, lr, lsl #16
1902:bluetooth_rxtx.c **** 		}
 5455              		.loc 1 1902 0 discriminator 2
 5456 01b2 41EA0020 		orr	r0, r1, r0, lsl #8
 5457 01b6 0092     		str	r2, [sp]
 5458 01b8 FFF7FEFF 		bl	rbit
 5459              	.LVL548:
 5460 01bc 009A     		ldr	r2, [sp]
 5461 01be 10AB     		add	r3, sp, #64
 5462 01c0 03EB8201 		add	r1, r3, r2, lsl #2
 5463 01c4 019B     		ldr	r3, [sp, #4]
 5464              	.LBE50:
1897:bluetooth_rxtx.c **** 			uint32_t v = rxbuf1[i+0] << 24
 5465              		.loc 1 1897 0 discriminator 2
 5466 01c6 0BF1040B 		add	fp, fp, #4
 5467              	.LVL549:
 5468              	.LBB51:
1902:bluetooth_rxtx.c **** 		}
 5469              		.loc 1 1902 0 discriminator 2
 5470 01ca 53F82220 		ldr	r2, [r3, r2, lsl #2]
 5471              	.LBE51:
1897:bluetooth_rxtx.c **** 			uint32_t v = rxbuf1[i+0] << 24
 5472              		.loc 1 1897 0 discriminator 2
 5473 01ce BBF12C0F 		cmp	fp, #44
 5474              	.LBB52:
1902:bluetooth_rxtx.c **** 		}
 5475              		.loc 1 1902 0 discriminator 2
 5476 01d2 82EA0000 		eor	r0, r2, r0
 5477 01d6 41F8300C 		str	r0, [r1, #-48]
 5478              	.LBE52:
ARM GAS  /tmp/ccTiCbBl.s 			page 156


1897:bluetooth_rxtx.c **** 			uint32_t v = rxbuf1[i+0] << 24
 5479              		.loc 1 1897 0 discriminator 2
 5480 01da D6D1     		bne	.L597
1905:bluetooth_rxtx.c **** 			u32 calc_crc = btle_crcgen_lut(le.crc_init_reversed, p + 4, len);
 5481              		.loc 1 1905 0
 5482 01dc 6B69     		ldr	r3, [r5, #20]
 5483 01de 33B9     		cbnz	r3, .L598
 5484              	.L601:
1916:bluetooth_rxtx.c **** 			sync_flag = 1;
 5485              		.loc 1 1916 0
 5486 01e0 9DF82330 		ldrb	r3, [sp, #35]	@ zero_extendqisi2
 5487 01e4 DFF820A1 		ldr	r10, .L645+68
 5488              	.LVL550:
 5489 01e8 FF2B     		cmp	r3, #255
 5490 01ea 33D1     		bne	.L624
 5491 01ec 17E0     		b	.L599
 5492              	.LVL551:
 5493              	.L598:
 5494              	.LBB53:
1906:bluetooth_rxtx.c **** 			u32 wire_crc = (p[4+len+2] << 16)
 5495              		.loc 1 1906 0
 5496 01ee 364B     		ldr	r3, .L645+4
 5497 01f0 04A9     		add	r1, sp, #16
 5498 01f2 1869     		ldr	r0, [r3, #16]
 5499 01f4 4246     		mov	r2, r8
 5500 01f6 FFF7FEFF 		bl	btle_crcgen_lut
 5501              	.LVL552:
1907:bluetooth_rxtx.c **** 						 | (p[4+len+1] << 8)
 5502              		.loc 1 1907 0
 5503 01fa 10AB     		add	r3, sp, #64
 5504 01fc 5344     		add	r3, r3, r10
 5505 01fe 13F8342C 		ldrb	r2, [r3, #-52]	@ zero_extendqisi2
1908:bluetooth_rxtx.c **** 						 | (p[4+len+0] << 0);
 5506              		.loc 1 1908 0
 5507 0202 10AB     		add	r3, sp, #64
 5508 0204 4344     		add	r3, r3, r8
 5509 0206 13F82F1C 		ldrb	r1, [r3, #-47]	@ zero_extendqisi2
 5510 020a 0902     		lsls	r1, r1, #8
 5511 020c 41EA0241 		orr	r1, r1, r2, lsl #16
1909:bluetooth_rxtx.c **** 			if (calc_crc != wire_crc) // skip packets with a bad CRC
 5512              		.loc 1 1909 0
 5513 0210 13F8302C 		ldrb	r2, [r3, #-48]	@ zero_extendqisi2
 5514 0214 41EA0203 		orr	r3, r1, r2
1910:bluetooth_rxtx.c **** 				goto rx_flush;
 5515              		.loc 1 1910 0
 5516 0218 9842     		cmp	r0, r3
 5517 021a 43D1     		bne	.L589
 5518 021c E0E7     		b	.L601
 5519              	.LVL553:
 5520              	.L599:
 5521              	.LBE53:
1916:bluetooth_rxtx.c **** 			sync_flag = 1;
 5522              		.loc 1 1916 0 discriminator 1
 5523 021e 9DF82430 		ldrb	r3, [sp, #36]	@ zero_extendqisi2
 5524 0222 532B     		cmp	r3, #83
 5525 0224 16D1     		bne	.L624
 5526 0226 9DF82530 		ldrb	r3, [sp, #37]	@ zero_extendqisi2
ARM GAS  /tmp/ccTiCbBl.s 			page 157


 5527 022a 592B     		cmp	r3, #89
 5528 022c 12D1     		bne	.L624
 5529 022e 9DF82630 		ldrb	r3, [sp, #38]	@ zero_extendqisi2
 5530 0232 4E2B     		cmp	r3, #78
 5531 0234 0ED1     		bne	.L624
 5532 0236 9DF82730 		ldrb	r3, [sp, #39]	@ zero_extendqisi2
 5533 023a 432B     		cmp	r3, #67
 5534 023c 0AD1     		bne	.L624
 5535              	.LVL554:
1918:bluetooth_rxtx.c **** 			start_sync = now_sync + 100 * 10000 / 3125; // wait for 100 ms
 5536              		.loc 1 1918 0
 5537 023e DAF80030 		ldr	r3, [r10]
1917:bluetooth_rxtx.c **** 			now_sync = (clkn & 0xffffff);
 5538              		.loc 1 1917 0
 5539 0242 4FF00108 		mov	r8, #1
 5540              	.LVL555:
1918:bluetooth_rxtx.c **** 			start_sync = now_sync + 100 * 10000 / 3125; // wait for 100 ms
 5541              		.loc 1 1918 0
 5542 0246 23F07F43 		bic	r3, r3, #-16777216
 5543 024a E362     		str	r3, [r4, #44]
1919:bluetooth_rxtx.c **** //			sync_channel = (u16)p[28];
 5544              		.loc 1 1919 0
 5545 024c 03F5A073 		add	r3, r3, #320
 5546 0250 A362     		str	r3, [r4, #40]
 5547 0252 01E0     		b	.L600
 5548              	.LVL556:
 5549              	.L624:
 5550 0254 4FF00008 		mov	r8, #0
 5551              	.LVL557:
 5552              	.L600:
1924:bluetooth_rxtx.c **** 		packet_cb((uint8_t *)packet);
 5553              		.loc 1 1924 0
 5554 0258 264B     		ldr	r3, .L645+48
 5555 025a 1022     		movs	r2, #16
 5556 025c 1A60     		str	r2, [r3]
1925:bluetooth_rxtx.c **** 
 5557              		.loc 1 1925 0
 5558 025e 03A8     		add	r0, sp, #12
 5559              	.LVL558:
 5560 0260 A369     		ldr	r3, [r4, #24]
 5561 0262 9847     		blx	r3
 5562              	.LVL559:
1928:bluetooth_rxtx.c **** 		enqueue(LE_PACKET, (uint8_t *)packet);
 5563              		.loc 1 1928 0
 5564 0264 244B     		ldr	r3, .L645+52
 5565 0266 4FF0807B 		mov	fp, #16777216
 5566              	.LVL560:
 5567 026a C3F800B0 		str	fp, [r3]
1929:bluetooth_rxtx.c **** 		ISER0 = ISER0_ISE_USB;
 5568              		.loc 1 1929 0
 5569 026e 03A9     		add	r1, sp, #12
 5570              	.LVL561:
 5571 0270 0120     		movs	r0, #1
 5572 0272 FFF7FEFF 		bl	enqueue
 5573              	.LVL562:
1930:bluetooth_rxtx.c **** 
 5574              		.loc 1 1930 0
ARM GAS  /tmp/ccTiCbBl.s 			page 158


 5575 0276 154B     		ldr	r3, .L645+8
1932:bluetooth_rxtx.c **** 
 5576              		.loc 1 1932 0
 5577 0278 204A     		ldr	r2, .L645+56
1930:bluetooth_rxtx.c **** 
 5578              		.loc 1 1930 0
 5579 027a C3F800B0 		str	fp, [r3]
1932:bluetooth_rxtx.c **** 
 5580              		.loc 1 1932 0
 5581 027e DAF80030 		ldr	r3, [r10]
 5582 0282 1268     		ldr	r2, [r2]
 5583 0284 C3F31303 		ubfx	r3, r3, #0, #20
 5584 0288 40F63541 		movw	r1, #3125
 5585 028c 01FB0323 		mla	r3, r1, r3, r2
 5586 0290 6B64     		str	r3, [r5, #68]
1935:bluetooth_rxtx.c **** 			requested_mode = MODE_BT_RSSI_LE;
 5587              		.loc 1 1935 0
 5588 0292 B8F1000F 		cmp	r8, #0
 5589 0296 05D0     		beq	.L589
 5590              	.LVL563:
1936:bluetooth_rxtx.c **** 			bt_le_sync_rssi(MODE_BT_RSSI_LE);
 5591              		.loc 1 1936 0
 5592 0298 0A4B     		ldr	r3, .L645
 5593 029a 1220     		movs	r0, #18
 5594 029c 9874     		strb	r0, [r3, #18]
1937:bluetooth_rxtx.c **** 			goto cleanup;
 5595              		.loc 1 1937 0
 5596 029e FFF7FEFF 		bl	bt_le_sync_rssi
 5597              	.LVL564:
1938:bluetooth_rxtx.c **** 		}
 5598              		.loc 1 1938 0
 5599 02a2 B1E0     		b	.L619
 5600              	.LVL565:
 5601              	.L589:
 5602              	.LDL1:
1943:bluetooth_rxtx.c **** 
 5603              		.loc 1 1943 0
 5604 02a4 6120     		movs	r0, #97
 5605 02a6 FFF7FEFF 		bl	cc2400_strobe
 5606              	.LVL566:
1946:bluetooth_rxtx.c **** 		while (SSP1SR & SSPSR_RNE) {
 5607              		.loc 1 1946 0
 5608 02aa 114B     		ldr	r3, .L645+44
 5609 02ac 1A68     		ldr	r2, [r3]
 5610 02ae 22F00102 		bic	r2, r2, #1
 5611 02b2 1A60     		str	r2, [r3]
 5612              	.L603:
1947:bluetooth_rxtx.c **** 			u8 tmp = (u8)DIO_SSP_DR;
 5613              		.loc 1 1947 0 discriminator 1
 5614 02b4 124B     		ldr	r3, .L645+60
 5615 02b6 1B68     		ldr	r3, [r3]
 5616 02b8 5B07     		lsls	r3, r3, #29
 5617 02ba 29D5     		bpl	.L644
 5618              	.LBB54:
1948:bluetooth_rxtx.c **** 		}
 5619              		.loc 1 1948 0
 5620 02bc 114B     		ldr	r3, .L645+64
ARM GAS  /tmp/ccTiCbBl.s 			page 159


 5621 02be 1B68     		ldr	r3, [r3]
 5622 02c0 F8E7     		b	.L603
 5623              	.L646:
 5624 02c2 00BF     		.align	2
 5625              	.L645:
 5626 02c4 00000000 		.word	.LANCHOR0
 5627 02c8 00000000 		.word	.LANCHOR1
 5628 02cc 00E100E0 		.word	-536813312
 5629 02d0 3CC00920 		.word	537509948
 5630 02d4 00000000 		.word	rx_tc
 5631 02d8 00000000 		.word	rx_err
 5632 02dc 00000000 		.word	rssi_max
 5633 02e0 00000000 		.word	rssi_min
 5634 02e4 00000000 		.word	rxbuf1
 5635 02e8 04410050 		.word	1342193924
 5636 02ec 10410050 		.word	1342193936
 5637 02f0 24000340 		.word	1073938468
 5638 02f4 38C00920 		.word	537509944
 5639 02f8 80E100E0 		.word	-536813184
 5640 02fc 08400040 		.word	1073758216
 5641 0300 0C000340 		.word	1073938444
 5642 0304 08000340 		.word	1073938440
 5643 0308 00000000 		.word	clkn
 5644 030c F0000000 		.word	.LANCHOR2+240
 5645              	.L644:
 5646              	.LBE54:
1952:bluetooth_rxtx.c **** 		if (now < le.last_packet)
 5647              		.loc 1 1952 0
 5648 0310 444B     		ldr	r3, .L647
 5649 0312 454A     		ldr	r2, .L647+4
 5650 0314 1B68     		ldr	r3, [r3]
 5651 0316 1268     		ldr	r2, [r2]
 5652 0318 40F63541 		movw	r1, #3125
 5653 031c C3F31303 		ubfx	r3, r3, #0, #20
 5654 0320 01FB0323 		mla	r3, r1, r3, r2
 5655              	.LVL567:
1953:bluetooth_rxtx.c **** 			now += 3276800000; // handle rollover
 5656              		.loc 1 1953 0
 5657 0324 6A6C     		ldr	r2, [r5, #68]
1956:bluetooth_rxtx.c **** 			&& (now - le.last_packet > 50000000))
 5658              		.loc 1 1956 0
 5659 0326 297E     		ldrb	r1, [r5, #24]	@ zero_extendqisi2
1953:bluetooth_rxtx.c **** 			now += 3276800000; // handle rollover
 5660              		.loc 1 1953 0
 5661 0328 9342     		cmp	r3, r2
1956:bluetooth_rxtx.c **** 			&& (now - le.last_packet > 50000000))
 5662              		.loc 1 1956 0
 5663 032a A1F10201 		sub	r1, r1, #2
1954:bluetooth_rxtx.c **** 		if  ( // timeout
 5664              		.loc 1 1954 0
 5665 032e 38BF     		it	cc
 5666 0330 03F14343 		addcc	r3, r3, #-1023410176
 5667              	.LVL568:
1955:bluetooth_rxtx.c **** 			((le.link_state == LINK_CONNECTED || le.link_state == LINK_CONN_PENDING)
 5668              		.loc 1 1955 0
 5669 0334 C9B2     		uxtb	r1, r1
1954:bluetooth_rxtx.c **** 		if  ( // timeout
ARM GAS  /tmp/ccTiCbBl.s 			page 160


 5670              		.loc 1 1954 0
 5671 0336 38BF     		it	cc
 5672 0338 03F5A003 		addcc	r3, r3, #5242880
 5673              	.LVL569:
1955:bluetooth_rxtx.c **** 			((le.link_state == LINK_CONNECTED || le.link_state == LINK_CONN_PENDING)
 5674              		.loc 1 1955 0
 5675 033c 0129     		cmp	r1, #1
 5676 033e 03D8     		bhi	.L606
1957:bluetooth_rxtx.c **** 			// jam finished
 5677              		.loc 1 1957 0
 5678 0340 3A49     		ldr	r1, .L647+8
 5679 0342 9B1A     		subs	r3, r3, r2
 5680              	.LVL570:
 5681 0344 8B42     		cmp	r3, r1
 5682 0346 02D8     		bhi	.L607
 5683              	.L606:
1959:bluetooth_rxtx.c **** 			)
 5684              		.loc 1 1959 0
 5685 0348 E369     		ldr	r3, [r4, #28]
 5686 034a 012B     		cmp	r3, #1
 5687 034c 27D1     		bne	.L608
 5688              	.L607:
1962:bluetooth_rxtx.c **** 			le_jam_count = 0;
 5689              		.loc 1 1962 0
 5690 034e FFF7FEFF 		bl	reset_le
 5691              	.LVL571:
1964:bluetooth_rxtx.c **** 
 5692              		.loc 1 1964 0
 5693 0352 3749     		ldr	r1, .L647+12
1963:bluetooth_rxtx.c **** 			TXLED_CLR;
 5694              		.loc 1 1963 0
 5695 0354 0023     		movs	r3, #0
1964:bluetooth_rxtx.c **** 
 5696              		.loc 1 1964 0
 5697 0356 4FF48070 		mov	r0, #256
1963:bluetooth_rxtx.c **** 			TXLED_CLR;
 5698              		.loc 1 1963 0
 5699 035a E361     		str	r3, [r4, #28]
1964:bluetooth_rxtx.c **** 
 5700              		.loc 1 1964 0
 5701 035c 0860     		str	r0, [r1]
1966:bluetooth_rxtx.c **** 				jam_mode = JAM_NONE;
 5702              		.loc 1 1966 0
 5703 035e E17C     		ldrb	r1, [r4, #19]	@ zero_extendqisi2
1963:bluetooth_rxtx.c **** 			TXLED_CLR;
 5704              		.loc 1 1963 0
 5705 0360 344A     		ldr	r2, .L647+16
1966:bluetooth_rxtx.c **** 				jam_mode = JAM_NONE;
 5706              		.loc 1 1966 0
 5707 0362 0129     		cmp	r1, #1
 5708 0364 02D1     		bne	.L609
1967:bluetooth_rxtx.c **** 				requested_mode = MODE_IDLE;
 5709              		.loc 1 1967 0
 5710 0366 D374     		strb	r3, [r2, #19]
1968:bluetooth_rxtx.c **** 				goto cleanup;
 5711              		.loc 1 1968 0
 5712 0368 9374     		strb	r3, [r2, #18]
ARM GAS  /tmp/ccTiCbBl.s 			page 161


1969:bluetooth_rxtx.c **** 			}
 5713              		.loc 1 1969 0
 5714 036a 4DE0     		b	.L619
 5715              	.L609:
1973:bluetooth_rxtx.c **** 				goto cleanup;
 5716              		.loc 1 1973 0
 5717 036c 0A2E     		cmp	r6, #10
 5718 036e 4BD0     		beq	.L619
1976:bluetooth_rxtx.c **** 
 5719              		.loc 1 1976 0
 5720 0370 0123     		movs	r3, #1
1978:bluetooth_rxtx.c **** 			while ((cc2400_status() & FS_LOCK));
 5721              		.loc 1 1978 0
 5722 0372 6420     		movs	r0, #100
1976:bluetooth_rxtx.c **** 
 5723              		.loc 1 1976 0
 5724 0374 2B76     		strb	r3, [r5, #24]
1978:bluetooth_rxtx.c **** 			while ((cc2400_status() & FS_LOCK));
 5725              		.loc 1 1978 0
 5726 0376 FFF7FEFF 		bl	cc2400_strobe
 5727              	.LVL572:
 5728              	.L611:
1979:bluetooth_rxtx.c **** 
 5729              		.loc 1 1979 0 discriminator 1
 5730 037a FFF7FEFF 		bl	cc2400_status
 5731              	.LVL573:
 5732 037e 4007     		lsls	r0, r0, #29
 5733 0380 FBD4     		bmi	.L611
1982:bluetooth_rxtx.c **** 			restart_jamming = 1;
 5734              		.loc 1 1982 0
 5735 0382 B5F84A30 		ldrh	r3, [r5, #74]
 5736 0386 9BB2     		uxth	r3, r3
 5737 0388 23B1     		cbz	r3, .L625
1982:bluetooth_rxtx.c **** 			restart_jamming = 1;
 5738              		.loc 1 1982 0 is_stmt 0 discriminator 1
 5739 038a 2B4B     		ldr	r3, .L647+20
 5740 038c B3F84A30 		ldrh	r3, [r3, #74]
 5741 0390 9BB2     		uxth	r3, r3
 5742 0392 01E0     		b	.L612
 5743              	.L625:
1982:bluetooth_rxtx.c **** 			restart_jamming = 1;
 5744              		.loc 1 1982 0
 5745 0394 40F66213 		movw	r3, #2402
 5746              	.L612:
1982:bluetooth_rxtx.c **** 			restart_jamming = 1;
 5747              		.loc 1 1982 0 discriminator 3
 5748 0398 2B80     		strh	r3, [r5]	@ movhi
1983:bluetooth_rxtx.c **** 		}
 5749              		.loc 1 1983 0 is_stmt 1 discriminator 3
 5750 039a 0123     		movs	r3, #1
 5751 039c 2363     		str	r3, [r4, #48]
 5752              	.L608:
1986:bluetooth_rxtx.c **** 		cc2400_set(SYNCH, le.synch);
 5753              		.loc 1 1986 0
 5754 039e 2C20     		movs	r0, #44
 5755 03a0 6989     		ldrh	r1, [r5, #10]
 5756 03a2 FFF7FEFF 		bl	cc2400_set
ARM GAS  /tmp/ccTiCbBl.s 			page 162


 5757              	.LVL574:
1987:bluetooth_rxtx.c **** 
 5758              		.loc 1 1987 0
 5759 03a6 2D20     		movs	r0, #45
 5760 03a8 2989     		ldrh	r1, [r5, #8]
 5761 03aa FFF7FEFF 		bl	cc2400_set
 5762              	.LVL575:
1989:bluetooth_rxtx.c **** 			hop();
 5763              		.loc 1 1989 0
 5764 03ae E37A     		ldrb	r3, [r4, #11]	@ zero_extendqisi2
 5765 03b0 0BB1     		cbz	r3, .L613
1990:bluetooth_rxtx.c **** 
 5766              		.loc 1 1990 0
 5767 03b2 FFF7FEFF 		bl	hop
 5768              	.LVL576:
 5769              	.L613:
1993:bluetooth_rxtx.c **** 			le_jam();
 5770              		.loc 1 1993 0
 5771 03b6 E369     		ldr	r3, [r4, #28]
 5772 03b8 DFF87880 		ldr	r8, .L647+16
 5773 03bc 002B     		cmp	r3, #0
 5774 03be 07DD     		ble	.L614
1994:bluetooth_rxtx.c **** 			--le_jam_count;
 5775              		.loc 1 1994 0
 5776 03c0 FFF7FEFF 		bl	le_jam
 5777              	.LVL577:
1995:bluetooth_rxtx.c **** 		} else {
 5778              		.loc 1 1995 0
 5779 03c4 D8F81C30 		ldr	r3, [r8, #28]
 5780 03c8 013B     		subs	r3, r3, #1
 5781 03ca C8F81C30 		str	r3, [r8, #28]
 5782 03ce 16E0     		b	.L615
 5783              	.L614:
1998:bluetooth_rxtx.c **** 			dio_ssp_start();
 5784              		.loc 1 1998 0
 5785 03d0 FFF7FEFF 		bl	dma_init_le
 5786              	.LVL578:
1999:bluetooth_rxtx.c **** 
 5787              		.loc 1 1999 0
 5788 03d4 FFF7FEFF 		bl	dio_ssp_start
 5789              	.LVL579:
2001:bluetooth_rxtx.c **** 				cc2400_rx_sync(rbit(le.access_address));
 5790              		.loc 1 2001 0
 5791 03d8 D8F83030 		ldr	r3, [r8, #48]
 5792 03dc 43B1     		cbz	r3, .L618
2002:bluetooth_rxtx.c **** 				restart_jamming = 0;
 5793              		.loc 1 2002 0
 5794 03de 6868     		ldr	r0, [r5, #4]
 5795 03e0 FFF7FEFF 		bl	rbit
 5796              	.LVL580:
 5797 03e4 FFF7FEFF 		bl	cc2400_rx_sync
 5798              	.LVL581:
2003:bluetooth_rxtx.c **** 			} else {
 5799              		.loc 1 2003 0
 5800 03e8 0023     		movs	r3, #0
 5801 03ea C8F83030 		str	r3, [r8, #48]
 5802 03ee 06E0     		b	.L615
ARM GAS  /tmp/ccTiCbBl.s 			page 163


 5803              	.L618:
2006:bluetooth_rxtx.c **** 				cc2400_strobe(SRX);
 5804              		.loc 1 2006 0
 5805 03f0 FFF7FEFF 		bl	cc2400_status
 5806              	.LVL582:
 5807 03f4 4107     		lsls	r1, r0, #29
 5808 03f6 FBD5     		bpl	.L618
2007:bluetooth_rxtx.c **** 			}
 5809              		.loc 1 2007 0
 5810 03f8 6220     		movs	r0, #98
 5811 03fa FFF7FEFF 		bl	cc2400_strobe
 5812              	.LVL583:
 5813              	.L615:
2011:bluetooth_rxtx.c **** 		rx_err = 0;
 5814              		.loc 1 2011 0 discriminator 1
 5815 03fe 0023     		movs	r3, #0
 5816 0400 C9F80030 		str	r3, [r9]
2012:bluetooth_rxtx.c **** 	}
 5817              		.loc 1 2012 0 discriminator 1
 5818 0404 3B60     		str	r3, [r7]
 5819 0406 19E6     		b	.L579
 5820              	.LVL584:
 5821              	.L619:
 5822              	.LBE46:
2018:bluetooth_rxtx.c **** 
 5823              		.loc 1 2018 0
 5824 0408 0C4B     		ldr	r3, .L647+24
 5825 040a 4FF08072 		mov	r2, #16777216
 5826 040e 1A60     		str	r2, [r3]
2021:bluetooth_rxtx.c **** 	dio_ssp_stop();
 5827              		.loc 1 2021 0
 5828 0410 FFF7FEFF 		bl	cc2400_idle
 5829              	.LVL585:
2022:bluetooth_rxtx.c **** 	cs_trigger_disable();
 5830              		.loc 1 2022 0
 5831 0414 FFF7FEFF 		bl	dio_ssp_stop
 5832              	.LVL586:
2023:bluetooth_rxtx.c **** }
 5833              		.loc 1 2023 0
 5834 0418 FFF7FEFF 		bl	cs_trigger_disable
 5835              	.LVL587:
2024:bluetooth_rxtx.c **** 
 5836              		.loc 1 2024 0
 5837 041c 11B0     		add	sp, sp, #68
 5838              		@ sp needed
 5839 041e BDE8F08F 		pop	{r4, r5, r6, r7, r8, r9, r10, fp, pc}
 5840              	.L648:
 5841 0422 00BF     		.align	2
 5842              	.L647:
 5843 0424 00000000 		.word	clkn
 5844 0428 08400040 		.word	1073758216
 5845 042c 80F0FA02 		.word	50000000
 5846 0430 3CC00920 		.word	537509948
 5847 0434 00000000 		.word	.LANCHOR0
 5848 0438 00000000 		.word	.LANCHOR1
 5849 043c 80E100E0 		.word	-536813184
 5850              		.cfi_endproc
ARM GAS  /tmp/ccTiCbBl.s 			page 164


 5851              	.LFE24:
 5853              		.section	.text.bt_le_sync_cfo,"ax",%progbits
 5854              		.align	1
 5855              		.global	bt_le_sync_cfo
 5856              		.thumb
 5857              		.thumb_func
 5859              	bt_le_sync_cfo:
 5860              	.LFB25:
2028:bluetooth_rxtx.c **** 	int i;
 5861              		.loc 1 2028 0
 5862              		.cfi_startproc
 5863              		@ args = 0, pretend = 0, frame = 112
 5864              		@ frame_needed = 0, uses_anonymous_args = 0
 5865              	.LVL588:
 5866 0000 2DE9F04F 		push	{r4, r5, r6, r7, r8, r9, r10, fp, lr}
 5867              		.cfi_def_cfa_offset 36
 5868              		.cfi_offset 4, -36
 5869              		.cfi_offset 5, -32
 5870              		.cfi_offset 6, -28
 5871              		.cfi_offset 7, -24
 5872              		.cfi_offset 8, -20
 5873              		.cfi_offset 9, -16
 5874              		.cfi_offset 10, -12
 5875              		.cfi_offset 11, -8
 5876              		.cfi_offset 14, -4
 5877 0004 9DB0     		sub	sp, sp, #116
 5878              		.cfi_def_cfa_offset 152
2032:bluetooth_rxtx.c **** 
 5879              		.loc 1 2032 0
 5880 0006 0021     		movs	r1, #0
2028:bluetooth_rxtx.c **** 	int i;
 5881              		.loc 1 2028 0
 5882 0008 0746     		mov	r7, r0
2032:bluetooth_rxtx.c **** 
 5883              		.loc 1 2032 0
 5884 000a 3222     		movs	r2, #50
2034:bluetooth_rxtx.c **** 	mode = active_mode;
 5885              		.loc 1 2034 0
 5886 000c A84D     		ldr	r5, .L713
2037:bluetooth_rxtx.c **** 
 5887              		.loc 1 2037 0
 5888 000e A94C     		ldr	r4, .L713+4
2032:bluetooth_rxtx.c **** 
 5889              		.loc 1 2032 0
 5890 0010 02A8     		add	r0, sp, #8
 5891              	.LVL589:
 5892 0012 FFF7FEFF 		bl	memset
 5893              	.LVL590:
2034:bluetooth_rxtx.c **** 	mode = active_mode;
 5894              		.loc 1 2034 0
 5895 0016 0123     		movs	r3, #1
 5896 0018 2B70     		strb	r3, [r5]
2037:bluetooth_rxtx.c **** 
 5897              		.loc 1 2037 0
 5898 001a 2376     		strb	r3, [r4, #24]
2039:bluetooth_rxtx.c **** 	RXLED_CLR;
 5899              		.loc 1 2039 0
ARM GAS  /tmp/ccTiCbBl.s 			page 165


 5900 001c A64B     		ldr	r3, .L713+8
 5901 001e 4FF08072 		mov	r2, #16777216
2035:bluetooth_rxtx.c **** 
 5902              		.loc 1 2035 0
 5903 0022 6F74     		strb	r7, [r5, #17]
2039:bluetooth_rxtx.c **** 	RXLED_CLR;
 5904              		.loc 1 2039 0
 5905 0024 1A60     		str	r2, [r3]
2040:bluetooth_rxtx.c **** 	queue_init();
 5906              		.loc 1 2040 0
 5907 0026 A54B     		ldr	r3, .L713+12
 5908 0028 1022     		movs	r2, #16
 5909 002a 1A60     		str	r2, [r3]
2041:bluetooth_rxtx.c **** 	dio_ssp_init();
 5910              		.loc 1 2041 0
 5911 002c FFF7FEFF 		bl	queue_init
 5912              	.LVL591:
2042:bluetooth_rxtx.c **** 	dma_init_le();
 5913              		.loc 1 2042 0
 5914 0030 FFF7FEFF 		bl	dio_ssp_init
 5915              	.LVL592:
2043:bluetooth_rxtx.c **** 	dio_ssp_start();
 5916              		.loc 1 2043 0
 5917 0034 FFF7FEFF 		bl	dma_init_le
 5918              	.LVL593:
2044:bluetooth_rxtx.c **** 
 5919              		.loc 1 2044 0
 5920 0038 FFF7FEFF 		bl	dio_ssp_start
 5921              	.LVL594:
2046:bluetooth_rxtx.c **** 
 5922              		.loc 1 2046 0
 5923 003c 6068     		ldr	r0, [r4, #4]
 5924 003e FFF7FEFF 		bl	rbit
 5925              	.LVL595:
 5926 0042 FFF7FEFF 		bl	cc2400_rx_sync
 5927              	.LVL596:
 5928              	.L650:
2048:bluetooth_rxtx.c **** 		if (requested_channel != 0) {
 5929              		.loc 1 2048 0 discriminator 1
 5930 0046 AB7C     		ldrb	r3, [r5, #18]	@ zero_extendqisi2
 5931 0048 BB42     		cmp	r3, r7
 5932 004a 40F0CD81 		bne	.L693
 5933              	.LBB55:
2049:bluetooth_rxtx.c **** 			cc2400_strobe(SRFOFF);
 5934              		.loc 1 2049 0
 5935 004e 984B     		ldr	r3, .L713
 5936 0050 DB89     		ldrh	r3, [r3, #14]
 5937 0052 9BB2     		uxth	r3, r3
 5938 0054 CBB1     		cbz	r3, .L651
2050:bluetooth_rxtx.c **** 			while ((cc2400_status() & FS_LOCK));
 5939              		.loc 1 2050 0
 5940 0056 6420     		movs	r0, #100
 5941 0058 FFF7FEFF 		bl	cc2400_strobe
 5942              	.LVL597:
 5943              	.L653:
2051:bluetooth_rxtx.c **** 			cc2400_set(FSDIV, channel - 1);
 5944              		.loc 1 2051 0 discriminator 1
ARM GAS  /tmp/ccTiCbBl.s 			page 166


 5945 005c FFF7FEFF 		bl	cc2400_status
 5946              	.LVL598:
 5947 0060 4607     		lsls	r6, r0, #29
 5948 0062 FBD4     		bmi	.L653
2052:bluetooth_rxtx.c **** 			cc2400_strobe(SFSON);
 5949              		.loc 1 2052 0
 5950 0064 2188     		ldrh	r1, [r4]
 5951 0066 0220     		movs	r0, #2
 5952 0068 89B2     		uxth	r1, r1
 5953 006a 0139     		subs	r1, r1, #1
 5954 006c 89B2     		uxth	r1, r1
 5955 006e FFF7FEFF 		bl	cc2400_set
 5956              	.LVL599:
2053:bluetooth_rxtx.c **** 			while (!(cc2400_status() & FS_LOCK));
 5957              		.loc 1 2053 0
 5958 0072 6120     		movs	r0, #97
 5959 0074 FFF7FEFF 		bl	cc2400_strobe
 5960              	.LVL600:
 5961              	.L655:
2054:bluetooth_rxtx.c **** 			cc2400_strobe(SRX);
 5962              		.loc 1 2054 0 discriminator 1
 5963 0078 FFF7FEFF 		bl	cc2400_status
 5964              	.LVL601:
 5965 007c 4007     		lsls	r0, r0, #29
 5966 007e FBD5     		bpl	.L655
2055:bluetooth_rxtx.c **** 			requested_channel = 0;
 5967              		.loc 1 2055 0
 5968 0080 6220     		movs	r0, #98
 5969 0082 FFF7FEFF 		bl	cc2400_strobe
 5970              	.LVL602:
2056:bluetooth_rxtx.c **** 		}
 5971              		.loc 1 2056 0
 5972 0086 0023     		movs	r3, #0
 5973 0088 EB81     		strh	r3, [r5, #14]	@ movhi
 5974              	.L651:
2058:bluetooth_rxtx.c **** 		rssi_reset();
 5975              		.loc 1 2058 0
 5976 008a 8C4B     		ldr	r3, .L713+12
 5977 008c 1022     		movs	r2, #16
 5978 008e 1A60     		str	r2, [r3]
2059:bluetooth_rxtx.c **** 		while ((rx_tc == 0) && (rx_err == 0) && (do_hop == 0) && requested_mode == active_mode) ;
 5979              		.loc 1 2059 0
 5980 0090 FFF7FEFF 		bl	rssi_reset
 5981              	.LVL603:
 5982              	.L657:
2060:bluetooth_rxtx.c **** 		rssi = (int8_t)(cc2400_get(RSSI) >> 8);
 5983              		.loc 1 2060 0 discriminator 1
 5984 0094 8A4B     		ldr	r3, .L713+16
 5985 0096 1A68     		ldr	r2, [r3]
 5986 0098 9946     		mov	r9, r3
 5987 009a 42B9     		cbnz	r2, .L656
2060:bluetooth_rxtx.c **** 		rssi = (int8_t)(cc2400_get(RSSI) >> 8);
 5988              		.loc 1 2060 0 is_stmt 0 discriminator 2
 5989 009c 894B     		ldr	r3, .L713+20
 5990 009e 1B68     		ldr	r3, [r3]
 5991 00a0 2BB9     		cbnz	r3, .L656
2060:bluetooth_rxtx.c **** 		rssi = (int8_t)(cc2400_get(RSSI) >> 8);
ARM GAS  /tmp/ccTiCbBl.s 			page 167


 5992              		.loc 1 2060 0 discriminator 1
 5993 00a2 EB7A     		ldrb	r3, [r5, #11]	@ zero_extendqisi2
 5994 00a4 1BB9     		cbnz	r3, .L656
 5995 00a6 824B     		ldr	r3, .L713
 5996 00a8 9B7C     		ldrb	r3, [r3, #18]	@ zero_extendqisi2
 5997 00aa BB42     		cmp	r3, r7
 5998 00ac F2D0     		beq	.L657
 5999              	.L656:
2061:bluetooth_rxtx.c **** 		rssi_min = rssi_max = rssi;
 6000              		.loc 1 2061 0 is_stmt 1
 6001 00ae 0620     		movs	r0, #6
 6002 00b0 FFF7FEFF 		bl	cc2400_get
 6003              	.LVL604:
2062:bluetooth_rxtx.c **** 
 6004              		.loc 1 2062 0
 6005 00b4 844B     		ldr	r3, .L713+24
2061:bluetooth_rxtx.c **** 		rssi_min = rssi_max = rssi;
 6006              		.loc 1 2061 0
 6007 00b6 C0F30720 		ubfx	r0, r0, #8, #8
 6008              	.LVL605:
2064:bluetooth_rxtx.c **** 			goto cleanup;
 6009              		.loc 1 2064 0
 6010 00ba AA7C     		ldrb	r2, [r5, #18]	@ zero_extendqisi2
2062:bluetooth_rxtx.c **** 
 6011              		.loc 1 2062 0
 6012 00bc 1870     		strb	r0, [r3]
 6013 00be 834B     		ldr	r3, .L713+28
2064:bluetooth_rxtx.c **** 			goto cleanup;
 6014              		.loc 1 2064 0
 6015 00c0 BA42     		cmp	r2, r7
2062:bluetooth_rxtx.c **** 
 6016              		.loc 1 2062 0
 6017 00c2 1870     		strb	r0, [r3]
2064:bluetooth_rxtx.c **** 			goto cleanup;
 6018              		.loc 1 2064 0
 6019 00c4 7A4B     		ldr	r3, .L713
 6020 00c6 40F08F81 		bne	.L693
2067:bluetooth_rxtx.c **** 			status |= DMA_ERROR;
 6021              		.loc 1 2067 0
 6022 00ca 7E4E     		ldr	r6, .L713+20
 6023 00cc 3268     		ldr	r2, [r6]
 6024 00ce 1AB1     		cbz	r2, .L659
2068:bluetooth_rxtx.c **** 		}
 6025              		.loc 1 2068 0
 6026 00d0 5A78     		ldrb	r2, [r3, #1]	@ zero_extendqisi2
 6027 00d2 42F00202 		orr	r2, r2, #2
 6028 00d6 5A70     		strb	r2, [r3, #1]
 6029              	.L659:
2070:bluetooth_rxtx.c **** 			goto rx_flush;
 6030              		.loc 1 2070 0
 6031 00d8 EB7A     		ldrb	r3, [r5, #11]	@ zero_extendqisi2
 6032 00da 03F0FF08 		and	r8, r3, #255
 6033 00de 002B     		cmp	r3, #0
 6034 00e0 40F0D680 		bne	.L661
2072:bluetooth_rxtx.c **** 			continue;
 6035              		.loc 1 2072 0
 6036 00e4 D9F80030 		ldr	r3, [r9]
ARM GAS  /tmp/ccTiCbBl.s 			page 168


 6037 00e8 002B     		cmp	r3, #0
 6038 00ea ACD0     		beq	.L650
2075:bluetooth_rxtx.c **** 		uint32_t whiten_packet[48/4+1] = {0, };
 6039              		.loc 1 2075 0
 6040 00ec 0FA8     		add	r0, sp, #60
 6041              	.LVL606:
 6042 00ee 4146     		mov	r1, r8
 6043 00f0 3422     		movs	r2, #52
 6044 00f2 FFF7FEFF 		bl	memset
 6045              	.LVL607:
 6046              	.L665:
2081:bluetooth_rxtx.c **** 		}
 6047              		.loc 1 2081 0 discriminator 2
 6048 00f6 0720     		movs	r0, #7
 6049 00f8 FFF7FEFF 		bl	cc2400_get_rev
 6050              	.LVL608:
 6051 00fc 02AB     		add	r3, sp, #8
 6052 00fe 03F80800 		strb	r0, [r3, r8]
2080:bluetooth_rxtx.c **** 			cfo_buf[i] = cc2400_get_rev(FREQEST);
 6053              		.loc 1 2080 0 discriminator 2
 6054 0102 08F10108 		add	r8, r8, #1
 6055              	.LVL609:
 6056 0106 B8F1320F 		cmp	r8, #50
 6057 010a F4D1     		bne	.L665
2086:bluetooth_rxtx.c **** 		for (i=0; i<4; i+= 4) {
 6058              		.loc 1 2086 0
 6059 010c 2088     		ldrh	r0, [r4]
2084:bluetooth_rxtx.c **** 		
 6060              		.loc 1 2084 0
 6061 010e 6368     		ldr	r3, [r4, #4]
2086:bluetooth_rxtx.c **** 		for (i=0; i<4; i+= 4) {
 6062              		.loc 1 2086 0
 6063 0110 80B2     		uxth	r0, r0
 6064 0112 6238     		subs	r0, r0, #98
 6065 0114 C0B2     		uxtb	r0, r0
2084:bluetooth_rxtx.c **** 		
 6066              		.loc 1 2084 0
 6067 0116 0F93     		str	r3, [sp, #60]
2086:bluetooth_rxtx.c **** 		for (i=0; i<4; i+= 4) {
 6068              		.loc 1 2086 0
 6069 0118 FFF7FEFF 		bl	btle_channel_index
 6070              	.LVL610:
 6071              	.LBB56:
2088:bluetooth_rxtx.c **** 					   | rxbuf1[i+1] << 16
 6072              		.loc 1 2088 0
 6073 011c DFF8C0B1 		ldr	fp, .L713+48
 6074              	.LBE56:
2086:bluetooth_rxtx.c **** 		for (i=0; i<4; i+= 4) {
 6075              		.loc 1 2086 0
 6076 0120 4FF0300A 		mov	r10, #48
 6077              	.LBB57:
2088:bluetooth_rxtx.c **** 					   | rxbuf1[i+1] << 16
 6078              		.loc 1 2088 0
 6079 0124 9BF800E0 		ldrb	lr, [fp]	@ zero_extendqisi2
2089:bluetooth_rxtx.c **** 					   | rxbuf1[i+2] << 8
 6080              		.loc 1 2089 0
 6081 0128 9BF80180 		ldrb	r8, [fp, #1]	@ zero_extendqisi2
ARM GAS  /tmp/ccTiCbBl.s 			page 169


 6082              	.LVL611:
 6083              	.LBE57:
2086:bluetooth_rxtx.c **** 		for (i=0; i<4; i+= 4) {
 6084              		.loc 1 2086 0
 6085 012c 0AFB00FA 		mul	r10, r10, r0
 6086              	.LBB58:
2090:bluetooth_rxtx.c **** 					   | rxbuf1[i+3] << 0;
 6087              		.loc 1 2090 0
 6088 0130 9BF80210 		ldrb	r1, [fp, #2]	@ zero_extendqisi2
2089:bluetooth_rxtx.c **** 					   | rxbuf1[i+2] << 8
 6089              		.loc 1 2089 0
 6090 0134 4FEA0848 		lsl	r8, r8, #16
2091:bluetooth_rxtx.c **** 			packet[i/4+1] = rbit(v) ^ whit[i/4];
 6091              		.loc 1 2091 0
 6092 0138 9BF80300 		ldrb	r0, [fp, #3]	@ zero_extendqisi2
2089:bluetooth_rxtx.c **** 					   | rxbuf1[i+2] << 8
 6093              		.loc 1 2089 0
 6094 013c 48EA0E68 		orr	r8, r8, lr, lsl #24
 6095              	.LBE58:
2086:bluetooth_rxtx.c **** 		for (i=0; i<4; i+= 4) {
 6096              		.loc 1 2086 0
 6097 0140 634A     		ldr	r2, .L713+32
 6098              	.LBB59:
2090:bluetooth_rxtx.c **** 					   | rxbuf1[i+3] << 0;
 6099              		.loc 1 2090 0
 6100 0142 48EA0008 		orr	r8, r8, r0
2091:bluetooth_rxtx.c **** 			packet[i/4+1] = rbit(v) ^ whit[i/4];
 6101              		.loc 1 2091 0
 6102 0146 48EA0128 		orr	r8, r8, r1, lsl #8
 6103              	.LBE59:
2086:bluetooth_rxtx.c **** 		for (i=0; i<4; i+= 4) {
 6104              		.loc 1 2086 0
 6105 014a 02EB0A03 		add	r3, r2, r10
 6106              	.LBB60:
2092:bluetooth_rxtx.c **** 			whiten_packet[i/4+1] = rbit(v);
 6107              		.loc 1 2092 0
 6108 014e 4046     		mov	r0, r8
 6109              	.LBE60:
2086:bluetooth_rxtx.c **** 		for (i=0; i<4; i+= 4) {
 6110              		.loc 1 2086 0
 6111 0150 0193     		str	r3, [sp, #4]
 6112              	.LVL612:
 6113              	.LBB61:
2092:bluetooth_rxtx.c **** 			whiten_packet[i/4+1] = rbit(v);
 6114              		.loc 1 2092 0
 6115 0152 0092     		str	r2, [sp]
 6116 0154 FFF7FEFF 		bl	rbit
 6117              	.LVL613:
 6118 0158 009A     		ldr	r2, [sp]
 6119 015a 52F80A20 		ldr	r2, [r2, r10]
 6120 015e 5040     		eors	r0, r0, r2
 6121 0160 1090     		str	r0, [sp, #64]
2093:bluetooth_rxtx.c **** 		}
 6122              		.loc 1 2093 0
 6123 0162 4046     		mov	r0, r8
 6124 0164 FFF7FEFF 		bl	rbit
 6125              	.LVL614:
ARM GAS  /tmp/ccTiCbBl.s 			page 170


 6126              	.LBE61:
2096:bluetooth_rxtx.c **** 		cfo_buf[DMA_SIZE - 1] = p[5];
 6127              		.loc 1 2096 0
 6128 0168 9DF84120 		ldrb	r2, [sp, #65]	@ zero_extendqisi2
 6129 016c 02F03F0A 		and	r10, r2, #63
 6130 0170 0AF10208 		add	r8, r10, #2
 6131              	.LVL615:
2099:bluetooth_rxtx.c **** 			goto rx_flush;
 6132              		.loc 1 2099 0
 6133 0174 B8F1270F 		cmp	r8, #39
2097:bluetooth_rxtx.c **** 
 6134              		.loc 1 2097 0
 6135 0178 8DF83920 		strb	r2, [sp, #57]
2099:bluetooth_rxtx.c **** 			goto rx_flush;
 6136              		.loc 1 2099 0
 6137 017c 00F28880 		bhi	.L661
2102:bluetooth_rxtx.c **** 		if (total_transfers < 11) {
 6138              		.loc 1 2102 0
 6139 0180 0AF1080A 		add	r10, r10, #8
 6140 0184 4FEA9A02 		lsr	r2, r10, #2
 6141              	.LVL616:
2103:bluetooth_rxtx.c **** 			while (DMACC0DestAddr < (uint32_t)rxbuf1 + 4 * total_transfers && rx_err == 0) ;
 6142              		.loc 1 2103 0
 6143 0188 0B2A     		cmp	r2, #11
 6144 018a 0BD0     		beq	.L670
2104:bluetooth_rxtx.c **** 		} else { while (DMACC0Config & DMACCxConfig_E && rx_err == 0) ;
 6145              		.loc 1 2104 0
 6146 018c 0BEB8203 		add	r3, fp, r2, lsl #2
 6147              	.LVL617:
 6148              	.L669:
 6149 0190 504A     		ldr	r2, .L713+36
 6150 0192 1268     		ldr	r2, [r2]
 6151 0194 9A42     		cmp	r2, r3
 6152 0196 09D2     		bcs	.L668
2104:bluetooth_rxtx.c **** 		} else { while (DMACC0Config & DMACCxConfig_E && rx_err == 0) ;
 6153              		.loc 1 2104 0 is_stmt 0 discriminator 2
 6154 0198 3168     		ldr	r1, [r6]
 6155 019a 0029     		cmp	r1, #0
 6156 019c F8D0     		beq	.L669
 6157 019e 05E0     		b	.L668
 6158              	.LVL618:
 6159              	.L710:
2105:bluetooth_rxtx.c **** 		}
 6160              		.loc 1 2105 0 is_stmt 1 discriminator 2
 6161 01a0 3368     		ldr	r3, [r6]
 6162 01a2 1BB9     		cbnz	r3, .L668
 6163              	.L670:
2105:bluetooth_rxtx.c **** 		}
 6164              		.loc 1 2105 0 is_stmt 0
 6165 01a4 4C4B     		ldr	r3, .L713+40
 6166 01a6 1B68     		ldr	r3, [r3]
 6167 01a8 D907     		lsls	r1, r3, #31
 6168 01aa F9D4     		bmi	.L710
 6169              	.LVL619:
 6170              	.L668:
2108:bluetooth_rxtx.c **** 		cc2400_strobe(SFSON);
 6171              		.loc 1 2108 0 is_stmt 1
ARM GAS  /tmp/ccTiCbBl.s 			page 171


 6172 01ac 4B4B     		ldr	r3, .L713+44
2109:bluetooth_rxtx.c **** 
 6173              		.loc 1 2109 0
 6174 01ae 6120     		movs	r0, #97
2108:bluetooth_rxtx.c **** 		cc2400_strobe(SFSON);
 6175              		.loc 1 2108 0
 6176 01b0 1A68     		ldr	r2, [r3]
2111:bluetooth_rxtx.c **** 			uint32_t v = rxbuf1[i+0] << 24
 6177              		.loc 1 2111 0
 6178 01b2 0426     		movs	r6, #4
2108:bluetooth_rxtx.c **** 		cc2400_strobe(SFSON);
 6179              		.loc 1 2108 0
 6180 01b4 22F00102 		bic	r2, r2, #1
 6181 01b8 1A60     		str	r2, [r3]
2109:bluetooth_rxtx.c **** 
 6182              		.loc 1 2109 0
 6183 01ba FFF7FEFF 		bl	cc2400_strobe
 6184              	.LVL620:
 6185              	.L672:
 6186              	.LBB62:
2112:bluetooth_rxtx.c **** 					   | rxbuf1[i+1] << 16
 6187              		.loc 1 2112 0 discriminator 2
 6188 01be 484B     		ldr	r3, .L713+48
 6189 01c0 721C     		adds	r2, r6, #1
 6190 01c2 985D     		ldrb	r0, [r3, r6]	@ zero_extendqisi2
 6191 01c4 06F1030E 		add	lr, r6, #3
2113:bluetooth_rxtx.c **** 					   | rxbuf1[i+2] << 8
 6192              		.loc 1 2113 0 discriminator 2
 6193 01c8 995C     		ldrb	r1, [r3, r2]	@ zero_extendqisi2
 6194 01ca B21C     		adds	r2, r6, #2
2114:bluetooth_rxtx.c **** 					   | rxbuf1[i+3] << 0;
 6195              		.loc 1 2114 0 discriminator 2
 6196 01cc 9A5C     		ldrb	r2, [r3, r2]	@ zero_extendqisi2
2115:bluetooth_rxtx.c **** 			packet[i/4+1] = rbit(v) ^ whit[i/4];
 6197              		.loc 1 2115 0 discriminator 2
 6198 01ce 13F80E30 		ldrb	r3, [r3, lr]	@ zero_extendqisi2
2113:bluetooth_rxtx.c **** 					   | rxbuf1[i+2] << 8
 6199              		.loc 1 2113 0 discriminator 2
 6200 01d2 43EA0063 		orr	r3, r3, r0, lsl #24
2114:bluetooth_rxtx.c **** 					   | rxbuf1[i+3] << 0;
 6201              		.loc 1 2114 0 discriminator 2
 6202 01d6 43EA0143 		orr	r3, r3, r1, lsl #16
2115:bluetooth_rxtx.c **** 			packet[i/4+1] = rbit(v) ^ whit[i/4];
 6203              		.loc 1 2115 0 discriminator 2
 6204 01da 43EA022B 		orr	fp, r3, r2, lsl #8
 6205              	.LVL621:
2116:bluetooth_rxtx.c **** 			whiten_packet[i/4+1] = rbit(v);
 6206              		.loc 1 2116 0 discriminator 2
 6207 01de 5846     		mov	r0, fp
 6208 01e0 B210     		asrs	r2, r6, #2
 6209 01e2 0092     		str	r2, [sp]
 6210 01e4 FFF7FEFF 		bl	rbit
 6211              	.LVL622:
 6212 01e8 009A     		ldr	r2, [sp]
 6213 01ea 1CAB     		add	r3, sp, #112
 6214 01ec 03EB8201 		add	r1, r3, r2, lsl #2
 6215 01f0 019B     		ldr	r3, [sp, #4]
ARM GAS  /tmp/ccTiCbBl.s 			page 172


 6216              	.LBE62:
2111:bluetooth_rxtx.c **** 			uint32_t v = rxbuf1[i+0] << 24
 6217              		.loc 1 2111 0 discriminator 2
 6218 01f2 0436     		adds	r6, r6, #4
 6219              	.LVL623:
 6220              	.LBB63:
2116:bluetooth_rxtx.c **** 			whiten_packet[i/4+1] = rbit(v);
 6221              		.loc 1 2116 0 discriminator 2
 6222 01f4 53F82220 		ldr	r2, [r3, r2, lsl #2]
 6223 01f8 5040     		eors	r0, r0, r2
 6224 01fa 41F8300C 		str	r0, [r1, #-48]
2117:bluetooth_rxtx.c **** 		}
 6225              		.loc 1 2117 0 discriminator 2
 6226 01fe 5846     		mov	r0, fp
 6227 0200 FFF7FEFF 		bl	rbit
 6228              	.LVL624:
 6229              	.LBE63:
2111:bluetooth_rxtx.c **** 			uint32_t v = rxbuf1[i+0] << 24
 6230              		.loc 1 2111 0 discriminator 2
 6231 0204 2C2E     		cmp	r6, #44
 6232 0206 DAD1     		bne	.L672
2120:bluetooth_rxtx.c **** 			u32 calc_crc = btle_crcgen_lut(le.crc_init_reversed, p + 4, len);
 6233              		.loc 1 2120 0
 6234 0208 6369     		ldr	r3, [r4, #20]
 6235 020a 73B9     		cbnz	r3, .L673
 6236              	.L676:
2129:bluetooth_rxtx.c **** 		packet_cb((uint8_t *)packet);
 6237              		.loc 1 2129 0
 6238 020c 354B     		ldr	r3, .L713+52
 6239 020e 1022     		movs	r2, #16
 6240 0210 1A60     		str	r2, [r3]
2130:bluetooth_rxtx.c **** 
 6241              		.loc 1 2130 0
 6242 0212 0FA8     		add	r0, sp, #60
 6243              	.LVL625:
 6244 0214 AB69     		ldr	r3, [r5, #24]
 6245 0216 9847     		blx	r3
 6246              	.LVL626:
2132:bluetooth_rxtx.c **** 		if (p[10] == 0x55 && p[11] == 0xec) {
 6247              		.loc 1 2132 0
 6248 0218 334B     		ldr	r3, .L713+56
 6249 021a 4FF08072 		mov	r2, #16777216
 6250 021e 1A60     		str	r2, [r3]
2133:bluetooth_rxtx.c **** 			enqueue(LE_PACKET, (uint8_t *)packet);
 6251              		.loc 1 2133 0
 6252 0220 9DF84630 		ldrb	r3, [sp, #70]	@ zero_extendqisi2
 6253 0224 552B     		cmp	r3, #85
 6254 0226 24D1     		bne	.L675
 6255 0228 17E0     		b	.L711
 6256              	.L673:
 6257              	.LBB64:
2121:bluetooth_rxtx.c **** 			u32 wire_crc = (p[4+len+2] << 16)
 6258              		.loc 1 2121 0
 6259 022a 224B     		ldr	r3, .L713+4
 6260 022c 10A9     		add	r1, sp, #64
 6261 022e 1869     		ldr	r0, [r3, #16]
 6262 0230 4246     		mov	r2, r8
ARM GAS  /tmp/ccTiCbBl.s 			page 173


 6263 0232 FFF7FEFF 		bl	btle_crcgen_lut
 6264              	.LVL627:
2122:bluetooth_rxtx.c **** 						 | (p[4+len+1] << 8)
 6265              		.loc 1 2122 0
 6266 0236 1CAB     		add	r3, sp, #112
 6267 0238 5344     		add	r3, r3, r10
 6268 023a 13F8342C 		ldrb	r2, [r3, #-52]	@ zero_extendqisi2
2123:bluetooth_rxtx.c **** 						 | (p[4+len+0] << 0);
 6269              		.loc 1 2123 0
 6270 023e 1CAB     		add	r3, sp, #112
 6271 0240 4344     		add	r3, r3, r8
 6272 0242 13F82F1C 		ldrb	r1, [r3, #-47]	@ zero_extendqisi2
 6273 0246 0902     		lsls	r1, r1, #8
 6274 0248 41EA0241 		orr	r1, r1, r2, lsl #16
2124:bluetooth_rxtx.c **** 			if (calc_crc != wire_crc)
 6275              		.loc 1 2124 0
 6276 024c 13F8302C 		ldrb	r2, [r3, #-48]	@ zero_extendqisi2
 6277 0250 41EA0203 		orr	r3, r1, r2
2125:bluetooth_rxtx.c **** 				goto rx_flush;
 6278              		.loc 1 2125 0
 6279 0254 9842     		cmp	r0, r3
 6280 0256 1BD1     		bne	.L661
 6281 0258 D8E7     		b	.L676
 6282              	.LVL628:
 6283              	.L711:
 6284              	.LBE64:
2133:bluetooth_rxtx.c **** 			enqueue(LE_PACKET, (uint8_t *)packet);
 6285              		.loc 1 2133 0 discriminator 1
 6286 025a 9DF84730 		ldrb	r3, [sp, #71]	@ zero_extendqisi2
 6287 025e EC2B     		cmp	r3, #236
 6288 0260 07D1     		bne	.L675
2134:bluetooth_rxtx.c **** 			enqueue(CFO_TRACK, (uint8_t *)cfo_buf);
 6289              		.loc 1 2134 0
 6290 0262 0FA9     		add	r1, sp, #60
 6291              	.LVL629:
 6292 0264 0120     		movs	r0, #1
 6293 0266 FFF7FEFF 		bl	enqueue
 6294              	.LVL630:
2135:bluetooth_rxtx.c **** 			//enqueue(MESSAGE, (uint8_t *)whiten_packet);
 6295              		.loc 1 2135 0
 6296 026a 0720     		movs	r0, #7
 6297 026c 02A9     		add	r1, sp, #8
 6298 026e FFF7FEFF 		bl	enqueue
 6299              	.LVL631:
 6300              	.L675:
2138:bluetooth_rxtx.c **** 
 6301              		.loc 1 2138 0
 6302 0272 114B     		ldr	r3, .L713+8
 6303 0274 4FF08072 		mov	r2, #16777216
 6304 0278 1A60     		str	r2, [r3]
2140:bluetooth_rxtx.c **** 
 6305              		.loc 1 2140 0
 6306 027a 1C4B     		ldr	r3, .L713+60
 6307 027c 1C4A     		ldr	r2, .L713+64
 6308 027e 1B68     		ldr	r3, [r3]
 6309 0280 1268     		ldr	r2, [r2]
 6310 0282 C3F31303 		ubfx	r3, r3, #0, #20
ARM GAS  /tmp/ccTiCbBl.s 			page 174


 6311 0286 40F63541 		movw	r1, #3125
 6312 028a 01FB0323 		mla	r3, r1, r3, r2
 6313 028e 6364     		str	r3, [r4, #68]
 6314              	.LVL632:
 6315              	.L661:
2143:bluetooth_rxtx.c **** 		DIO_SSP_DMACR &= ~SSPDMACR_RXDMAE;
 6316              		.loc 1 2143 0
 6317 0290 6120     		movs	r0, #97
 6318 0292 FFF7FEFF 		bl	cc2400_strobe
 6319              	.LVL633:
2144:bluetooth_rxtx.c **** 		while (SSP1SR & SSPSR_RNE) {
 6320              		.loc 1 2144 0
 6321 0296 114B     		ldr	r3, .L713+44
 6322 0298 1A68     		ldr	r2, [r3]
 6323 029a 22F00102 		bic	r2, r2, #1
 6324 029e 1A60     		str	r2, [r3]
 6325              	.L677:
2145:bluetooth_rxtx.c **** 			u8 tmp = (u8) DIO_SSP_DR;
 6326              		.loc 1 2145 0 discriminator 1
 6327 02a0 144B     		ldr	r3, .L713+68
 6328 02a2 1B68     		ldr	r3, [r3]
 6329 02a4 5A07     		lsls	r2, r3, #29
 6330 02a6 29D5     		bpl	.L712
 6331              	.LBB65:
2146:bluetooth_rxtx.c **** 		}
 6332              		.loc 1 2146 0
 6333 02a8 134B     		ldr	r3, .L713+72
 6334 02aa 1B68     		ldr	r3, [r3]
 6335 02ac F8E7     		b	.L677
 6336              	.L714:
 6337 02ae 00BF     		.align	2
 6338              	.L713:
 6339 02b0 00000000 		.word	.LANCHOR0
 6340 02b4 00000000 		.word	.LANCHOR1
 6341 02b8 00E100E0 		.word	-536813312
 6342 02bc 3CC00920 		.word	537509948
 6343 02c0 00000000 		.word	rx_tc
 6344 02c4 00000000 		.word	rx_err
 6345 02c8 00000000 		.word	rssi_max
 6346 02cc 00000000 		.word	rssi_min
 6347 02d0 F0000000 		.word	.LANCHOR2+240
 6348 02d4 04410050 		.word	1342193924
 6349 02d8 10410050 		.word	1342193936
 6350 02dc 24000340 		.word	1073938468
 6351 02e0 00000000 		.word	rxbuf1
 6352 02e4 38C00920 		.word	537509944
 6353 02e8 80E100E0 		.word	-536813184
 6354 02ec 00000000 		.word	clkn
 6355 02f0 08400040 		.word	1073758216
 6356 02f4 0C000340 		.word	1073938444
 6357 02f8 08000340 		.word	1073938440
 6358              	.L712:
 6359              	.LBE65:
2148:bluetooth_rxtx.c **** 		if (now <le.last_packet)
 6360              		.loc 1 2148 0
 6361 02fc 414B     		ldr	r3, .L715
 6362 02fe 424A     		ldr	r2, .L715+4
ARM GAS  /tmp/ccTiCbBl.s 			page 175


 6363 0300 1B68     		ldr	r3, [r3]
 6364 0302 1268     		ldr	r2, [r2]
 6365 0304 40F63541 		movw	r1, #3125
 6366 0308 C3F31303 		ubfx	r3, r3, #0, #20
 6367 030c 01FB0323 		mla	r3, r1, r3, r2
 6368              	.LVL634:
2149:bluetooth_rxtx.c **** 			now += 3276800000;
 6369              		.loc 1 2149 0
 6370 0310 626C     		ldr	r2, [r4, #68]
2151:bluetooth_rxtx.c **** 			reset_le();
 6371              		.loc 1 2151 0
 6372 0312 217E     		ldrb	r1, [r4, #24]	@ zero_extendqisi2
2149:bluetooth_rxtx.c **** 			now += 3276800000;
 6373              		.loc 1 2149 0
 6374 0314 9342     		cmp	r3, r2
2151:bluetooth_rxtx.c **** 			reset_le();
 6375              		.loc 1 2151 0
 6376 0316 A1F10201 		sub	r1, r1, #2
2150:bluetooth_rxtx.c **** 		if ( ((le.link_state == LINK_CONNECTED || le.link_state == LINK_CONN_PENDING) && (now - le.last_p
 6377              		.loc 1 2150 0
 6378 031a 38BF     		it	cc
 6379 031c 03F14343 		addcc	r3, r3, #-1023410176
 6380              	.LVL635:
2151:bluetooth_rxtx.c **** 			reset_le();
 6381              		.loc 1 2151 0
 6382 0320 C9B2     		uxtb	r1, r1
2150:bluetooth_rxtx.c **** 		if ( ((le.link_state == LINK_CONNECTED || le.link_state == LINK_CONN_PENDING) && (now - le.last_p
 6383              		.loc 1 2150 0
 6384 0322 38BF     		it	cc
 6385 0324 03F5A003 		addcc	r3, r3, #5242880
 6386              	.LVL636:
2151:bluetooth_rxtx.c **** 			reset_le();
 6387              		.loc 1 2151 0
 6388 0328 0129     		cmp	r1, #1
 6389 032a 03D8     		bhi	.L680
2151:bluetooth_rxtx.c **** 			reset_le();
 6390              		.loc 1 2151 0 is_stmt 0 discriminator 1
 6391 032c 3749     		ldr	r1, .L715+8
 6392 032e 9B1A     		subs	r3, r3, r2
 6393              	.LVL637:
 6394 0330 8B42     		cmp	r3, r1
 6395 0332 02D8     		bhi	.L681
 6396              	.L680:
2151:bluetooth_rxtx.c **** 			reset_le();
 6397              		.loc 1 2151 0 discriminator 2
 6398 0334 EB69     		ldr	r3, [r5, #28]
 6399 0336 012B     		cmp	r3, #1
 6400 0338 25D1     		bne	.L682
 6401              	.L681:
2152:bluetooth_rxtx.c **** 			le_jam_count = 0;
 6402              		.loc 1 2152 0 is_stmt 1
 6403 033a FFF7FEFF 		bl	reset_le
 6404              	.LVL638:
2154:bluetooth_rxtx.c **** 			if (jam_mode == JAM_ONCE) {
 6405              		.loc 1 2154 0
 6406 033e 3449     		ldr	r1, .L715+12
2153:bluetooth_rxtx.c **** 			TXLED_CLR;
ARM GAS  /tmp/ccTiCbBl.s 			page 176


 6407              		.loc 1 2153 0
 6408 0340 0023     		movs	r3, #0
2154:bluetooth_rxtx.c **** 			if (jam_mode == JAM_ONCE) {
 6409              		.loc 1 2154 0
 6410 0342 4FF48070 		mov	r0, #256
2153:bluetooth_rxtx.c **** 			TXLED_CLR;
 6411              		.loc 1 2153 0
 6412 0346 EB61     		str	r3, [r5, #28]
2154:bluetooth_rxtx.c **** 			if (jam_mode == JAM_ONCE) {
 6413              		.loc 1 2154 0
 6414 0348 0860     		str	r0, [r1]
2155:bluetooth_rxtx.c **** 				jam_mode = JAM_NONE;
 6415              		.loc 1 2155 0
 6416 034a E97C     		ldrb	r1, [r5, #19]	@ zero_extendqisi2
2153:bluetooth_rxtx.c **** 			TXLED_CLR;
 6417              		.loc 1 2153 0
 6418 034c 314A     		ldr	r2, .L715+16
2155:bluetooth_rxtx.c **** 				jam_mode = JAM_NONE;
 6419              		.loc 1 2155 0
 6420 034e 0129     		cmp	r1, #1
 6421 0350 02D1     		bne	.L683
2156:bluetooth_rxtx.c **** 				requested_mode = MODE_IDLE;
 6422              		.loc 1 2156 0
 6423 0352 D374     		strb	r3, [r2, #19]
2157:bluetooth_rxtx.c **** 				goto cleanup;
 6424              		.loc 1 2157 0
 6425 0354 9374     		strb	r3, [r2, #18]
2158:bluetooth_rxtx.c **** 			}
 6426              		.loc 1 2158 0
 6427 0356 47E0     		b	.L693
 6428              	.L683:
2160:bluetooth_rxtx.c **** 			cc2400_strobe(SRFOFF);
 6429              		.loc 1 2160 0
 6430 0358 0123     		movs	r3, #1
2161:bluetooth_rxtx.c **** 			while ((cc2400_status() & FS_LOCK));
 6431              		.loc 1 2161 0
 6432 035a 6420     		movs	r0, #100
2160:bluetooth_rxtx.c **** 			cc2400_strobe(SRFOFF);
 6433              		.loc 1 2160 0
 6434 035c 2376     		strb	r3, [r4, #24]
2161:bluetooth_rxtx.c **** 			while ((cc2400_status() & FS_LOCK));
 6435              		.loc 1 2161 0
 6436 035e FFF7FEFF 		bl	cc2400_strobe
 6437              	.LVL639:
 6438              	.L685:
2162:bluetooth_rxtx.c **** 
 6439              		.loc 1 2162 0 discriminator 1
 6440 0362 FFF7FEFF 		bl	cc2400_status
 6441              	.LVL640:
 6442 0366 4307     		lsls	r3, r0, #29
 6443 0368 FBD4     		bmi	.L685
2164:bluetooth_rxtx.c **** 			restart_jamming = 1;
 6444              		.loc 1 2164 0
 6445 036a B4F84A30 		ldrh	r3, [r4, #74]
 6446 036e 9BB2     		uxth	r3, r3
 6447 0370 23B1     		cbz	r3, .L695
2164:bluetooth_rxtx.c **** 			restart_jamming = 1;
ARM GAS  /tmp/ccTiCbBl.s 			page 177


 6448              		.loc 1 2164 0 is_stmt 0 discriminator 1
 6449 0372 294B     		ldr	r3, .L715+20
 6450 0374 B3F84A30 		ldrh	r3, [r3, #74]
 6451 0378 9BB2     		uxth	r3, r3
 6452 037a 01E0     		b	.L686
 6453              	.L695:
2164:bluetooth_rxtx.c **** 			restart_jamming = 1;
 6454              		.loc 1 2164 0
 6455 037c 40F66213 		movw	r3, #2402
 6456              	.L686:
2164:bluetooth_rxtx.c **** 			restart_jamming = 1;
 6457              		.loc 1 2164 0 discriminator 3
 6458 0380 2380     		strh	r3, [r4]	@ movhi
2165:bluetooth_rxtx.c **** 		}
 6459              		.loc 1 2165 0 is_stmt 1 discriminator 3
 6460 0382 0123     		movs	r3, #1
 6461 0384 6B63     		str	r3, [r5, #52]
 6462              	.L682:
2168:bluetooth_rxtx.c **** 		cc2400_set(SYNCH, le.synch);
 6463              		.loc 1 2168 0
 6464 0386 2C20     		movs	r0, #44
 6465 0388 6189     		ldrh	r1, [r4, #10]
 6466 038a FFF7FEFF 		bl	cc2400_set
 6467              	.LVL641:
2169:bluetooth_rxtx.c **** 
 6468              		.loc 1 2169 0
 6469 038e 2D20     		movs	r0, #45
 6470 0390 2189     		ldrh	r1, [r4, #8]
 6471 0392 FFF7FEFF 		bl	cc2400_set
 6472              	.LVL642:
2171:bluetooth_rxtx.c **** 			hop();
 6473              		.loc 1 2171 0
 6474 0396 EB7A     		ldrb	r3, [r5, #11]	@ zero_extendqisi2
 6475 0398 0BB1     		cbz	r3, .L687
2172:bluetooth_rxtx.c **** 		if (le_jam_count > 0) {
 6476              		.loc 1 2172 0
 6477 039a FFF7FEFF 		bl	hop
 6478              	.LVL643:
 6479              	.L687:
2173:bluetooth_rxtx.c **** 			le_jam();
 6480              		.loc 1 2173 0
 6481 039e EB69     		ldr	r3, [r5, #28]
 6482 03a0 1C4E     		ldr	r6, .L715+16
 6483 03a2 002B     		cmp	r3, #0
 6484 03a4 05DD     		ble	.L688
2174:bluetooth_rxtx.c **** 			--le_jam_count;
 6485              		.loc 1 2174 0
 6486 03a6 FFF7FEFF 		bl	le_jam
 6487              	.LVL644:
2175:bluetooth_rxtx.c **** 		} else {
 6488              		.loc 1 2175 0
 6489 03aa F369     		ldr	r3, [r6, #28]
 6490 03ac 013B     		subs	r3, r3, #1
 6491 03ae F361     		str	r3, [r6, #28]
 6492 03b0 14E0     		b	.L689
 6493              	.L688:
2177:bluetooth_rxtx.c **** 			dio_ssp_start();
ARM GAS  /tmp/ccTiCbBl.s 			page 178


 6494              		.loc 1 2177 0
 6495 03b2 FFF7FEFF 		bl	dma_init_le
 6496              	.LVL645:
2178:bluetooth_rxtx.c **** 
 6497              		.loc 1 2178 0
 6498 03b6 FFF7FEFF 		bl	dio_ssp_start
 6499              	.LVL646:
2180:bluetooth_rxtx.c **** 				cc2400_rx_sync(rbit(le.access_address));
 6500              		.loc 1 2180 0
 6501 03ba 736B     		ldr	r3, [r6, #52]
 6502 03bc 3BB1     		cbz	r3, .L692
2181:bluetooth_rxtx.c **** 				restart_jamming = 0;
 6503              		.loc 1 2181 0
 6504 03be 6068     		ldr	r0, [r4, #4]
 6505 03c0 FFF7FEFF 		bl	rbit
 6506              	.LVL647:
 6507 03c4 FFF7FEFF 		bl	cc2400_rx_sync
 6508              	.LVL648:
2182:bluetooth_rxtx.c **** 			} else {
 6509              		.loc 1 2182 0
 6510 03c8 0023     		movs	r3, #0
 6511 03ca 7363     		str	r3, [r6, #52]
 6512 03cc 06E0     		b	.L689
 6513              	.L692:
2184:bluetooth_rxtx.c **** 				cc2400_strobe(SRX);
 6514              		.loc 1 2184 0
 6515 03ce FFF7FEFF 		bl	cc2400_status
 6516              	.LVL649:
 6517 03d2 4607     		lsls	r6, r0, #29
 6518 03d4 FBD5     		bpl	.L692
2185:bluetooth_rxtx.c **** 			}
 6519              		.loc 1 2185 0
 6520 03d6 6220     		movs	r0, #98
 6521 03d8 FFF7FEFF 		bl	cc2400_strobe
 6522              	.LVL650:
 6523              	.L689:
2189:bluetooth_rxtx.c **** 
 6524              		.loc 1 2189 0 discriminator 1
 6525 03dc 0F4A     		ldr	r2, .L715+24
2188:bluetooth_rxtx.c **** 		rx_err = 0;
 6526              		.loc 1 2188 0 discriminator 1
 6527 03de 0023     		movs	r3, #0
 6528 03e0 C9F80030 		str	r3, [r9]
2189:bluetooth_rxtx.c **** 
 6529              		.loc 1 2189 0 discriminator 1
 6530 03e4 1360     		str	r3, [r2]
 6531 03e6 2EE6     		b	.L650
 6532              	.L693:
 6533              	.LBE55:
2195:bluetooth_rxtx.c **** 	cc2400_idle();
 6534              		.loc 1 2195 0
 6535 03e8 0D4B     		ldr	r3, .L715+28
 6536 03ea 4FF08072 		mov	r2, #16777216
 6537 03ee 1A60     		str	r2, [r3]
2196:bluetooth_rxtx.c **** 	dio_ssp_stop ();
 6538              		.loc 1 2196 0
 6539 03f0 FFF7FEFF 		bl	cc2400_idle
ARM GAS  /tmp/ccTiCbBl.s 			page 179


 6540              	.LVL651:
2197:bluetooth_rxtx.c **** 	cs_trigger_disable();
 6541              		.loc 1 2197 0
 6542 03f4 FFF7FEFF 		bl	dio_ssp_stop
 6543              	.LVL652:
2198:bluetooth_rxtx.c **** }
 6544              		.loc 1 2198 0
 6545 03f8 FFF7FEFF 		bl	cs_trigger_disable
 6546              	.LVL653:
2199:bluetooth_rxtx.c **** 
 6547              		.loc 1 2199 0
 6548 03fc 1DB0     		add	sp, sp, #116
 6549              		@ sp needed
 6550 03fe BDE8F08F 		pop	{r4, r5, r6, r7, r8, r9, r10, fp, pc}
 6551              	.L716:
 6552 0402 00BF     		.align	2
 6553              	.L715:
 6554 0404 00000000 		.word	clkn
 6555 0408 08400040 		.word	1073758216
 6556 040c 80F0FA02 		.word	50000000
 6557 0410 3CC00920 		.word	537509948
 6558 0414 00000000 		.word	.LANCHOR0
 6559 0418 00000000 		.word	.LANCHOR1
 6560 041c 00000000 		.word	rx_err
 6561 0420 80E100E0 		.word	-536813184
 6562              		.cfi_endproc
 6563              	.LFE25:
 6565              		.section	.text.bt_follow_le,"ax",%progbits
 6566              		.align	1
 6567              		.global	bt_follow_le
 6568              		.thumb
 6569              		.thumb_func
 6571              	bt_follow_le:
 6572              	.LFB28:
2362:bluetooth_rxtx.c **** 		}
2363:bluetooth_rxtx.c **** 	}
2364:bluetooth_rxtx.c **** }
2365:bluetooth_rxtx.c **** 
2366:bluetooth_rxtx.c **** void bt_follow_le() {
 6573              		.loc 1 2366 0
 6574              		.cfi_startproc
 6575              		@ args = 0, pretend = 0, frame = 0
 6576              		@ frame_needed = 0, uses_anonymous_args = 0
 6577 0000 10B5     		push	{r4, lr}
 6578              		.cfi_def_cfa_offset 8
 6579              		.cfi_offset 4, -8
 6580              		.cfi_offset 14, -4
2367:bluetooth_rxtx.c **** 	reset_le();
 6581              		.loc 1 2367 0
 6582 0002 FFF7FEFF 		bl	reset_le
 6583              	.LVL654:
2368:bluetooth_rxtx.c **** 	packet_cb = connection_follow_cb;
 6584              		.loc 1 2368 0
 6585 0006 044C     		ldr	r4, .L718
 6586 0008 044B     		ldr	r3, .L718+4
2369:bluetooth_rxtx.c **** 	bt_le_sync(MODE_BT_FOLLOW_LE);
 6587              		.loc 1 2369 0
ARM GAS  /tmp/ccTiCbBl.s 			page 180


 6588 000a 0920     		movs	r0, #9
2368:bluetooth_rxtx.c **** 	packet_cb = connection_follow_cb;
 6589              		.loc 1 2368 0
 6590 000c A361     		str	r3, [r4, #24]
 6591              		.loc 1 2369 0
 6592 000e FFF7FEFF 		bl	bt_le_sync
 6593              	.LVL655:
2370:bluetooth_rxtx.c **** 
2371:bluetooth_rxtx.c **** 	/* old non-sync mode
2372:bluetooth_rxtx.c **** 	data_cb = cb_follow_le;
2373:bluetooth_rxtx.c **** 	packet_cb = connection_follow_cb;
2374:bluetooth_rxtx.c **** 	bt_generic_le(MODE_BT_FOLLOW_LE);
2375:bluetooth_rxtx.c **** 	*/
2376:bluetooth_rxtx.c **** 
2377:bluetooth_rxtx.c **** 	mode = MODE_IDLE;
 6594              		.loc 1 2377 0
 6595 0012 0023     		movs	r3, #0
 6596 0014 6374     		strb	r3, [r4, #17]
 6597 0016 10BD     		pop	{r4, pc}
 6598              	.L719:
 6599              		.align	2
 6600              	.L718:
 6601 0018 00000000 		.word	.LANCHOR0
 6602 001c 00000000 		.word	connection_follow_cb
 6603              		.cfi_endproc
 6604              	.LFE28:
 6606              		.section	.text.bt_tracking_le,"ax",%progbits
 6607              		.align	1
 6608              		.global	bt_tracking_le
 6609              		.thumb
 6610              		.thumb_func
 6612              	bt_tracking_le:
 6613              	.LFB29:
2378:bluetooth_rxtx.c **** }
2379:bluetooth_rxtx.c **** 
2380:bluetooth_rxtx.c **** //JWHUR rssi estimation tracking
2381:bluetooth_rxtx.c **** void bt_tracking_le(uint8_t tracking_mode) {
 6614              		.loc 1 2381 0
 6615              		.cfi_startproc
 6616              		@ args = 0, pretend = 0, frame = 0
 6617              		@ frame_needed = 0, uses_anonymous_args = 0
 6618              	.LVL656:
 6619 0000 38B5     		push	{r3, r4, r5, lr}
 6620              		.cfi_def_cfa_offset 16
 6621              		.cfi_offset 3, -16
 6622              		.cfi_offset 4, -12
 6623              		.cfi_offset 5, -8
 6624              		.cfi_offset 14, -4
 6625              		.loc 1 2381 0
 6626 0002 0446     		mov	r4, r0
2382:bluetooth_rxtx.c **** 	reset_le();
 6627              		.loc 1 2382 0
 6628 0004 FFF7FEFF 		bl	reset_le
 6629              	.LVL657:
2383:bluetooth_rxtx.c **** 	packet_cb = connection_follow_cb;
 6630              		.loc 1 2383 0
 6631 0008 084B     		ldr	r3, .L723
ARM GAS  /tmp/ccTiCbBl.s 			page 181


 6632 000a 094A     		ldr	r2, .L723+4
2384:bluetooth_rxtx.c **** 	if (tracking_mode == MODE_BT_CFO_LE) bt_le_sync_cfo(MODE_BT_CFO_LE);
 6633              		.loc 1 2384 0
 6634 000c 112C     		cmp	r4, #17
2383:bluetooth_rxtx.c **** 	packet_cb = connection_follow_cb;
 6635              		.loc 1 2383 0
 6636 000e 9A61     		str	r2, [r3, #24]
 6637 0010 1D46     		mov	r5, r3
 6638              		.loc 1 2384 0
 6639 0012 03D1     		bne	.L721
 6640              		.loc 1 2384 0 is_stmt 0 discriminator 1
 6641 0014 2046     		mov	r0, r4
 6642 0016 FFF7FEFF 		bl	bt_le_sync_cfo
 6643              	.LVL658:
 6644 001a 04E0     		b	.L722
 6645              	.L721:
2385:bluetooth_rxtx.c **** 	if (tracking_mode == MODE_BT_RSSI_LE) bt_le_sync_rssi(MODE_BT_RSSI_LE);
 6646              		.loc 1 2385 0 is_stmt 1
 6647 001c 122C     		cmp	r4, #18
 6648 001e 02D1     		bne	.L722
 6649              		.loc 1 2385 0 is_stmt 0 discriminator 1
 6650 0020 2046     		mov	r0, r4
 6651 0022 FFF7FEFF 		bl	bt_le_sync_rssi
 6652              	.LVL659:
 6653              	.L722:
2386:bluetooth_rxtx.c **** 	requested_mode = MODE_IDLE;
 6654              		.loc 1 2386 0 is_stmt 1
 6655 0026 0023     		movs	r3, #0
 6656 0028 AB74     		strb	r3, [r5, #18]
 6657 002a 38BD     		pop	{r3, r4, r5, pc}
 6658              	.L724:
 6659              		.align	2
 6660              	.L723:
 6661 002c 00000000 		.word	.LANCHOR0
 6662 0030 00000000 		.word	connection_follow_cb
 6663              		.cfi_endproc
 6664              	.LFE29:
 6666              		.section	.text.le_promisc_state,"ax",%progbits
 6667              		.align	1
 6668              		.global	le_promisc_state
 6669              		.thumb
 6670              		.thumb_func
 6672              	le_promisc_state:
 6673              	.LFB30:
2387:bluetooth_rxtx.c **** }
2388:bluetooth_rxtx.c **** 
2389:bluetooth_rxtx.c **** // issue state change message
2390:bluetooth_rxtx.c **** void le_promisc_state(u8 type, void *data, unsigned len) {
 6674              		.loc 1 2390 0
 6675              		.cfi_startproc
 6676              		@ args = 0, pretend = 0, frame = 56
 6677              		@ frame_needed = 0, uses_anonymous_args = 0
 6678              	.LVL660:
 6679 0000 70B5     		push	{r4, r5, r6, lr}
 6680              		.cfi_def_cfa_offset 16
 6681              		.cfi_offset 4, -16
 6682              		.cfi_offset 5, -12
ARM GAS  /tmp/ccTiCbBl.s 			page 182


 6683              		.cfi_offset 6, -8
 6684              		.cfi_offset 14, -4
 6685 0002 8EB0     		sub	sp, sp, #56
 6686              		.cfi_def_cfa_offset 72
 6687              		.loc 1 2390 0
 6688 0004 0646     		mov	r6, r0
 6689 0006 0D46     		mov	r5, r1
 6690 0008 1446     		mov	r4, r2
2391:bluetooth_rxtx.c **** 	u8 buf[50] = { 0, };
 6691              		.loc 1 2391 0
 6692 000a 01A8     		add	r0, sp, #4
 6693              	.LVL661:
 6694 000c 0021     		movs	r1, #0
 6695              	.LVL662:
 6696 000e 3222     		movs	r2, #50
 6697              	.LVL663:
 6698 0010 FFF7FEFF 		bl	memset
 6699              	.LVL664:
2392:bluetooth_rxtx.c **** 	if (len > 49)
2393:bluetooth_rxtx.c **** 		len = 49;
2394:bluetooth_rxtx.c **** 
2395:bluetooth_rxtx.c **** 	buf[0] = type;
2396:bluetooth_rxtx.c **** 	memcpy(&buf[1], data, len);
 6700              		.loc 1 2396 0
 6701 0014 2946     		mov	r1, r5
 6702 0016 312C     		cmp	r4, #49
 6703 0018 34BF     		ite	cc
 6704 001a 2246     		movcc	r2, r4
 6705 001c 3122     		movcs	r2, #49
 6706              	.LVL665:
 6707 001e 0DF10500 		add	r0, sp, #5
2395:bluetooth_rxtx.c **** 	memcpy(&buf[1], data, len);
 6708              		.loc 1 2395 0
 6709 0022 8DF80460 		strb	r6, [sp, #4]
 6710              		.loc 1 2396 0
 6711 0026 FFF7FEFF 		bl	memcpy
 6712              	.LVL666:
2397:bluetooth_rxtx.c **** 	enqueue(LE_PROMISC, (uint8_t*)buf);
 6713              		.loc 1 2397 0
 6714 002a 01A9     		add	r1, sp, #4
 6715 002c 0520     		movs	r0, #5
 6716 002e FFF7FEFF 		bl	enqueue
 6717              	.LVL667:
2398:bluetooth_rxtx.c **** }
 6718              		.loc 1 2398 0
 6719 0032 0EB0     		add	sp, sp, #56
 6720              		@ sp needed
 6721 0034 70BD     		pop	{r4, r5, r6, pc}
 6722              		.cfi_endproc
 6723              	.LFE30:
 6725              		.section	.text.promisc_recover_hop_increment,"ax",%progbits
 6726              		.align	1
 6727              		.global	promisc_recover_hop_increment
 6728              		.thumb
 6729              		.thumb_func
 6731              	promisc_recover_hop_increment:
 6732              	.LFB31:
ARM GAS  /tmp/ccTiCbBl.s 			page 183


2399:bluetooth_rxtx.c **** 
2400:bluetooth_rxtx.c **** // divide, rounding to the nearest integer: round up at 0.5.
2401:bluetooth_rxtx.c **** #define DIVIDE_ROUND(N, D) ((N) + (D)/2) / (D)
2402:bluetooth_rxtx.c **** 
2403:bluetooth_rxtx.c **** void promisc_recover_hop_increment(u8 *packet) {
 6733              		.loc 1 2403 0
 6734              		.cfi_startproc
 6735              		@ args = 0, pretend = 0, frame = 0
 6736              		@ frame_needed = 0, uses_anonymous_args = 0
 6737              	.LVL668:
 6738 0000 38B5     		push	{r3, r4, r5, lr}
 6739              		.cfi_def_cfa_offset 16
 6740              		.cfi_offset 3, -16
 6741              		.cfi_offset 4, -12
 6742              		.cfi_offset 5, -8
 6743              		.cfi_offset 14, -4
2404:bluetooth_rxtx.c **** 	static u32 first_ts = 0;
2405:bluetooth_rxtx.c **** 	if (channel == 2404) {
 6744              		.loc 1 2405 0
 6745 0002 314A     		ldr	r2, .L735
 6746 0004 40F66413 		movw	r3, #2404
 6747 0008 1188     		ldrh	r1, [r2]
 6748 000a 304C     		ldr	r4, .L735+4
 6749 000c 89B2     		uxth	r1, r1
 6750 000e 9942     		cmp	r1, r3
 6751 0010 0DD1     		bne	.L727
2406:bluetooth_rxtx.c **** 		first_ts = CLK100NS;
 6752              		.loc 1 2406 0
 6753 0012 2F4B     		ldr	r3, .L735+8
 6754 0014 2F4A     		ldr	r2, .L735+12
 6755 0016 1B68     		ldr	r3, [r3]
 6756 0018 1268     		ldr	r2, [r2]
 6757 001a C3F31303 		ubfx	r3, r3, #0, #20
 6758 001e 40F63541 		movw	r1, #3125
 6759 0022 01FB0323 		mla	r3, r1, r3, r2
 6760 0026 A363     		str	r3, [r4, #56]
2407:bluetooth_rxtx.c **** 		hop_direct_channel = 2406;
 6761              		.loc 1 2407 0
 6762 0028 40F66613 		movw	r3, #2406
 6763 002c 48E0     		b	.L729
 6764              	.L727:
2408:bluetooth_rxtx.c **** 		do_hop = 1;
2409:bluetooth_rxtx.c **** 	} else if (channel == 2406) {
 6765              		.loc 1 2409 0
 6766 002e 1088     		ldrh	r0, [r2]
 6767              	.LVL669:
 6768 0030 40F66611 		movw	r1, #2406
 6769 0034 80B2     		uxth	r0, r0
 6770 0036 8842     		cmp	r0, r1
 6771 0038 42D1     		bne	.L729
 6772              	.LVL670:
 6773              	.LBB70:
 6774              	.LBB71:
 6775              	.LBB72:
2410:bluetooth_rxtx.c **** 		u32 second_ts = CLK100NS;
 6776              		.loc 1 2410 0
 6777 003a 254B     		ldr	r3, .L735+8
ARM GAS  /tmp/ccTiCbBl.s 			page 184


 6778 003c 2549     		ldr	r1, .L735+12
 6779 003e 1B68     		ldr	r3, [r3]
 6780 0040 0968     		ldr	r1, [r1]
 6781 0042 40F63540 		movw	r0, #3125
 6782 0046 C3F31303 		ubfx	r3, r3, #0, #20
 6783 004a 00FB0313 		mla	r3, r0, r3, r1
 6784              	.LVL671:
2411:bluetooth_rxtx.c **** 		if (second_ts < first_ts)
 6785              		.loc 1 2411 0
 6786 004e A06B     		ldr	r0, [r4, #56]
2412:bluetooth_rxtx.c **** 			second_ts += 3276800000; // handle rollover
2413:bluetooth_rxtx.c **** 		// Number of channels hopped between previous and current timestamp.
2414:bluetooth_rxtx.c **** 		u32 channels_hopped = DIVIDE_ROUND(second_ts - first_ts,
 6787              		.loc 1 2414 0
 6788 0050 528C     		ldrh	r2, [r2, #34]
2411:bluetooth_rxtx.c **** 		if (second_ts < first_ts)
 6789              		.loc 1 2411 0
 6790 0052 8342     		cmp	r3, r0
2412:bluetooth_rxtx.c **** 			second_ts += 3276800000; // handle rollover
 6791              		.loc 1 2412 0
 6792 0054 3CBF     		itt	cc
 6793 0056 03F14343 		addcc	r3, r3, #-1023410176
 6794              	.LVL672:
 6795 005a 03F5A003 		addcc	r3, r3, #5242880
 6796              	.LVL673:
 6797              		.loc 1 2414 0
 6798 005e 1B1A     		subs	r3, r3, r0
 6799              	.LVL674:
 6800 0060 43F2D405 		movw	r5, #12500
 6801 0064 41F66A00 		movw	r0, #6250
 6802 0068 00FB0233 		mla	r3, r0, r2, r3
 6803 006c 5543     		muls	r5, r2, r5
 6804 006e B3FBF5F3 		udiv	r3, r3, r5
 6805              	.LVL675:
2415:bluetooth_rxtx.c **** 										   le.conn_interval * LE_BASECLK);
2416:bluetooth_rxtx.c **** 		if (channels_hopped < 37) {
 6806              		.loc 1 2416 0
 6807 0072 242B     		cmp	r3, #36
2414:bluetooth_rxtx.c **** 										   le.conn_interval * LE_BASECLK);
 6808              		.loc 1 2414 0
 6809 0074 1449     		ldr	r1, .L735
 6810              		.loc 1 2416 0
 6811 0076 21D8     		bhi	.L731
2417:bluetooth_rxtx.c **** 			// Get the hop increment based on the number of channels hopped.
2418:bluetooth_rxtx.c **** 			le.channel_increment = hop_interval_lut[channels_hopped];
 6812              		.loc 1 2418 0
 6813 0078 1748     		ldr	r0, .L735+16
2419:bluetooth_rxtx.c **** 			le.interval_timer = le.conn_interval / 2;
 6814              		.loc 1 2419 0
 6815 007a 5208     		lsrs	r2, r2, #1
2418:bluetooth_rxtx.c **** 			le.interval_timer = le.conn_interval / 2;
 6816              		.loc 1 2418 0
 6817 007c 0344     		add	r3, r3, r0
 6818              	.LVL676:
 6819 007e 93F87008 		ldrb	r0, [r3, #2160]	@ zero_extendqisi2
 6820              		.loc 1 2419 0
 6821 0082 0A84     		strh	r2, [r1, #32]	@ movhi
ARM GAS  /tmp/ccTiCbBl.s 			page 185


2418:bluetooth_rxtx.c **** 			le.interval_timer = le.conn_interval / 2;
 6822              		.loc 1 2418 0
 6823 0084 8876     		strb	r0, [r1, #26]
2420:bluetooth_rxtx.c **** 			le.conn_count = 0;
2421:bluetooth_rxtx.c **** 			le.conn_epoch = 0;
2422:bluetooth_rxtx.c **** 			do_hop = 0;
2423:bluetooth_rxtx.c **** 			// Move on to regular connection following.
2424:bluetooth_rxtx.c **** 			le.channel_idx = (1 + le.channel_increment) % 37;
 6824              		.loc 1 2424 0
 6825 0086 2522     		movs	r2, #37
 6826 0088 0130     		adds	r0, r0, #1
 6827 008a 90FBF2F5 		sdiv	r5, r0, r2
 6828 008e 02FB1502 		mls	r2, r2, r5, r0
2420:bluetooth_rxtx.c **** 			le.conn_count = 0;
 6829              		.loc 1 2420 0
 6830 0092 0023     		movs	r3, #0
 6831              	.LVL677:
 6832 0094 8B84     		strh	r3, [r1, #36]	@ movhi
2421:bluetooth_rxtx.c **** 			do_hop = 0;
 6833              		.loc 1 2421 0
 6834 0096 CB61     		str	r3, [r1, #28]
2422:bluetooth_rxtx.c **** 			// Move on to regular connection following.
 6835              		.loc 1 2422 0
 6836 0098 E372     		strb	r3, [r4, #11]
2425:bluetooth_rxtx.c **** 			le.link_state = LINK_CONNECTED;
 6837              		.loc 1 2425 0
 6838 009a 0320     		movs	r0, #3
2426:bluetooth_rxtx.c **** 			le.crc_verify = 0;
 6839              		.loc 1 2426 0
 6840 009c 4B61     		str	r3, [r1, #20]
2427:bluetooth_rxtx.c **** 			hop_mode = HOP_BTLE;
2428:bluetooth_rxtx.c **** 			packet_cb = connection_follow_cb;
 6841              		.loc 1 2428 0
 6842 009e 0F4B     		ldr	r3, .L735+20
2424:bluetooth_rxtx.c **** 			le.link_state = LINK_CONNECTED;
 6843              		.loc 1 2424 0
 6844 00a0 4A76     		strb	r2, [r1, #25]
2425:bluetooth_rxtx.c **** 			le.crc_verify = 0;
 6845              		.loc 1 2425 0
 6846 00a2 0876     		strb	r0, [r1, #24]
2429:bluetooth_rxtx.c **** 			le_promisc_state(3, &le.channel_increment, 1);
 6847              		.loc 1 2429 0
 6848 00a4 0122     		movs	r2, #1
 6849 00a6 1A31     		adds	r1, r1, #26
2428:bluetooth_rxtx.c **** 			le_promisc_state(3, &le.channel_increment, 1);
 6850              		.loc 1 2428 0
 6851 00a8 A361     		str	r3, [r4, #24]
2427:bluetooth_rxtx.c **** 			packet_cb = connection_follow_cb;
 6852              		.loc 1 2427 0
 6853 00aa A072     		strb	r0, [r4, #10]
 6854              		.loc 1 2429 0
 6855 00ac FFF7FEFF 		bl	le_promisc_state
 6856              	.LVL678:
2430:bluetooth_rxtx.c **** 
2431:bluetooth_rxtx.c **** 			if (jam_mode != JAM_NONE)
 6857              		.loc 1 2431 0
 6858 00b0 E37C     		ldrb	r3, [r4, #19]	@ zero_extendqisi2
ARM GAS  /tmp/ccTiCbBl.s 			page 186


 6859 00b2 43B1     		cbz	r3, .L726
2432:bluetooth_rxtx.c **** 				le_jam_count = JAM_COUNT_DEFAULT;
 6860              		.loc 1 2432 0
 6861 00b4 054B     		ldr	r3, .L735+4
 6862 00b6 2822     		movs	r2, #40
 6863 00b8 DA61     		str	r2, [r3, #28]
 6864 00ba 38BD     		pop	{r3, r4, r5, pc}
 6865              	.LVL679:
 6866              	.L731:
2433:bluetooth_rxtx.c **** 
2434:bluetooth_rxtx.c **** 			return;
2435:bluetooth_rxtx.c **** 		}
2436:bluetooth_rxtx.c **** 		hop_direct_channel = 2404;
 6867              		.loc 1 2436 0
 6868 00bc 40F66413 		movw	r3, #2404
 6869              	.LVL680:
 6870              	.L729:
 6871              	.LBE72:
 6872              	.LBE71:
 6873              	.LBE70:
2437:bluetooth_rxtx.c **** 		do_hop = 1;
2438:bluetooth_rxtx.c **** 	}
2439:bluetooth_rxtx.c **** 	else {
2440:bluetooth_rxtx.c **** 		hop_direct_channel = 2404;
 6874              		.loc 1 2440 0
 6875 00c0 A381     		strh	r3, [r4, #12]	@ movhi
2441:bluetooth_rxtx.c **** 		do_hop = 1;
 6876              		.loc 1 2441 0
 6877 00c2 0123     		movs	r3, #1
 6878 00c4 E372     		strb	r3, [r4, #11]
 6879              	.L726:
 6880 00c6 38BD     		pop	{r3, r4, r5, pc}
 6881              	.L736:
 6882              		.align	2
 6883              	.L735:
 6884 00c8 00000000 		.word	.LANCHOR1
 6885 00cc 00000000 		.word	.LANCHOR0
 6886 00d0 00000000 		.word	clkn
 6887 00d4 08400040 		.word	1073758216
 6888 00d8 00000000 		.word	.LANCHOR2
 6889 00dc 00000000 		.word	connection_follow_cb
 6890              		.cfi_endproc
 6891              	.LFE31:
 6893              		.section	.text.promisc_recover_hop_interval,"ax",%progbits
 6894              		.align	1
 6895              		.global	promisc_recover_hop_interval
 6896              		.thumb
 6897              		.thumb_func
 6899              	promisc_recover_hop_interval:
 6900              	.LFB32:
2442:bluetooth_rxtx.c **** 	}
2443:bluetooth_rxtx.c **** }
2444:bluetooth_rxtx.c **** 
2445:bluetooth_rxtx.c **** void promisc_recover_hop_interval(u8 *packet) {
 6901              		.loc 1 2445 0
 6902              		.cfi_startproc
 6903              		@ args = 0, pretend = 0, frame = 0
ARM GAS  /tmp/ccTiCbBl.s 			page 187


 6904              		@ frame_needed = 0, uses_anonymous_args = 0
 6905              	.LVL681:
 6906 0000 38B5     		push	{r3, r4, r5, lr}
 6907              		.cfi_def_cfa_offset 16
 6908              		.cfi_offset 3, -16
 6909              		.cfi_offset 4, -12
 6910              		.cfi_offset 5, -8
 6911              		.cfi_offset 14, -4
2446:bluetooth_rxtx.c **** 	static u32 prev_clk = 0;
2447:bluetooth_rxtx.c **** 
2448:bluetooth_rxtx.c **** 	u32 cur_clk = CLK100NS;
 6912              		.loc 1 2448 0
 6913 0002 254B     		ldr	r3, .L743
 6914 0004 40F63542 		movw	r2, #3125
 6915 0008 1C68     		ldr	r4, [r3]
 6916 000a 244B     		ldr	r3, .L743+4
 6917 000c C4F31304 		ubfx	r4, r4, #0, #20
 6918 0010 1B68     		ldr	r3, [r3]
2449:bluetooth_rxtx.c **** 	if (cur_clk < prev_clk)
 6919              		.loc 1 2449 0
 6920 0012 234D     		ldr	r5, .L743+8
2448:bluetooth_rxtx.c **** 	if (cur_clk < prev_clk)
 6921              		.loc 1 2448 0
 6922 0014 02FB0434 		mla	r4, r2, r4, r3
 6923              	.LVL682:
 6924              		.loc 1 2449 0
 6925 0018 EB6B     		ldr	r3, [r5, #60]
 6926 001a 9C42     		cmp	r4, r3
 6927 001c 05D2     		bcs	.L738
2450:bluetooth_rxtx.c **** 		cur_clk += 3267800000; // handle rollover
 6928              		.loc 1 2450 0
 6929 001e 04F14344 		add	r4, r4, #-1023410176
 6930              	.LVL683:
 6931 0022 A4F56514 		sub	r4, r4, #3751936
 6932              	.LVL684:
 6933 0026 A4F5A254 		sub	r4, r4, #5184
 6934              	.LVL685:
 6935              	.L738:
2451:bluetooth_rxtx.c **** 	u32 clk_diff = cur_clk - prev_clk;
 6936              		.loc 1 2451 0
 6937 002a E31A     		subs	r3, r4, r3
 6938              	.LVL686:
2452:bluetooth_rxtx.c **** 	u16 obsv_hop_interval; // observed hop interval
2453:bluetooth_rxtx.c **** 
2454:bluetooth_rxtx.c **** 	// probably consecutive data packets on the same channel
2455:bluetooth_rxtx.c **** 	if (clk_diff < 2 * LE_BASECLK)
 6939              		.loc 1 2455 0
 6940 002c 46F2A712 		movw	r2, #24999
 6941 0030 9342     		cmp	r3, r2
 6942 0032 30D9     		bls	.L737
2456:bluetooth_rxtx.c **** 		return;
2457:bluetooth_rxtx.c **** 
2458:bluetooth_rxtx.c **** 	if (clk_diff < le_promisc.smallest_hop_interval)
 6943              		.loc 1 2458 0
 6944 0034 1B4A     		ldr	r2, .L743+12
 6945 0036 D2F80011 		ldr	r1, [r2, #256]
 6946 003a 8B42     		cmp	r3, r1
ARM GAS  /tmp/ccTiCbBl.s 			page 188


2459:bluetooth_rxtx.c **** 		le_promisc.smallest_hop_interval = clk_diff;
 6947              		.loc 1 2459 0
 6948 003c 38BF     		it	cc
 6949 003e C2F80031 		strcc	r3, [r2, #256]
2460:bluetooth_rxtx.c **** 
2461:bluetooth_rxtx.c **** 	obsv_hop_interval = DIVIDE_ROUND(le_promisc.smallest_hop_interval, 37 * LE_BASECLK);
 6950              		.loc 1 2461 0
 6951 0042 D2F80021 		ldr	r2, [r2, #256]
 6952 0046 1849     		ldr	r1, .L743+16
 6953 0048 02F56132 		add	r2, r2, #230400
 6954 004c 02F25232 		addw	r2, r2, #850
 6955 0050 B2FBF1F2 		udiv	r2, r2, r1
2462:bluetooth_rxtx.c **** 
2463:bluetooth_rxtx.c **** 	if (le.conn_interval == obsv_hop_interval) {
 6956              		.loc 1 2463 0
 6957 0054 1549     		ldr	r1, .L743+20
2461:bluetooth_rxtx.c **** 
 6958              		.loc 1 2461 0
 6959 0056 92B2     		uxth	r2, r2
 6960              	.LVL687:
 6961              		.loc 1 2463 0
 6962 0058 488C     		ldrh	r0, [r1, #34]
 6963              	.LVL688:
2461:bluetooth_rxtx.c **** 
 6964              		.loc 1 2461 0
 6965 005a 124B     		ldr	r3, .L743+12
 6966              	.LVL689:
 6967              		.loc 1 2463 0
 6968 005c 9042     		cmp	r0, r2
 6969 005e 15D1     		bne	.L741
2464:bluetooth_rxtx.c **** 		// 5 consecutive hop intervals: consider it legit and move on
2465:bluetooth_rxtx.c **** 		++le_promisc.consec_intervals;
 6970              		.loc 1 2465 0
 6971 0060 D3F80421 		ldr	r2, [r3, #260]
 6972              	.LVL690:
 6973 0064 0132     		adds	r2, r2, #1
2466:bluetooth_rxtx.c **** 		if (le_promisc.consec_intervals == 5) {
 6974              		.loc 1 2466 0
 6975 0066 052A     		cmp	r2, #5
2465:bluetooth_rxtx.c **** 		if (le_promisc.consec_intervals == 5) {
 6976              		.loc 1 2465 0
 6977 0068 C3F80421 		str	r2, [r3, #260]
 6978              		.loc 1 2466 0
 6979 006c 12D1     		bne	.L742
2467:bluetooth_rxtx.c **** 			packet_cb = promisc_recover_hop_increment;
 6980              		.loc 1 2467 0
 6981 006e 104B     		ldr	r3, .L743+24
2468:bluetooth_rxtx.c **** 			hop_direct_channel = 2404;
2469:bluetooth_rxtx.c **** 			hop_mode = HOP_DIRECT;
2470:bluetooth_rxtx.c **** 			do_hop = 1;
2471:bluetooth_rxtx.c **** 			le_promisc_state(2, &le.conn_interval, 2);
 6982              		.loc 1 2471 0
 6983 0070 0220     		movs	r0, #2
2467:bluetooth_rxtx.c **** 			packet_cb = promisc_recover_hop_increment;
 6984              		.loc 1 2467 0
 6985 0072 AB61     		str	r3, [r5, #24]
2468:bluetooth_rxtx.c **** 			hop_direct_channel = 2404;
ARM GAS  /tmp/ccTiCbBl.s 			page 189


 6986              		.loc 1 2468 0
 6987 0074 40F66413 		movw	r3, #2404
 6988 0078 AB81     		strh	r3, [r5, #12]	@ movhi
2469:bluetooth_rxtx.c **** 			do_hop = 1;
 6989              		.loc 1 2469 0
 6990 007a 0423     		movs	r3, #4
 6991 007c AB72     		strb	r3, [r5, #10]
 6992              		.loc 1 2471 0
 6993 007e 2231     		adds	r1, r1, #34
2470:bluetooth_rxtx.c **** 			le_promisc_state(2, &le.conn_interval, 2);
 6994              		.loc 1 2470 0
 6995 0080 0123     		movs	r3, #1
 6996              		.loc 1 2471 0
 6997 0082 0246     		mov	r2, r0
2470:bluetooth_rxtx.c **** 			le_promisc_state(2, &le.conn_interval, 2);
 6998              		.loc 1 2470 0
 6999 0084 EB72     		strb	r3, [r5, #11]
 7000              		.loc 1 2471 0
 7001 0086 FFF7FEFF 		bl	le_promisc_state
 7002              	.LVL691:
 7003 008a 03E0     		b	.L742
 7004              	.LVL692:
 7005              	.L741:
2472:bluetooth_rxtx.c **** 		}
2473:bluetooth_rxtx.c **** 	} else {
2474:bluetooth_rxtx.c **** 		le.conn_interval = obsv_hop_interval;
 7006              		.loc 1 2474 0
 7007 008c 4A84     		strh	r2, [r1, #34]	@ movhi
2475:bluetooth_rxtx.c **** 		le_promisc.consec_intervals = 0;
 7008              		.loc 1 2475 0
 7009 008e 0022     		movs	r2, #0
 7010              	.LVL693:
 7011 0090 C3F80421 		str	r2, [r3, #260]
 7012              	.LVL694:
 7013              	.L742:
2476:bluetooth_rxtx.c **** 	}
2477:bluetooth_rxtx.c **** 
2478:bluetooth_rxtx.c **** 	prev_clk = cur_clk;
 7014              		.loc 1 2478 0
 7015 0094 EC63     		str	r4, [r5, #60]
 7016              	.L737:
 7017 0096 38BD     		pop	{r3, r4, r5, pc}
 7018              	.LVL695:
 7019              	.L744:
 7020              		.align	2
 7021              	.L743:
 7022 0098 00000000 		.word	clkn
 7023 009c 08400040 		.word	1073758216
 7024 00a0 00000000 		.word	.LANCHOR0
 7025 00a4 00000000 		.word	le_promisc
 7026 00a8 A40E0700 		.word	462500
 7027 00ac 00000000 		.word	.LANCHOR1
 7028 00b0 00000000 		.word	promisc_recover_hop_increment
 7029              		.cfi_endproc
 7030              	.LFE32:
 7032              		.section	.text.promisc_follow_cb,"ax",%progbits
 7033              		.align	1
ARM GAS  /tmp/ccTiCbBl.s 			page 190


 7034              		.global	promisc_follow_cb
 7035              		.thumb
 7036              		.thumb_func
 7038              	promisc_follow_cb:
 7039              	.LFB33:
2479:bluetooth_rxtx.c **** }
2480:bluetooth_rxtx.c **** 
2481:bluetooth_rxtx.c **** void promisc_follow_cb(u8 *packet) {
 7040              		.loc 1 2481 0
 7041              		.cfi_startproc
 7042              		@ args = 0, pretend = 0, frame = 0
 7043              		@ frame_needed = 0, uses_anonymous_args = 0
 7044              	.LVL696:
 7045 0000 38B5     		push	{r3, r4, r5, lr}
 7046              		.cfi_def_cfa_offset 16
 7047              		.cfi_offset 3, -16
 7048              		.cfi_offset 4, -12
 7049              		.cfi_offset 5, -8
 7050              		.cfi_offset 14, -4
2482:bluetooth_rxtx.c **** 	int i;
2483:bluetooth_rxtx.c **** 
2484:bluetooth_rxtx.c **** 	// get the CRCInit
2485:bluetooth_rxtx.c **** 	if (!le.crc_verify && packet[4] == 0x01 && packet[5] == 0x00) {
 7051              		.loc 1 2485 0
 7052 0002 184C     		ldr	r4, .L750
2481:bluetooth_rxtx.c **** 	int i;
 7053              		.loc 1 2481 0
 7054 0004 0146     		mov	r1, r0
 7055              		.loc 1 2485 0
 7056 0006 6369     		ldr	r3, [r4, #20]
 7057 0008 53BB     		cbnz	r3, .L745
 7058              		.loc 1 2485 0 is_stmt 0 discriminator 1
 7059 000a 0379     		ldrb	r3, [r0, #4]	@ zero_extendqisi2
 7060 000c 012B     		cmp	r3, #1
 7061 000e 27D1     		bne	.L745
 7062 0010 4579     		ldrb	r5, [r0, #5]	@ zero_extendqisi2
 7063 0012 2DBB     		cbnz	r5, .L745
 7064              	.LVL697:
 7065              	.LBB76:
 7066              	.LBB77:
 7067              	.LBB78:
2486:bluetooth_rxtx.c **** 		u32 crc = (packet[8] << 16) | (packet[7] << 8) | packet[6];
 7068              		.loc 1 2486 0 is_stmt 1
 7069 0014 037A     		ldrb	r3, [r0, #8]	@ zero_extendqisi2
 7070 0016 C079     		ldrb	r0, [r0, #7]	@ zero_extendqisi2
 7071              	.LVL698:
2487:bluetooth_rxtx.c **** 
2488:bluetooth_rxtx.c **** 		le.crc_init = btle_reverse_crc(crc, packet + 4, 2);
 7072              		.loc 1 2488 0
 7073 0018 0222     		movs	r2, #2
2486:bluetooth_rxtx.c **** 		u32 crc = (packet[8] << 16) | (packet[7] << 8) | packet[6];
 7074              		.loc 1 2486 0
 7075 001a 0002     		lsls	r0, r0, #8
 7076 001c 40EA0340 		orr	r0, r0, r3, lsl #16
 7077 0020 8B79     		ldrb	r3, [r1, #6]	@ zero_extendqisi2
 7078              		.loc 1 2488 0
 7079 0022 0431     		adds	r1, r1, #4
ARM GAS  /tmp/ccTiCbBl.s 			page 191


 7080              	.LVL699:
 7081 0024 1843     		orrs	r0, r0, r3
 7082 0026 FFF7FEFF 		bl	btle_reverse_crc
 7083              	.LVL700:
 7084 002a 2A46     		mov	r2, r5
 7085 002c E060     		str	r0, [r4, #12]
 7086              	.LVL701:
2489:bluetooth_rxtx.c **** 		le.crc_init_reversed = 0;
2490:bluetooth_rxtx.c **** 		for (i = 0; i < 24; ++i)
 7087              		.loc 1 2490 0
 7088 002e 2B46     		mov	r3, r5
 7089              	.LVL702:
 7090              	.L748:
2491:bluetooth_rxtx.c **** 			le.crc_init_reversed |= ((le.crc_init >> i) & 1) << (23 - i);
 7091              		.loc 1 2491 0
 7092 0030 20FA03F1 		lsr	r1, r0, r3
 7093 0034 C3F11705 		rsb	r5, r3, #23
 7094 0038 01F00101 		and	r1, r1, #1
 7095 003c A940     		lsls	r1, r1, r5
2490:bluetooth_rxtx.c **** 			le.crc_init_reversed |= ((le.crc_init >> i) & 1) << (23 - i);
 7096              		.loc 1 2490 0
 7097 003e 0133     		adds	r3, r3, #1
 7098              	.LVL703:
 7099 0040 182B     		cmp	r3, #24
 7100              		.loc 1 2491 0
 7101 0042 42EA0102 		orr	r2, r2, r1
2490:bluetooth_rxtx.c **** 			le.crc_init_reversed |= ((le.crc_init >> i) & 1) << (23 - i);
 7102              		.loc 1 2490 0
 7103 0046 F3D1     		bne	.L748
 7104 0048 2261     		str	r2, [r4, #16]
2492:bluetooth_rxtx.c **** 
2493:bluetooth_rxtx.c **** 		le.crc_verify = 1;
2494:bluetooth_rxtx.c **** 		packet_cb = promisc_recover_hop_interval;
 7105              		.loc 1 2494 0
 7106 004a 074B     		ldr	r3, .L750+4
 7107              	.LVL704:
 7108 004c 074A     		ldr	r2, .L750+8
2493:bluetooth_rxtx.c **** 		packet_cb = promisc_recover_hop_interval;
 7109              		.loc 1 2493 0
 7110 004e 0120     		movs	r0, #1
 7111              		.loc 1 2494 0
 7112 0050 9A61     		str	r2, [r3, #24]
2493:bluetooth_rxtx.c **** 		packet_cb = promisc_recover_hop_interval;
 7113              		.loc 1 2493 0
 7114 0052 6061     		str	r0, [r4, #20]
2495:bluetooth_rxtx.c **** 		le_promisc_state(1, &le.crc_init, 3);
 7115              		.loc 1 2495 0
 7116 0054 0649     		ldr	r1, .L750+12
 7117 0056 0322     		movs	r2, #3
 7118              	.LBE78:
 7119              	.LBE77:
 7120              	.LBE76:
2496:bluetooth_rxtx.c **** 	}
2497:bluetooth_rxtx.c **** }
 7121              		.loc 1 2497 0
 7122 0058 BDE83840 		pop	{r3, r4, r5, lr}
 7123              	.LBB81:
ARM GAS  /tmp/ccTiCbBl.s 			page 192


 7124              	.LBB80:
 7125              	.LBB79:
2495:bluetooth_rxtx.c **** 		le_promisc_state(1, &le.crc_init, 3);
 7126              		.loc 1 2495 0
 7127 005c FFF7FEBF 		b	le_promisc_state
 7128              	.LVL705:
 7129              	.L745:
 7130 0060 38BD     		pop	{r3, r4, r5, pc}
 7131              	.L751:
 7132 0062 00BF     		.align	2
 7133              	.L750:
 7134 0064 00000000 		.word	.LANCHOR1
 7135 0068 00000000 		.word	.LANCHOR0
 7136 006c 00000000 		.word	promisc_recover_hop_interval
 7137 0070 0C000000 		.word	.LANCHOR1+12
 7138              	.LBE79:
 7139              	.LBE80:
 7140              	.LBE81:
 7141              		.cfi_endproc
 7142              	.LFE33:
 7144              		.section	.text.see_aa,"ax",%progbits
 7145              		.align	1
 7146              		.global	see_aa
 7147              		.thumb
 7148              		.thumb_func
 7150              	see_aa:
 7151              	.LFB34:
2498:bluetooth_rxtx.c **** 
2499:bluetooth_rxtx.c **** // called when we see an AA, add it to the list
2500:bluetooth_rxtx.c **** void see_aa(u32 aa) {
 7152              		.loc 1 2500 0
 7153              		.cfi_startproc
 7154              		@ args = 0, pretend = 0, frame = 0
 7155              		@ frame_needed = 0, uses_anonymous_args = 0
 7156              	.LVL706:
 7157 0000 30B5     		push	{r4, r5, lr}
 7158              		.cfi_def_cfa_offset 12
 7159              		.cfi_offset 4, -12
 7160              		.cfi_offset 5, -8
 7161              		.cfi_offset 14, -4
 7162              	.LVL707:
2501:bluetooth_rxtx.c **** 	int i, max = -1, killme = -1;
2502:bluetooth_rxtx.c **** 	for (i = 0; i < AA_LIST_SIZE; ++i)
 7163              		.loc 1 2502 0
 7164 0002 0022     		movs	r2, #0
 7165              	.LVL708:
 7166              	.L756:
2503:bluetooth_rxtx.c **** 		if (le_promisc.active_aa[i].aa == aa) {
 7167              		.loc 1 2503 0
 7168 0004 144D     		ldr	r5, .L765
 7169 0006 55F83210 		ldr	r1, [r5, r2, lsl #3]
 7170 000a 05EBC203 		add	r3, r5, r2, lsl #3
 7171 000e 8142     		cmp	r1, r0
 7172 0010 02D1     		bne	.L753
2504:bluetooth_rxtx.c **** 			++le_promisc.active_aa[i].count;
 7173              		.loc 1 2504 0
 7174 0012 5A68     		ldr	r2, [r3, #4]
ARM GAS  /tmp/ccTiCbBl.s 			page 193


 7175              	.LVL709:
 7176 0014 0132     		adds	r2, r2, #1
 7177 0016 1CE0     		b	.L764
 7178              	.LVL710:
 7179              	.L753:
2502:bluetooth_rxtx.c **** 		if (le_promisc.active_aa[i].aa == aa) {
 7180              		.loc 1 2502 0
 7181 0018 0132     		adds	r2, r2, #1
 7182              	.LVL711:
 7183 001a 202A     		cmp	r2, #32
 7184 001c F2D1     		bne	.L756
 7185 001e 4FF0FF33 		mov	r3, #-1
 7186 0022 1946     		mov	r1, r3
 7187 0024 0022     		movs	r2, #0
 7188              	.LVL712:
 7189              	.L759:
 7190 0026 05EBC204 		add	r4, r5, r2, lsl #3
2505:bluetooth_rxtx.c **** 			return;
2506:bluetooth_rxtx.c **** 		}
2507:bluetooth_rxtx.c **** 
2508:bluetooth_rxtx.c **** 	// evict someone
2509:bluetooth_rxtx.c **** 	for (i = 0; i < AA_LIST_SIZE; ++i)
2510:bluetooth_rxtx.c **** 		if (le_promisc.active_aa[i].count < max || max < 0) {
 7191              		.loc 1 2510 0
 7192 002a 6468     		ldr	r4, [r4, #4]
 7193 002c 8C42     		cmp	r4, r1
 7194 002e 05DB     		blt	.L760
 7195              		.loc 1 2510 0 is_stmt 0 discriminator 1
 7196 0030 0029     		cmp	r1, #0
 7197 0032 A8BF     		it	ge
 7198 0034 0C46     		movge	r4, r1
 7199 0036 B8BF     		it	lt
 7200 0038 1346     		movlt	r3, r2
 7201              	.LVL713:
 7202 003a 00E0     		b	.L757
 7203              	.LVL714:
 7204              	.L760:
 7205 003c 1346     		mov	r3, r2
 7206              	.LVL715:
 7207              	.L757:
2509:bluetooth_rxtx.c **** 		if (le_promisc.active_aa[i].count < max || max < 0) {
 7208              		.loc 1 2509 0 is_stmt 1
 7209 003e 0132     		adds	r2, r2, #1
 7210              	.LVL716:
 7211 0040 202A     		cmp	r2, #32
 7212 0042 01D0     		beq	.L758
 7213 0044 2146     		mov	r1, r4
 7214 0046 EEE7     		b	.L759
 7215              	.L758:
2511:bluetooth_rxtx.c **** 			killme = i;
2512:bluetooth_rxtx.c **** 			max = le_promisc.active_aa[i].count;
2513:bluetooth_rxtx.c **** 		}
2514:bluetooth_rxtx.c **** 
2515:bluetooth_rxtx.c **** 	le_promisc.active_aa[killme].aa = aa;
 7216              		.loc 1 2515 0
 7217 0048 45F83300 		str	r0, [r5, r3, lsl #3]
2516:bluetooth_rxtx.c **** 	le_promisc.active_aa[killme].count = 1;
ARM GAS  /tmp/ccTiCbBl.s 			page 194


 7218              		.loc 1 2516 0
 7219 004c 0122     		movs	r2, #1
 7220              	.LVL717:
 7221 004e 05EBC303 		add	r3, r5, r3, lsl #3
 7222              	.LVL718:
 7223              	.L764:
 7224 0052 5A60     		str	r2, [r3, #4]
 7225 0054 30BD     		pop	{r4, r5, pc}
 7226              	.L766:
 7227 0056 00BF     		.align	2
 7228              	.L765:
 7229 0058 00000000 		.word	le_promisc
 7230              		.cfi_endproc
 7231              	.LFE34:
 7233              		.section	.text.cb_le_promisc,"ax",%progbits
 7234              		.align	1
 7235              		.global	cb_le_promisc
 7236              		.thumb
 7237              		.thumb_func
 7239              	cb_le_promisc:
 7240              	.LFB35:
2517:bluetooth_rxtx.c **** }
2518:bluetooth_rxtx.c **** 
2519:bluetooth_rxtx.c **** /* le promiscuous mode */
2520:bluetooth_rxtx.c **** int cb_le_promisc(char *unpacked) {
 7241              		.loc 1 2520 0
 7242              		.cfi_startproc
 7243              		@ args = 0, pretend = 0, frame = 80
 7244              		@ frame_needed = 0, uses_anonymous_args = 0
 7245              	.LVL719:
 7246 0000 2DE9F043 		push	{r4, r5, r6, r7, r8, r9, lr}
 7247              		.cfi_def_cfa_offset 28
 7248              		.cfi_offset 4, -28
 7249              		.cfi_offset 5, -24
 7250              		.cfi_offset 6, -20
 7251              		.cfi_offset 7, -16
 7252              		.cfi_offset 8, -12
 7253              		.cfi_offset 9, -8
 7254              		.cfi_offset 14, -4
 7255 0004 95B0     		sub	sp, sp, #84
 7256              		.cfi_def_cfa_offset 112
2521:bluetooth_rxtx.c **** 	int i, j, k;
2522:bluetooth_rxtx.c **** 	int idx;
2523:bluetooth_rxtx.c **** 
2524:bluetooth_rxtx.c **** 	// empty data PDU: 01 00
2525:bluetooth_rxtx.c **** 	char desired[4][16] = {
 7257              		.loc 1 2525 0
 7258 0006 0021     		movs	r1, #0
2520:bluetooth_rxtx.c **** 	int i, j, k;
 7259              		.loc 1 2520 0
 7260 0008 8046     		mov	r8, r0
 7261              		.loc 1 2525 0
 7262 000a 4022     		movs	r2, #64
 7263 000c 04A8     		add	r0, sp, #16
 7264              	.LVL720:
 7265 000e FFF7FEFF 		bl	memset
 7266              	.LVL721:
ARM GAS  /tmp/ccTiCbBl.s 			page 195


 7267 0012 0123     		movs	r3, #1
 7268 0014 8DF81030 		strb	r3, [sp, #16]
 7269 0018 8DF82030 		strb	r3, [sp, #32]
 7270 001c 8DF82330 		strb	r3, [sp, #35]
 7271 0020 8DF83030 		strb	r3, [sp, #48]
 7272 0024 8DF83230 		strb	r3, [sp, #50]
 7273 0028 8DF84030 		strb	r3, [sp, #64]
 7274 002c 8DF84230 		strb	r3, [sp, #66]
 7275 0030 8DF84330 		strb	r3, [sp, #67]
 7276              	.LVL722:
 7277 0034 14AD     		add	r5, sp, #80
 7278 0036 04AC     		add	r4, sp, #16
 7279              	.LVL723:
 7280              	.L771:
2526:bluetooth_rxtx.c **** 		{ 1, 0, 0, 0, 0, 0, 0, 0,
2527:bluetooth_rxtx.c **** 		  0, 0, 0, 0, 0, 0, 0, 0, },
2528:bluetooth_rxtx.c **** 		{ 1, 0, 0, 1, 0, 0, 0, 0,
2529:bluetooth_rxtx.c **** 		  0, 0, 0, 0, 0, 0, 0, 0, },
2530:bluetooth_rxtx.c **** 		{ 1, 0, 1, 0, 0, 0, 0, 0,
2531:bluetooth_rxtx.c **** 		  0, 0, 0, 0, 0, 0, 0, 0, },
2532:bluetooth_rxtx.c **** 		{ 1, 0, 1, 1, 0, 0, 0, 0,
2533:bluetooth_rxtx.c **** 		  0, 0, 0, 0, 0, 0, 0, 0, },
2534:bluetooth_rxtx.c **** 	};
2535:bluetooth_rxtx.c **** 
2536:bluetooth_rxtx.c **** 	for (i = 0; i < 4; ++i) {
2537:bluetooth_rxtx.c **** 		idx = whitening_index[btle_channel_index(channel-2402)];
 7281              		.loc 1 2537 0
 7282 0038 504E     		ldr	r6, .L803
 7283 003a 514F     		ldr	r7, .L803+4
 7284 003c 3088     		ldrh	r0, [r6]
 7285 003e 80B2     		uxth	r0, r0
 7286 0040 6238     		subs	r0, r0, #98
 7287 0042 C0B2     		uxtb	r0, r0
 7288 0044 FFF7FEFF 		bl	btle_channel_index
 7289              	.LVL724:
 7290 0048 3A5C     		ldrb	r2, [r7, r0]	@ zero_extendqisi2
 7291              	.LVL725:
2538:bluetooth_rxtx.c **** 
2539:bluetooth_rxtx.c **** 		// whiten the desired data
2540:bluetooth_rxtx.c **** 		for (j = 0; j < (int)sizeof(desired[i]); ++j) {
 7292              		.loc 1 2540 0
 7293 004a 0023     		movs	r3, #0
 7294              	.LVL726:
 7295              	.L769:
2541:bluetooth_rxtx.c **** 			desired[i][j] ^= whitening[idx];
 7296              		.loc 1 2541 0 discriminator 2
 7297 004c B918     		adds	r1, r7, r2
 7298 004e E05C     		ldrb	r0, [r4, r3]	@ zero_extendqisi2
 7299 0050 91F82810 		ldrb	r1, [r1, #40]	@ zero_extendqisi2
2542:bluetooth_rxtx.c **** 			idx = (idx + 1) % sizeof(whitening);
 7300              		.loc 1 2542 0 discriminator 2
 7301 0054 0132     		adds	r2, r2, #1
 7302              	.LVL727:
2541:bluetooth_rxtx.c **** 			desired[i][j] ^= whitening[idx];
 7303              		.loc 1 2541 0 discriminator 2
 7304 0056 4140     		eors	r1, r1, r0
 7305 0058 E154     		strb	r1, [r4, r3]
ARM GAS  /tmp/ccTiCbBl.s 			page 196


 7306              		.loc 1 2542 0 discriminator 2
 7307 005a 7F21     		movs	r1, #127
2540:bluetooth_rxtx.c **** 			desired[i][j] ^= whitening[idx];
 7308              		.loc 1 2540 0 discriminator 2
 7309 005c 0133     		adds	r3, r3, #1
 7310              	.LVL728:
 7311              		.loc 1 2542 0 discriminator 2
 7312 005e B2FBF1F0 		udiv	r0, r2, r1
2540:bluetooth_rxtx.c **** 			desired[i][j] ^= whitening[idx];
 7313              		.loc 1 2540 0 discriminator 2
 7314 0062 102B     		cmp	r3, #16
 7315              		.loc 1 2542 0 discriminator 2
 7316 0064 01FB1022 		mls	r2, r1, r0, r2
 7317              	.LVL729:
2540:bluetooth_rxtx.c **** 			desired[i][j] ^= whitening[idx];
 7318              		.loc 1 2540 0 discriminator 2
 7319 0068 F0D1     		bne	.L769
 7320 006a 1034     		adds	r4, r4, #16
2536:bluetooth_rxtx.c **** 		idx = whitening_index[btle_channel_index(channel-2402)];
 7321              		.loc 1 2536 0
 7322 006c AC42     		cmp	r4, r5
 7323 006e E3D1     		bne	.L771
 7324 0070 08F12005 		add	r5, r8, #32
 7325 0074 08F53C78 		add	r8, r8, #752
 7326              	.LVL730:
 7327              	.L787:
 7328              	.LBB82:
2543:bluetooth_rxtx.c **** 		}
2544:bluetooth_rxtx.c **** 	}
2545:bluetooth_rxtx.c **** 
2546:bluetooth_rxtx.c **** 	// then look for that bitsream in our receive buffer
2547:bluetooth_rxtx.c **** 	for (i = 32; i < (DMA_SIZE*8*2 - 32 - 16); i++) {
2548:bluetooth_rxtx.c **** 		int ok[4] = { 1, 1, 1, 1 };
 7329              		.loc 1 2548 0
 7330 0078 424B     		ldr	r3, .L803+8
 7331 007a 6C46     		mov	r4, sp
 7332 007c 0FCB     		ldmia	r3, {r0, r1, r2, r3}
 7333 007e 8DE80F00 		stmia	sp, {r0, r1, r2, r3}
 7334              	.LVL731:
 7335 0082 0022     		movs	r2, #0
 7336              	.LVL732:
 7337              	.L772:
 7338 0084 04AB     		add	r3, sp, #16
 7339 0086 03EB8201 		add	r1, r3, r2, lsl #2
 7340              	.LBE82:
2540:bluetooth_rxtx.c **** 			desired[i][j] ^= whitening[idx];
 7341              		.loc 1 2540 0 discriminator 1
 7342 008a 0023     		movs	r3, #0
 7343              	.LVL733:
 7344              	.L777:
 7345              	.LBB87:
2549:bluetooth_rxtx.c **** 		int matching = -1;
2550:bluetooth_rxtx.c **** 
2551:bluetooth_rxtx.c **** 		for (j = 0; j < 4; ++j) {
2552:bluetooth_rxtx.c **** 			for (k = 0; k < (int)sizeof(desired[j]); ++k) {
2553:bluetooth_rxtx.c **** 				if (unpacked[i+k] != desired[j][k]) {
 7346              		.loc 1 2553 0
ARM GAS  /tmp/ccTiCbBl.s 			page 197


 7347 008c 15F803C0 		ldrb	ip, [r5, r3]	@ zero_extendqisi2
 7348 0090 C85C     		ldrb	r0, [r1, r3]	@ zero_extendqisi2
 7349 0092 8445     		cmp	ip, r0
 7350 0094 02D0     		beq	.L773
2554:bluetooth_rxtx.c **** 					ok[j] = 0;
 7351              		.loc 1 2554 0
 7352 0096 0023     		movs	r3, #0
 7353              	.LVL734:
 7354 0098 A350     		str	r3, [r4, r2]
2555:bluetooth_rxtx.c **** 					break;
 7355              		.loc 1 2555 0
 7356 009a 02E0     		b	.L774
 7357              	.LVL735:
 7358              	.L773:
2552:bluetooth_rxtx.c **** 				if (unpacked[i+k] != desired[j][k]) {
 7359              		.loc 1 2552 0
 7360 009c 0133     		adds	r3, r3, #1
 7361              	.LVL736:
 7362 009e 102B     		cmp	r3, #16
 7363 00a0 F4D1     		bne	.L777
 7364              	.LVL737:
 7365              	.L774:
 7366 00a2 0432     		adds	r2, r2, #4
2551:bluetooth_rxtx.c **** 			for (k = 0; k < (int)sizeof(desired[j]); ++k) {
 7367              		.loc 1 2551 0
 7368 00a4 102A     		cmp	r2, #16
 7369 00a6 EDD1     		bne	.L772
 7370 00a8 0023     		movs	r3, #0
 7371              	.L780:
2556:bluetooth_rxtx.c **** 				}
2557:bluetooth_rxtx.c **** 			}
2558:bluetooth_rxtx.c **** 		}
2559:bluetooth_rxtx.c **** 
2560:bluetooth_rxtx.c **** 		// see if any match
2561:bluetooth_rxtx.c **** 		for (j = 0; j < 4; ++j) {
2562:bluetooth_rxtx.c **** 			if (ok[j]) {
 7372              		.loc 1 2562 0
 7373 00aa E258     		ldr	r2, [r4, r3]
 7374 00ac 1AB9     		cbnz	r2, .L778
 7375 00ae 0433     		adds	r3, r3, #4
2561:bluetooth_rxtx.c **** 			if (ok[j]) {
 7376              		.loc 1 2561 0
 7377 00b0 102B     		cmp	r3, #16
 7378 00b2 FAD1     		bne	.L780
 7379 00b4 3EE0     		b	.L791
 7380              	.L778:
 7381              	.LVL738:
2563:bluetooth_rxtx.c **** 				matching = j;
2564:bluetooth_rxtx.c **** 				break;
2565:bluetooth_rxtx.c **** 			}
2566:bluetooth_rxtx.c **** 		}
2567:bluetooth_rxtx.c **** 
2568:bluetooth_rxtx.c **** 		// skip if no match
2569:bluetooth_rxtx.c **** 		if (matching < 0)
2570:bluetooth_rxtx.c **** 			continue;
2571:bluetooth_rxtx.c **** 
2572:bluetooth_rxtx.c **** 		// found a match! unwhiten it and send it home
ARM GAS  /tmp/ccTiCbBl.s 			page 198


2573:bluetooth_rxtx.c **** 		idx = whitening_index[btle_channel_index(channel-2402)];
 7382              		.loc 1 2573 0
 7383 00b6 3088     		ldrh	r0, [r6]
 7384 00b8 80B2     		uxth	r0, r0
 7385 00ba 6238     		subs	r0, r0, #98
 7386 00bc C0B2     		uxtb	r0, r0
 7387 00be FFF7FEFF 		bl	btle_channel_index
 7388              	.LVL739:
 7389 00c2 385C     		ldrb	r0, [r7, r0]	@ zero_extendqisi2
 7390              	.LVL740:
2574:bluetooth_rxtx.c **** 		for (j = 0; j < 4+3+3; ++j) {
 7391              		.loc 1 2574 0
 7392 00c4 0023     		movs	r3, #0
 7393              	.LVL741:
 7394              	.L792:
2551:bluetooth_rxtx.c **** 			for (k = 0; k < (int)sizeof(desired[j]); ++k) {
 7395              		.loc 1 2551 0 discriminator 1
 7396 00c6 0021     		movs	r1, #0
 7397 00c8 05EBC30C 		add	ip, r5, r3, lsl #3
 7398 00cc 0A46     		mov	r2, r1
 7399              	.LVL742:
 7400              	.L785:
 7401 00ce 0CEB0204 		add	r4, ip, r2
 7402              	.LBB83:
 7403              	.LBB84:
2575:bluetooth_rxtx.c **** 			u8 byte = 0;
2576:bluetooth_rxtx.c **** 			for (k = 0; k < 8; k++) {
2577:bluetooth_rxtx.c **** 				int offset = k + (j * 8) + i - 32;
2578:bluetooth_rxtx.c **** 				if (offset >= DMA_SIZE*8*2) break;
2579:bluetooth_rxtx.c **** 				int bit = unpacked[offset];
2580:bluetooth_rxtx.c **** 				if (j >= 4) { // unwhiten data bytes
 7404              		.loc 1 2580 0
 7405 00d2 032B     		cmp	r3, #3
2579:bluetooth_rxtx.c **** 				if (j >= 4) { // unwhiten data bytes
 7406              		.loc 1 2579 0
 7407 00d4 14F8204C 		ldrb	r4, [r4, #-32]	@ zero_extendqisi2
 7408              	.LVL743:
 7409              		.loc 1 2580 0
 7410 00d8 0CDD     		ble	.L782
2581:bluetooth_rxtx.c **** 					bit ^= whitening[idx];
 7411              		.loc 1 2581 0
 7412 00da 07EB000E 		add	lr, r7, r0
 7413 00de 9EF828E0 		ldrb	lr, [lr, #40]	@ zero_extendqisi2
2582:bluetooth_rxtx.c **** 					idx = (idx + 1) % sizeof(whitening);
 7414              		.loc 1 2582 0
 7415 00e2 0130     		adds	r0, r0, #1
 7416              	.LVL744:
2581:bluetooth_rxtx.c **** 					bit ^= whitening[idx];
 7417              		.loc 1 2581 0
 7418 00e4 84EA0E04 		eor	r4, r4, lr
 7419              	.LVL745:
 7420              		.loc 1 2582 0
 7421 00e8 4FF07F0E 		mov	lr, #127
 7422 00ec B0FBFEF9 		udiv	r9, r0, lr
 7423 00f0 0EFB1900 		mls	r0, lr, r9, r0
 7424              	.LVL746:
 7425              	.L782:
ARM GAS  /tmp/ccTiCbBl.s 			page 199


2583:bluetooth_rxtx.c **** 				}
2584:bluetooth_rxtx.c **** 				byte |= bit << k;
 7426              		.loc 1 2584 0
 7427 00f4 9440     		lsls	r4, r4, r2
 7428              	.LVL747:
 7429              	.LBE84:
2576:bluetooth_rxtx.c **** 				int offset = k + (j * 8) + i - 32;
 7430              		.loc 1 2576 0
 7431 00f6 0132     		adds	r2, r2, #1
 7432              	.LVL748:
 7433              	.LBB85:
 7434              		.loc 1 2584 0
 7435 00f8 2143     		orrs	r1, r1, r4
 7436              	.LVL749:
 7437              	.LBE85:
2576:bluetooth_rxtx.c **** 				int offset = k + (j * 8) + i - 32;
 7438              		.loc 1 2576 0
 7439 00fa 082A     		cmp	r2, #8
 7440              	.LBB86:
 7441              		.loc 1 2584 0
 7442 00fc C9B2     		uxtb	r1, r1
 7443              	.LVL750:
 7444              	.LBE86:
2576:bluetooth_rxtx.c **** 				int offset = k + (j * 8) + i - 32;
 7445              		.loc 1 2576 0
 7446 00fe E6D1     		bne	.L785
2585:bluetooth_rxtx.c **** 			}
2586:bluetooth_rxtx.c **** 			idle_rxbuf[j] = byte;
 7447              		.loc 1 2586 0
 7448 0100 214C     		ldr	r4, .L803+12
 7449 0102 2268     		ldr	r2, [r4]
 7450              	.LVL751:
 7451 0104 D154     		strb	r1, [r2, r3]
 7452              	.LBE83:
2574:bluetooth_rxtx.c **** 			u8 byte = 0;
 7453              		.loc 1 2574 0
 7454 0106 0133     		adds	r3, r3, #1
 7455              	.LVL752:
 7456 0108 0A2B     		cmp	r3, #10
 7457 010a DCD1     		bne	.L792
2587:bluetooth_rxtx.c **** 		}
2588:bluetooth_rxtx.c **** 
2589:bluetooth_rxtx.c **** 		u32 aa = (idle_rxbuf[3] << 24) |
 7458              		.loc 1 2589 0
 7459 010c 2368     		ldr	r3, [r4]
 7460              	.LVL753:
 7461 010e D978     		ldrb	r1, [r3, #3]	@ zero_extendqisi2
 7462              	.LVL754:
2590:bluetooth_rxtx.c **** 				 (idle_rxbuf[2] << 16) |
 7463              		.loc 1 2590 0
 7464 0110 2368     		ldr	r3, [r4]
 7465 0112 9B78     		ldrb	r3, [r3, #2]	@ zero_extendqisi2
2591:bluetooth_rxtx.c **** 				 (idle_rxbuf[1] <<  8) |
 7466              		.loc 1 2591 0
 7467 0114 2268     		ldr	r2, [r4]
2590:bluetooth_rxtx.c **** 				 (idle_rxbuf[2] << 16) |
 7468              		.loc 1 2590 0
ARM GAS  /tmp/ccTiCbBl.s 			page 200


 7469 0116 1B04     		lsls	r3, r3, #16
 7470              		.loc 1 2591 0
 7471 0118 5078     		ldrb	r0, [r2, #1]	@ zero_extendqisi2
 7472              	.LVL755:
2592:bluetooth_rxtx.c **** 				 (idle_rxbuf[0]);
 7473              		.loc 1 2592 0
 7474 011a 2268     		ldr	r2, [r4]
2589:bluetooth_rxtx.c **** 				 (idle_rxbuf[2] << 16) |
 7475              		.loc 1 2589 0
 7476 011c 43EA0163 		orr	r3, r3, r1, lsl #24
 7477              		.loc 1 2592 0
 7478 0120 1278     		ldrb	r2, [r2]	@ zero_extendqisi2
 7479              	.LVL756:
2590:bluetooth_rxtx.c **** 				 (idle_rxbuf[1] <<  8) |
 7480              		.loc 1 2590 0
 7481 0122 1343     		orrs	r3, r3, r2
2593:bluetooth_rxtx.c **** 		see_aa(aa);
 7482              		.loc 1 2593 0
 7483 0124 43EA0020 		orr	r0, r3, r0, lsl #8
 7484 0128 FFF7FEFF 		bl	see_aa
 7485              	.LVL757:
2594:bluetooth_rxtx.c **** 
2595:bluetooth_rxtx.c **** 		enqueue(LE_PACKET, (uint8_t*)idle_rxbuf);
 7486              		.loc 1 2595 0
 7487 012c 2168     		ldr	r1, [r4]
 7488 012e 0120     		movs	r0, #1
 7489 0130 FFF7FEFF 		bl	enqueue
 7490              	.LVL758:
 7491              	.L791:
 7492 0134 0135     		adds	r5, r5, #1
 7493              	.LVL759:
 7494              	.LBE87:
2547:bluetooth_rxtx.c **** 		int ok[4] = { 1, 1, 1, 1 };
 7495              		.loc 1 2547 0
 7496 0136 4545     		cmp	r5, r8
 7497 0138 9ED1     		bne	.L787
 7498 013a 0023     		movs	r3, #0
 7499              	.LVL760:
 7500              	.L790:
 7501 013c 134A     		ldr	r2, .L803+16
 7502 013e 02EBC301 		add	r1, r2, r3, lsl #3
2596:bluetooth_rxtx.c **** 
2597:bluetooth_rxtx.c **** 	}
2598:bluetooth_rxtx.c **** 
2599:bluetooth_rxtx.c **** 	// once we see an AA 5 times, start following it
2600:bluetooth_rxtx.c **** 	for (i = 0; i < AA_LIST_SIZE; ++i) {
2601:bluetooth_rxtx.c **** 		if (le_promisc.active_aa[i].count > 3) {
 7503              		.loc 1 2601 0
 7504 0142 4968     		ldr	r1, [r1, #4]
 7505 0144 0329     		cmp	r1, #3
 7506 0146 11DD     		ble	.L788
2602:bluetooth_rxtx.c **** 			le_set_access_address(le_promisc.active_aa[i].aa);
 7507              		.loc 1 2602 0
 7508 0148 52F83300 		ldr	r0, [r2, r3, lsl #3]
 7509 014c FFF7FEFF 		bl	le_set_access_address
 7510              	.LVL761:
2603:bluetooth_rxtx.c **** 			data_cb = cb_follow_le;
ARM GAS  /tmp/ccTiCbBl.s 			page 201


 7511              		.loc 1 2603 0
 7512 0150 0F4B     		ldr	r3, .L803+20
 7513 0152 104A     		ldr	r2, .L803+24
2604:bluetooth_rxtx.c **** 			packet_cb = promisc_follow_cb;
2605:bluetooth_rxtx.c **** 			le.crc_verify = 0;
 7514              		.loc 1 2605 0
 7515 0154 0024     		movs	r4, #0
2603:bluetooth_rxtx.c **** 			data_cb = cb_follow_le;
 7516              		.loc 1 2603 0
 7517 0156 5A62     		str	r2, [r3, #36]
2604:bluetooth_rxtx.c **** 			packet_cb = promisc_follow_cb;
 7518              		.loc 1 2604 0
 7519 0158 0F4A     		ldr	r2, .L803+28
2606:bluetooth_rxtx.c **** 			le_promisc_state(0, &le.access_address, 4);
 7520              		.loc 1 2606 0
 7521 015a 2046     		mov	r0, r4
2604:bluetooth_rxtx.c **** 			packet_cb = promisc_follow_cb;
 7522              		.loc 1 2604 0
 7523 015c 9A61     		str	r2, [r3, #24]
 7524              		.loc 1 2606 0
 7525 015e 0F49     		ldr	r1, .L803+32
 7526 0160 0422     		movs	r2, #4
2605:bluetooth_rxtx.c **** 			le_promisc_state(0, &le.access_address, 4);
 7527              		.loc 1 2605 0
 7528 0162 7461     		str	r4, [r6, #20]
 7529              		.loc 1 2606 0
 7530 0164 FFF7FEFF 		bl	le_promisc_state
 7531              	.LVL762:
2607:bluetooth_rxtx.c **** 			// quit using the old stuff and switch to sync mode
2608:bluetooth_rxtx.c **** 			return 0;
 7532              		.loc 1 2608 0
 7533 0168 2046     		mov	r0, r4
 7534 016a 03E0     		b	.L802
 7535              	.LVL763:
 7536              	.L788:
2600:bluetooth_rxtx.c **** 		if (le_promisc.active_aa[i].count > 3) {
 7537              		.loc 1 2600 0
 7538 016c 0133     		adds	r3, r3, #1
 7539              	.LVL764:
 7540 016e 202B     		cmp	r3, #32
 7541 0170 E4D1     		bne	.L790
2609:bluetooth_rxtx.c **** 		}
2610:bluetooth_rxtx.c **** 	}
2611:bluetooth_rxtx.c **** 
2612:bluetooth_rxtx.c **** 	return 1;
 7542              		.loc 1 2612 0
 7543 0172 0120     		movs	r0, #1
 7544              	.LVL765:
 7545              	.L802:
2613:bluetooth_rxtx.c **** }
 7546              		.loc 1 2613 0
 7547 0174 15B0     		add	sp, sp, #84
 7548              		@ sp needed
 7549 0176 BDE8F083 		pop	{r4, r5, r6, r7, r8, r9, pc}
 7550              	.LVL766:
 7551              	.L804:
 7552 017a 00BF     		.align	2
ARM GAS  /tmp/ccTiCbBl.s 			page 202


 7553              	.L803:
 7554 017c 00000000 		.word	.LANCHOR1
 7555 0180 00000000 		.word	.LANCHOR2
 7556 0184 98080000 		.word	.LANCHOR2+2200
 7557 0188 00000000 		.word	idle_rxbuf
 7558 018c 00000000 		.word	le_promisc
 7559 0190 00000000 		.word	.LANCHOR0
 7560 0194 00000000 		.word	cb_follow_le
 7561 0198 00000000 		.word	promisc_follow_cb
 7562 019c 04000000 		.word	.LANCHOR1+4
 7563              		.cfi_endproc
 7564              	.LFE35:
 7566              		.section	.text.bt_promisc_le,"ax",%progbits
 7567              		.align	1
 7568              		.global	bt_promisc_le
 7569              		.thumb
 7570              		.thumb_func
 7572              	bt_promisc_le:
 7573              	.LFB36:
2614:bluetooth_rxtx.c **** 
2615:bluetooth_rxtx.c **** void bt_promisc_le() {
 7574              		.loc 1 2615 0
 7575              		.cfi_startproc
 7576              		@ args = 0, pretend = 0, frame = 0
 7577              		@ frame_needed = 0, uses_anonymous_args = 0
 7578 0000 38B5     		push	{r3, r4, r5, lr}
 7579              		.cfi_def_cfa_offset 16
 7580              		.cfi_offset 3, -16
 7581              		.cfi_offset 4, -12
 7582              		.cfi_offset 5, -8
 7583              		.cfi_offset 14, -4
 7584              	.L806:
2616:bluetooth_rxtx.c **** 	while (requested_mode == MODE_BT_PROMISC_LE) {
 7585              		.loc 1 2616 0 discriminator 1
 7586 0002 164D     		ldr	r5, .L815
 7587 0004 AB7C     		ldrb	r3, [r5, #18]	@ zero_extendqisi2
 7588 0006 0A2B     		cmp	r3, #10
 7589 0008 26D1     		bne	.L805
2617:bluetooth_rxtx.c **** 		reset_le_promisc();
2618:bluetooth_rxtx.c **** 
2619:bluetooth_rxtx.c **** 		// jump to a random data channel and turn up the squelch
2620:bluetooth_rxtx.c **** 		if ((channel & 1) == 1)
 7590              		.loc 1 2620 0
 7591 000a 154C     		ldr	r4, .L815+4
2617:bluetooth_rxtx.c **** 		reset_le_promisc();
 7592              		.loc 1 2617 0
 7593 000c FFF7FEFF 		bl	reset_le_promisc
 7594              	.LVL767:
 7595              		.loc 1 2620 0
 7596 0010 2388     		ldrh	r3, [r4]
 7597 0012 DB07     		lsls	r3, r3, #31
2621:bluetooth_rxtx.c **** 			channel = 2440;
 7598              		.loc 1 2621 0
 7599 0014 44BF     		itt	mi
 7600 0016 40F68813 		movwmi	r3, #2440
 7601 001a 2380     		strhmi	r3, [r4]	@ movhi
2622:bluetooth_rxtx.c **** 
ARM GAS  /tmp/ccTiCbBl.s 			page 203


2623:bluetooth_rxtx.c **** 		// if the PC hasn't given us AA, determine by listening
2624:bluetooth_rxtx.c **** 		if (!le.target_set) {
 7602              		.loc 1 2624 0
 7603 001c 236C     		ldr	r3, [r4, #64]
 7604 001e 4BB9     		cbnz	r3, .L808
2625:bluetooth_rxtx.c **** 			// cs_threshold_req = -80;
2626:bluetooth_rxtx.c **** 			cs_threshold_calc_and_set(channel);
 7605              		.loc 1 2626 0
 7606 0020 0F4B     		ldr	r3, .L815+4
 7607 0022 1888     		ldrh	r0, [r3]
 7608 0024 80B2     		uxth	r0, r0
 7609 0026 FFF7FEFF 		bl	cs_threshold_calc_and_set
 7610              	.LVL768:
2627:bluetooth_rxtx.c **** 			data_cb = cb_le_promisc;
 7611              		.loc 1 2627 0
 7612 002a 0E4B     		ldr	r3, .L815+8
2628:bluetooth_rxtx.c **** 			bt_generic_le(MODE_BT_PROMISC_LE);
 7613              		.loc 1 2628 0
 7614 002c 0A20     		movs	r0, #10
2627:bluetooth_rxtx.c **** 			data_cb = cb_le_promisc;
 7615              		.loc 1 2627 0
 7616 002e 6B62     		str	r3, [r5, #36]
 7617              		.loc 1 2628 0
 7618 0030 FFF7FEFF 		bl	bt_generic_le
 7619              	.LVL769:
 7620              	.L808:
2629:bluetooth_rxtx.c **** 		}
2630:bluetooth_rxtx.c **** 
2631:bluetooth_rxtx.c **** 		// could have got mode change in middle of above
2632:bluetooth_rxtx.c **** 		if (requested_mode != MODE_BT_PROMISC_LE)
 7621              		.loc 1 2632 0
 7622 0034 AD7C     		ldrb	r5, [r5, #18]	@ zero_extendqisi2
 7623 0036 EDB2     		uxtb	r5, r5
 7624 0038 0A2D     		cmp	r5, #10
 7625 003a 0DD1     		bne	.L805
2633:bluetooth_rxtx.c **** 			break;
2634:bluetooth_rxtx.c **** 
2635:bluetooth_rxtx.c **** 		le_promisc_state(0, &le.access_address, 4);
 7626              		.loc 1 2635 0
 7627 003c 0020     		movs	r0, #0
 7628 003e 0A49     		ldr	r1, .L815+12
 7629 0040 0422     		movs	r2, #4
 7630 0042 FFF7FEFF 		bl	le_promisc_state
 7631              	.LVL770:
2636:bluetooth_rxtx.c **** 		packet_cb = promisc_follow_cb;
 7632              		.loc 1 2636 0
 7633 0046 094A     		ldr	r2, .L815+16
 7634 0048 044B     		ldr	r3, .L815
2637:bluetooth_rxtx.c **** 		le.crc_verify = 0;
2638:bluetooth_rxtx.c **** 		bt_le_sync(MODE_BT_PROMISC_LE);
 7635              		.loc 1 2638 0
 7636 004a 2846     		mov	r0, r5
2636:bluetooth_rxtx.c **** 		packet_cb = promisc_follow_cb;
 7637              		.loc 1 2636 0
 7638 004c 9A61     		str	r2, [r3, #24]
2637:bluetooth_rxtx.c **** 		le.crc_verify = 0;
 7639              		.loc 1 2637 0
ARM GAS  /tmp/ccTiCbBl.s 			page 204


 7640 004e 0023     		movs	r3, #0
 7641 0050 6361     		str	r3, [r4, #20]
 7642              		.loc 1 2638 0
 7643 0052 FFF7FEFF 		bl	bt_le_sync
 7644              	.LVL771:
 7645 0056 D4E7     		b	.L806
 7646              	.L805:
 7647 0058 38BD     		pop	{r3, r4, r5, pc}
 7648              	.L816:
 7649 005a 00BF     		.align	2
 7650              	.L815:
 7651 005c 00000000 		.word	.LANCHOR0
 7652 0060 00000000 		.word	.LANCHOR1
 7653 0064 00000000 		.word	cb_le_promisc
 7654 0068 04000000 		.word	.LANCHOR1+4
 7655 006c 00000000 		.word	promisc_follow_cb
 7656              		.cfi_endproc
 7657              	.LFE36:
 7659              		.section	.text.bt_slave_le,"ax",%progbits
 7660              		.align	1
 7661              		.global	bt_slave_le
 7662              		.thumb
 7663              		.thumb_func
 7665              	bt_slave_le:
 7666              	.LFB37:
2639:bluetooth_rxtx.c **** 	}
2640:bluetooth_rxtx.c **** }
2641:bluetooth_rxtx.c **** 
2642:bluetooth_rxtx.c **** void bt_slave_le() {
 7667              		.loc 1 2642 0
 7668              		.cfi_startproc
 7669              		@ args = 0, pretend = 0, frame = 40
 7670              		@ frame_needed = 0, uses_anonymous_args = 0
 7671 0000 2DE9F04F 		push	{r4, r5, r6, r7, r8, r9, r10, fp, lr}
 7672              		.cfi_def_cfa_offset 36
 7673              		.cfi_offset 4, -36
 7674              		.cfi_offset 5, -32
 7675              		.cfi_offset 6, -28
 7676              		.cfi_offset 7, -24
 7677              		.cfi_offset 8, -20
 7678              		.cfi_offset 9, -16
 7679              		.cfi_offset 10, -12
 7680              		.cfi_offset 11, -8
 7681              		.cfi_offset 14, -4
 7682 0004 8BB0     		sub	sp, sp, #44
 7683              		.cfi_def_cfa_offset 80
 7684              	.LVL772:
2643:bluetooth_rxtx.c **** 	u32 calc_crc;
2644:bluetooth_rxtx.c **** 	int i, j;
2645:bluetooth_rxtx.c **** 	int num_adv_ind = 1;
2646:bluetooth_rxtx.c **** 	int fin_adv_len = 0;
2647:bluetooth_rxtx.c **** 	u8 **adv_ind;
2648:bluetooth_rxtx.c **** 	u8 adv_ind_len;
2649:bluetooth_rxtx.c **** 	u16 ch[] = {2402, 2426, 2480};
 7685              		.loc 1 2649 0
 7686 0006 7549     		ldr	r1, .L855
2650:bluetooth_rxtx.c **** 
ARM GAS  /tmp/ccTiCbBl.s 			page 205


2651:bluetooth_rxtx.c **** 	u8 adv_overhead[20] = {0x42, 0x1d,	// adv_nonconn_ind, length 29 (0001 1101)
 7687              		.loc 1 2651 0
 7688 0008 05AA     		add	r2, sp, #20
2649:bluetooth_rxtx.c **** 
 7689              		.loc 1 2649 0
 7690 000a 8B88     		ldrh	r3, [r1, #4]	@ unaligned
 7691 000c 0868     		ldr	r0, [r1]	@ unaligned
 7692 000e ADF81030 		strh	r3, [sp, #16]	@ unaligned
 7693 0012 0390     		str	r0, [sp, #12]	@ unaligned
 7694              		.loc 1 2651 0
 7695 0014 8B1D     		adds	r3, r1, #6
 7696 0016 01F11605 		add	r5, r1, #22
 7697              	.L818:
 7698 001a 1868     		ldr	r0, [r3]	@ unaligned
 7699 001c 5968     		ldr	r1, [r3, #4]	@ unaligned
 7700 001e 1446     		mov	r4, r2
 7701 0020 03C4     		stmia	r4!, {r0, r1}
 7702 0022 0833     		adds	r3, r3, #8
 7703 0024 AB42     		cmp	r3, r5
 7704 0026 2246     		mov	r2, r4
 7705 0028 F7D1     		bne	.L818
 7706 002a 1868     		ldr	r0, [r3]	@ unaligned
2652:bluetooth_rxtx.c **** 						   0xff, 0xff, 0xff, 0xff, 0xff, 0xff, // adv mac address
2653:bluetooth_rxtx.c **** 						   0x03, 0x03, 0xaa, 0xfe, // service advertised - len, type, eddystone UUID
2654:bluetooth_rxtx.c **** 						   0x12, 0x16, 0xaa, 0xfe, // len(3 + URL frame + Eddystone URL), type, eddystone UUID
2655:bluetooth_rxtx.c **** 						   0x10, 0x00, 0x02, // URL frame - frametype(URL), tx power, URL scheme prefix (0x02: http:/
2656:bluetooth_rxtx.c **** 						   0xaa }; // preamble 0xaa
2657:bluetooth_rxtx.c **** 
2658:bluetooth_rxtx.c **** 	for (i = 0; i < 6; i++)
2659:bluetooth_rxtx.c **** 		slave_mac_address[i] = slave_mac_address_data[i];
 7707              		.loc 1 2659 0
 7708 002c 6C4A     		ldr	r2, .L855+4
2651:bluetooth_rxtx.c **** 						   0xff, 0xff, 0xff, 0xff, 0xff, 0xff, // adv mac address
 7709              		.loc 1 2651 0
 7710 002e 2060     		str	r0, [r4]	@ unaligned
 7711              	.LVL773:
 7712              		.loc 1 2659 0
 7713 0030 1468     		ldr	r4, [r2]
2658:bluetooth_rxtx.c **** 		slave_mac_address[i] = slave_mac_address_data[i];
 7714              		.loc 1 2658 0
 7715 0032 0023     		movs	r3, #0
 7716 0034 9346     		mov	fp, r2
 7717              	.LVL774:
 7718              	.L820:
 7719              		.loc 1 2659 0 discriminator 2
 7720 0036 6B49     		ldr	r1, .L855+8
 7721 0038 E05C     		ldrb	r0, [r4, r3]	@ zero_extendqisi2
 7722 003a 01F14002 		add	r2, r1, #64
 7723 003e 9854     		strb	r0, [r3, r2]
2658:bluetooth_rxtx.c **** 		slave_mac_address[i] = slave_mac_address_data[i];
 7724              		.loc 1 2658 0 discriminator 2
 7725 0040 0133     		adds	r3, r3, #1
 7726              	.LVL775:
 7727 0042 062B     		cmp	r3, #6
 7728 0044 8A46     		mov	r10, r1
 7729 0046 F6D1     		bne	.L820
2660:bluetooth_rxtx.c **** 
ARM GAS  /tmp/ccTiCbBl.s 			page 206


2661:bluetooth_rxtx.c **** 	// Standards said maximum advertising channel PDU length 39 bytes (adv payload 19 + 1 (preamble))
2662:bluetooth_rxtx.c **** 	// There's a probem, actual maximum length 34 bytes (adv payload 14 + 1 (preamble)) in ubertooth
2663:bluetooth_rxtx.c **** 	// Nexsus 5 smartphone can not receive BLE packet which has length over 31 bytes (adv payload 11 +
2664:bluetooth_rxtx.c **** 	fin_adv_len = (dlen-6) % 11;
 7730              		.loc 1 2664 0
 7731 0048 0A6A     		ldr	r2, [r1, #32]
 7732 004a 0B23     		movs	r3, #11
 7733              	.LVL776:
 7734 004c A2F10608 		sub	r8, r2, #6
 7735 0050 98FBF3F6 		sdiv	r6, r8, r3
2665:bluetooth_rxtx.c **** 	if (dlen > 11 + 6) {
 7736              		.loc 1 2665 0
 7737 0054 112A     		cmp	r2, #17
2664:bluetooth_rxtx.c **** 	if (dlen > 11 + 6) {
 7738              		.loc 1 2664 0
 7739 0056 03FB1688 		mls	r8, r3, r6, r8
 7740              	.LVL777:
 7741              		.loc 1 2665 0
 7742 005a 04DD     		ble	.L844
 7743              	.LVL778:
2666:bluetooth_rxtx.c **** 		num_adv_ind = (dlen-6)/11 + 1;
2667:bluetooth_rxtx.c **** 		fin_adv_len = (dlen-6) % 11;
2668:bluetooth_rxtx.c **** 		if (fin_adv_len == 0) {
 7744              		.loc 1 2668 0
 7745 005c B8F1000F 		cmp	r8, #0
 7746 0060 03D0     		beq	.L845
2666:bluetooth_rxtx.c **** 		num_adv_ind = (dlen-6)/11 + 1;
 7747              		.loc 1 2666 0
 7748 0062 0136     		adds	r6, r6, #1
 7749              	.LVL779:
 7750 0064 02E0     		b	.L821
 7751              	.LVL780:
 7752              	.L844:
2645:bluetooth_rxtx.c **** 	int fin_adv_len = 0;
 7753              		.loc 1 2645 0
 7754 0066 0126     		movs	r6, #1
 7755 0068 00E0     		b	.L821
 7756              	.LVL781:
 7757              	.L845:
2669:bluetooth_rxtx.c **** 			fin_adv_len = 11;
 7758              		.loc 1 2669 0
 7759 006a 9846     		mov	r8, r3
 7760              	.LVL782:
 7761              	.L821:
2670:bluetooth_rxtx.c **** 			num_adv_ind = num_adv_ind - 1;}
2671:bluetooth_rxtx.c **** 	}
2672:bluetooth_rxtx.c **** 
2673:bluetooth_rxtx.c **** 	adv_ind = (u8**) malloc(sizeof(u8*)*num_adv_ind);
 7762              		.loc 1 2673 0
 7763 006c B500     		lsls	r5, r6, #2
 7764 006e 2846     		mov	r0, r5
 7765 0070 FFF7FEFF 		bl	malloc
 7766              	.LVL783:
2674:bluetooth_rxtx.c **** 	for (i=0; i< num_adv_ind-1; i++) {
 7767              		.loc 1 2674 0
 7768 0074 0027     		movs	r7, #0
2673:bluetooth_rxtx.c **** 	for (i=0; i< num_adv_ind-1; i++) {
ARM GAS  /tmp/ccTiCbBl.s 			page 207


 7769              		.loc 1 2673 0
 7770 0076 0446     		mov	r4, r0
 7771              	.LVL784:
 7772              	.L822:
 7773              		.loc 1 2674 0 discriminator 1
 7774 0078 06F1FF39 		add	r9, r6, #-1
 7775 007c 4F45     		cmp	r7, r9
 7776 007e 06DA     		bge	.L852
2675:bluetooth_rxtx.c **** 		adv_ind[i] = (u8*) malloc(sizeof(u8)*31);
 7777              		.loc 1 2675 0 discriminator 2
 7778 0080 1F20     		movs	r0, #31
 7779 0082 FFF7FEFF 		bl	malloc
 7780              	.LVL785:
 7781 0086 44F82700 		str	r0, [r4, r7, lsl #2]
2674:bluetooth_rxtx.c **** 	for (i=0; i< num_adv_ind-1; i++) {
 7782              		.loc 1 2674 0 discriminator 2
 7783 008a 0137     		adds	r7, r7, #1
 7784              	.LVL786:
 7785 008c F4E7     		b	.L822
 7786              	.L852:
2676:bluetooth_rxtx.c **** 	}
2677:bluetooth_rxtx.c **** 	adv_ind[num_adv_ind-1] = (u8*) malloc(sizeof(u8)*(fin_adv_len + 1 + 3 + 4 + 4 + 6 + 2 + 3));
 7787              		.loc 1 2677 0
 7788 008e 08F11700 		add	r0, r8, #23
 7789 0092 FFF7FEFF 		bl	malloc
 7790              	.LVL787:
 7791 0096 043D     		subs	r5, r5, #4
 7792 0098 6051     		str	r0, [r4, r5]
 7793              	.LVL788:
2678:bluetooth_rxtx.c **** 
2679:bluetooth_rxtx.c **** 	for (i=0; i< num_adv_ind; i++) {
 7794              		.loc 1 2679 0
 7795 009a 0025     		movs	r5, #0
 7796 009c 2F46     		mov	r7, r5
 7797              	.LVL789:
 7798              	.L824:
 7799              		.loc 1 2679 0 is_stmt 0 discriminator 1
 7800 009e B742     		cmp	r7, r6
 7801 00a0 60DA     		bge	.L833
 7802              		.loc 1 2679 0
 7803 00a2 0023     		movs	r3, #0
 7804              	.L834:
 7805              	.LVL790:
2680:bluetooth_rxtx.c **** 		for (j=0; j<20; j++) adv_ind[i][j] = adv_overhead[j];
 7806              		.loc 1 2680 0 is_stmt 1 discriminator 2
 7807 00a4 05A8     		add	r0, sp, #20
 7808 00a6 C15C     		ldrb	r1, [r0, r3]	@ zero_extendqisi2
 7809 00a8 6259     		ldr	r2, [r4, r5]
 7810 00aa D154     		strb	r1, [r2, r3]
 7811 00ac 0133     		adds	r3, r3, #1
 7812              	.LVL791:
 7813 00ae 142B     		cmp	r3, #20
 7814 00b0 F8D1     		bne	.L834
 7815              		.loc 1 2680 0 is_stmt 0
 7816 00b2 0523     		movs	r3, #5
 7817              	.LVL792:
 7818              	.L827:
ARM GAS  /tmp/ccTiCbBl.s 			page 208


2681:bluetooth_rxtx.c **** 		for (j=0; j<6; j++) adv_ind[i][j+2] = slave_mac_address[5-j];
 7819              		.loc 1 2681 0 is_stmt 1 discriminator 2
 7820 00b4 4C49     		ldr	r1, .L855+12
 7821 00b6 6259     		ldr	r2, [r4, r5]
 7822 00b8 C85C     		ldrb	r0, [r1, r3]	@ zero_extendqisi2
 7823 00ba C3F10701 		rsb	r1, r3, #7
 7824 00be 13F1FF33 		adds	r3, r3, #-1
 7825              	.LVL793:
 7826 00c2 5054     		strb	r0, [r2, r1]
 7827              	.LVL794:
 7828 00c4 F6D2     		bcs	.L827
2682:bluetooth_rxtx.c **** 		adv_ind[i][17] = (u8) num_adv_ind;
 7829              		.loc 1 2682 0
 7830 00c6 6359     		ldr	r3, [r4, r5]
2683:bluetooth_rxtx.c **** 		adv_ind[i][19] = adv_overhead[19] + (u8) i;
 7831              		.loc 1 2683 0
 7832 00c8 9DF82720 		ldrb	r2, [sp, #39]	@ zero_extendqisi2
2682:bluetooth_rxtx.c **** 		adv_ind[i][17] = (u8) num_adv_ind;
 7833              		.loc 1 2682 0
 7834 00cc 5E74     		strb	r6, [r3, #17]
 7835              		.loc 1 2683 0
 7836 00ce 6359     		ldr	r3, [r4, r5]
 7837 00d0 3A44     		add	r2, r2, r7
2684:bluetooth_rxtx.c **** 		if (i < num_adv_ind -1) {
 7838              		.loc 1 2684 0
 7839 00d2 4F45     		cmp	r7, r9
2683:bluetooth_rxtx.c **** 		adv_ind[i][19] = adv_overhead[19] + (u8) i;
 7840              		.loc 1 2683 0
 7841 00d4 DA74     		strb	r2, [r3, #19]
 7842              		.loc 1 2684 0
 7843 00d6 0EDA     		bge	.L828
 7844 00d8 0B21     		movs	r1, #11
 7845 00da 7943     		muls	r1, r7, r1
 7846 00dc 1423     		movs	r3, #20
 7847              	.L830:
 7848              	.LVL795:
2685:bluetooth_rxtx.c **** 			for (j=0; j<11; j++) adv_ind[i][j+20] = slave_mac_address_data[6+11*i+j];
 7849              		.loc 1 2685 0 discriminator 2
 7850 00de DBF80020 		ldr	r2, [fp]
 7851 00e2 0A44     		add	r2, r2, r1
 7852 00e4 1A44     		add	r2, r2, r3
 7853 00e6 12F80E0C 		ldrb	r0, [r2, #-14]	@ zero_extendqisi2
 7854 00ea 6259     		ldr	r2, [r4, r5]
 7855 00ec D054     		strb	r0, [r2, r3]
 7856              	.LVL796:
 7857 00ee 0133     		adds	r3, r3, #1
 7858              	.LVL797:
 7859 00f0 1F2B     		cmp	r3, #31
 7860 00f2 F4D1     		bne	.L830
 7861 00f4 21E0     		b	.L829
 7862              	.LVL798:
 7863              	.L828:
 7864 00f6 4FF00B0E 		mov	lr, #11
 7865              	.LBB88:
2686:bluetooth_rxtx.c **** 			adv_ind_len = (u8) 31;
2687:bluetooth_rxtx.c **** 		} else {
2688:bluetooth_rxtx.c **** 			u8 tot_len = (u8)(fin_adv_len + 18);
ARM GAS  /tmp/ccTiCbBl.s 			page 209


 7866              		.loc 1 2688 0
 7867 00fa 5FFA88F2 		uxtb	r2, r8
 7868 00fe 0EFB07FE 		mul	lr, lr, r7
2689:bluetooth_rxtx.c **** 			u8 adv_len = (u8)(fin_adv_len + 7);
 7869              		.loc 1 2689 0
 7870 0102 D31D     		adds	r3, r2, #7
 7871 0104 DBB2     		uxtb	r3, r3
2688:bluetooth_rxtx.c **** 			u8 adv_len = (u8)(fin_adv_len + 7);
 7872              		.loc 1 2688 0
 7873 0106 02F11200 		add	r0, r2, #18
 7874              		.loc 1 2689 0
 7875 010a 0193     		str	r3, [sp, #4]
2688:bluetooth_rxtx.c **** 			u8 adv_len = (u8)(fin_adv_len + 7);
 7876              		.loc 1 2688 0
 7877 010c C0B2     		uxtb	r0, r0
 7878              	.LVL799:
2690:bluetooth_rxtx.c **** 			for (j=0; j<fin_adv_len; j++) adv_ind[i][j+20] = slave_mac_address_data[6+11*i+j];
 7879              		.loc 1 2690 0
 7880 010e 0023     		movs	r3, #0
 7881              	.LVL800:
 7882              	.L831:
 7883              		.loc 1 2690 0 is_stmt 0 discriminator 1
 7884 0110 4345     		cmp	r3, r8
 7885 0112 0BDA     		bge	.L853
 7886              		.loc 1 2690 0 discriminator 2
 7887 0114 3249     		ldr	r1, .L855+4
 7888 0116 0968     		ldr	r1, [r1]
 7889 0118 7144     		add	r1, r1, lr
 7890 011a 1944     		add	r1, r1, r3
 7891 011c 91F806C0 		ldrb	ip, [r1, #6]	@ zero_extendqisi2
 7892 0120 6159     		ldr	r1, [r4, r5]
 7893 0122 1944     		add	r1, r1, r3
 7894 0124 81F814C0 		strb	ip, [r1, #20]
 7895 0128 0133     		adds	r3, r3, #1
 7896              	.LVL801:
 7897 012a F1E7     		b	.L831
 7898              	.L853:
2691:bluetooth_rxtx.c **** 			adv_ind[i][1] = tot_len;
 7899              		.loc 1 2691 0 is_stmt 1
 7900 012c 6359     		ldr	r3, [r4, r5]
 7901              	.LVL802:
2692:bluetooth_rxtx.c **** 			adv_ind[i][12] = adv_len;
2693:bluetooth_rxtx.c **** 			adv_ind_len = (u8) (fin_adv_len + 20);
 7902              		.loc 1 2693 0
 7903 012e 1432     		adds	r2, r2, #20
2691:bluetooth_rxtx.c **** 			adv_ind[i][1] = tot_len;
 7904              		.loc 1 2691 0
 7905 0130 5870     		strb	r0, [r3, #1]
2692:bluetooth_rxtx.c **** 			adv_ind[i][12] = adv_len;
 7906              		.loc 1 2692 0
 7907 0132 6359     		ldr	r3, [r4, r5]
 7908 0134 0198     		ldr	r0, [sp, #4]
 7909              	.LVL803:
 7910 0136 1873     		strb	r0, [r3, #12]
 7911              		.loc 1 2693 0
 7912 0138 D3B2     		uxtb	r3, r2
 7913              	.LVL804:
ARM GAS  /tmp/ccTiCbBl.s 			page 210


 7914              	.L829:
 7915              	.LBE88:
2694:bluetooth_rxtx.c **** 		}
2695:bluetooth_rxtx.c **** 
2696:bluetooth_rxtx.c **** 		calc_crc = btle_calc_crc(le.crc_init_reversed, adv_ind[i], adv_ind_len);
 7916              		.loc 1 2696 0
 7917 013a 2C4A     		ldr	r2, .L855+16
 7918 013c 6159     		ldr	r1, [r4, r5]
 7919 013e 1069     		ldr	r0, [r2, #16]
 7920 0140 1A46     		mov	r2, r3
 7921 0142 0093     		str	r3, [sp]
 7922 0144 FFF7FEFF 		bl	btle_calc_crc
 7923              	.LVL805:
2697:bluetooth_rxtx.c **** 		adv_ind_len = (int) adv_ind_len;
2698:bluetooth_rxtx.c **** 		adv_ind[i][adv_ind_len+0] = (calc_crc >> 0) & 0xff;
 7924              		.loc 1 2698 0
 7925 0148 6259     		ldr	r2, [r4, r5]
 7926 014a 009B     		ldr	r3, [sp]
2699:bluetooth_rxtx.c **** 		adv_ind[i][adv_ind_len+1] = (calc_crc >> 8) & 0xff;
 7927              		.loc 1 2699 0
 7928 014c 010A     		lsrs	r1, r0, #8
2698:bluetooth_rxtx.c **** 		adv_ind[i][adv_ind_len+1] = (calc_crc >> 8) & 0xff;
 7929              		.loc 1 2698 0
 7930 014e D054     		strb	r0, [r2, r3]
 7931              	.LVL806:
 7932              		.loc 1 2699 0
 7933 0150 6259     		ldr	r2, [r4, r5]
2700:bluetooth_rxtx.c **** 		adv_ind[i][adv_ind_len+2] = (calc_crc >> 16) & 0xff;
 7934              		.loc 1 2700 0
 7935 0152 000C     		lsrs	r0, r0, #16
 7936              	.LVL807:
2699:bluetooth_rxtx.c **** 		adv_ind[i][adv_ind_len+1] = (calc_crc >> 8) & 0xff;
 7937              		.loc 1 2699 0
 7938 0154 1A44     		add	r2, r2, r3
 7939 0156 5170     		strb	r1, [r2, #1]
 7940              		.loc 1 2700 0
 7941 0158 6259     		ldr	r2, [r4, r5]
2679:bluetooth_rxtx.c **** 		for (j=0; j<20; j++) adv_ind[i][j] = adv_overhead[j];
 7942              		.loc 1 2679 0
 7943 015a 0137     		adds	r7, r7, #1
 7944              	.LVL808:
 7945              		.loc 1 2700 0
 7946 015c 1344     		add	r3, r3, r2
 7947 015e 9870     		strb	r0, [r3, #2]
 7948 0160 0435     		adds	r5, r5, #4
 7949 0162 9CE7     		b	.L824
 7950              	.L833:
2701:bluetooth_rxtx.c **** 	}
2702:bluetooth_rxtx.c **** 
2703:bluetooth_rxtx.c **** 	clkn_start();
 7951              		.loc 1 2703 0
 7952 0164 FFF7FEFF 		bl	clkn_start
 7953              	.LVL809:
 7954              	.L835:
2704:bluetooth_rxtx.c **** 
2705:bluetooth_rxtx.c **** 	// spam advertising packets
2706:bluetooth_rxtx.c **** 	while (requested_mode == MODE_BT_SLAVE_LE) {
ARM GAS  /tmp/ccTiCbBl.s 			page 211


 7955              		.loc 1 2706 0 discriminator 1
 7956 0168 9AF81220 		ldrb	r2, [r10, #18]	@ zero_extendqisi2
 7957 016c 1D4B     		ldr	r3, .L855+8
 7958 016e 0C2A     		cmp	r2, #12
 7959 0170 2ED1     		bne	.L836
2707:bluetooth_rxtx.c **** 		if (requested_mode != mode) break;
 7960              		.loc 1 2707 0
 7961 0172 9A7C     		ldrb	r2, [r3, #18]	@ zero_extendqisi2
 7962 0174 5B7C     		ldrb	r3, [r3, #17]	@ zero_extendqisi2
 7963 0176 9A42     		cmp	r2, r3
 7964 0178 2AD1     		bne	.L836
2708:bluetooth_rxtx.c **** 		ICER0 = ICER0_ICE_USB;
 7965              		.loc 1 2708 0
 7966 017a 1D4B     		ldr	r3, .L855+20
 7967 017c 4FF08072 		mov	r2, #16777216
 7968 0180 1A60     		str	r2, [r3]
2709:bluetooth_rxtx.c **** 		ICER0 = ICER0_ICE_DMA;
 7969              		.loc 1 2709 0
 7970 0182 4FF08062 		mov	r2, #67108864
 7971 0186 1A60     		str	r2, [r3]
 7972              	.LVL810:
 7973 0188 0027     		movs	r7, #0
 7974              	.LVL811:
 7975              	.L837:
2679:bluetooth_rxtx.c **** 		for (j=0; j<20; j++) adv_ind[i][j] = adv_overhead[j];
 7976              		.loc 1 2679 0 discriminator 1
 7977 018a 0025     		movs	r5, #0
 7978              	.L842:
 7979              	.LVL812:
2710:bluetooth_rxtx.c **** 		for(i=0; i<3; i++) {
2711:bluetooth_rxtx.c **** 			for(j=0; j<num_adv_ind; j++) {
 7980              		.loc 1 2711 0 discriminator 1
 7981 018c B542     		cmp	r5, r6
 7982 018e 12DA     		bge	.L854
2712:bluetooth_rxtx.c **** 				if (j < num_adv_ind -1) {
 7983              		.loc 1 2712 0
 7984 0190 4D45     		cmp	r5, r9
 7985 0192 03AB     		add	r3, sp, #12
 7986 0194 02DA     		bge	.L838
 7987              	.LVL813:
2713:bluetooth_rxtx.c **** 					adv_ind_len = (u8) (31 + 3);
2714:bluetooth_rxtx.c **** 					le_transmit(0x8e89bed7, adv_ind_len, adv_ind[j], ch[i]);
 7988              		.loc 1 2714 0
 7989 0196 1748     		ldr	r0, .L855+24
 7990 0198 2221     		movs	r1, #34
 7991 019a 03E0     		b	.L851
 7992              	.LVL814:
 7993              	.L838:
2715:bluetooth_rxtx.c **** 				} else {
2716:bluetooth_rxtx.c **** 					adv_ind_len = (u8) (fin_adv_len + 20 + 3);
 7994              		.loc 1 2716 0
 7995 019c 08F11701 		add	r1, r8, #23
2717:bluetooth_rxtx.c **** 					le_transmit(0x8e89bed7, adv_ind_len, adv_ind[j], ch[i]);
 7996              		.loc 1 2717 0
 7997 01a0 1448     		ldr	r0, .L855+24
 7998 01a2 C9B2     		uxtb	r1, r1
 7999              	.LVL815:
ARM GAS  /tmp/ccTiCbBl.s 			page 212


 8000              	.L851:
 8001 01a4 54F82520 		ldr	r2, [r4, r5, lsl #2]
 8002 01a8 DB5B     		ldrh	r3, [r3, r7]
 8003 01aa FFF7FEFF 		bl	le_transmit
 8004              	.LVL816:
2711:bluetooth_rxtx.c **** 				if (j < num_adv_ind -1) {
 8005              		.loc 1 2711 0
 8006 01ae 0135     		adds	r5, r5, #1
 8007              	.LVL817:
2718:bluetooth_rxtx.c **** 				}
2719:bluetooth_rxtx.c **** 				msleep(10);
 8008              		.loc 1 2719 0
 8009 01b0 FFF7FEFF 		bl	msleep.constprop.3
 8010              	.LVL818:
 8011 01b4 EAE7     		b	.L842
 8012              	.L854:
 8013 01b6 0237     		adds	r7, r7, #2
2710:bluetooth_rxtx.c **** 			for(j=0; j<num_adv_ind; j++) {
 8014              		.loc 1 2710 0
 8015 01b8 062F     		cmp	r7, #6
 8016 01ba E6D1     		bne	.L837
2720:bluetooth_rxtx.c **** 			}
2721:bluetooth_rxtx.c **** 			//msleep(5);
2722:bluetooth_rxtx.c **** 		}
2723:bluetooth_rxtx.c **** 		ISER0 = ISER0_ISE_USB;
 8017              		.loc 1 2723 0
 8018 01bc 0E4B     		ldr	r3, .L855+28
 8019 01be 4FF08072 		mov	r2, #16777216
 8020 01c2 1A60     		str	r2, [r3]
2724:bluetooth_rxtx.c **** 		ISER0 = ISER0_ISE_DMA;
 8021              		.loc 1 2724 0
 8022 01c4 4FF08062 		mov	r2, #67108864
 8023 01c8 1A60     		str	r2, [r3]
2725:bluetooth_rxtx.c **** 		msleep(10);
 8024              		.loc 1 2725 0
 8025 01ca FFF7FEFF 		bl	msleep.constprop.3
 8026              	.LVL819:
 8027 01ce CBE7     		b	.L835
 8028              	.LVL820:
 8029              	.L836:
2726:bluetooth_rxtx.c **** 	}
2727:bluetooth_rxtx.c **** 	free(adv_ind);
 8030              		.loc 1 2727 0
 8031 01d0 2046     		mov	r0, r4
2728:bluetooth_rxtx.c **** }
 8032              		.loc 1 2728 0
 8033 01d2 0BB0     		add	sp, sp, #44
 8034              		@ sp needed
 8035 01d4 BDE8F04F 		pop	{r4, r5, r6, r7, r8, r9, r10, fp, lr}
 8036              	.LVL821:
2727:bluetooth_rxtx.c **** }
 8037              		.loc 1 2727 0
 8038 01d8 FFF7FEBF 		b	free
 8039              	.LVL822:
 8040              	.L856:
 8041              		.align	2
 8042              	.L855:
ARM GAS  /tmp/ccTiCbBl.s 			page 213


 8043 01dc A8080000 		.word	.LANCHOR2+2216
 8044 01e0 00000000 		.word	slave_mac_address_data
 8045 01e4 00000000 		.word	.LANCHOR0
 8046 01e8 40000000 		.word	.LANCHOR0+64
 8047 01ec 00000000 		.word	.LANCHOR1
 8048 01f0 80E100E0 		.word	-536813184
 8049 01f4 D7BE898E 		.word	-1903575337
 8050 01f8 00E100E0 		.word	-536813312
 8051              		.cfi_endproc
 8052              	.LFE37:
 8054              		.section	.text.bt_sync_le,"ax",%progbits
 8055              		.align	1
 8056              		.global	bt_sync_le
 8057              		.thumb
 8058              		.thumb_func
 8060              	bt_sync_le:
 8061              	.LFB38:
2729:bluetooth_rxtx.c **** 
2730:bluetooth_rxtx.c **** void bt_sync_le() {
 8062              		.loc 1 2730 0
 8063              		.cfi_startproc
 8064              		@ args = 0, pretend = 0, frame = 24
 8065              		@ frame_needed = 0, uses_anonymous_args = 0
 8066 0000 2DE9F041 		push	{r4, r5, r6, r7, r8, lr}
 8067              		.cfi_def_cfa_offset 24
 8068              		.cfi_offset 4, -24
 8069              		.cfi_offset 5, -20
 8070              		.cfi_offset 6, -16
 8071              		.cfi_offset 7, -12
 8072              		.cfi_offset 8, -8
 8073              		.cfi_offset 14, -4
 8074 0004 86B0     		sub	sp, sp, #24
 8075              		.cfi_def_cfa_offset 48
 8076              	.LVL823:
2731:bluetooth_rxtx.c **** 	u32 calc_crc;
2732:bluetooth_rxtx.c **** 	int i, j;
2733:bluetooth_rxtx.c **** 	int num_adv_ind = 1;
2734:bluetooth_rxtx.c **** 	u8 adv_ind_len;
2735:bluetooth_rxtx.c **** 	u8 *adv_ind;
2736:bluetooth_rxtx.c **** 	u16 ch[] = {2402, 2426, 2480};
2737:bluetooth_rxtx.c **** 
2738:bluetooth_rxtx.c **** 	u8 adv_sync[24] = {0x42, 0x16,	// adv_nonconn_ind, length 22 (0001 0110)
 8077              		.loc 1 2738 0
 8078 0006 284B     		ldr	r3, .L863
 8079 0008 6A46     		mov	r2, sp
 8080 000a 03F11806 		add	r6, r3, #24
 8081 000e 6D46     		mov	r5, sp
 8082              	.L858:
 8083 0010 1868     		ldr	r0, [r3]	@ unaligned
 8084 0012 5968     		ldr	r1, [r3, #4]	@ unaligned
 8085 0014 1446     		mov	r4, r2
 8086 0016 03C4     		stmia	r4!, {r0, r1}
 8087 0018 0833     		adds	r3, r3, #8
 8088 001a B342     		cmp	r3, r6
 8089 001c 2246     		mov	r2, r4
 8090 001e F7D1     		bne	.L858
 8091              	.LVL824:
ARM GAS  /tmp/ccTiCbBl.s 			page 214


2739:bluetooth_rxtx.c **** 					  0xff, 0xff, 0xff, 0xff, 0xff, 0xff, // adv mac address
2740:bluetooth_rxtx.c **** 					  0x03, 0x03, 0xaa, 0xfe, // service advertised - len, type, eddystone UUID
2741:bluetooth_rxtx.c **** 					  0x0b, 0x16, 0xaa, 0xfe, // len(3 + URL frame + Eddystone URL), type, eddystone UUID
2742:bluetooth_rxtx.c **** 					  0x10, 0x00, 0x02, // URL frame - frametype(URL), tx power, URL scheme prefix (0x02: http://)
2743:bluetooth_rxtx.c **** 					  0xff, 0x53, 0x59, 0x4e, 0x43}; // preamble 0xff, S, Y, N, C
2744:bluetooth_rxtx.c **** 
2745:bluetooth_rxtx.c **** 	// Standards said maximum advertising channel PDU length 39 bytes (adv payload 19 + 1 (preamble))
2746:bluetooth_rxtx.c **** 	// There's a probem, actual maximum length 34 bytes (adv payload 14 + 1 (preamble)) in ubertooth
2747:bluetooth_rxtx.c **** 	// Nexsus 5 smartphone can not receive BLE packet which has length over 31 bytes (adv payload 11 +
2748:bluetooth_rxtx.c **** 	adv_ind_len = 24; 
2749:bluetooth_rxtx.c **** 	adv_ind = (u8*) malloc(sizeof(u8)*24);
 8092              		.loc 1 2749 0
 8093 0020 1820     		movs	r0, #24
 8094 0022 FFF7FEFF 		bl	malloc
 8095              	.LVL825:
2750:bluetooth_rxtx.c **** 	for (i=0; i<24; i++)
 8096              		.loc 1 2750 0
 8097 0026 0022     		movs	r2, #0
2749:bluetooth_rxtx.c **** 	for (i=0; i<24; i++)
 8098              		.loc 1 2749 0
 8099 0028 0446     		mov	r4, r0
 8100              	.LVL826:
 8101              	.L860:
2751:bluetooth_rxtx.c **** 		adv_ind[i] = adv_sync[i];
 8102              		.loc 1 2751 0 discriminator 2
 8103 002a AB5C     		ldrb	r3, [r5, r2]	@ zero_extendqisi2
 8104 002c A354     		strb	r3, [r4, r2]
2750:bluetooth_rxtx.c **** 	for (i=0; i<24; i++)
 8105              		.loc 1 2750 0 discriminator 2
 8106 002e 0132     		adds	r2, r2, #1
 8107              	.LVL827:
 8108 0030 182A     		cmp	r2, #24
 8109 0032 FAD1     		bne	.L860
2752:bluetooth_rxtx.c **** 	calc_crc = btle_calc_crc(le.crc_init_reversed, adv_ind, adv_ind_len);
 8110              		.loc 1 2752 0
 8111 0034 1D4B     		ldr	r3, .L863+4
 8112 0036 2146     		mov	r1, r4
 8113 0038 1869     		ldr	r0, [r3, #16]
 8114              	.LVL828:
 8115 003a FFF7FEFF 		bl	btle_calc_crc
 8116              	.LVL829:
2753:bluetooth_rxtx.c **** 	adv_ind_len = (int) adv_ind_len;
2754:bluetooth_rxtx.c **** 	adv_ind[adv_ind_len+0] = (calc_crc >> 0) & 0xff;
2755:bluetooth_rxtx.c **** 	adv_ind[adv_ind_len+1] = (calc_crc >> 8) & 0xff;
2756:bluetooth_rxtx.c **** 	adv_ind[adv_ind_len+2] = (calc_crc >> 16) & 0xff;
2757:bluetooth_rxtx.c **** 
2758:bluetooth_rxtx.c **** 	clkn_start();
2759:bluetooth_rxtx.c **** 
2760:bluetooth_rxtx.c **** 	ICER0 = ICER0_ICE_USB;
 8117              		.loc 1 2760 0
 8118 003e 1C4E     		ldr	r6, .L863+8
2755:bluetooth_rxtx.c **** 	adv_ind[adv_ind_len+2] = (calc_crc >> 16) & 0xff;
 8119              		.loc 1 2755 0
 8120 0040 030A     		lsrs	r3, r0, #8
2754:bluetooth_rxtx.c **** 	adv_ind[adv_ind_len+1] = (calc_crc >> 8) & 0xff;
 8121              		.loc 1 2754 0
 8122 0042 2076     		strb	r0, [r4, #24]
ARM GAS  /tmp/ccTiCbBl.s 			page 215


2756:bluetooth_rxtx.c **** 
 8123              		.loc 1 2756 0
 8124 0044 000C     		lsrs	r0, r0, #16
 8125              	.LVL830:
 8126              		.loc 1 2760 0
 8127 0046 4FF08075 		mov	r5, #16777216
2755:bluetooth_rxtx.c **** 	adv_ind[adv_ind_len+2] = (calc_crc >> 16) & 0xff;
 8128              		.loc 1 2755 0
 8129 004a 6376     		strb	r3, [r4, #25]
2756:bluetooth_rxtx.c **** 
 8130              		.loc 1 2756 0
 8131 004c A076     		strb	r0, [r4, #26]
2761:bluetooth_rxtx.c **** 	ICER0 = ICER0_ICE_DMA;
 8132              		.loc 1 2761 0
 8133 004e 4FF08068 		mov	r8, #67108864
2758:bluetooth_rxtx.c **** 
 8134              		.loc 1 2758 0
 8135 0052 FFF7FEFF 		bl	clkn_start
 8136              	.LVL831:
2762:bluetooth_rxtx.c **** 	adv_ind_len = (u8) (adv_ind_len + 3);
2763:bluetooth_rxtx.c **** 	le_transmit(0x8e89bed7, adv_ind_len, adv_ind, ch[0]);
 8137              		.loc 1 2763 0
 8138 0056 1B21     		movs	r1, #27
 8139 0058 2246     		mov	r2, r4
2760:bluetooth_rxtx.c **** 	ICER0 = ICER0_ICE_DMA;
 8140              		.loc 1 2760 0
 8141 005a 3560     		str	r5, [r6]
 8142              		.loc 1 2763 0
 8143 005c 1548     		ldr	r0, .L863+12
2761:bluetooth_rxtx.c **** 	adv_ind_len = (u8) (adv_ind_len + 3);
 8144              		.loc 1 2761 0
 8145 005e C6F80080 		str	r8, [r6]
 8146              	.LVL832:
 8147              		.loc 1 2763 0
 8148 0062 40F66213 		movw	r3, #2402
 8149 0066 FFF7FEFF 		bl	le_transmit
 8150              	.LVL833:
2764:bluetooth_rxtx.c **** 	now_sync = (clkn & 0xffffff);
 8151              		.loc 1 2764 0
 8152 006a 134B     		ldr	r3, .L863+16
 8153 006c 134F     		ldr	r7, .L863+20
 8154 006e 1B68     		ldr	r3, [r3]
2765:bluetooth_rxtx.c **** 	start_sync = now_sync + 100 * 10000 / 3125; // wait for 99.8 ms
2766:bluetooth_rxtx.c **** 
2767:bluetooth_rxtx.c **** 	ISER0 = ISER0_ISE_USB;
2768:bluetooth_rxtx.c **** 	ISER0 = ISER0_ISE_DMA;
2769:bluetooth_rxtx.c **** 
2770:bluetooth_rxtx.c **** 	free(adv_ind);
 8155              		.loc 1 2770 0
 8156 0070 2046     		mov	r0, r4
2764:bluetooth_rxtx.c **** 	now_sync = (clkn & 0xffffff);
 8157              		.loc 1 2764 0
 8158 0072 23F07F43 		bic	r3, r3, #-16777216
 8159 0076 FB62     		str	r3, [r7, #44]
2765:bluetooth_rxtx.c **** 	start_sync = now_sync + 100 * 10000 / 3125; // wait for 99.8 ms
 8160              		.loc 1 2765 0
 8161 0078 03F5A073 		add	r3, r3, #320
ARM GAS  /tmp/ccTiCbBl.s 			page 216


 8162 007c BB62     		str	r3, [r7, #40]
2767:bluetooth_rxtx.c **** 	ISER0 = ISER0_ISE_DMA;
 8163              		.loc 1 2767 0
 8164 007e 104B     		ldr	r3, .L863+24
 8165 0080 1D60     		str	r5, [r3]
2768:bluetooth_rxtx.c **** 
 8166              		.loc 1 2768 0
 8167 0082 C3F80080 		str	r8, [r3]
 8168              		.loc 1 2770 0
 8169 0086 FFF7FEFF 		bl	free
 8170              	.LVL834:
2771:bluetooth_rxtx.c **** 	requested_mode = MODE_BT_RSSI_LE;
 8171              		.loc 1 2771 0
 8172 008a 1220     		movs	r0, #18
 8173 008c B874     		strb	r0, [r7, #18]
2772:bluetooth_rxtx.c **** 	bt_tracking_le(MODE_BT_RSSI_LE);
 8174              		.loc 1 2772 0
 8175 008e FFF7FEFF 		bl	bt_tracking_le
 8176              	.LVL835:
2773:bluetooth_rxtx.c **** 		
2774:bluetooth_rxtx.c **** 	ICER0 = ICER0_ICE_USB;
 8177              		.loc 1 2774 0
 8178 0092 3560     		str	r5, [r6]
2775:bluetooth_rxtx.c **** 	cc2400_idle();
 8179              		.loc 1 2775 0
 8180 0094 FFF7FEFF 		bl	cc2400_idle
 8181              	.LVL836:
2776:bluetooth_rxtx.c **** 	dio_ssp_stop ();
 8182              		.loc 1 2776 0
 8183 0098 FFF7FEFF 		bl	dio_ssp_stop
 8184              	.LVL837:
2777:bluetooth_rxtx.c **** 	cs_trigger_disable();
2778:bluetooth_rxtx.c **** }
 8185              		.loc 1 2778 0
 8186 009c 06B0     		add	sp, sp, #24
 8187              		@ sp needed
 8188 009e BDE8F041 		pop	{r4, r5, r6, r7, r8, lr}
 8189              	.LVL838:
2777:bluetooth_rxtx.c **** 	cs_trigger_disable();
 8190              		.loc 1 2777 0
 8191 00a2 FFF7FEBF 		b	cs_trigger_disable
 8192              	.LVL839:
 8193              	.L864:
 8194 00a6 00BF     		.align	2
 8195              	.L863:
 8196 00a8 C2080000 		.word	.LANCHOR2+2242
 8197 00ac 00000000 		.word	.LANCHOR1
 8198 00b0 80E100E0 		.word	-536813184
 8199 00b4 D7BE898E 		.word	-1903575337
 8200 00b8 00000000 		.word	clkn
 8201 00bc 00000000 		.word	.LANCHOR0
 8202 00c0 00E100E0 		.word	-536813312
 8203              		.cfi_endproc
 8204              	.LFE38:
 8206              		.section	.text.rx_generic_sync,"ax",%progbits
 8207              		.align	1
 8208              		.global	rx_generic_sync
ARM GAS  /tmp/ccTiCbBl.s 			page 217


 8209              		.thumb
 8210              		.thumb_func
 8212              	rx_generic_sync:
 8213              	.LFB39:
2779:bluetooth_rxtx.c **** 
2780:bluetooth_rxtx.c **** void rx_generic_sync(void) {
 8214              		.loc 1 2780 0
 8215              		.cfi_startproc
 8216              		@ args = 0, pretend = 0, frame = 40
 8217              		@ frame_needed = 0, uses_anonymous_args = 0
 8218 0000 00B5     		push	{lr}
 8219              		.cfi_def_cfa_offset 4
 8220              		.cfi_offset 14, -4
 8221 0002 8BB0     		sub	sp, sp, #44
 8222              		.cfi_def_cfa_offset 48
 8223              	.LVL840:
2781:bluetooth_rxtx.c **** 	u8 len = 32;
2782:bluetooth_rxtx.c **** 	u8 buf[len+4];
2783:bluetooth_rxtx.c **** 	u16 reg_val;
2784:bluetooth_rxtx.c **** 
2785:bluetooth_rxtx.c **** 	/* Put syncword at start of buffer
2786:bluetooth_rxtx.c **** 	 * DGS: fix this later, we don't know number of syncword bytes, etc
2787:bluetooth_rxtx.c **** 	 */
2788:bluetooth_rxtx.c **** 	reg_val = cc2400_get(SYNCH);
 8224              		.loc 1 2788 0
 8225 0004 2D20     		movs	r0, #45
 8226 0006 FFF7FEFF 		bl	cc2400_get
 8227              	.LVL841:
2789:bluetooth_rxtx.c **** 	buf[0] = (reg_val >> 8) & 0xFF;
 8228              		.loc 1 2789 0
 8229 000a 030A     		lsrs	r3, r0, #8
2790:bluetooth_rxtx.c **** 	buf[1] = reg_val & 0xFF;
 8230              		.loc 1 2790 0
 8231 000c 8DF80500 		strb	r0, [sp, #5]
2791:bluetooth_rxtx.c **** 	reg_val = cc2400_get(SYNCL);
 8232              		.loc 1 2791 0
 8233 0010 2C20     		movs	r0, #44
 8234              	.LVL842:
2789:bluetooth_rxtx.c **** 	buf[0] = (reg_val >> 8) & 0xFF;
 8235              		.loc 1 2789 0
 8236 0012 8DF80430 		strb	r3, [sp, #4]
 8237              		.loc 1 2791 0
 8238 0016 FFF7FEFF 		bl	cc2400_get
 8239              	.LVL843:
2792:bluetooth_rxtx.c **** 	buf[2] = (reg_val >> 8) & 0xFF;
 8240              		.loc 1 2792 0
 8241 001a 030A     		lsrs	r3, r0, #8
 8242 001c 8DF80630 		strb	r3, [sp, #6]
2793:bluetooth_rxtx.c **** 	buf[3] = reg_val & 0xFF;
 8243              		.loc 1 2793 0
 8244 0020 8DF80700 		strb	r0, [sp, #7]
2794:bluetooth_rxtx.c **** 
2795:bluetooth_rxtx.c **** 	queue_init();
 8245              		.loc 1 2795 0
 8246 0024 FFF7FEFF 		bl	queue_init
 8247              	.LVL844:
2796:bluetooth_rxtx.c **** 	clkn_start();
ARM GAS  /tmp/ccTiCbBl.s 			page 218


 8248              		.loc 1 2796 0
 8249 0028 FFF7FEFF 		bl	clkn_start
 8250              	.LVL845:
 8251              	.L867:
2797:bluetooth_rxtx.c **** 
2798:bluetooth_rxtx.c **** 	while (!(cc2400_status() & XOSC16M_STABLE));
 8252              		.loc 1 2798 0 discriminator 1
 8253 002c FFF7FEFF 		bl	cc2400_status
 8254              	.LVL846:
 8255 0030 4006     		lsls	r0, r0, #25
 8256 0032 FBD5     		bpl	.L867
2799:bluetooth_rxtx.c **** 	cc2400_strobe(SFSON);
 8257              		.loc 1 2799 0
 8258 0034 6120     		movs	r0, #97
 8259 0036 FFF7FEFF 		bl	cc2400_strobe
 8260              	.LVL847:
 8261              	.L869:
2800:bluetooth_rxtx.c **** 	while (!(cc2400_status() & FS_LOCK));
 8262              		.loc 1 2800 0 discriminator 1
 8263 003a FFF7FEFF 		bl	cc2400_status
 8264              	.LVL848:
 8265 003e 4107     		lsls	r1, r0, #29
 8266 0040 FBD5     		bpl	.L869
2801:bluetooth_rxtx.c **** 	RXLED_SET;
 8267              		.loc 1 2801 0
 8268 0042 144B     		ldr	r3, .L875
 8269 0044 1022     		movs	r2, #16
 8270 0046 1A60     		str	r2, [r3]
2802:bluetooth_rxtx.c **** #ifdef UBERTOOTH_ONE
2803:bluetooth_rxtx.c **** 		PAEN_SET;
 8271              		.loc 1 2803 0
 8272 0048 8022     		movs	r2, #128
 8273 004a 1A62     		str	r2, [r3, #32]
2804:bluetooth_rxtx.c **** 		HGM_SET;
 8274              		.loc 1 2804 0
 8275 004c 4FF48072 		mov	r2, #256
 8276 0050 1A62     		str	r2, [r3, #32]
 8277              	.L871:
2805:bluetooth_rxtx.c **** #endif
2806:bluetooth_rxtx.c **** 	while (1) {
2807:bluetooth_rxtx.c **** 		while ((cc2400_get(FSMSTATE) & 0x1f) != STATE_STROBE_FS_ON);
 8278              		.loc 1 2807 0 discriminator 1
 8279 0052 0E20     		movs	r0, #14
 8280 0054 FFF7FEFF 		bl	cc2400_get
 8281              	.LVL849:
 8282 0058 00F01F00 		and	r0, r0, #31
 8283 005c 0F28     		cmp	r0, #15
 8284 005e F8D1     		bne	.L871
2808:bluetooth_rxtx.c **** 		cc2400_strobe(SRX);
 8285              		.loc 1 2808 0
 8286 0060 6220     		movs	r0, #98
 8287 0062 FFF7FEFF 		bl	cc2400_strobe
 8288              	.LVL850:
2809:bluetooth_rxtx.c **** 		USRLED_CLR;
 8289              		.loc 1 2809 0
 8290 0066 0C4B     		ldr	r3, .L875+4
 8291 0068 0222     		movs	r2, #2
ARM GAS  /tmp/ccTiCbBl.s 			page 219


 8292 006a 1A60     		str	r2, [r3]
 8293              	.L873:
2810:bluetooth_rxtx.c **** 		while (!(cc2400_status() & SYNC_RECEIVED));
 8294              		.loc 1 2810 0 discriminator 1
 8295 006c FFF7FEFF 		bl	cc2400_status
 8296              	.LVL851:
 8297 0070 C206     		lsls	r2, r0, #27
 8298 0072 FBD5     		bpl	.L873
2811:bluetooth_rxtx.c **** 		USRLED_SET;
 8299              		.loc 1 2811 0
 8300 0074 074B     		ldr	r3, .L875
 8301 0076 0222     		movs	r2, #2
 8302 0078 1A60     		str	r2, [r3]
2812:bluetooth_rxtx.c **** 
2813:bluetooth_rxtx.c **** 		cc2400_fifo_read(len, buf+4);
 8303              		.loc 1 2813 0
 8304 007a 02A9     		add	r1, sp, #8
 8305 007c 2020     		movs	r0, #32
 8306 007e FFF7FEFF 		bl	cc2400_fifo_read
 8307              	.LVL852:
2814:bluetooth_rxtx.c **** 		enqueue(BR_PACKET, buf);
 8308              		.loc 1 2814 0
 8309 0082 01A9     		add	r1, sp, #4
 8310              	.LVL853:
 8311 0084 0020     		movs	r0, #0
 8312 0086 FFF7FEFF 		bl	enqueue
 8313              	.LVL854:
2815:bluetooth_rxtx.c **** 		handle_usb(clkn);
 8314              		.loc 1 2815 0
 8315 008a 044B     		ldr	r3, .L875+8
 8316 008c 1868     		ldr	r0, [r3]
 8317 008e FFF7FEFF 		bl	handle_usb
 8318              	.LVL855:
2816:bluetooth_rxtx.c **** 	}
 8319              		.loc 1 2816 0
 8320 0092 DEE7     		b	.L871
 8321              	.L876:
 8322              		.align	2
 8323              	.L875:
 8324 0094 38C00920 		.word	537509944
 8325 0098 3CC00920 		.word	537509948
 8326 009c 00000000 		.word	clkn
 8327              		.cfi_endproc
 8328              	.LFE39:
 8330              		.section	.text.rx_generic,"ax",%progbits
 8331              		.align	1
 8332              		.global	rx_generic
 8333              		.thumb
 8334              		.thumb_func
 8336              	rx_generic:
 8337              	.LFB40:
2817:bluetooth_rxtx.c **** }
2818:bluetooth_rxtx.c **** 
2819:bluetooth_rxtx.c **** void rx_generic(void) {
 8338              		.loc 1 2819 0
 8339              		.cfi_startproc
 8340              		@ args = 0, pretend = 0, frame = 0
ARM GAS  /tmp/ccTiCbBl.s 			page 220


 8341              		@ frame_needed = 0, uses_anonymous_args = 0
 8342 0000 08B5     		push	{r3, lr}
 8343              		.cfi_def_cfa_offset 8
 8344              		.cfi_offset 3, -8
 8345              		.cfi_offset 14, -4
2820:bluetooth_rxtx.c **** 	// Check for packet mode
2821:bluetooth_rxtx.c **** 	if(cc2400_get(GRMDM) && 0x0400) {
 8346              		.loc 1 2821 0
 8347 0002 2020     		movs	r0, #32
 8348 0004 FFF7FEFF 		bl	cc2400_get
 8349              	.LVL856:
 8350 0008 08B1     		cbz	r0, .L878
2822:bluetooth_rxtx.c **** 		rx_generic_sync();
 8351              		.loc 1 2822 0
 8352 000a FFF7FEFF 		bl	rx_generic_sync
 8353              	.LVL857:
 8354              	.L878:
2823:bluetooth_rxtx.c **** 	} else {
2824:bluetooth_rxtx.c **** 		modulation = MOD_NONE;
 8355              		.loc 1 2824 0
 8356 000e 034B     		ldr	r3, .L879
 8357 0010 0322     		movs	r2, #3
 8358 0012 1A70     		strb	r2, [r3]
2825:bluetooth_rxtx.c **** 		bt_stream_rx();
2826:bluetooth_rxtx.c **** 	}
2827:bluetooth_rxtx.c **** }
 8359              		.loc 1 2827 0
 8360 0014 BDE80840 		pop	{r3, lr}
2825:bluetooth_rxtx.c **** 		bt_stream_rx();
 8361              		.loc 1 2825 0
 8362 0018 FFF7FEBF 		b	bt_stream_rx
 8363              	.LVL858:
 8364              	.L880:
 8365              		.align	2
 8366              	.L879:
 8367 001c 00000000 		.word	.LANCHOR0
 8368              		.cfi_endproc
 8369              	.LFE40:
 8371              		.section	.text.tx_generic,"ax",%progbits
 8372              		.align	1
 8373              		.global	tx_generic
 8374              		.thumb
 8375              		.thumb_func
 8377              	tx_generic:
 8378              	.LFB41:
2828:bluetooth_rxtx.c **** 
2829:bluetooth_rxtx.c **** void tx_generic(void) {
 8379              		.loc 1 2829 0
 8380              		.cfi_startproc
 8381              		@ args = 0, pretend = 0, frame = 0
 8382              		@ frame_needed = 0, uses_anonymous_args = 0
 8383 0000 2DE9F041 		push	{r4, r5, r6, r7, r8, lr}
 8384              		.cfi_def_cfa_offset 24
 8385              		.cfi_offset 4, -24
 8386              		.cfi_offset 5, -20
 8387              		.cfi_offset 6, -16
 8388              		.cfi_offset 7, -12
ARM GAS  /tmp/ccTiCbBl.s 			page 221


 8389              		.cfi_offset 8, -8
 8390              		.cfi_offset 14, -4
2830:bluetooth_rxtx.c **** 	u16 synch, syncl;
2831:bluetooth_rxtx.c **** 	u8 prev_mode = mode;
 8391              		.loc 1 2831 0
 8392 0004 354D     		ldr	r5, .L892
2832:bluetooth_rxtx.c **** 
2833:bluetooth_rxtx.c **** 	mode = MODE_TX_GENERIC;
 8393              		.loc 1 2833 0
 8394 0006 1023     		movs	r3, #16
2834:bluetooth_rxtx.c **** 
2835:bluetooth_rxtx.c **** 	// Save existing syncword
2836:bluetooth_rxtx.c **** 	synch = cc2400_get(SYNCH);
 8395              		.loc 1 2836 0
 8396 0008 2D20     		movs	r0, #45
2831:bluetooth_rxtx.c **** 
 8397              		.loc 1 2831 0
 8398 000a 6E7C     		ldrb	r6, [r5, #17]	@ zero_extendqisi2
2833:bluetooth_rxtx.c **** 
 8399              		.loc 1 2833 0
 8400 000c 6B74     		strb	r3, [r5, #17]
 8401              		.loc 1 2836 0
 8402 000e FFF7FEFF 		bl	cc2400_get
 8403              	.LVL859:
 8404 0012 8046     		mov	r8, r0
2837:bluetooth_rxtx.c **** 	syncl = cc2400_get(SYNCL);
 8405              		.loc 1 2837 0
 8406 0014 2C20     		movs	r0, #44
 8407 0016 FFF7FEFF 		bl	cc2400_get
 8408              	.LVL860:
2838:bluetooth_rxtx.c **** 
2839:bluetooth_rxtx.c **** 	cc2400_set(SYNCH, tx_pkt.synch);
 8409              		.loc 1 2839 0
 8410 001a 314C     		ldr	r4, .L892+4
2837:bluetooth_rxtx.c **** 	syncl = cc2400_get(SYNCL);
 8411              		.loc 1 2837 0
 8412 001c 0746     		mov	r7, r0
 8413              		.loc 1 2839 0
 8414 001e 2188     		ldrh	r1, [r4]
 8415 0020 2D20     		movs	r0, #45
 8416 0022 FFF7FEFF 		bl	cc2400_set
 8417              	.LVL861:
2840:bluetooth_rxtx.c **** 	cc2400_set(SYNCL, tx_pkt.syncl);
 8418              		.loc 1 2840 0
 8419 0026 2C20     		movs	r0, #44
 8420 0028 6188     		ldrh	r1, [r4, #2]
 8421 002a FFF7FEFF 		bl	cc2400_set
 8422              	.LVL862:
2841:bluetooth_rxtx.c **** 	cc2400_set(MDMCTRL, 0x0057);
 8423              		.loc 1 2841 0
 8424 002e 0320     		movs	r0, #3
 8425 0030 5721     		movs	r1, #87
 8426 0032 FFF7FEFF 		bl	cc2400_set
 8427              	.LVL863:
2842:bluetooth_rxtx.c **** 	cc2400_set(MDMTST0, 0x134b);
 8428              		.loc 1 2842 0
 8429 0036 1420     		movs	r0, #20
ARM GAS  /tmp/ccTiCbBl.s 			page 222


 8430 0038 41F24B31 		movw	r1, #4939
 8431 003c FFF7FEFF 		bl	cc2400_set
 8432              	.LVL864:
2843:bluetooth_rxtx.c **** 	cc2400_set(GRMDM, 0x0f61);
 8433              		.loc 1 2843 0
 8434 0040 2020     		movs	r0, #32
 8435 0042 40F66171 		movw	r1, #3937
 8436 0046 FFF7FEFF 		bl	cc2400_set
 8437              	.LVL865:
2844:bluetooth_rxtx.c **** 	cc2400_set(FSDIV, tx_pkt.channel);
 8438              		.loc 1 2844 0
 8439 004a 0220     		movs	r0, #2
 8440 004c A188     		ldrh	r1, [r4, #4]
 8441 004e FFF7FEFF 		bl	cc2400_set
 8442              	.LVL866:
2845:bluetooth_rxtx.c **** 	cc2400_set(FREND, tx_pkt.pa_level);
 8443              		.loc 1 2845 0
 8444 0052 0520     		movs	r0, #5
 8445 0054 E179     		ldrb	r1, [r4, #7]	@ zero_extendqisi2
2831:bluetooth_rxtx.c **** 
 8446              		.loc 1 2831 0
 8447 0056 F6B2     		uxtb	r6, r6
 8448              	.LVL867:
 8449              		.loc 1 2845 0
 8450 0058 FFF7FEFF 		bl	cc2400_set
 8451              	.LVL868:
 8452              	.L883:
2846:bluetooth_rxtx.c **** 
2847:bluetooth_rxtx.c **** 	while (!(cc2400_status() & XOSC16M_STABLE));
 8453              		.loc 1 2847 0 discriminator 1
 8454 005c FFF7FEFF 		bl	cc2400_status
 8455              	.LVL869:
 8456 0060 4206     		lsls	r2, r0, #25
 8457 0062 FBD5     		bpl	.L883
2848:bluetooth_rxtx.c **** 	cc2400_strobe(SFSON);
 8458              		.loc 1 2848 0
 8459 0064 6120     		movs	r0, #97
 8460 0066 FFF7FEFF 		bl	cc2400_strobe
 8461              	.LVL870:
 8462              	.L885:
2849:bluetooth_rxtx.c **** 	while (!(cc2400_status() & FS_LOCK));
 8463              		.loc 1 2849 0 discriminator 1
 8464 006a FFF7FEFF 		bl	cc2400_status
 8465              	.LVL871:
 8466 006e 4307     		lsls	r3, r0, #29
 8467 0070 FBD5     		bpl	.L885
2850:bluetooth_rxtx.c **** 	TXLED_SET;
 8468              		.loc 1 2850 0
 8469 0072 1C4B     		ldr	r3, .L892+8
 8470 0074 4FF48072 		mov	r2, #256
 8471 0078 1A60     		str	r2, [r3]
2851:bluetooth_rxtx.c **** #ifdef UBERTOOTH_ONE
2852:bluetooth_rxtx.c **** 		PAEN_SET;
 8472              		.loc 1 2852 0
 8473 007a 8022     		movs	r2, #128
 8474 007c 1A62     		str	r2, [r3, #32]
 8475              	.L887:
ARM GAS  /tmp/ccTiCbBl.s 			page 223


2853:bluetooth_rxtx.c **** #endif
2854:bluetooth_rxtx.c **** 	while ((cc2400_get(FSMSTATE) & 0x1f) != STATE_STROBE_FS_ON);
 8476              		.loc 1 2854 0 discriminator 1
 8477 007e 0E20     		movs	r0, #14
 8478 0080 FFF7FEFF 		bl	cc2400_get
 8479              	.LVL872:
 8480 0084 00F01F00 		and	r0, r0, #31
 8481 0088 0F28     		cmp	r0, #15
 8482 008a F8D1     		bne	.L887
2855:bluetooth_rxtx.c **** 
2856:bluetooth_rxtx.c **** 	cc2400_fifo_write(tx_pkt.length, tx_pkt.data);
 8483              		.loc 1 2856 0
 8484 008c A079     		ldrb	r0, [r4, #6]	@ zero_extendqisi2
 8485 008e 1649     		ldr	r1, .L892+12
 8486 0090 FFF7FEFF 		bl	cc2400_fifo_write
 8487              	.LVL873:
2857:bluetooth_rxtx.c **** 	cc2400_strobe(STX);
 8488              		.loc 1 2857 0
 8489 0094 6320     		movs	r0, #99
 8490 0096 FFF7FEFF 		bl	cc2400_strobe
 8491              	.LVL874:
 8492              	.L889:
2858:bluetooth_rxtx.c **** 
2859:bluetooth_rxtx.c **** 	while ((cc2400_get(FSMSTATE) & 0x1f) != STATE_STROBE_FS_ON);
 8493              		.loc 1 2859 0 discriminator 1
 8494 009a 0E20     		movs	r0, #14
 8495 009c FFF7FEFF 		bl	cc2400_get
 8496              	.LVL875:
 8497 00a0 00F01F00 		and	r0, r0, #31
 8498 00a4 0F28     		cmp	r0, #15
 8499 00a6 F8D1     		bne	.L889
2860:bluetooth_rxtx.c **** 	TXLED_CLR;
 8500              		.loc 1 2860 0
 8501 00a8 104B     		ldr	r3, .L892+16
 8502 00aa 4FF48072 		mov	r2, #256
 8503 00ae 1A60     		str	r2, [r3]
2861:bluetooth_rxtx.c **** 
2862:bluetooth_rxtx.c **** 	cc2400_strobe(SRFOFF);
 8504              		.loc 1 2862 0
 8505 00b0 6420     		movs	r0, #100
 8506 00b2 FFF7FEFF 		bl	cc2400_strobe
 8507              	.LVL876:
 8508              	.L891:
2863:bluetooth_rxtx.c **** 	while ((cc2400_status() & FS_LOCK));
 8509              		.loc 1 2863 0 discriminator 1
 8510 00b6 FFF7FEFF 		bl	cc2400_status
 8511              	.LVL877:
 8512 00ba 4407     		lsls	r4, r0, #29
 8513 00bc FBD4     		bmi	.L891
2864:bluetooth_rxtx.c **** 
2865:bluetooth_rxtx.c **** #ifdef UBERTOOTH_ONE
2866:bluetooth_rxtx.c **** 	PAEN_CLR;
 8514              		.loc 1 2866 0
 8515 00be 0C4B     		ldr	r3, .L892+20
 8516 00c0 8022     		movs	r2, #128
 8517 00c2 1A60     		str	r2, [r3]
2867:bluetooth_rxtx.c **** #endif
ARM GAS  /tmp/ccTiCbBl.s 			page 224


2868:bluetooth_rxtx.c **** 
2869:bluetooth_rxtx.c **** 	// Restore state
2870:bluetooth_rxtx.c **** 	cc2400_set(SYNCH, synch);
 8518              		.loc 1 2870 0
 8519 00c4 2D20     		movs	r0, #45
 8520 00c6 4146     		mov	r1, r8
 8521 00c8 FFF7FEFF 		bl	cc2400_set
 8522              	.LVL878:
2871:bluetooth_rxtx.c **** 	cc2400_set(SYNCL, syncl);
 8523              		.loc 1 2871 0
 8524 00cc 2C20     		movs	r0, #44
 8525 00ce 3946     		mov	r1, r7
 8526 00d0 FFF7FEFF 		bl	cc2400_set
 8527              	.LVL879:
2872:bluetooth_rxtx.c **** 	requested_mode = prev_mode;
 8528              		.loc 1 2872 0
 8529 00d4 AE74     		strb	r6, [r5, #18]
 8530 00d6 BDE8F081 		pop	{r4, r5, r6, r7, r8, pc}
 8531              	.LVL880:
 8532              	.L893:
 8533 00da 00BF     		.align	2
 8534              	.L892:
 8535 00dc 00000000 		.word	.LANCHOR0
 8536 00e0 00000000 		.word	tx_pkt
 8537 00e4 38C00920 		.word	537509944
 8538 00e8 08000000 		.word	tx_pkt+8
 8539 00ec 3CC00920 		.word	537509948
 8540 00f0 5CC00920 		.word	537509980
 8541              		.cfi_endproc
 8542              	.LFE41:
 8544              		.section	.text.specan,"ax",%progbits
 8545              		.align	1
 8546              		.global	specan
 8547              		.thumb
 8548              		.thumb_func
 8550              	specan:
 8551              	.LFB42:
2873:bluetooth_rxtx.c **** }
2874:bluetooth_rxtx.c **** 
2875:bluetooth_rxtx.c **** /* spectrum analysis */
2876:bluetooth_rxtx.c **** void specan()
2877:bluetooth_rxtx.c **** {
 8552              		.loc 1 2877 0
 8553              		.cfi_startproc
 8554              		@ args = 0, pretend = 0, frame = 56
 8555              		@ frame_needed = 0, uses_anonymous_args = 0
 8556 0000 2DE9F041 		push	{r4, r5, r6, r7, r8, lr}
 8557              		.cfi_def_cfa_offset 24
 8558              		.cfi_offset 4, -24
 8559              		.cfi_offset 5, -20
 8560              		.cfi_offset 6, -16
 8561              		.cfi_offset 7, -12
 8562              		.cfi_offset 8, -8
 8563              		.cfi_offset 14, -4
 8564 0004 8EB0     		sub	sp, sp, #56
 8565              		.cfi_def_cfa_offset 80
 8566              	.LVL881:
ARM GAS  /tmp/ccTiCbBl.s 			page 225


2878:bluetooth_rxtx.c **** 	u16 f;
2879:bluetooth_rxtx.c **** 	u8 i = 0;
2880:bluetooth_rxtx.c **** 	u8 buf[DMA_SIZE];
2881:bluetooth_rxtx.c **** 
2882:bluetooth_rxtx.c **** 	RXLED_SET;
 8567              		.loc 1 2882 0
 8568 0006 3D4B     		ldr	r3, .L911
 8569 0008 1022     		movs	r2, #16
 8570 000a 1A60     		str	r2, [r3]
2883:bluetooth_rxtx.c **** 
2884:bluetooth_rxtx.c **** 	queue_init();
 8571              		.loc 1 2884 0
 8572 000c FFF7FEFF 		bl	queue_init
 8573              	.LVL882:
2885:bluetooth_rxtx.c **** 	clkn_start();
 8574              		.loc 1 2885 0
 8575 0010 FFF7FEFF 		bl	clkn_start
 8576              	.LVL883:
2886:bluetooth_rxtx.c **** 
2887:bluetooth_rxtx.c **** #ifdef UBERTOOTH_ONE
2888:bluetooth_rxtx.c **** 	PAEN_SET;
 8577              		.loc 1 2888 0
 8578 0014 3A4B     		ldr	r3, .L911+4
 8579 0016 8022     		movs	r2, #128
 8580 0018 1A60     		str	r2, [r3]
2889:bluetooth_rxtx.c **** 	//HGM_SET;
2890:bluetooth_rxtx.c **** #endif
2891:bluetooth_rxtx.c **** 	cc2400_set(LMTST,   0x2b22);
 8581              		.loc 1 2891 0
 8582 001a 1220     		movs	r0, #18
 8583 001c 42F62231 		movw	r1, #11042
 8584 0020 FFF7FEFF 		bl	cc2400_set
 8585              	.LVL884:
2892:bluetooth_rxtx.c **** 	cc2400_set(MDMTST0, 0x134b); // without PRNG
 8586              		.loc 1 2892 0
 8587 0024 1420     		movs	r0, #20
 8588 0026 41F24B31 		movw	r1, #4939
 8589 002a FFF7FEFF 		bl	cc2400_set
 8590              	.LVL885:
2893:bluetooth_rxtx.c **** 	cc2400_set(GRMDM,   0x0101); // un-buffered mode, GFSK
 8591              		.loc 1 2893 0
 8592 002e 2020     		movs	r0, #32
 8593 0030 40F20111 		movw	r1, #257
 8594 0034 FFF7FEFF 		bl	cc2400_set
 8595              	.LVL886:
2894:bluetooth_rxtx.c **** 	cc2400_set(MDMCTRL, 0x0029); // 160 kHz frequency deviation
 8596              		.loc 1 2894 0
 8597 0038 0320     		movs	r0, #3
 8598 003a 2921     		movs	r1, #41
 8599 003c FFF7FEFF 		bl	cc2400_set
 8600              	.LVL887:
 8601              	.L896:
2895:bluetooth_rxtx.c **** 	//FIXME maybe set RSSI.RSSI_FILT
2896:bluetooth_rxtx.c **** 	while (!(cc2400_status() & XOSC16M_STABLE));
 8602              		.loc 1 2896 0 discriminator 1
 8603 0040 FFF7FEFF 		bl	cc2400_status
 8604              	.LVL888:
ARM GAS  /tmp/ccTiCbBl.s 			page 226


 8605 0044 4406     		lsls	r4, r0, #25
 8606 0046 FBD5     		bpl	.L896
 8607              	.L898:
2897:bluetooth_rxtx.c **** 	while ((cc2400_status() & FS_LOCK));
 8608              		.loc 1 2897 0
 8609 0048 FFF7FEFF 		bl	cc2400_status
 8610              	.LVL889:
 8611 004c 00F00400 		and	r0, r0, #4
 8612 0050 00F0FF05 		and	r5, r0, #255
 8613 0054 0028     		cmp	r0, #0
 8614 0056 F7D1     		bne	.L898
 8615              	.LVL890:
 8616              	.L899:
2898:bluetooth_rxtx.c **** 
2899:bluetooth_rxtx.c **** 	while (requested_mode == MODE_SPECAN) {
 8617              		.loc 1 2899 0 discriminator 1
 8618 0058 2A4B     		ldr	r3, .L911+8
 8619 005a 9B7C     		ldrb	r3, [r3, #18]	@ zero_extendqisi2
 8620 005c 042B     		cmp	r3, #4
 8621 005e 47D1     		bne	.L910
2900:bluetooth_rxtx.c **** 		for (f = low_freq; f < high_freq + 1; f++) {
 8622              		.loc 1 2900 0
 8623 0060 294B     		ldr	r3, .L911+12
 8624 0062 B3F84C40 		ldrh	r4, [r3, #76]
 8625 0066 9846     		mov	r8, r3
 8626 0068 A4B2     		uxth	r4, r4
 8627              	.LVL891:
 8628              	.L900:
 8629              		.loc 1 2900 0 is_stmt 0 discriminator 1
 8630 006a B8F84E30 		ldrh	r3, [r8, #78]
 8631 006e 9BB2     		uxth	r3, r3
 8632 0070 A342     		cmp	r3, r4
 8633 0072 F1DB     		blt	.L899
 8634 0074 611E     		subs	r1, r4, #1
 8635              	.LBB89:
2901:bluetooth_rxtx.c **** 			cc2400_set(FSDIV, f - 1);
 8636              		.loc 1 2901 0 is_stmt 1
 8637 0076 0220     		movs	r0, #2
 8638 0078 89B2     		uxth	r1, r1
 8639 007a FFF7FEFF 		bl	cc2400_set
 8640              	.LVL892:
2902:bluetooth_rxtx.c **** 			cc2400_strobe(SFSON);
 8641              		.loc 1 2902 0
 8642 007e 6120     		movs	r0, #97
 8643 0080 FFF7FEFF 		bl	cc2400_strobe
 8644              	.LVL893:
 8645              	.L902:
2903:bluetooth_rxtx.c **** 			while (!(cc2400_status() & FS_LOCK));
 8646              		.loc 1 2903 0 discriminator 1
 8647 0084 FFF7FEFF 		bl	cc2400_status
 8648              	.LVL894:
 8649 0088 4007     		lsls	r0, r0, #29
 8650 008a FBD5     		bpl	.L902
2904:bluetooth_rxtx.c **** 			cc2400_strobe(SRX);
 8651              		.loc 1 2904 0
 8652 008c 6220     		movs	r0, #98
 8653 008e FFF7FEFF 		bl	cc2400_strobe
ARM GAS  /tmp/ccTiCbBl.s 			page 227


 8654              	.LVL895:
2905:bluetooth_rxtx.c **** 
2906:bluetooth_rxtx.c **** 			/* give the CC2400 time to acquire RSSI reading */
2907:bluetooth_rxtx.c **** 			volatile u32 j = 500; while (--j); //FIXME crude delay
 8655              		.loc 1 2907 0
 8656 0092 4FF4FA73 		mov	r3, #500
 8657 0096 0093     		str	r3, [sp]
 8658              	.L904:
 8659              		.loc 1 2907 0 is_stmt 0 discriminator 1
 8660 0098 009E     		ldr	r6, [sp]
 8661 009a 013E     		subs	r6, r6, #1
 8662 009c 0096     		str	r6, [sp]
 8663 009e 002E     		cmp	r6, #0
 8664 00a0 FAD1     		bne	.L904
2908:bluetooth_rxtx.c **** 			buf[3 * i] = (f >> 8) & 0xFF;
 8665              		.loc 1 2908 0 is_stmt 1
 8666 00a2 0EAB     		add	r3, sp, #56
 8667 00a4 0327     		movs	r7, #3
 8668 00a6 07FB0537 		mla	r7, r7, r5, r3
2909:bluetooth_rxtx.c **** 			buf[(3 * i) + 1] = f  & 0xFF;
2910:bluetooth_rxtx.c **** 			buf[(3 * i) + 2] = cc2400_get(RSSI) >> 8;
 8669              		.loc 1 2910 0
 8670 00aa 0620     		movs	r0, #6
2908:bluetooth_rxtx.c **** 			buf[3 * i] = (f >> 8) & 0xFF;
 8671              		.loc 1 2908 0
 8672 00ac 230A     		lsrs	r3, r4, #8
 8673 00ae 07F8343C 		strb	r3, [r7, #-52]
2909:bluetooth_rxtx.c **** 			buf[(3 * i) + 1] = f  & 0xFF;
 8674              		.loc 1 2909 0
 8675 00b2 07F8334C 		strb	r4, [r7, #-51]
 8676              		.loc 1 2910 0
 8677 00b6 FFF7FEFF 		bl	cc2400_get
 8678              	.LVL896:
2911:bluetooth_rxtx.c **** 			i++;
 8679              		.loc 1 2911 0
 8680 00ba 0135     		adds	r5, r5, #1
 8681              	.LVL897:
 8682 00bc EDB2     		uxtb	r5, r5
 8683              	.LVL898:
2910:bluetooth_rxtx.c **** 			i++;
 8684              		.loc 1 2910 0
 8685 00be 000A     		lsrs	r0, r0, #8
2912:bluetooth_rxtx.c **** 			if (i == 16) {
 8686              		.loc 1 2912 0
 8687 00c0 102D     		cmp	r5, #16
2910:bluetooth_rxtx.c **** 			i++;
 8688              		.loc 1 2910 0
 8689 00c2 07F8320C 		strb	r0, [r7, #-50]
 8690              		.loc 1 2912 0
 8691 00c6 09D1     		bne	.L905
2913:bluetooth_rxtx.c **** 				enqueue(SPECAN, buf);
 8692              		.loc 1 2913 0
 8693 00c8 0420     		movs	r0, #4
 8694 00ca 0DEB0001 		add	r1, sp, r0
 8695 00ce FFF7FEFF 		bl	enqueue
 8696              	.LVL899:
2914:bluetooth_rxtx.c **** 				i = 0;
ARM GAS  /tmp/ccTiCbBl.s 			page 228


2915:bluetooth_rxtx.c **** 
2916:bluetooth_rxtx.c **** 				handle_usb(clkn);
 8697              		.loc 1 2916 0
 8698 00d2 0E4B     		ldr	r3, .L911+16
2914:bluetooth_rxtx.c **** 				i = 0;
 8699              		.loc 1 2914 0
 8700 00d4 3546     		mov	r5, r6
 8701              		.loc 1 2916 0
 8702 00d6 1868     		ldr	r0, [r3]
 8703 00d8 FFF7FEFF 		bl	handle_usb
 8704              	.LVL900:
 8705              	.L905:
2917:bluetooth_rxtx.c **** 			}
2918:bluetooth_rxtx.c **** 
2919:bluetooth_rxtx.c **** 			cc2400_strobe(SRFOFF);
 8706              		.loc 1 2919 0
 8707 00dc 6420     		movs	r0, #100
 8708 00de FFF7FEFF 		bl	cc2400_strobe
 8709              	.LVL901:
 8710              	.L907:
2920:bluetooth_rxtx.c **** 			while ((cc2400_status() & FS_LOCK));
 8711              		.loc 1 2920 0 discriminator 1
 8712 00e2 FFF7FEFF 		bl	cc2400_status
 8713              	.LVL902:
 8714 00e6 4107     		lsls	r1, r0, #29
 8715 00e8 FBD4     		bmi	.L907
 8716              	.LBE89:
2900:bluetooth_rxtx.c **** 			cc2400_set(FSDIV, f - 1);
 8717              		.loc 1 2900 0
 8718 00ea 0134     		adds	r4, r4, #1
 8719              	.LVL903:
 8720 00ec A4B2     		uxth	r4, r4
 8721              	.LVL904:
 8722 00ee BCE7     		b	.L900
 8723              	.LVL905:
 8724              	.L910:
2921:bluetooth_rxtx.c **** 		}
2922:bluetooth_rxtx.c **** 	}
2923:bluetooth_rxtx.c **** 	RXLED_CLR;
 8725              		.loc 1 2923 0
 8726 00f0 074B     		ldr	r3, .L911+20
 8727 00f2 1022     		movs	r2, #16
 8728 00f4 1A60     		str	r2, [r3]
2924:bluetooth_rxtx.c **** }
 8729              		.loc 1 2924 0
 8730 00f6 0EB0     		add	sp, sp, #56
 8731              		@ sp needed
 8732 00f8 BDE8F081 		pop	{r4, r5, r6, r7, r8, pc}
 8733              	.LVL906:
 8734              	.L912:
 8735              		.align	2
 8736              	.L911:
 8737 00fc 38C00920 		.word	537509944
 8738 0100 58C00920 		.word	537509976
 8739 0104 00000000 		.word	.LANCHOR0
 8740 0108 00000000 		.word	.LANCHOR1
 8741 010c 00000000 		.word	clkn
ARM GAS  /tmp/ccTiCbBl.s 			page 229


 8742 0110 3CC00920 		.word	537509948
 8743              		.cfi_endproc
 8744              	.LFE42:
 8746              		.section	.text.led_specan,"ax",%progbits
 8747              		.align	1
 8748              		.global	led_specan
 8749              		.thumb
 8750              		.thumb_func
 8752              	led_specan:
 8753              	.LFB43:
2925:bluetooth_rxtx.c **** 
2926:bluetooth_rxtx.c **** /* LED based spectrum analysis */
2927:bluetooth_rxtx.c **** void led_specan()
2928:bluetooth_rxtx.c **** {
 8754              		.loc 1 2928 0
 8755              		.cfi_startproc
 8756              		@ args = 0, pretend = 0, frame = 16
 8757              		@ frame_needed = 0, uses_anonymous_args = 0
 8758 0000 1FB5     		push	{r0, r1, r2, r3, r4, lr}
 8759              		.cfi_def_cfa_offset 24
 8760              		.cfi_offset 0, -24
 8761              		.cfi_offset 1, -20
 8762              		.cfi_offset 2, -16
 8763              		.cfi_offset 3, -12
 8764              		.cfi_offset 4, -8
 8765              		.cfi_offset 14, -4
 8766              	.LVL907:
2929:bluetooth_rxtx.c **** 	int8_t lvl;
2930:bluetooth_rxtx.c **** 	u8 i = 0;
2931:bluetooth_rxtx.c **** 	u16 channels[3] = {2412, 2437, 2462};
 8767              		.loc 1 2931 0
 8768 0002 444B     		ldr	r3, .L940
2932:bluetooth_rxtx.c **** 	//void (*set[3]) = {TXLED_SET, RXLED_SET, USRLED_SET};
2933:bluetooth_rxtx.c **** 	//void (*clr[3]) = {TXLED_CLR, RXLED_CLR, USRLED_CLR};
2934:bluetooth_rxtx.c **** 
2935:bluetooth_rxtx.c **** #ifdef UBERTOOTH_ONE
2936:bluetooth_rxtx.c **** 	PAEN_SET;
 8769              		.loc 1 2936 0
 8770 0004 8022     		movs	r2, #128
2931:bluetooth_rxtx.c **** 	//void (*set[3]) = {TXLED_SET, RXLED_SET, USRLED_SET};
 8771              		.loc 1 2931 0
 8772 0006 1868     		ldr	r0, [r3]	@ unaligned
 8773 0008 9B88     		ldrh	r3, [r3, #4]	@ unaligned
 8774 000a 0290     		str	r0, [sp, #8]	@ unaligned
 8775 000c ADF80C30 		strh	r3, [sp, #12]	@ unaligned
 8776              		.loc 1 2936 0
 8777 0010 414B     		ldr	r3, .L940+4
2937:bluetooth_rxtx.c **** 	//HGM_SET;
2938:bluetooth_rxtx.c **** #endif
2939:bluetooth_rxtx.c **** 	cc2400_set(LMTST,   0x2b22);
 8778              		.loc 1 2939 0
 8779 0012 1220     		movs	r0, #18
2936:bluetooth_rxtx.c **** 	//HGM_SET;
 8780              		.loc 1 2936 0
 8781 0014 1A60     		str	r2, [r3]
 8782              		.loc 1 2939 0
 8783 0016 42F62231 		movw	r1, #11042
ARM GAS  /tmp/ccTiCbBl.s 			page 230


 8784 001a FFF7FEFF 		bl	cc2400_set
 8785              	.LVL908:
2940:bluetooth_rxtx.c **** 	cc2400_set(MDMTST0, 0x134b); // without PRNG
 8786              		.loc 1 2940 0
 8787 001e 1420     		movs	r0, #20
 8788 0020 41F24B31 		movw	r1, #4939
 8789 0024 FFF7FEFF 		bl	cc2400_set
 8790              	.LVL909:
2941:bluetooth_rxtx.c **** 	cc2400_set(GRMDM,   0x0101); // un-buffered mode, GFSK
 8791              		.loc 1 2941 0
 8792 0028 2020     		movs	r0, #32
 8793 002a 40F20111 		movw	r1, #257
 8794 002e FFF7FEFF 		bl	cc2400_set
 8795              	.LVL910:
2942:bluetooth_rxtx.c **** 	cc2400_set(MDMCTRL, 0x0029); // 160 kHz frequency deviation
 8796              		.loc 1 2942 0
 8797 0032 0320     		movs	r0, #3
 8798 0034 2921     		movs	r1, #41
 8799 0036 FFF7FEFF 		bl	cc2400_set
 8800              	.LVL911:
2943:bluetooth_rxtx.c **** 	cc2400_set(RSSI,    0x00F1); // RSSI Sample over 2 symbols
 8801              		.loc 1 2943 0
 8802 003a 0620     		movs	r0, #6
 8803 003c F121     		movs	r1, #241
 8804 003e FFF7FEFF 		bl	cc2400_set
 8805              	.LVL912:
 8806              	.L915:
2944:bluetooth_rxtx.c **** 
2945:bluetooth_rxtx.c **** 	while (!(cc2400_status() & XOSC16M_STABLE));
 8807              		.loc 1 2945 0 discriminator 1
 8808 0042 FFF7FEFF 		bl	cc2400_status
 8809              	.LVL913:
 8810 0046 4106     		lsls	r1, r0, #25
 8811 0048 FBD5     		bpl	.L915
 8812              	.L917:
2946:bluetooth_rxtx.c **** 	while ((cc2400_status() & FS_LOCK));
 8813              		.loc 1 2946 0
 8814 004a FFF7FEFF 		bl	cc2400_status
 8815              	.LVL914:
 8816 004e 00F00400 		and	r0, r0, #4
 8817 0052 00F0FF04 		and	r4, r0, #255
 8818 0056 0028     		cmp	r0, #0
 8819 0058 F7D1     		bne	.L917
 8820              	.LVL915:
 8821              	.L918:
2947:bluetooth_rxtx.c **** 
2948:bluetooth_rxtx.c **** 	while (requested_mode == MODE_LED_SPECAN) {
 8822              		.loc 1 2948 0 discriminator 1
 8823 005a 304B     		ldr	r3, .L940+8
 8824 005c 9B7C     		ldrb	r3, [r3, #18]	@ zero_extendqisi2
 8825 005e 072B     		cmp	r3, #7
 8826 0060 55D1     		bne	.L939
 8827              	.LBB90:
2949:bluetooth_rxtx.c **** 		cc2400_set(FSDIV, channels[i] - 1);
 8828              		.loc 1 2949 0
 8829 0062 04AA     		add	r2, sp, #16
 8830 0064 02EB4403 		add	r3, r2, r4, lsl #1
ARM GAS  /tmp/ccTiCbBl.s 			page 231


 8831 0068 33F8081C 		ldrh	r1, [r3, #-8]
 8832 006c 0220     		movs	r0, #2
 8833 006e 0139     		subs	r1, r1, #1
 8834 0070 89B2     		uxth	r1, r1
 8835 0072 FFF7FEFF 		bl	cc2400_set
 8836              	.LVL916:
2950:bluetooth_rxtx.c **** 		cc2400_strobe(SFSON);
 8837              		.loc 1 2950 0
 8838 0076 6120     		movs	r0, #97
 8839 0078 FFF7FEFF 		bl	cc2400_strobe
 8840              	.LVL917:
 8841              	.L920:
2951:bluetooth_rxtx.c **** 		while (!(cc2400_status() & FS_LOCK));
 8842              		.loc 1 2951 0 discriminator 1
 8843 007c FFF7FEFF 		bl	cc2400_status
 8844              	.LVL918:
 8845 0080 4207     		lsls	r2, r0, #29
 8846 0082 FBD5     		bpl	.L920
2952:bluetooth_rxtx.c **** 		cc2400_strobe(SRX);
 8847              		.loc 1 2952 0
 8848 0084 6220     		movs	r0, #98
 8849 0086 FFF7FEFF 		bl	cc2400_strobe
 8850              	.LVL919:
2953:bluetooth_rxtx.c **** 
2954:bluetooth_rxtx.c **** 		/* give the CC2400 time to acquire RSSI reading */
2955:bluetooth_rxtx.c **** 		volatile u32 j = 500; while (--j); //FIXME crude delay
 8851              		.loc 1 2955 0
 8852 008a 4FF4FA73 		mov	r3, #500
 8853 008e 0193     		str	r3, [sp, #4]
 8854              	.L922:
 8855              		.loc 1 2955 0 is_stmt 0 discriminator 1
 8856 0090 019B     		ldr	r3, [sp, #4]
 8857 0092 013B     		subs	r3, r3, #1
 8858 0094 0193     		str	r3, [sp, #4]
 8859 0096 002B     		cmp	r3, #0
 8860 0098 FAD1     		bne	.L922
2956:bluetooth_rxtx.c **** 		lvl = (int8_t)((cc2400_get(RSSI) >> 8) & 0xff);
 8861              		.loc 1 2956 0 is_stmt 1
 8862 009a 0620     		movs	r0, #6
 8863 009c FFF7FEFF 		bl	cc2400_get
 8864              	.LVL920:
2957:bluetooth_rxtx.c **** 		if (lvl > rssi_threshold) {
 8865              		.loc 1 2957 0
 8866 00a0 1F4B     		ldr	r3, .L940+12
 8867 00a2 40F30720 		sbfx	r0, r0, #8, #8
 8868              	.LVL921:
 8869 00a6 93F85030 		ldrb	r3, [r3, #80]	@ zero_extendqisi2
 8870 00aa 5BB2     		sxtb	r3, r3
 8871 00ac 9842     		cmp	r0, r3
 8872 00ae 0CDD     		ble	.L923
2958:bluetooth_rxtx.c **** 			switch (i) {
 8873              		.loc 1 2958 0
 8874 00b0 012C     		cmp	r4, #1
 8875 00b2 07D0     		beq	.L925
 8876 00b4 03D3     		bcc	.L926
 8877 00b6 022C     		cmp	r4, #2
 8878 00b8 16D1     		bne	.L924
ARM GAS  /tmp/ccTiCbBl.s 			page 232


2959:bluetooth_rxtx.c **** 				case 0:
2960:bluetooth_rxtx.c **** 					TXLED_SET;
2961:bluetooth_rxtx.c **** 					break;
2962:bluetooth_rxtx.c **** 				case 1:
2963:bluetooth_rxtx.c **** 					RXLED_SET;
2964:bluetooth_rxtx.c **** 					break;
2965:bluetooth_rxtx.c **** 				case 2:
2966:bluetooth_rxtx.c **** 					USRLED_SET;
 8879              		.loc 1 2966 0
 8880 00ba 1A4B     		ldr	r3, .L940+16
 8881 00bc 13E0     		b	.L935
 8882              	.L926:
2960:bluetooth_rxtx.c **** 					break;
 8883              		.loc 1 2960 0
 8884 00be 4FF48072 		mov	r2, #256
 8885 00c2 00E0     		b	.L938
 8886              	.L925:
2963:bluetooth_rxtx.c **** 					break;
 8887              		.loc 1 2963 0
 8888 00c4 1022     		movs	r2, #16
 8889              	.L938:
 8890 00c6 174B     		ldr	r3, .L940+16
 8891 00c8 0BE0     		b	.L937
 8892              	.L923:
2967:bluetooth_rxtx.c **** 					break;
2968:bluetooth_rxtx.c **** 			}
2969:bluetooth_rxtx.c **** 		}
2970:bluetooth_rxtx.c **** 		else {
2971:bluetooth_rxtx.c **** 			switch (i) {
 8893              		.loc 1 2971 0
 8894 00ca 012C     		cmp	r4, #1
 8895 00cc 07D0     		beq	.L928
 8896 00ce 03D3     		bcc	.L929
 8897 00d0 022C     		cmp	r4, #2
 8898 00d2 09D1     		bne	.L924
2972:bluetooth_rxtx.c **** 				case 0:
2973:bluetooth_rxtx.c **** 					TXLED_CLR;
2974:bluetooth_rxtx.c **** 					break;
2975:bluetooth_rxtx.c **** 				case 1:
2976:bluetooth_rxtx.c **** 					RXLED_CLR;
2977:bluetooth_rxtx.c **** 					break;
2978:bluetooth_rxtx.c **** 				case 2:
2979:bluetooth_rxtx.c **** 					USRLED_CLR;
 8899              		.loc 1 2979 0
 8900 00d4 144B     		ldr	r3, .L940+20
 8901 00d6 06E0     		b	.L935
 8902              	.L929:
2973:bluetooth_rxtx.c **** 					break;
 8903              		.loc 1 2973 0
 8904 00d8 4FF48072 		mov	r2, #256
 8905 00dc 00E0     		b	.L936
 8906              	.L928:
2976:bluetooth_rxtx.c **** 					break;
 8907              		.loc 1 2976 0
 8908 00de 1022     		movs	r2, #16
 8909              	.L936:
 8910 00e0 114B     		ldr	r3, .L940+20
ARM GAS  /tmp/ccTiCbBl.s 			page 233


 8911              	.L937:
 8912 00e2 1A60     		str	r2, [r3]
2977:bluetooth_rxtx.c **** 				case 2:
 8913              		.loc 1 2977 0
 8914 00e4 00E0     		b	.L924
 8915              	.L935:
 8916              		.loc 1 2979 0
 8917 00e6 1C60     		str	r4, [r3]
 8918              	.L924:
2980:bluetooth_rxtx.c **** 					break;
2981:bluetooth_rxtx.c **** 			}
2982:bluetooth_rxtx.c **** 		}
2983:bluetooth_rxtx.c **** 
2984:bluetooth_rxtx.c **** 		i = (i+1) % 3;
 8919              		.loc 1 2984 0
 8920 00e8 0323     		movs	r3, #3
 8921 00ea 0134     		adds	r4, r4, #1
 8922              	.LVL922:
 8923 00ec 94FBF3F2 		sdiv	r2, r4, r3
 8924 00f0 03FB1244 		mls	r4, r3, r2, r4
 8925              	.LVL923:
2985:bluetooth_rxtx.c **** 
2986:bluetooth_rxtx.c **** 		handle_usb(clkn);
 8926              		.loc 1 2986 0
 8927 00f4 0D4B     		ldr	r3, .L940+24
2984:bluetooth_rxtx.c **** 
 8928              		.loc 1 2984 0
 8929 00f6 E4B2     		uxtb	r4, r4
 8930              	.LVL924:
 8931              		.loc 1 2986 0
 8932 00f8 1868     		ldr	r0, [r3]
 8933 00fa FFF7FEFF 		bl	handle_usb
 8934              	.LVL925:
2987:bluetooth_rxtx.c **** 
2988:bluetooth_rxtx.c **** 		cc2400_strobe(SRFOFF);
 8935              		.loc 1 2988 0
 8936 00fe 6420     		movs	r0, #100
 8937 0100 FFF7FEFF 		bl	cc2400_strobe
 8938              	.LVL926:
 8939              	.L932:
2989:bluetooth_rxtx.c **** 		while ((cc2400_status() & FS_LOCK));
 8940              		.loc 1 2989 0 discriminator 1
 8941 0104 FFF7FEFF 		bl	cc2400_status
 8942              	.LVL927:
 8943 0108 4307     		lsls	r3, r0, #29
 8944 010a FBD4     		bmi	.L932
 8945 010c A5E7     		b	.L918
 8946              	.L939:
 8947              	.LBE90:
2990:bluetooth_rxtx.c **** 	}
2991:bluetooth_rxtx.c **** }
 8948              		.loc 1 2991 0
 8949 010e 04B0     		add	sp, sp, #16
 8950              		@ sp needed
 8951 0110 10BD     		pop	{r4, pc}
 8952              	.LVL928:
 8953              	.L941:
ARM GAS  /tmp/ccTiCbBl.s 			page 234


 8954 0112 00BF     		.align	2
 8955              	.L940:
 8956 0114 DA080000 		.word	.LANCHOR2+2266
 8957 0118 58C00920 		.word	537509976
 8958 011c 00000000 		.word	.LANCHOR0
 8959 0120 00000000 		.word	.LANCHOR1
 8960 0124 38C00920 		.word	537509944
 8961 0128 3CC00920 		.word	537509948
 8962 012c 00000000 		.word	clkn
 8963              		.cfi_endproc
 8964              	.LFE43:
 8966              		.section	.text.startup.main,"ax",%progbits
 8967              		.align	1
 8968              		.global	main
 8969              		.thumb
 8970              		.thumb_func
 8972              	main:
 8973              	.LFB44:
2992:bluetooth_rxtx.c **** 
2993:bluetooth_rxtx.c **** int main()
2994:bluetooth_rxtx.c **** {
 8974              		.loc 1 2994 0
 8975              		.cfi_startproc
 8976              		@ args = 0, pretend = 0, frame = 0
 8977              		@ frame_needed = 0, uses_anonymous_args = 0
 8978 0000 10B5     		push	{r4, lr}
 8979              		.cfi_def_cfa_offset 8
 8980              		.cfi_offset 4, -8
 8981              		.cfi_offset 14, -4
2995:bluetooth_rxtx.c **** 	ubertooth_init();
 8982              		.loc 1 2995 0
 8983 0002 FFF7FEFF 		bl	ubertooth_init
 8984              	.LVL929:
2996:bluetooth_rxtx.c **** 	clkn_init();
 8985              		.loc 1 2996 0
 8986 0006 FFF7FEFF 		bl	clkn_init
 8987              	.LVL930:
2997:bluetooth_rxtx.c **** 	ubertooth_usb_init(vendor_request_handler);
 8988              		.loc 1 2997 0
 8989 000a 4848     		ldr	r0, .L969
 8990 000c FFF7FEFF 		bl	ubertooth_usb_init
 8991              	.LVL931:
 8992              	.L967:
2998:bluetooth_rxtx.c **** 	cc2400_idle();
 8993              		.loc 1 2998 0
 8994 0010 FFF7FEFF 		bl	cc2400_idle
 8995              	.LVL932:
 8996              	.L943:
2999:bluetooth_rxtx.c **** 
3000:bluetooth_rxtx.c **** 	while (1) {
3001:bluetooth_rxtx.c **** 		handle_usb(clkn);
 8997              		.loc 1 3001 0
 8998 0014 464B     		ldr	r3, .L969+4
3002:bluetooth_rxtx.c **** 		if(requested_mode != mode) {
 8999              		.loc 1 3002 0
 9000 0016 474C     		ldr	r4, .L969+8
3001:bluetooth_rxtx.c **** 		if(requested_mode != mode) {
ARM GAS  /tmp/ccTiCbBl.s 			page 235


 9001              		.loc 1 3001 0
 9002 0018 1868     		ldr	r0, [r3]
 9003 001a FFF7FEFF 		bl	handle_usb
 9004              	.LVL933:
 9005              		.loc 1 3002 0
 9006 001e A27C     		ldrb	r2, [r4, #18]	@ zero_extendqisi2
 9007 0020 637C     		ldrb	r3, [r4, #17]	@ zero_extendqisi2
 9008 0022 9A42     		cmp	r2, r3
 9009 0024 F6D0     		beq	.L943
3003:bluetooth_rxtx.c **** 			switch (requested_mode) {
 9010              		.loc 1 3003 0
 9011 0026 A37C     		ldrb	r3, [r4, #18]	@ zero_extendqisi2
 9012 0028 132B     		cmp	r3, #19
 9013 002a F3D8     		bhi	.L943
 9014 002c 01A2     		adr	r2, .L946
 9015 002e 52F823F0 		ldr	pc, [r2, r3, lsl #2]
 9016 0032 00BF     		.p2align 2
 9017              	.L946:
 9018 0034 11000000 		.word	.L967+1
 9019 0038 95000000 		.word	.L947+1
 9020 003c 9F000000 		.word	.L948+1
 9021 0040 D9000000 		.word	.L949+1
 9022 0044 03010000 		.word	.L950+1
 9023 0048 E7000000 		.word	.L951+1
 9024 004c F7000000 		.word	.L952+1
 9025 0050 09010000 		.word	.L953+1
 9026 0054 A9000000 		.word	.L954+1
 9027 0058 AD000000 		.word	.L955+1
 9028 005c BF000000 		.word	.L956+1
 9029 0060 85000000 		.word	.L957+1
 9030 0064 C5000000 		.word	.L958+1
 9031 0068 0F010000 		.word	.L959+1
 9032 006c 91000000 		.word	.L960+1
 9033 0070 1B010000 		.word	.L961+1
 9034 0074 25010000 		.word	.L962+1
 9035 0078 B3000000 		.word	.L963+1
 9036 007c B7000000 		.word	.L964+1
 9037 0080 CF000000 		.word	.L965+1
 9038              	.L957:
3004:bluetooth_rxtx.c **** 				case MODE_RESET:
3005:bluetooth_rxtx.c **** 					/* Allow time for the USB command to return correctly */
3006:bluetooth_rxtx.c **** 					wait(1);
 9039              		.loc 1 3006 0
 9040 0084 0120     		movs	r0, #1
 9041 0086 FFF7FEFF 		bl	wait
 9042              	.LVL934:
3007:bluetooth_rxtx.c **** 					reset();
 9043              		.loc 1 3007 0
 9044 008a FFF7FEFF 		bl	reset
 9045              	.LVL935:
3008:bluetooth_rxtx.c **** 					break;
 9046              		.loc 1 3008 0
 9047 008e C1E7     		b	.L943
 9048              	.L960:
3009:bluetooth_rxtx.c **** 				case MODE_AFH:
3010:bluetooth_rxtx.c **** 					mode = MODE_AFH;
 9049              		.loc 1 3010 0
ARM GAS  /tmp/ccTiCbBl.s 			page 236


 9050 0090 0E23     		movs	r3, #14
 9051 0092 00E0     		b	.L966
 9052              	.L947:
3011:bluetooth_rxtx.c **** 					bt_stream_rx();
3012:bluetooth_rxtx.c **** 					break;
3013:bluetooth_rxtx.c **** 				case MODE_RX_SYMBOLS:
3014:bluetooth_rxtx.c **** 					mode = MODE_RX_SYMBOLS;
 9053              		.loc 1 3014 0
 9054 0094 0123     		movs	r3, #1
 9055              	.L966:
 9056 0096 6374     		strb	r3, [r4, #17]
3015:bluetooth_rxtx.c **** 					bt_stream_rx();
 9057              		.loc 1 3015 0
 9058 0098 FFF7FEFF 		bl	bt_stream_rx
 9059              	.LVL936:
3016:bluetooth_rxtx.c **** 					break;
 9060              		.loc 1 3016 0
 9061 009c BAE7     		b	.L943
 9062              	.L948:
3017:bluetooth_rxtx.c **** 				case MODE_TX_SYMBOLS:
3018:bluetooth_rxtx.c **** 					mode = MODE_TX_SYMBOLS;
 9063              		.loc 1 3018 0
 9064 009e 0223     		movs	r3, #2
 9065 00a0 6374     		strb	r3, [r4, #17]
3019:bluetooth_rxtx.c **** 					br_transmit();
 9066              		.loc 1 3019 0
 9067 00a2 FFF7FEFF 		bl	br_transmit
 9068              	.LVL937:
3020:bluetooth_rxtx.c **** 					break;
 9069              		.loc 1 3020 0
 9070 00a6 B5E7     		b	.L943
 9071              	.L954:
3021:bluetooth_rxtx.c **** 				case MODE_BT_FOLLOW:
3022:bluetooth_rxtx.c **** 					mode = MODE_BT_FOLLOW;
 9072              		.loc 1 3022 0
 9073 00a8 0823     		movs	r3, #8
 9074 00aa F4E7     		b	.L966
 9075              	.L955:
3023:bluetooth_rxtx.c **** 					bt_stream_rx();
3024:bluetooth_rxtx.c **** 					break;
3025:bluetooth_rxtx.c **** 				case MODE_BT_FOLLOW_LE:
3026:bluetooth_rxtx.c **** 					bt_follow_le();
 9076              		.loc 1 3026 0
 9077 00ac FFF7FEFF 		bl	bt_follow_le
 9078              	.LVL938:
3027:bluetooth_rxtx.c **** 					break;
 9079              		.loc 1 3027 0
 9080 00b0 B0E7     		b	.L943
 9081              	.L963:
3028:bluetooth_rxtx.c **** 				//JWHUR cfo estimation tracking
3029:bluetooth_rxtx.c **** 				case MODE_BT_CFO_LE:
3030:bluetooth_rxtx.c **** 					bt_tracking_le(MODE_BT_CFO_LE);
 9082              		.loc 1 3030 0
 9083 00b2 1120     		movs	r0, #17
 9084 00b4 00E0     		b	.L968
 9085              	.L964:
3031:bluetooth_rxtx.c **** 					break;
ARM GAS  /tmp/ccTiCbBl.s 			page 237


3032:bluetooth_rxtx.c **** 				case MODE_BT_RSSI_LE:
3033:bluetooth_rxtx.c **** 					bt_tracking_le(MODE_BT_RSSI_LE);
 9086              		.loc 1 3033 0
 9087 00b6 1220     		movs	r0, #18
 9088              	.L968:
 9089 00b8 FFF7FEFF 		bl	bt_tracking_le
 9090              	.LVL939:
3034:bluetooth_rxtx.c **** 					break;
 9091              		.loc 1 3034 0
 9092 00bc AAE7     		b	.L943
 9093              	.L956:
3035:bluetooth_rxtx.c **** 				case MODE_BT_PROMISC_LE:
3036:bluetooth_rxtx.c **** 					bt_promisc_le();
 9094              		.loc 1 3036 0
 9095 00be FFF7FEFF 		bl	bt_promisc_le
 9096              	.LVL940:
3037:bluetooth_rxtx.c **** 					break;
 9097              		.loc 1 3037 0
 9098 00c2 A7E7     		b	.L943
 9099              	.L958:
3038:bluetooth_rxtx.c **** 				case MODE_BT_SLAVE_LE:
3039:bluetooth_rxtx.c **** 					mode = MODE_BT_SLAVE_LE;
 9100              		.loc 1 3039 0
 9101 00c4 0C23     		movs	r3, #12
 9102 00c6 6374     		strb	r3, [r4, #17]
3040:bluetooth_rxtx.c **** 					bt_slave_le();
 9103              		.loc 1 3040 0
 9104 00c8 FFF7FEFF 		bl	bt_slave_le
 9105              	.LVL941:
3041:bluetooth_rxtx.c **** 					break;
 9106              		.loc 1 3041 0
 9107 00cc A2E7     		b	.L943
 9108              	.L965:
3042:bluetooth_rxtx.c **** 				case MODE_BT_SYNC_LE:
3043:bluetooth_rxtx.c **** 					mode = MODE_BT_SYNC_LE;
 9109              		.loc 1 3043 0
 9110 00ce 1323     		movs	r3, #19
 9111 00d0 6374     		strb	r3, [r4, #17]
3044:bluetooth_rxtx.c **** 					bt_sync_le();
 9112              		.loc 1 3044 0
 9113 00d2 FFF7FEFF 		bl	bt_sync_le
 9114              	.LVL942:
3045:bluetooth_rxtx.c **** 					break;
 9115              		.loc 1 3045 0
 9116 00d6 9DE7     		b	.L943
 9117              	.L949:
3046:bluetooth_rxtx.c **** 				case MODE_TX_TEST:
3047:bluetooth_rxtx.c **** 					mode = MODE_TX_TEST;
 9118              		.loc 1 3047 0
 9119 00d8 0323     		movs	r3, #3
3048:bluetooth_rxtx.c **** 					cc2400_txtest(&modulation, &channel);
 9120              		.loc 1 3048 0
 9121 00da 1648     		ldr	r0, .L969+8
 9122 00dc 1649     		ldr	r1, .L969+12
3047:bluetooth_rxtx.c **** 					cc2400_txtest(&modulation, &channel);
 9123              		.loc 1 3047 0
 9124 00de 6374     		strb	r3, [r4, #17]
ARM GAS  /tmp/ccTiCbBl.s 			page 238


 9125              		.loc 1 3048 0
 9126 00e0 FFF7FEFF 		bl	cc2400_txtest
 9127              	.LVL943:
3049:bluetooth_rxtx.c **** 					break;
 9128              		.loc 1 3049 0
 9129 00e4 96E7     		b	.L943
 9130              	.L951:
3050:bluetooth_rxtx.c **** 				case MODE_RANGE_TEST:
3051:bluetooth_rxtx.c **** 					mode = MODE_RANGE_TEST;
 9131              		.loc 1 3051 0
 9132 00e6 0523     		movs	r3, #5
3052:bluetooth_rxtx.c **** 					cc2400_rangetest(&channel);
 9133              		.loc 1 3052 0
 9134 00e8 1348     		ldr	r0, .L969+12
3051:bluetooth_rxtx.c **** 					cc2400_rangetest(&channel);
 9135              		.loc 1 3051 0
 9136 00ea 6374     		strb	r3, [r4, #17]
 9137              		.loc 1 3052 0
 9138 00ec FFF7FEFF 		bl	cc2400_rangetest
 9139              	.LVL944:
3053:bluetooth_rxtx.c **** 					requested_mode = MODE_IDLE;
 9140              		.loc 1 3053 0
 9141 00f0 0023     		movs	r3, #0
 9142 00f2 A374     		strb	r3, [r4, #18]
3054:bluetooth_rxtx.c **** 					break;
 9143              		.loc 1 3054 0
 9144 00f4 8EE7     		b	.L943
 9145              	.L952:
3055:bluetooth_rxtx.c **** 				case MODE_REPEATER:
3056:bluetooth_rxtx.c **** 					mode = MODE_REPEATER;
 9146              		.loc 1 3056 0
 9147 00f6 0623     		movs	r3, #6
3057:bluetooth_rxtx.c **** 					cc2400_repeater(&channel);
 9148              		.loc 1 3057 0
 9149 00f8 0F48     		ldr	r0, .L969+12
3056:bluetooth_rxtx.c **** 					cc2400_repeater(&channel);
 9150              		.loc 1 3056 0
 9151 00fa 6374     		strb	r3, [r4, #17]
 9152              		.loc 1 3057 0
 9153 00fc FFF7FEFF 		bl	cc2400_repeater
 9154              	.LVL945:
3058:bluetooth_rxtx.c **** 					break;
 9155              		.loc 1 3058 0
 9156 0100 88E7     		b	.L943
 9157              	.L950:
3059:bluetooth_rxtx.c **** 				case MODE_SPECAN:
3060:bluetooth_rxtx.c **** 					specan();
 9158              		.loc 1 3060 0
 9159 0102 FFF7FEFF 		bl	specan
 9160              	.LVL946:
3061:bluetooth_rxtx.c **** 					break;
 9161              		.loc 1 3061 0
 9162 0106 85E7     		b	.L943
 9163              	.L953:
3062:bluetooth_rxtx.c **** 				case MODE_LED_SPECAN:
3063:bluetooth_rxtx.c **** 					led_specan();
 9164              		.loc 1 3063 0
ARM GAS  /tmp/ccTiCbBl.s 			page 239


 9165 0108 FFF7FEFF 		bl	led_specan
 9166              	.LVL947:
3064:bluetooth_rxtx.c **** 					break;
 9167              		.loc 1 3064 0
 9168 010c 82E7     		b	.L943
 9169              	.L959:
3065:bluetooth_rxtx.c **** 				case MODE_EGO:
3066:bluetooth_rxtx.c **** 					mode = MODE_EGO;
 9170              		.loc 1 3066 0
 9171 010e 0D23     		movs	r3, #13
 9172 0110 6374     		strb	r3, [r4, #17]
3067:bluetooth_rxtx.c **** 					ego_main(ego_mode);
 9173              		.loc 1 3067 0
 9174 0112 207D     		ldrb	r0, [r4, #20]	@ zero_extendqisi2
 9175 0114 FFF7FEFF 		bl	ego_main
 9176              	.LVL948:
3068:bluetooth_rxtx.c **** 					break;
 9177              		.loc 1 3068 0
 9178 0118 7CE7     		b	.L943
 9179              	.L961:
3069:bluetooth_rxtx.c **** 				case MODE_RX_GENERIC:
3070:bluetooth_rxtx.c **** 					mode = MODE_RX_GENERIC;
 9180              		.loc 1 3070 0
 9181 011a 0F23     		movs	r3, #15
 9182 011c 6374     		strb	r3, [r4, #17]
3071:bluetooth_rxtx.c **** 					rx_generic();
 9183              		.loc 1 3071 0
 9184 011e FFF7FEFF 		bl	rx_generic
 9185              	.LVL949:
3072:bluetooth_rxtx.c **** 					break;
 9186              		.loc 1 3072 0
 9187 0122 77E7     		b	.L943
 9188              	.L962:
3073:bluetooth_rxtx.c **** 				case MODE_TX_GENERIC:
3074:bluetooth_rxtx.c **** 					tx_generic();
 9189              		.loc 1 3074 0
 9190 0124 FFF7FEFF 		bl	tx_generic
 9191              	.LVL950:
3075:bluetooth_rxtx.c **** 					break;
 9192              		.loc 1 3075 0
 9193 0128 74E7     		b	.L943
 9194              	.L970:
 9195 012a 00BF     		.align	2
 9196              	.L969:
 9197 012c 00000000 		.word	vendor_request_handler
 9198 0130 00000000 		.word	clkn
 9199 0134 00000000 		.word	.LANCHOR0
 9200 0138 00000000 		.word	.LANCHOR1
 9201              		.cfi_endproc
 9202              	.LFE44:
 9204              		.comm	unpacked,800,1
 9205              		.global	packet_cb
 9206              		.global	data_cb
 9207              		.global	le_jam_count
 9208              		.comm	le_promisc,264,4
 9209              		.global	le
 9210              		.global	sync_channel
ARM GAS  /tmp/ccTiCbBl.s 			page 240


 9211              		.global	start_sync
 9212              		.global	now_sync
 9213              		.global	slave_mac_address
 9214              		.comm	slave_mac_address_data,4,4
 9215              		.global	dlen
 9216              		.comm	tx_pkt,58,2
 9217              		.global	rssi_threshold
 9218              		.global	high_freq
 9219              		.global	low_freq
 9220              		.global	modulation
 9221              		.global	ego_mode
 9222              		.global	jam_mode
 9223              		.global	requested_mode
 9224              		.global	mode
 9225              		.global	status
 9226              		.global	dma_discard
 9227              		.global	idle_buf_channel
 9228              		.global	idle_buf_clk100ns
 9229              		.global	idle_buf_clkn_high
 9230              		.global	le_adv_channel
 9231              		.global	requested_channel
 9232              		.global	hop_timeout
 9233              		.global	hop_direct_channel
 9234              		.global	channel
 9235              		.global	do_hop
 9236              		.global	hop_mode
 9237              		.global	compile_info
 9238              		.comm	rr,5,1
 9239              		.comm	used_channels,1,1
 9240              		.comm	afh_map,10,1
 9241              		.comm	afh_enabled,1,1
 9242              		.comm	syncword,8,8
 9243              		.comm	target,16,8
 9244              		.comm	clkn_next_drift_fix,4,4
 9245              		.comm	clkn_last_drift_fix,4,4
 9246              		.comm	clk_drift_correction,2,2
 9247              		.comm	clk_drift_ppm,2,2
 9248              		.comm	clk100ns_offset,2,2
 9249              		.comm	clkn_offset,4,4
 9250              		.comm	last_hop,4,4
 9251              		.comm	clkn,4,4
 9252              		.comm	rx_err,4,4
 9253              		.comm	rx_tc,4,4
 9254              		.comm	idle_rxbuf,4,4
 9255              		.comm	active_rxbuf,4,4
 9256              		.comm	rxbuf2,50,1
 9257              		.comm	rxbuf1,50,1
 9258              		.comm	cs_trigger,1,1
 9259              		.comm	cs_threshold_cur,1,1
 9260              		.comm	cs_threshold_req,1,1
 9261              		.comm	cs_no_squelch,1,1
 9262              		.comm	rssi_count,1,1
 9263              		.comm	rssi_min,1,1
 9264              		.comm	rssi_max,1,1
 9265              		.section	.rodata
 9266              		.align	2
 9267              		.set	.LANCHOR2,. + 0
ARM GAS  /tmp/ccTiCbBl.s 			page 241


 9270              	whitening_index:
 9271 0000 46       		.byte	70
 9272 0001 3E       		.byte	62
 9273 0002 78       		.byte	120
 9274 0003 6F       		.byte	111
 9275 0004 4D       		.byte	77
 9276 0005 2E       		.byte	46
 9277 0006 0F       		.byte	15
 9278 0007 65       		.byte	101
 9279 0008 42       		.byte	66
 9280 0009 27       		.byte	39
 9281 000a 1F       		.byte	31
 9282 000b 1A       		.byte	26
 9283 000c 50       		.byte	80
 9284 000d 53       		.byte	83
 9285 000e 7D       		.byte	125
 9286 000f 59       		.byte	89
 9287 0010 0A       		.byte	10
 9288 0011 23       		.byte	35
 9289 0012 08       		.byte	8
 9290 0013 36       		.byte	54
 9291 0014 7A       		.byte	122
 9292 0015 11       		.byte	17
 9293 0016 21       		.byte	33
 9294 0017 00       		.byte	0
 9295 0018 3A       		.byte	58
 9296 0019 73       		.byte	115
 9297 001a 06       		.byte	6
 9298 001b 5E       		.byte	94
 9299 001c 56       		.byte	86
 9300 001d 31       		.byte	49
 9301 001e 34       		.byte	52
 9302 001f 14       		.byte	20
 9303 0020 28       		.byte	40
 9304 0021 1B       		.byte	27
 9305 0022 54       		.byte	84
 9306 0023 5A       		.byte	90
 9307 0024 3F       		.byte	63
 9308 0025 70       		.byte	112
 9309 0026 2F       		.byte	47
 9310 0027 66       		.byte	102
 9313              	whitening:
 9314 0028 01       		.byte	1
 9315 0029 01       		.byte	1
 9316 002a 01       		.byte	1
 9317 002b 01       		.byte	1
 9318 002c 00       		.byte	0
 9319 002d 01       		.byte	1
 9320 002e 00       		.byte	0
 9321 002f 01       		.byte	1
 9322 0030 00       		.byte	0
 9323 0031 01       		.byte	1
 9324 0032 00       		.byte	0
 9325 0033 00       		.byte	0
 9326 0034 00       		.byte	0
 9327 0035 00       		.byte	0
 9328 0036 01       		.byte	1
ARM GAS  /tmp/ccTiCbBl.s 			page 242


 9329 0037 00       		.byte	0
 9330 0038 01       		.byte	1
 9331 0039 01       		.byte	1
 9332 003a 00       		.byte	0
 9333 003b 01       		.byte	1
 9334 003c 01       		.byte	1
 9335 003d 01       		.byte	1
 9336 003e 01       		.byte	1
 9337 003f 00       		.byte	0
 9338 0040 00       		.byte	0
 9339 0041 01       		.byte	1
 9340 0042 01       		.byte	1
 9341 0043 01       		.byte	1
 9342 0044 00       		.byte	0
 9343 0045 00       		.byte	0
 9344 0046 01       		.byte	1
 9345 0047 00       		.byte	0
 9346 0048 01       		.byte	1
 9347 0049 00       		.byte	0
 9348 004a 01       		.byte	1
 9349 004b 01       		.byte	1
 9350 004c 00       		.byte	0
 9351 004d 00       		.byte	0
 9352 004e 01       		.byte	1
 9353 004f 01       		.byte	1
 9354 0050 00       		.byte	0
 9355 0051 00       		.byte	0
 9356 0052 00       		.byte	0
 9357 0053 00       		.byte	0
 9358 0054 00       		.byte	0
 9359 0055 01       		.byte	1
 9360 0056 01       		.byte	1
 9361 0057 00       		.byte	0
 9362 0058 01       		.byte	1
 9363 0059 01       		.byte	1
 9364 005a 00       		.byte	0
 9365 005b 01       		.byte	1
 9366 005c 00       		.byte	0
 9367 005d 01       		.byte	1
 9368 005e 01       		.byte	1
 9369 005f 01       		.byte	1
 9370 0060 00       		.byte	0
 9371 0061 01       		.byte	1
 9372 0062 00       		.byte	0
 9373 0063 00       		.byte	0
 9374 0064 00       		.byte	0
 9375 0065 01       		.byte	1
 9376 0066 01       		.byte	1
 9377 0067 00       		.byte	0
 9378 0068 00       		.byte	0
 9379 0069 01       		.byte	1
 9380 006a 00       		.byte	0
 9381 006b 00       		.byte	0
 9382 006c 00       		.byte	0
 9383 006d 01       		.byte	1
 9384 006e 00       		.byte	0
 9385 006f 00       		.byte	0
ARM GAS  /tmp/ccTiCbBl.s 			page 243


 9386 0070 00       		.byte	0
 9387 0071 00       		.byte	0
 9388 0072 00       		.byte	0
 9389 0073 00       		.byte	0
 9390 0074 01       		.byte	1
 9391 0075 00       		.byte	0
 9392 0076 00       		.byte	0
 9393 0077 01       		.byte	1
 9394 0078 00       		.byte	0
 9395 0079 00       		.byte	0
 9396 007a 01       		.byte	1
 9397 007b 01       		.byte	1
 9398 007c 00       		.byte	0
 9399 007d 01       		.byte	1
 9400 007e 00       		.byte	0
 9401 007f 00       		.byte	0
 9402 0080 01       		.byte	1
 9403 0081 01       		.byte	1
 9404 0082 01       		.byte	1
 9405 0083 01       		.byte	1
 9406 0084 00       		.byte	0
 9407 0085 01       		.byte	1
 9408 0086 01       		.byte	1
 9409 0087 01       		.byte	1
 9410 0088 00       		.byte	0
 9411 0089 00       		.byte	0
 9412 008a 00       		.byte	0
 9413 008b 00       		.byte	0
 9414 008c 01       		.byte	1
 9415 008d 01       		.byte	1
 9416 008e 01       		.byte	1
 9417 008f 01       		.byte	1
 9418 0090 01       		.byte	1
 9419 0091 01       		.byte	1
 9420 0092 01       		.byte	1
 9421 0093 00       		.byte	0
 9422 0094 00       		.byte	0
 9423 0095 00       		.byte	0
 9424 0096 01       		.byte	1
 9425 0097 01       		.byte	1
 9426 0098 01       		.byte	1
 9427 0099 00       		.byte	0
 9428 009a 01       		.byte	1
 9429 009b 01       		.byte	1
 9430 009c 00       		.byte	0
 9431 009d 00       		.byte	0
 9432 009e 00       		.byte	0
 9433 009f 01       		.byte	1
 9434 00a0 00       		.byte	0
 9435 00a1 01       		.byte	1
 9436 00a2 00       		.byte	0
 9437 00a3 00       		.byte	0
 9438 00a4 01       		.byte	1
 9439 00a5 00       		.byte	0
 9440 00a6 01       		.byte	1
 9443              	compile_info:
 9444 00a7 75626572 		.ascii	"ubertooth 2017-03-R2 (mwnl@mwnl-lenovo) 2018. 08. 3"
ARM GAS  /tmp/ccTiCbBl.s 			page 244


 9444      746F6F74 
 9444      68203230 
 9444      31372D30 
 9444      332D5232 
 9445 00da 302E2028 		.ascii	"0. (\353\252\251) 16:06:05 KST\000"
 9445      EBAAA929 
 9445      2031363A 
 9445      30363A30 
 9445      35204B53 
 9448              	whitening_word:
 9449 00f0 40B2BCC3 		.word	-1011043776
 9450 00f4 1F374A5F 		.word	1598699295
 9451 00f8 85F69C9A 		.word	-1700989307
 9452 00fc C1D6C544 		.word	1153816257
 9453 0100 2059DEE1 		.word	-505521888
 9454 0104 8F1BA5AF 		.word	-1348134001
 9455 0108 427B4ECD 		.word	-850494654
 9456 010c 60EB6222 		.word	576908128
 9457 0110 902CEFF0 		.word	-252760944
 9458 0114 C78DD257 		.word	1473416647
 9459 0118 A13DA766 		.word	1722236321
 9460 011c B0753111 		.word	288454064
 9461 0120 8940B2BC 		.word	-1129168759
 9462 0124 C31F374A 		.word	1245126595
 9463 0128 5F85F69C 		.word	-1661565601
 9464 012c 9AC1D6C5 		.word	-975781478
 9465 0130 442059DE 		.word	-564584380
 9466 0134 E18F1BA5 		.word	-1524920351
 9467 0138 AF427B4E 		.word	1316700847
 9468 013c CD60EB62 		.word	1659592909
 9469 0140 22902CEF 		.word	-282292190
 9470 0144 F0C78DD2 		.word	-762460176
 9471 0148 57A13DA7 		.word	-1489133225
 9472 014c 66B07531 		.word	829796454
 9473 0150 D257A13D 		.word	1033983954
 9474 0154 A766B075 		.word	1974494887
 9475 0158 31114896 		.word	-1773661903
 9476 015c 77F8E346 		.word	1189345399
 9477 0160 E9ABD09E 		.word	-1630491671
 9478 0164 5333D8BA 		.word	-1160236205
 9479 0168 980824CB 		.word	-886830952
 9480 016c 3BFC71A3 		.word	-1552810949
 9481 0170 F45568CF 		.word	-815245836
 9482 0174 A9196C5D 		.word	1567365545
 9483 0178 4C0492E5 		.word	-443415476
 9484 017c 1DFEB851 		.word	1371078173
 9485 0180 1BA5AF42 		.word	1118807323
 9486 0184 7B4ECD60 		.word	1624067707
 9487 0188 EB622290 		.word	-1876794645
 9488 018c 2CEFF0C7 		.word	-940511444
 9489 0190 8DD257A1 		.word	-1588079987
 9490 0194 3DA766B0 		.word	-1335449795
 9491 0198 75311148 		.word	1209086325
 9492 019c 9677F8E3 		.word	-470255722
 9493 01a0 46E9ABD0 		.word	-794039994
 9494 01a4 9E5333D8 		.word	-667724898
 9495 01a8 BA980824 		.word	604543162
ARM GAS  /tmp/ccTiCbBl.s 			page 245


 9496 01ac CB3BFC71 		.word	1912355787
 9497 01b0 6479873F 		.word	1065843044
 9498 01b4 6E94BE0A 		.word	180261998
 9499 01b8 ED393583 		.word	-2093663763
 9500 01bc AD8B8940 		.word	1082756013
 9501 01c0 B2BCC31F 		.word	532921522
 9502 01c4 374A5F85 		.word	-2057352649
 9503 01c8 F69C9AC1 		.word	-1046831882
 9504 01cc D6C54420 		.word	541378006
 9505 01d0 59DEE18F 		.word	-1881022887
 9506 01d4 1BA5AF42 		.word	1118807323
 9507 01d8 7B4ECD60 		.word	1624067707
 9508 01dc EB622290 		.word	-1876794645
 9509 01e0 AD8B8940 		.word	1082756013
 9510 01e4 B2BCC31F 		.word	532921522
 9511 01e8 374A5F85 		.word	-2057352649
 9512 01ec F69C9AC1 		.word	-1046831882
 9513 01f0 D6C54420 		.word	541378006
 9514 01f4 59DEE18F 		.word	-1881022887
 9515 01f8 1BA5AF42 		.word	1118807323
 9516 01fc 7B4ECD60 		.word	1624067707
 9517 0200 EB622290 		.word	-1876794645
 9518 0204 2CEFF0C7 		.word	-940511444
 9519 0208 8DD257A1 		.word	-1588079987
 9520 020c 3DA766B0 		.word	-1335449795
 9521 0210 F69C9AC1 		.word	-1046831882
 9522 0214 D6C54420 		.word	541378006
 9523 0218 59DEE18F 		.word	-1881022887
 9524 021c 1BA5AF42 		.word	1118807323
 9525 0220 7B4ECD60 		.word	1624067707
 9526 0224 EB622290 		.word	-1876794645
 9527 0228 2CEFF0C7 		.word	-940511444
 9528 022c 8DD257A1 		.word	-1588079987
 9529 0230 3DA766B0 		.word	-1335449795
 9530 0234 75311148 		.word	1209086325
 9531 0238 9677F8E3 		.word	-470255722
 9532 023c 46E9ABD0 		.word	-794039994
 9533 0240 3F6E94BE 		.word	-1097568705
 9534 0244 0AED3935 		.word	892988682
 9535 0248 83AD8B89 		.word	-1987334781
 9536 024c 40B2BCC3 		.word	-1011043776
 9537 0250 1F374A5F 		.word	1598699295
 9538 0254 85F69C9A 		.word	-1700989307
 9539 0258 C1D6C544 		.word	1153816257
 9540 025c 2059DEE1 		.word	-505521888
 9541 0260 8F1BA5AF 		.word	-1348134001
 9542 0264 427B4ECD 		.word	-850494654
 9543 0268 60EB6222 		.word	576908128
 9544 026c 902CEFF0 		.word	-252760944
 9545 0270 0824CB3B 		.word	1003168776
 9546 0274 FC71A3F4 		.word	-190615044
 9547 0278 5568CFA9 		.word	-1446025131
 9548 027c 196C5D4C 		.word	1281190937
 9549 0280 0492E51D 		.word	501584388
 9550 0284 FEB851FA 		.word	-95307522
 9551 0288 2AB4E7D4 		.word	-723012566
 9552 028c 0CB62E26 		.word	640595468
ARM GAS  /tmp/ccTiCbBl.s 			page 246


 9553 0290 02C9F20E 		.word	250792194
 9554 0294 7FDC287D 		.word	2099829887
 9555 0298 15DA736A 		.word	1785977365
 9556 029c 065B1713 		.word	320297734
 9557 02a0 C1D6C544 		.word	1153816257
 9558 02a4 2059DEE1 		.word	-505521888
 9559 02a8 8F1BA5AF 		.word	-1348134001
 9560 02ac 427B4ECD 		.word	-850494654
 9561 02b0 60EB6222 		.word	576908128
 9562 02b4 902CEFF0 		.word	-252760944
 9563 02b8 C78DD257 		.word	1473416647
 9564 02bc A13DA766 		.word	1722236321
 9565 02c0 B0753111 		.word	288454064
 9566 02c4 489677F8 		.word	-126380472
 9567 02c8 E346E9AB 		.word	-1410775325
 9568 02cc D09E5333 		.word	861118160
 9569 02d0 9AC1D6C5 		.word	-975781478
 9570 02d4 442059DE 		.word	-564584380
 9571 02d8 E18F1BA5 		.word	-1524920351
 9572 02dc AF427B4E 		.word	1316700847
 9573 02e0 CD60EB62 		.word	1659592909
 9574 02e4 22902CEF 		.word	-282292190
 9575 02e8 F0C78DD2 		.word	-762460176
 9576 02ec 57A13DA7 		.word	-1489133225
 9577 02f0 66B07531 		.word	829796454
 9578 02f4 11489677 		.word	2006337553
 9579 02f8 F8E346E9 		.word	-381230088
 9580 02fc ABD09E53 		.word	1402917035
 9581 0300 5333D8BA 		.word	-1160236205
 9582 0304 980824CB 		.word	-886830952
 9583 0308 3BFC71A3 		.word	-1552810949
 9584 030c F45568CF 		.word	-815245836
 9585 0310 A9196C5D 		.word	1567365545
 9586 0314 4C0492E5 		.word	-443415476
 9587 0318 1DFEB851 		.word	1371078173
 9588 031c FA2AB4E7 		.word	-407622918
 9589 0320 D40CB62E 		.word	783682772
 9590 0324 2602C9F2 		.word	-221707738
 9591 0328 0E7FDC28 		.word	685539086
 9592 032c 7D15DA73 		.word	1943672189
 9593 0330 2CEFF0C7 		.word	-940511444
 9594 0334 8DD257A1 		.word	-1588079987
 9595 0338 3DA766B0 		.word	-1335449795
 9596 033c 75311148 		.word	1209086325
 9597 0340 9677F8E3 		.word	-470255722
 9598 0344 46E9ABD0 		.word	-794039994
 9599 0348 9E5333D8 		.word	-667724898
 9600 034c BA980824 		.word	604543162
 9601 0350 CB3BFC71 		.word	1912355787
 9602 0354 A3F45568 		.word	1750463651
 9603 0358 CFA9196C 		.word	1813621199
 9604 035c 5D4C0492 		.word	-1845212067
 9605 0360 E51DFEB8 		.word	-1191305755
 9606 0364 51FA2AB4 		.word	-1272251823
 9607 0368 E7D40CB6 		.word	-1240673049
 9608 036c 2E2602C9 		.word	-922606034
 9609 0370 F20E7FDC 		.word	-595652878
ARM GAS  /tmp/ccTiCbBl.s 			page 247


 9610 0374 287D15DA 		.word	-636125912
 9611 0378 736A065B 		.word	1527147123
 9612 037c 17138164 		.word	1686180631
 9613 0380 79873F6E 		.word	1849657209
 9614 0384 94BE0AED 		.word	-318062956
 9615 0388 393583AD 		.word	-1383910087
 9616 038c 8B8940B2 		.word	-1304393333
 9617 0390 BE0AED39 		.word	971836094
 9618 0394 3583AD8B 		.word	-1951562955
 9619 0398 8940B2BC 		.word	-1129168759
 9620 039c C31F374A 		.word	1245126595
 9621 03a0 5F85F69C 		.word	-1661565601
 9622 03a4 9AC1D6C5 		.word	-975781478
 9623 03a8 442059DE 		.word	-564584380
 9624 03ac E18F1BA5 		.word	-1524920351
 9625 03b0 AF427B4E 		.word	1316700847
 9626 03b4 CD60EB62 		.word	1659592909
 9627 03b8 22902CEF 		.word	-282292190
 9628 03bc F0C78DD2 		.word	-762460176
 9629 03c0 77F8E346 		.word	1189345399
 9630 03c4 E9ABD09E 		.word	-1630491671
 9631 03c8 5333D8BA 		.word	-1160236205
 9632 03cc 980824CB 		.word	-886830952
 9633 03d0 3BFC71A3 		.word	-1552810949
 9634 03d4 F45568CF 		.word	-815245836
 9635 03d8 A9196C5D 		.word	1567365545
 9636 03dc 4C0492E5 		.word	-443415476
 9637 03e0 1DFEB851 		.word	1371078173
 9638 03e4 FA2AB4E7 		.word	-407622918
 9639 03e8 D40CB62E 		.word	783682772
 9640 03ec 2602C9F2 		.word	-221707738
 9641 03f0 D09E5333 		.word	861118160
 9642 03f4 D8BA9808 		.word	144227032
 9643 03f8 24CB3BFC 		.word	-63190236
 9644 03fc 71A3F455 		.word	1442095985
 9645 0400 68CFA919 		.word	430559080
 9646 0404 6C5D4C04 		.word	72113516
 9647 0408 92E51DFE 		.word	-31595118
 9648 040c B851FA2A 		.word	721047992
 9649 0410 B4E7D40C 		.word	215279540
 9650 0414 B62E2602 		.word	36056758
 9651 0418 C9F20E7F 		.word	2131686089
 9652 041c DC287D15 		.word	360523996
 9653 0420 196C5D4C 		.word	1281190937
 9654 0424 0492E51D 		.word	501584388
 9655 0428 FEB851FA 		.word	-95307522
 9656 042c 2AB4E7D4 		.word	-723012566
 9657 0430 0CB62E26 		.word	640595468
 9658 0434 02C9F20E 		.word	250792194
 9659 0438 7FDC287D 		.word	2099829887
 9660 043c 15DA736A 		.word	1785977365
 9661 0440 065B1713 		.word	320297734
 9662 0444 81647987 		.word	-2022087551
 9663 0448 3F6E94BE 		.word	-1097568705
 9664 044c 0AED3935 		.word	892988682
 9665 0450 427B4ECD 		.word	-850494654
 9666 0454 60EB6222 		.word	576908128
ARM GAS  /tmp/ccTiCbBl.s 			page 248


 9667 0458 902CEFF0 		.word	-252760944
 9668 045c C78DD257 		.word	1473416647
 9669 0460 A13DA766 		.word	1722236321
 9670 0464 B0753111 		.word	288454064
 9671 0468 489677F8 		.word	-126380472
 9672 046c E346E9AB 		.word	-1410775325
 9673 0470 D09E5333 		.word	861118160
 9674 0474 D8BA9808 		.word	144227032
 9675 0478 24CB3BFC 		.word	-63190236
 9676 047c 71A3F455 		.word	1442095985
 9677 0480 8B8940B2 		.word	-1304393333
 9678 0484 BCC31F37 		.word	924828604
 9679 0488 4A5F85F6 		.word	-159031478
 9680 048c 9C9AC1D6 		.word	-691955044
 9681 0490 C5442059 		.word	1495286981
 9682 0494 DEE18F1B 		.word	462414302
 9683 0498 A5AF427B 		.word	2067967909
 9684 049c 4ECD60EB 		.word	-345977522
 9685 04a0 6222902C 		.word	747643490
 9686 04a4 EFF0C78D 		.word	-1916276497
 9687 04a8 D257A13D 		.word	1033983954
 9688 04ac A766B075 		.word	1974494887
 9689 04b0 F45568CF 		.word	-815245836
 9690 04b4 A9196C5D 		.word	1567365545
 9691 04b8 4C0492E5 		.word	-443415476
 9692 04bc 1DFEB851 		.word	1371078173
 9693 04c0 FA2AB4E7 		.word	-407622918
 9694 04c4 D40CB62E 		.word	783682772
 9695 04c8 2602C9F2 		.word	-221707738
 9696 04cc 0E7FDC28 		.word	685539086
 9697 04d0 7D15DA73 		.word	1943672189
 9698 04d4 6A065B17 		.word	391841386
 9699 04d8 13816479 		.word	2036629779
 9700 04dc 873F6E94 		.word	-1804714105
 9701 04e0 3DA766B0 		.word	-1335449795
 9702 04e4 75311148 		.word	1209086325
 9703 04e8 9677F8E3 		.word	-470255722
 9704 04ec 46E9ABD0 		.word	-794039994
 9705 04f0 9E5333D8 		.word	-667724898
 9706 04f4 BA980824 		.word	604543162
 9707 04f8 CB3BFC71 		.word	1912355787
 9708 04fc A3F45568 		.word	1750463651
 9709 0500 CFA9196C 		.word	1813621199
 9710 0504 5D4C0492 		.word	-1845212067
 9711 0508 E51DFEB8 		.word	-1191305755
 9712 050c 51FA2AB4 		.word	-1272251823
 9713 0510 66B07531 		.word	829796454
 9714 0514 11489677 		.word	2006337553
 9715 0518 F8E346E9 		.word	-381230088
 9716 051c ABD09E53 		.word	1402917035
 9717 0520 33D8BA98 		.word	-1732585421
 9718 0524 0824CB3B 		.word	1003168776
 9719 0528 FC71A3F4 		.word	-190615044
 9720 052c 5568CFA9 		.word	-1446025131
 9721 0530 196C5D4C 		.word	1281190937
 9722 0534 0492E51D 		.word	501584388
 9723 0538 FEB851FA 		.word	-95307522
ARM GAS  /tmp/ccTiCbBl.s 			page 249


 9724 053c 2AB4E7D4 		.word	-723012566
 9725 0540 AF427B4E 		.word	1316700847
 9726 0544 CD60EB62 		.word	1659592909
 9727 0548 22902CEF 		.word	-282292190
 9728 054c F0C78DD2 		.word	-762460176
 9729 0550 57A13DA7 		.word	-1489133225
 9730 0554 66B07531 		.word	829796454
 9731 0558 11489677 		.word	2006337553
 9732 055c F8E346E9 		.word	-381230088
 9733 0560 ABD09E53 		.word	1402917035
 9734 0564 33D8BA98 		.word	-1732585421
 9735 0568 0824CB3B 		.word	1003168776
 9736 056c FC71A3F4 		.word	-190615044
 9737 0570 980824CB 		.word	-886830952
 9738 0574 3BFC71A3 		.word	-1552810949
 9739 0578 F45568CF 		.word	-815245836
 9740 057c A9196C5D 		.word	1567365545
 9741 0580 4C0492E5 		.word	-443415476
 9742 0584 1DFEB851 		.word	1371078173
 9743 0588 FA2AB4E7 		.word	-407622918
 9744 058c D40CB62E 		.word	783682772
 9745 0590 2602C9F2 		.word	-221707738
 9746 0594 0E7FDC28 		.word	685539086
 9747 0598 7D15DA73 		.word	1943672189
 9748 059c 6A065B17 		.word	391841386
 9749 05a0 51FA2AB4 		.word	-1272251823
 9750 05a4 E7D40CB6 		.word	-1240673049
 9751 05a8 2E2602C9 		.word	-922606034
 9752 05ac F20E7FDC 		.word	-595652878
 9753 05b0 287D15DA 		.word	-636125912
 9754 05b4 736A065B 		.word	1527147123
 9755 05b8 17138164 		.word	1686180631
 9756 05bc 79873F6E 		.word	1849657209
 9757 05c0 94BE0AED 		.word	-318062956
 9758 05c4 393583AD 		.word	-1383910087
 9759 05c8 8B8940B2 		.word	-1304393333
 9760 05cc BCC31F37 		.word	924828604
 9761 05d0 0AED3935 		.word	892988682
 9762 05d4 83AD8B89 		.word	-1987334781
 9763 05d8 40B2BCC3 		.word	-1011043776
 9764 05dc 1F374A5F 		.word	1598699295
 9765 05e0 85F69C9A 		.word	-1700989307
 9766 05e4 C1D6C544 		.word	1153816257
 9767 05e8 2059DEE1 		.word	-505521888
 9768 05ec 8F1BA5AF 		.word	-1348134001
 9769 05f0 427B4ECD 		.word	-850494654
 9770 05f4 60EB6222 		.word	576908128
 9771 05f8 902CEFF0 		.word	-252760944
 9772 05fc C78DD257 		.word	1473416647
 9773 0600 C31F374A 		.word	1245126595
 9774 0604 5F85F69C 		.word	-1661565601
 9775 0608 9AC1D6C5 		.word	-975781478
 9776 060c 442059DE 		.word	-564584380
 9777 0610 E18F1BA5 		.word	-1524920351
 9778 0614 AF427B4E 		.word	1316700847
 9779 0618 CD60EB62 		.word	1659592909
 9780 061c 22902CEF 		.word	-282292190
ARM GAS  /tmp/ccTiCbBl.s 			page 250


 9781 0620 F0C78DD2 		.word	-762460176
 9782 0624 57A13DA7 		.word	-1489133225
 9783 0628 66B07531 		.word	829796454
 9784 062c 11489677 		.word	2006337553
 9785 0630 BCC31F37 		.word	924828604
 9786 0634 4A5F85F6 		.word	-159031478
 9787 0638 9C9AC1D6 		.word	-691955044
 9788 063c C5442059 		.word	1495286981
 9789 0640 DEE18F1B 		.word	462414302
 9790 0644 A5AF427B 		.word	2067967909
 9791 0648 4ECD60EB 		.word	-345977522
 9792 064c 6222902C 		.word	747643490
 9793 0650 EFF0C78D 		.word	-1916276497
 9794 0654 D257A13D 		.word	1033983954
 9795 0658 A766B075 		.word	1974494887
 9796 065c 31114896 		.word	-1773661903
 9797 0660 75311148 		.word	1209086325
 9798 0664 9677F8E3 		.word	-470255722
 9799 0668 46E9ABD0 		.word	-794039994
 9800 066c 9E5333D8 		.word	-667724898
 9801 0670 BA980824 		.word	604543162
 9802 0674 CB3BFC71 		.word	1912355787
 9803 0678 A3F45568 		.word	1750463651
 9804 067c CFA9196C 		.word	1813621199
 9805 0680 5D4C0492 		.word	-1845212067
 9806 0684 E51DFEB8 		.word	-1191305755
 9807 0688 51FA2AB4 		.word	-1272251823
 9808 068c E7D40CB6 		.word	-1240673049
 9809 0690 2E2602C9 		.word	-922606034
 9810 0694 F20E7FDC 		.word	-595652878
 9811 0698 287D15DA 		.word	-636125912
 9812 069c 736A065B 		.word	1527147123
 9813 06a0 17138164 		.word	1686180631
 9814 06a4 79873F6E 		.word	1849657209
 9815 06a8 94BE0AED 		.word	-318062956
 9816 06ac 393583AD 		.word	-1383910087
 9817 06b0 8B8940B2 		.word	-1304393333
 9818 06b4 BCC31F37 		.word	924828604
 9819 06b8 4A5F85F6 		.word	-159031478
 9820 06bc 9C9AC1D6 		.word	-691955044
 9821 06c0 E7D40CB6 		.word	-1240673049
 9822 06c4 2E2602C9 		.word	-922606034
 9823 06c8 F20E7FDC 		.word	-595652878
 9824 06cc 287D15DA 		.word	-636125912
 9825 06d0 736A065B 		.word	1527147123
 9826 06d4 17138164 		.word	1686180631
 9827 06d8 79873F6E 		.word	1849657209
 9828 06dc 94BE0AED 		.word	-318062956
 9829 06e0 393583AD 		.word	-1383910087
 9830 06e4 8B8940B2 		.word	-1304393333
 9831 06e8 BCC31F37 		.word	924828604
 9832 06ec 4A5F85F6 		.word	-159031478
 9833 06f0 60EB6222 		.word	576908128
 9834 06f4 902CEFF0 		.word	-252760944
 9835 06f8 C78DD257 		.word	1473416647
 9836 06fc A13DA766 		.word	1722236321
 9837 0700 B0753111 		.word	288454064
ARM GAS  /tmp/ccTiCbBl.s 			page 251


 9838 0704 489677F8 		.word	-126380472
 9839 0708 E346E9AB 		.word	-1410775325
 9840 070c D09E5333 		.word	861118160
 9841 0710 D8BA9808 		.word	144227032
 9842 0714 24CB3BFC 		.word	-63190236
 9843 0718 71A3F455 		.word	1442095985
 9844 071c 68CFA919 		.word	430559080
 9845 0720 A9196C5D 		.word	1567365545
 9846 0724 4C0492E5 		.word	-443415476
 9847 0728 1DFEB851 		.word	1371078173
 9848 072c FA2AB4E7 		.word	-407622918
 9849 0730 D40CB62E 		.word	783682772
 9850 0734 2602C9F2 		.word	-221707738
 9851 0738 0E7FDC28 		.word	685539086
 9852 073c 7D15DA73 		.word	1943672189
 9853 0740 6A065B17 		.word	391841386
 9854 0744 13816479 		.word	2036629779
 9855 0748 873F6E94 		.word	-1804714105
 9856 074c BE0AED39 		.word	971836094
 9857 0750 F20E7FDC 		.word	-595652878
 9858 0754 287D15DA 		.word	-636125912
 9859 0758 736A065B 		.word	1527147123
 9860 075c 17138164 		.word	1686180631
 9861 0760 79873F6E 		.word	1849657209
 9862 0764 94BE0AED 		.word	-318062956
 9863 0768 393583AD 		.word	-1383910087
 9864 076c 8B8940B2 		.word	-1304393333
 9865 0770 BCC31F37 		.word	924828604
 9866 0774 4A5F85F6 		.word	-159031478
 9867 0778 9C9AC1D6 		.word	-691955044
 9868 077c C5442059 		.word	1495286981
 9869 0780 3BFC71A3 		.word	-1552810949
 9870 0784 F45568CF 		.word	-815245836
 9871 0788 A9196C5D 		.word	1567365545
 9872 078c 4C0492E5 		.word	-443415476
 9873 0790 1DFEB851 		.word	1371078173
 9874 0794 FA2AB4E7 		.word	-407622918
 9875 0798 D40CB62E 		.word	783682772
 9876 079c 2602C9F2 		.word	-221707738
 9877 07a0 0E7FDC28 		.word	685539086
 9878 07a4 7D15DA73 		.word	1943672189
 9879 07a8 6A065B17 		.word	391841386
 9880 07ac 13816479 		.word	2036629779
 9881 07b0 442059DE 		.word	-564584380
 9882 07b4 E18F1BA5 		.word	-1524920351
 9883 07b8 AF427B4E 		.word	1316700847
 9884 07bc CD60EB62 		.word	1659592909
 9885 07c0 22902CEF 		.word	-282292190
 9886 07c4 F0C78DD2 		.word	-762460176
 9887 07c8 57A13DA7 		.word	-1489133225
 9888 07cc 66B07531 		.word	829796454
 9889 07d0 11489677 		.word	2006337553
 9890 07d4 F8E346E9 		.word	-381230088
 9891 07d8 ABD09E53 		.word	1402917035
 9892 07dc 33D8BA98 		.word	-1732585421
 9893 07e0 8DD257A1 		.word	-1588079987
 9894 07e4 3DA766B0 		.word	-1335449795
ARM GAS  /tmp/ccTiCbBl.s 			page 252


 9895 07e8 75311148 		.word	1209086325
 9896 07ec 9677F8E3 		.word	-470255722
 9897 07f0 46E9ABD0 		.word	-794039994
 9898 07f4 9E5333D8 		.word	-667724898
 9899 07f8 BA980824 		.word	604543162
 9900 07fc CB3BFC71 		.word	1912355787
 9901 0800 A3F45568 		.word	1750463651
 9902 0804 CFA9196C 		.word	1813621199
 9903 0808 5D4C0492 		.word	-1845212067
 9904 080c E51DFEB8 		.word	-1191305755
 9905 0810 D6C54420 		.word	541378006
 9906 0814 59DEE18F 		.word	-1881022887
 9907 0818 1BA5AF42 		.word	1118807323
 9908 081c 7B4ECD60 		.word	1624067707
 9909 0820 EB622290 		.word	-1876794645
 9910 0824 2CEFF0C7 		.word	-940511444
 9911 0828 8DD257A1 		.word	-1588079987
 9912 082c 3DA766B0 		.word	-1335449795
 9913 0830 75311148 		.word	1209086325
 9914 0834 9677F8E3 		.word	-470255722
 9915 0838 46E9ABD0 		.word	-794039994
 9916 083c 9E5333D8 		.word	-667724898
 9917 0840 1F374A5F 		.word	1598699295
 9918 0844 85F69C9A 		.word	-1700989307
 9919 0848 C1D6C544 		.word	1153816257
 9920 084c 2059DEE1 		.word	-505521888
 9921 0850 8F1BA5AF 		.word	-1348134001
 9922 0854 427B4ECD 		.word	-850494654
 9923 0858 60EB6222 		.word	576908128
 9924 085c 902CEFF0 		.word	-252760944
 9925 0860 C78DD257 		.word	1473416647
 9926 0864 A13DA766 		.word	1722236321
 9927 0868 B0753111 		.word	288454064
 9928 086c 489677F8 		.word	-126380472
 9931              	hop_interval_lut:
 9932 0870 00       		.byte	0
 9933 0871 01       		.byte	1
 9934 0872 13       		.byte	19
 9935 0873 19       		.byte	25
 9936 0874 1C       		.byte	28
 9937 0875 0F       		.byte	15
 9938 0876 1F       		.byte	31
 9939 0877 10       		.byte	16
 9940 0878 0E       		.byte	14
 9941 0879 21       		.byte	33
 9942 087a 1A       		.byte	26
 9943 087b 1B       		.byte	27
 9944 087c 22       		.byte	34
 9945 087d 14       		.byte	20
 9946 087e 08       		.byte	8
 9947 087f 05       		.byte	5
 9948 0880 07       		.byte	7
 9949 0881 18       		.byte	24
 9950 0882 23       		.byte	35
 9951 0883 02       		.byte	2
 9952 0884 0D       		.byte	13
 9953 0885 1E       		.byte	30
ARM GAS  /tmp/ccTiCbBl.s 			page 253


 9954 0886 20       		.byte	32
 9955 0887 1D       		.byte	29
 9956 0888 11       		.byte	17
 9957 0889 03       		.byte	3
 9958 088a 0A       		.byte	10
 9959 088b 0B       		.byte	11
 9960 088c 04       		.byte	4
 9961 088d 17       		.byte	23
 9962 088e 15       		.byte	21
 9963 088f 06       		.byte	6
 9964 0890 16       		.byte	22
 9965 0891 09       		.byte	9
 9966 0892 0C       		.byte	12
 9967 0893 12       		.byte	18
 9968 0894 24       		.byte	36
 9969 0895 000000   		.space	3
 9970              	.LC0:
 9971 0898 01000000 		.word	1
 9972 089c 01000000 		.word	1
 9973 08a0 01000000 		.word	1
 9974 08a4 01000000 		.word	1
 9975              	.LC1:
 9976 08a8 6209     		.short	2402
 9977 08aa 7A09     		.short	2426
 9978 08ac B009     		.short	2480
 9979              	.LC2:
 9980 08ae 42       		.byte	66
 9981 08af 1D       		.byte	29
 9982 08b0 FF       		.byte	-1
 9983 08b1 FF       		.byte	-1
 9984 08b2 FF       		.byte	-1
 9985 08b3 FF       		.byte	-1
 9986 08b4 FF       		.byte	-1
 9987 08b5 FF       		.byte	-1
 9988 08b6 03       		.byte	3
 9989 08b7 03       		.byte	3
 9990 08b8 AA       		.byte	-86
 9991 08b9 FE       		.byte	-2
 9992 08ba 12       		.byte	18
 9993 08bb 16       		.byte	22
 9994 08bc AA       		.byte	-86
 9995 08bd FE       		.byte	-2
 9996 08be 10       		.byte	16
 9997 08bf 00       		.byte	0
 9998 08c0 02       		.byte	2
 9999 08c1 AA       		.byte	-86
 10000              	.LC3:
 10001 08c2 42       		.byte	66
 10002 08c3 16       		.byte	22
 10003 08c4 FF       		.byte	-1
 10004 08c5 FF       		.byte	-1
 10005 08c6 FF       		.byte	-1
 10006 08c7 FF       		.byte	-1
 10007 08c8 FF       		.byte	-1
 10008 08c9 FF       		.byte	-1
 10009 08ca 03       		.byte	3
 10010 08cb 03       		.byte	3
ARM GAS  /tmp/ccTiCbBl.s 			page 254


 10011 08cc AA       		.byte	-86
 10012 08cd FE       		.byte	-2
 10013 08ce 0B       		.byte	11
 10014 08cf 16       		.byte	22
 10015 08d0 AA       		.byte	-86
 10016 08d1 FE       		.byte	-2
 10017 08d2 10       		.byte	16
 10018 08d3 00       		.byte	0
 10019 08d4 02       		.byte	2
 10020 08d5 FF       		.byte	-1
 10021 08d6 53       		.byte	83
 10022 08d7 59       		.byte	89
 10023 08d8 4E       		.byte	78
 10024 08d9 43       		.byte	67
 10025              	.LC4:
 10026 08da 6C09     		.short	2412
 10027 08dc 8509     		.short	2437
 10028 08de 9E09     		.short	2462
 10029              		.section	.rodata.str1.1,"aMS",%progbits,1
 10030              	.LC5:
 10031 0000 32303137 		.ascii	"2017-03-R2\000"
 10031      2D30332D 
 10031      523200
 10032              		.data
 10033              		.align	2
 10034              		.set	.LANCHOR1,. + 0
 10037              	channel:
 10038 0000 8909     		.short	2441
 10039 0002 0000     		.space	2
 10042              	le:
 10043 0004 D6BE898E 		.word	-1903575338
 10044 0008 7D6B     		.short	27517
 10045 000a 7191     		.short	-28303
 10046 000c 55555500 		.word	5592405
 10047 0010 AAAAAA00 		.word	11184810
 10048 0014 00000000 		.word	0
 10049 0018 00       		.byte	0
 10050 0019 000000   		.space	3
 10051 001c 00000000 		.word	0
 10052 0020 00000000 		.space	32
 10052      00000000 
 10052      00000000 
 10052      00000000 
 10052      00000000 
 10053 0040 00000000 		.word	0
 10054 0044 00000000 		.word	0
 10057              	hop_timeout:
 10058 0048 9E00     		.short	158
 10061              	le_adv_channel:
 10062 004a 6209     		.short	2402
 10065              	low_freq:
 10066 004c 6009     		.short	2400
 10069              	high_freq:
 10070 004e B309     		.short	2483
 10073              	rssi_threshold:
 10074 0050 E2       		.byte	-30
 10075 0051 000000   		.bss
ARM GAS  /tmp/ccTiCbBl.s 			page 255


 10076              		.align	2
 10077              		.set	.LANCHOR0,. + 0
 10080              	modulation:
 10081 0000 00       		.space	1
 10084              	status:
 10085 0001 00       		.space	1
 10088              	idle_buf_clkn_high:
 10089 0002 00       		.space	1
 10090 0003 00       		.space	1
 10093              	idle_buf_clk100ns:
 10094 0004 00000000 		.space	4
 10097              	idle_buf_channel:
 10098 0008 0000     		.space	2
 10101              	hop_mode:
 10102 000a 00       		.space	1
 10105              	do_hop:
 10106 000b 00       		.space	1
 10109              	hop_direct_channel:
 10110 000c 0000     		.space	2
 10113              	requested_channel:
 10114 000e 0000     		.space	2
 10117              	dma_discard:
 10118 0010 00       		.space	1
 10121              	mode:
 10122 0011 00       		.space	1
 10125              	requested_mode:
 10126 0012 00       		.space	1
 10129              	jam_mode:
 10130 0013 00       		.space	1
 10133              	ego_mode:
 10134 0014 00       		.space	1
 10135 0015 000000   		.space	3
 10138              	packet_cb:
 10139 0018 00000000 		.space	4
 10142              	le_jam_count:
 10143 001c 00000000 		.space	4
 10146              	dlen:
 10147 0020 00000000 		.space	4
 10150              	data_cb:
 10151 0024 00000000 		.space	4
 10154              	start_sync:
 10155 0028 00000000 		.space	4
 10158              	now_sync:
 10159 002c 00000000 		.space	4
 10162              	restart_jamming.5236:
 10163 0030 00000000 		.space	4
 10166              	restart_jamming.5289:
 10167 0034 00000000 		.space	4
 10170              	first_ts.5394:
 10171 0038 00000000 		.space	4
 10174              	prev_clk.5400:
 10175 003c 00000000 		.space	4
 10178              	slave_mac_address:
 10179 0040 00000000 		.space	6
 10179      0000
 10182              	sync_channel:
 10183 0046 0000     		.space	2
ARM GAS  /tmp/ccTiCbBl.s 			page 256


 10184              		.text
 10185              	.Letext0:
 10186              		.file 2 "/usr/lib/gcc/arm-none-eabi/4.8.2/include/stddef.h"
 10187              		.file 3 "/usr/lib/gcc/arm-none-eabi/4.8.2/include/stdint-gcc.h"
 10188              		.file 4 "../../host/libubertooth/src/ubertooth_interface.h"
 10189              		.file 5 "../common/ubertooth.h"
 10190              		.file 6 "ubertooth_usb.h"
 10191              		.file 7 "bluetooth_le.h"
 10192              		.file 8 "ego.h"
 10193              		.file 9 "ubertooth_rssi.h"
 10194              		.file 10 "ubertooth_cs.h"
 10195              		.file 11 "ubertooth_dma.h"
 10196              		.file 12 "ubertooth_clock.h"
 10197              		.file 13 "bluetooth.h"
 10198              		.file 14 "cc2400_rangetest.h"
 10199              		.file 15 "/usr/include/newlib/string.h"
 10200              		.file 16 "/usr/include/newlib/stdlib.h"
ARM GAS  /tmp/ccTiCbBl.s 			page 257


DEFINED SYMBOLS
                            *ABS*:0000000000000000 bluetooth_rxtx.c
     /tmp/ccTiCbBl.s:19     .text.reverse8:0000000000000000 $t
     /tmp/ccTiCbBl.s:23     .text.reverse8:0000000000000000 reverse8
     /tmp/ccTiCbBl.s:72     .text.cc2400_rx:0000000000000000 $t
     /tmp/ccTiCbBl.s:76     .text.cc2400_rx:0000000000000000 cc2400_rx
     /tmp/ccTiCbBl.s:189    .text.cc2400_rx:0000000000000098 $d
     /tmp/ccTiCbBl.s:196    .text.cc2400_rx_sync:0000000000000000 $t
     /tmp/ccTiCbBl.s:200    .text.cc2400_rx_sync:0000000000000000 cc2400_rx_sync
     /tmp/ccTiCbBl.s:330    .text.cc2400_rx_sync:00000000000000ac $d
     /tmp/ccTiCbBl.s:337    .text.enqueue:0000000000000000 $t
     /tmp/ccTiCbBl.s:341    .text.enqueue:0000000000000000 enqueue
     /tmp/ccTiCbBl.s:451    .text.enqueue:0000000000000084 $d
                            *COM*:0000000000000004 clkn
                            *COM*:0000000000000001 rssi_min
                            *COM*:0000000000000001 rssi_max
                            *COM*:0000000000000001 rssi_count
     /tmp/ccTiCbBl.s:461    .text.le_set_access_address:0000000000000000 $t
     /tmp/ccTiCbBl.s:465    .text.le_set_access_address:0000000000000000 le_set_access_address
     /tmp/ccTiCbBl.s:492    .text.le_set_access_address:0000000000000014 $d
     /tmp/ccTiCbBl.s:497    .text.cc2400_idle:0000000000000000 $t
     /tmp/ccTiCbBl.s:501    .text.cc2400_idle:0000000000000000 cc2400_idle
     /tmp/ccTiCbBl.s:615    .text.cc2400_idle:000000000000009c $d
                            *COM*:0000000000000010 target
     /tmp/ccTiCbBl.s:623    .text.cb_follow_le:0000000000000000 $t
     /tmp/ccTiCbBl.s:628    .text.cb_follow_le:0000000000000000 cb_follow_le
     /tmp/ccTiCbBl.s:842    .text.cb_follow_le:00000000000000ec $d
                            *COM*:0000000000000320 unpacked
                            *COM*:0000000000000004 idle_rxbuf
     /tmp/ccTiCbBl.s:852    .text.connection_follow_cb:0000000000000000 $t
     /tmp/ccTiCbBl.s:857    .text.connection_follow_cb:0000000000000000 connection_follow_cb
     /tmp/ccTiCbBl.s:1128   .text.connection_follow_cb:0000000000000164 $d
     /tmp/ccTiCbBl.s:1138   .text.vendor_request_handler:0000000000000000 $t
     /tmp/ccTiCbBl.s:1142   .text.vendor_request_handler:0000000000000000 vendor_request_handler
     /tmp/ccTiCbBl.s:1176   .text.vendor_request_handler:000000000000001a $d
     /tmp/ccTiCbBl.s:1250   .text.vendor_request_handler:00000000000000ac $t
     /tmp/ccTiCbBl.s:1571   .text.vendor_request_handler:0000000000000264 $d
                            *COM*:0000000000000005 rr
     /tmp/ccTiCbBl.s:1585   .text.vendor_request_handler:0000000000000290 $t
     /tmp/ccTiCbBl.s:2154   .text.vendor_request_handler:000000000000055c $d
                            *COM*:0000000000000001 cs_threshold_req
                            *COM*:0000000000000004 clkn_offset
                            *COM*:0000000000000002 clk100ns_offset
                            *COM*:000000000000000a afh_map
                            *COM*:0000000000000001 used_channels
                            *COM*:0000000000000001 afh_enabled
                            *COM*:0000000000000002 clk_drift_ppm
                            *COM*:0000000000000004 clkn_next_drift_fix
                            *COM*:0000000000000002 clk_drift_correction
                            *COM*:0000000000000004 clkn_last_drift_fix
     /tmp/ccTiCbBl.s:2173   .text.vendor_request_handler:000000000000059c $t
     /tmp/ccTiCbBl.s:2349   .text.vendor_request_handler:0000000000000668 $d
                            *COM*:000000000000003a tx_pkt
                            *COM*:0000000000000004 slave_mac_address_data
     /tmp/ccTiCbBl.s:2356   .text.enqueue_time:0000000000000000 $t
     /tmp/ccTiCbBl.s:2360   .text.enqueue_time:0000000000000000 enqueue_time
     /tmp/ccTiCbBl.s:2404   .text.enqueue_time:0000000000000024 $d
ARM GAS  /tmp/ccTiCbBl.s 			page 258


     /tmp/ccTiCbBl.s:2409   .text.msleep.constprop.3:0000000000000000 $t
     /tmp/ccTiCbBl.s:2413   .text.msleep.constprop.3:0000000000000000 msleep.constprop.3
     /tmp/ccTiCbBl.s:2441   .text.msleep.constprop.3:0000000000000018 $d
     /tmp/ccTiCbBl.s:2446   .text.enqueue_with_ts:0000000000000000 $t
     /tmp/ccTiCbBl.s:2451   .text.enqueue_with_ts:0000000000000000 enqueue_with_ts
     /tmp/ccTiCbBl.s:2527   .text.enqueue_with_ts:0000000000000050 $d
     /tmp/ccTiCbBl.s:2533   .text.TIMER0_IRQHandler:0000000000000000 $t
     /tmp/ccTiCbBl.s:2538   .text.TIMER0_IRQHandler:0000000000000000 TIMER0_IRQHandler
     /tmp/ccTiCbBl.s:2737   .text.TIMER0_IRQHandler:0000000000000110 $d
                            *COM*:0000000000000004 last_hop
     /tmp/ccTiCbBl.s:2754   .text.EINT3_IRQHandler:0000000000000000 $t
     /tmp/ccTiCbBl.s:2759   .text.EINT3_IRQHandler:0000000000000000 EINT3_IRQHandler
     /tmp/ccTiCbBl.s:2790   .text.EINT3_IRQHandler:0000000000000024 $d
                            *COM*:0000000000000001 cs_trigger
     /tmp/ccTiCbBl.s:2798   .text.DMA_IRQHandler:0000000000000000 $t
     /tmp/ccTiCbBl.s:2803   .text.DMA_IRQHandler:0000000000000000 DMA_IRQHandler
     /tmp/ccTiCbBl.s:2936   .text.DMA_IRQHandler:00000000000000b8 $d
                            *COM*:0000000000000004 active_rxbuf
                            *COM*:0000000000000004 rx_tc
                            *COM*:0000000000000004 rx_err
     /tmp/ccTiCbBl.s:2954   .text.le_transmit:0000000000000000 $t
     /tmp/ccTiCbBl.s:2959   .text.le_transmit:0000000000000000 le_transmit
     /tmp/ccTiCbBl.s:3247   .text.le_transmit:0000000000000194 $d
     /tmp/ccTiCbBl.s:3256   .text.le_jam:0000000000000000 $t
     /tmp/ccTiCbBl.s:3261   .text.le_jam:0000000000000000 le_jam
     /tmp/ccTiCbBl.s:3342   .text.le_jam:0000000000000074 $d
     /tmp/ccTiCbBl.s:3347   .text.hop:0000000000000000 $t
     /tmp/ccTiCbBl.s:3352   .text.hop:0000000000000000 hop
     /tmp/ccTiCbBl.s:3599   .text.hop:0000000000000180 $d
     /tmp/ccTiCbBl.s:3611   .text.bt_stream_rx:0000000000000000 $t
     /tmp/ccTiCbBl.s:3616   .text.bt_stream_rx:0000000000000000 bt_stream_rx
     /tmp/ccTiCbBl.s:3836   .text.bt_stream_rx:000000000000012c $d
                            *COM*:0000000000000001 cs_threshold_cur
                            *COM*:0000000000000001 cs_no_squelch
     /tmp/ccTiCbBl.s:3852   .text.br_transmit:0000000000000000 $t
     /tmp/ccTiCbBl.s:3857   .text.br_transmit:0000000000000000 br_transmit
     /tmp/ccTiCbBl.s:4280   .text.br_transmit:000000000000025c $d
     /tmp/ccTiCbBl.s:4293   .text.reset_le:0000000000000000 $t
     /tmp/ccTiCbBl.s:4298   .text.reset_le:0000000000000000 reset_le
     /tmp/ccTiCbBl.s:4361   .text.reset_le:0000000000000040 $d
     /tmp/ccTiCbBl.s:4370   .text.reset_le_promisc:0000000000000000 $t
     /tmp/ccTiCbBl.s:4375   .text.reset_le_promisc:0000000000000000 reset_le_promisc
     /tmp/ccTiCbBl.s:4399   .text.reset_le_promisc:000000000000001c $d
                            *COM*:0000000000000108 le_promisc
     /tmp/ccTiCbBl.s:4404   .text.bt_generic_le:0000000000000000 $t
     /tmp/ccTiCbBl.s:4409   .text.bt_generic_le:0000000000000000 bt_generic_le
     /tmp/ccTiCbBl.s:4748   .text.bt_generic_le:00000000000001ac $d
     /tmp/ccTiCbBl.s:4767   .text.bt_le_sync_rssi:0000000000000000 $t
     /tmp/ccTiCbBl.s:4772   .text.bt_le_sync_rssi:0000000000000000 bt_le_sync_rssi
     /tmp/ccTiCbBl.s:5130   .text.bt_le_sync_rssi:000000000000021c $d
     /tmp/ccTiCbBl.s:5142   .text.bt_le_sync:0000000000000000 $t
     /tmp/ccTiCbBl.s:5147   .text.bt_le_sync:0000000000000000 bt_le_sync
     /tmp/ccTiCbBl.s:5626   .text.bt_le_sync:00000000000002c4 $d
                            *COM*:0000000000000032 rxbuf1
     /tmp/ccTiCbBl.s:5648   .text.bt_le_sync:0000000000000310 $t
     /tmp/ccTiCbBl.s:5843   .text.bt_le_sync:0000000000000424 $d
     /tmp/ccTiCbBl.s:5854   .text.bt_le_sync_cfo:0000000000000000 $t
ARM GAS  /tmp/ccTiCbBl.s 			page 259


     /tmp/ccTiCbBl.s:5859   .text.bt_le_sync_cfo:0000000000000000 bt_le_sync_cfo
     /tmp/ccTiCbBl.s:6339   .text.bt_le_sync_cfo:00000000000002b0 $d
     /tmp/ccTiCbBl.s:6361   .text.bt_le_sync_cfo:00000000000002fc $t
     /tmp/ccTiCbBl.s:6554   .text.bt_le_sync_cfo:0000000000000404 $d
     /tmp/ccTiCbBl.s:6566   .text.bt_follow_le:0000000000000000 $t
     /tmp/ccTiCbBl.s:6571   .text.bt_follow_le:0000000000000000 bt_follow_le
     /tmp/ccTiCbBl.s:6601   .text.bt_follow_le:0000000000000018 $d
     /tmp/ccTiCbBl.s:6607   .text.bt_tracking_le:0000000000000000 $t
     /tmp/ccTiCbBl.s:6612   .text.bt_tracking_le:0000000000000000 bt_tracking_le
     /tmp/ccTiCbBl.s:6661   .text.bt_tracking_le:000000000000002c $d
     /tmp/ccTiCbBl.s:6667   .text.le_promisc_state:0000000000000000 $t
     /tmp/ccTiCbBl.s:6672   .text.le_promisc_state:0000000000000000 le_promisc_state
     /tmp/ccTiCbBl.s:6726   .text.promisc_recover_hop_increment:0000000000000000 $t
     /tmp/ccTiCbBl.s:6731   .text.promisc_recover_hop_increment:0000000000000000 promisc_recover_hop_increment
     /tmp/ccTiCbBl.s:6884   .text.promisc_recover_hop_increment:00000000000000c8 $d
     /tmp/ccTiCbBl.s:6894   .text.promisc_recover_hop_interval:0000000000000000 $t
     /tmp/ccTiCbBl.s:6899   .text.promisc_recover_hop_interval:0000000000000000 promisc_recover_hop_interval
     /tmp/ccTiCbBl.s:7022   .text.promisc_recover_hop_interval:0000000000000098 $d
     /tmp/ccTiCbBl.s:7033   .text.promisc_follow_cb:0000000000000000 $t
     /tmp/ccTiCbBl.s:7038   .text.promisc_follow_cb:0000000000000000 promisc_follow_cb
     /tmp/ccTiCbBl.s:7134   .text.promisc_follow_cb:0000000000000064 $d
     /tmp/ccTiCbBl.s:7145   .text.see_aa:0000000000000000 $t
     /tmp/ccTiCbBl.s:7150   .text.see_aa:0000000000000000 see_aa
     /tmp/ccTiCbBl.s:7229   .text.see_aa:0000000000000058 $d
     /tmp/ccTiCbBl.s:7234   .text.cb_le_promisc:0000000000000000 $t
     /tmp/ccTiCbBl.s:7239   .text.cb_le_promisc:0000000000000000 cb_le_promisc
     /tmp/ccTiCbBl.s:7554   .text.cb_le_promisc:000000000000017c $d
     /tmp/ccTiCbBl.s:7567   .text.bt_promisc_le:0000000000000000 $t
     /tmp/ccTiCbBl.s:7572   .text.bt_promisc_le:0000000000000000 bt_promisc_le
     /tmp/ccTiCbBl.s:7651   .text.bt_promisc_le:000000000000005c $d
     /tmp/ccTiCbBl.s:7660   .text.bt_slave_le:0000000000000000 $t
     /tmp/ccTiCbBl.s:7665   .text.bt_slave_le:0000000000000000 bt_slave_le
     /tmp/ccTiCbBl.s:8043   .text.bt_slave_le:00000000000001dc $d
     /tmp/ccTiCbBl.s:8055   .text.bt_sync_le:0000000000000000 $t
     /tmp/ccTiCbBl.s:8060   .text.bt_sync_le:0000000000000000 bt_sync_le
     /tmp/ccTiCbBl.s:8196   .text.bt_sync_le:00000000000000a8 $d
     /tmp/ccTiCbBl.s:8207   .text.rx_generic_sync:0000000000000000 $t
     /tmp/ccTiCbBl.s:8212   .text.rx_generic_sync:0000000000000000 rx_generic_sync
     /tmp/ccTiCbBl.s:8324   .text.rx_generic_sync:0000000000000094 $d
     /tmp/ccTiCbBl.s:8331   .text.rx_generic:0000000000000000 $t
     /tmp/ccTiCbBl.s:8336   .text.rx_generic:0000000000000000 rx_generic
     /tmp/ccTiCbBl.s:8367   .text.rx_generic:000000000000001c $d
     /tmp/ccTiCbBl.s:8372   .text.tx_generic:0000000000000000 $t
     /tmp/ccTiCbBl.s:8377   .text.tx_generic:0000000000000000 tx_generic
     /tmp/ccTiCbBl.s:8535   .text.tx_generic:00000000000000dc $d
     /tmp/ccTiCbBl.s:8545   .text.specan:0000000000000000 $t
     /tmp/ccTiCbBl.s:8550   .text.specan:0000000000000000 specan
     /tmp/ccTiCbBl.s:8737   .text.specan:00000000000000fc $d
     /tmp/ccTiCbBl.s:8747   .text.led_specan:0000000000000000 $t
     /tmp/ccTiCbBl.s:8752   .text.led_specan:0000000000000000 led_specan
     /tmp/ccTiCbBl.s:8956   .text.led_specan:0000000000000114 $d
     /tmp/ccTiCbBl.s:8967   .text.startup.main:0000000000000000 $t
     /tmp/ccTiCbBl.s:8972   .text.startup.main:0000000000000000 main
     /tmp/ccTiCbBl.s:9018   .text.startup.main:0000000000000034 $d
     /tmp/ccTiCbBl.s:9040   .text.startup.main:0000000000000084 $t
     /tmp/ccTiCbBl.s:9197   .text.startup.main:000000000000012c $d
     /tmp/ccTiCbBl.s:10138  .bss:0000000000000018 packet_cb
ARM GAS  /tmp/ccTiCbBl.s 			page 260


     /tmp/ccTiCbBl.s:10150  .bss:0000000000000024 data_cb
     /tmp/ccTiCbBl.s:10142  .bss:000000000000001c le_jam_count
     /tmp/ccTiCbBl.s:10042  .data:0000000000000004 le
     /tmp/ccTiCbBl.s:10182  .bss:0000000000000046 sync_channel
     /tmp/ccTiCbBl.s:10154  .bss:0000000000000028 start_sync
     /tmp/ccTiCbBl.s:10158  .bss:000000000000002c now_sync
     /tmp/ccTiCbBl.s:10178  .bss:0000000000000040 slave_mac_address
     /tmp/ccTiCbBl.s:10146  .bss:0000000000000020 dlen
     /tmp/ccTiCbBl.s:10073  .data:0000000000000050 rssi_threshold
     /tmp/ccTiCbBl.s:10069  .data:000000000000004e high_freq
     /tmp/ccTiCbBl.s:10065  .data:000000000000004c low_freq
     /tmp/ccTiCbBl.s:10080  .bss:0000000000000000 modulation
     /tmp/ccTiCbBl.s:10133  .bss:0000000000000014 ego_mode
     /tmp/ccTiCbBl.s:10129  .bss:0000000000000013 jam_mode
     /tmp/ccTiCbBl.s:10125  .bss:0000000000000012 requested_mode
     /tmp/ccTiCbBl.s:10121  .bss:0000000000000011 mode
     /tmp/ccTiCbBl.s:10084  .bss:0000000000000001 status
     /tmp/ccTiCbBl.s:10117  .bss:0000000000000010 dma_discard
     /tmp/ccTiCbBl.s:10097  .bss:0000000000000008 idle_buf_channel
     /tmp/ccTiCbBl.s:10093  .bss:0000000000000004 idle_buf_clk100ns
     /tmp/ccTiCbBl.s:10088  .bss:0000000000000002 idle_buf_clkn_high
     /tmp/ccTiCbBl.s:10061  .data:000000000000004a le_adv_channel
     /tmp/ccTiCbBl.s:10113  .bss:000000000000000e requested_channel
     /tmp/ccTiCbBl.s:10057  .data:0000000000000048 hop_timeout
     /tmp/ccTiCbBl.s:10109  .bss:000000000000000c hop_direct_channel
     /tmp/ccTiCbBl.s:10037  .data:0000000000000000 channel
     /tmp/ccTiCbBl.s:10105  .bss:000000000000000b do_hop
     /tmp/ccTiCbBl.s:10101  .bss:000000000000000a hop_mode
     /tmp/ccTiCbBl.s:9443   .rodata:00000000000000a7 compile_info
                            *COM*:0000000000000008 syncword
                            *COM*:0000000000000032 rxbuf2
     /tmp/ccTiCbBl.s:9266   .rodata:0000000000000000 $d
     /tmp/ccTiCbBl.s:9270   .rodata:0000000000000000 whitening_index
     /tmp/ccTiCbBl.s:9313   .rodata:0000000000000028 whitening
     /tmp/ccTiCbBl.s:9448   .rodata:00000000000000f0 whitening_word
     /tmp/ccTiCbBl.s:9931   .rodata:0000000000000870 hop_interval_lut
     /tmp/ccTiCbBl.s:10033  .data:0000000000000000 $d
     /tmp/ccTiCbBl.s:10076  .bss:0000000000000000 $d
     /tmp/ccTiCbBl.s:10162  .bss:0000000000000030 restart_jamming.5236
     /tmp/ccTiCbBl.s:10166  .bss:0000000000000034 restart_jamming.5289
     /tmp/ccTiCbBl.s:10170  .bss:0000000000000038 first_ts.5394
     /tmp/ccTiCbBl.s:10174  .bss:000000000000003c prev_clk.5400
                     .debug_frame:0000000000000010 $d

UNDEFINED SYMBOLS
cc2400_set
cs_threshold_calc_and_set
clkn_start
cc2400_status
cc2400_strobe
usb_enqueue
rssi_get_avg
memcpy
rbit
clkn_stop
dio_ssp_stop
cs_reset
ARM GAS  /tmp/ccTiCbBl.s 			page 261


rssi_reset
btle_channel_index
btle_crcgen_lut
memcmp
__aeabi_llsl
get_part_num
get_device_serial
cc2400_get
set_isp
bootloader_ctrl
strlen
precalc
dequeue
malloc
queue_init
usb_enqueue_time
cc2400_fifo_write
next_hop
btle_next_hop
dio_ssp_init
dma_init
dio_ssp_start
cs_trigger_enable
rssi_add
handle_usb
rssi_iir_update
cs_trigger_disable
memset
dma_init_le
cc2400_get_rev
btle_reverse_crc
btle_calc_crc
free
cc2400_fifo_read
ubertooth_init
clkn_init
ubertooth_usb_init
wait
reset
cc2400_txtest
cc2400_rangetest
cc2400_repeater
ego_main
