ARM GAS  /tmp/ccMPHsjp.s 			page 1


   1              		.syntax unified
   2              		.cpu cortex-m3
   3              		.fpu softvfp
   4              		.eabi_attribute 20, 1
   5              		.eabi_attribute 21, 1
   6              		.eabi_attribute 23, 3
   7              		.eabi_attribute 24, 1
   8              		.eabi_attribute 25, 1
   9              		.eabi_attribute 26, 1
  10              		.eabi_attribute 30, 4
  11              		.eabi_attribute 34, 1
  12              		.eabi_attribute 18, 4
  13              		.thumb
  14              		.file	"bluetooth_rxtx.c"
  15              		.text
  16              	.Ltext0:
  17              		.cfi_sections	.debug_frame
  18              		.section	.text.msleep,"ax",%progbits
  19              		.align	1
  20              		.thumb
  21              		.thumb_func
  23              	msleep:
  24              	.LFB6:
  25              		.file 1 "bluetooth_rxtx.c"
   1:bluetooth_rxtx.c **** /*
   2:bluetooth_rxtx.c ****  * Copyright 2010-2013 Michael Ossmann
   3:bluetooth_rxtx.c ****  * Copyright 2011-2013 Dominic Spill
   4:bluetooth_rxtx.c ****  *
   5:bluetooth_rxtx.c ****  * This file is part of Project Ubertooth.
   6:bluetooth_rxtx.c ****  *
   7:bluetooth_rxtx.c ****  * This program is free software; you can redistribute it and/or modify
   8:bluetooth_rxtx.c ****  * it under the terms of the GNU General Public License as published by
   9:bluetooth_rxtx.c ****  * the Free Software Foundation; either version 2, or (at your option)
  10:bluetooth_rxtx.c ****  * any later version.
  11:bluetooth_rxtx.c ****  *
  12:bluetooth_rxtx.c ****  * This program is distributed in the hope that it will be useful,
  13:bluetooth_rxtx.c ****  * but WITHOUT ANY WARRANTY; without even the implied warranty of
  14:bluetooth_rxtx.c ****  * MERCHANTABILITY or FITNESS FOR A PARTICULAR PURPOSE.  See the
  15:bluetooth_rxtx.c ****  * GNU General Public License for more details.
  16:bluetooth_rxtx.c ****  *
  17:bluetooth_rxtx.c ****  * You should have received a copy of the GNU General Public License
  18:bluetooth_rxtx.c ****  * along with this program; see the file COPYING.  If not, write to
  19:bluetooth_rxtx.c ****  * the Free Software Foundation, Inc., 51 Franklin Street,
  20:bluetooth_rxtx.c ****  * Boston, MA 02110-1301, USA.
  21:bluetooth_rxtx.c ****  */
  22:bluetooth_rxtx.c **** 
  23:bluetooth_rxtx.c **** #include <string.h>
  24:bluetooth_rxtx.c **** #include <stdlib.h>
  25:bluetooth_rxtx.c **** 
  26:bluetooth_rxtx.c **** #include "ubertooth.h"
  27:bluetooth_rxtx.c **** #include "ubertooth_usb.h"
  28:bluetooth_rxtx.c **** #include "ubertooth_interface.h"
  29:bluetooth_rxtx.c **** #include "ubertooth_rssi.h"
  30:bluetooth_rxtx.c **** #include "ubertooth_cs.h"
  31:bluetooth_rxtx.c **** #include "ubertooth_dma.h"
  32:bluetooth_rxtx.c **** #include "ubertooth_clock.h"
  33:bluetooth_rxtx.c **** #include "bluetooth.h"
ARM GAS  /tmp/ccMPHsjp.s 			page 2


  34:bluetooth_rxtx.c **** #include "bluetooth_le.h"
  35:bluetooth_rxtx.c **** #include "cc2400_rangetest.h"
  36:bluetooth_rxtx.c **** #include "ego.h"
  37:bluetooth_rxtx.c **** 
  38:bluetooth_rxtx.c **** #define MIN(x,y)	((x)<(y)?(x):(y))
  39:bluetooth_rxtx.c **** #define MAX(x,y)	((x)>(y)?(x):(y))
  40:bluetooth_rxtx.c **** 
  41:bluetooth_rxtx.c **** /* build info */
  42:bluetooth_rxtx.c **** const char compile_info[] =
  43:bluetooth_rxtx.c **** 	"ubertooth " GIT_REVISION " (" COMPILE_BY "@" COMPILE_HOST ") " TIMESTAMP;
  44:bluetooth_rxtx.c **** 
  45:bluetooth_rxtx.c **** /* hopping stuff */
  46:bluetooth_rxtx.c **** volatile uint8_t  hop_mode = HOP_NONE;
  47:bluetooth_rxtx.c **** volatile uint8_t  do_hop = 0;                  // set by timer interrupt
  48:bluetooth_rxtx.c **** volatile uint16_t channel = 2441;
  49:bluetooth_rxtx.c **** volatile uint16_t hop_direct_channel = 0;      // for hopping directly to a channel
  50:bluetooth_rxtx.c **** volatile uint16_t hop_timeout = 158;
  51:bluetooth_rxtx.c **** volatile uint16_t requested_channel = 0;
  52:bluetooth_rxtx.c **** volatile uint16_t le_adv_channel = 2402;
  53:bluetooth_rxtx.c **** 
  54:bluetooth_rxtx.c **** /* bulk USB stuff */
  55:bluetooth_rxtx.c **** volatile uint8_t  idle_buf_clkn_high = 0;
  56:bluetooth_rxtx.c **** volatile uint32_t idle_buf_clk100ns = 0;
  57:bluetooth_rxtx.c **** volatile uint16_t idle_buf_channel = 0;
  58:bluetooth_rxtx.c **** volatile uint8_t  dma_discard = 0;
  59:bluetooth_rxtx.c **** volatile uint8_t  status = 0;
  60:bluetooth_rxtx.c **** 
  61:bluetooth_rxtx.c **** /* operation mode */
  62:bluetooth_rxtx.c **** volatile uint8_t mode = MODE_IDLE;
  63:bluetooth_rxtx.c **** volatile uint8_t requested_mode = MODE_IDLE;
  64:bluetooth_rxtx.c **** volatile uint8_t jam_mode = JAM_NONE;
  65:bluetooth_rxtx.c **** volatile uint8_t ego_mode = EGO_FOLLOW;
  66:bluetooth_rxtx.c **** 
  67:bluetooth_rxtx.c **** volatile uint8_t modulation = MOD_BT_BASIC_RATE;
  68:bluetooth_rxtx.c **** 
  69:bluetooth_rxtx.c **** /* specan stuff */
  70:bluetooth_rxtx.c **** volatile uint16_t low_freq = 2400;
  71:bluetooth_rxtx.c **** volatile uint16_t high_freq = 2483;
  72:bluetooth_rxtx.c **** volatile int8_t rssi_threshold = -30;  // -54dBm - 30 = -84dBm
  73:bluetooth_rxtx.c **** 
  74:bluetooth_rxtx.c **** /* Generic TX stuff */
  75:bluetooth_rxtx.c **** generic_tx_packet tx_pkt;
  76:bluetooth_rxtx.c **** 
  77:bluetooth_rxtx.c **** /* le stuff */
  78:bluetooth_rxtx.c **** int dlen = 0;
  79:bluetooth_rxtx.c **** int dlen_bulk1 = 0;
  80:bluetooth_rxtx.c **** uint8_t *slave_mac_address_data;
  81:bluetooth_rxtx.c **** uint8_t slave_mac_address[6] = { 0, };
  82:bluetooth_rxtx.c **** 
  83:bluetooth_rxtx.c **** //JWHUR for rssi sampling synchronization
  84:bluetooth_rxtx.c **** uint32_t now_sync = 0, start_sync =0;
  85:bluetooth_rxtx.c **** uint16_t sync_channel = 0;
  86:bluetooth_rxtx.c **** 
  87:bluetooth_rxtx.c **** le_state_t le = {
  88:bluetooth_rxtx.c **** 	.access_address = 0x8e89bed6,           // advertising channel access address
  89:bluetooth_rxtx.c **** 	.synch = 0x6b7d,                        // bit-reversed adv channel AA
  90:bluetooth_rxtx.c **** 	.syncl = 0x9171,
ARM GAS  /tmp/ccMPHsjp.s 			page 3


  91:bluetooth_rxtx.c **** 	.crc_init  = 0x555555,                  // advertising channel CRCInit
  92:bluetooth_rxtx.c **** 	.crc_init_reversed = 0xAAAAAA,
  93:bluetooth_rxtx.c **** 	.crc_verify = 0,
  94:bluetooth_rxtx.c **** 
  95:bluetooth_rxtx.c **** 	.link_state = LINK_INACTIVE,
  96:bluetooth_rxtx.c **** 	.conn_epoch = 0,
  97:bluetooth_rxtx.c **** 	.target_set = 0,
  98:bluetooth_rxtx.c **** 	.last_packet = 0,
  99:bluetooth_rxtx.c **** };
 100:bluetooth_rxtx.c **** 
 101:bluetooth_rxtx.c **** typedef struct _le_promisc_active_aa_t {
 102:bluetooth_rxtx.c **** 	u32 aa;
 103:bluetooth_rxtx.c **** 	int count;
 104:bluetooth_rxtx.c **** } le_promisc_active_aa_t;
 105:bluetooth_rxtx.c **** 
 106:bluetooth_rxtx.c **** typedef struct _le_promisc_state_t {
 107:bluetooth_rxtx.c **** 	// LFU cache of recently seen AA's
 108:bluetooth_rxtx.c **** 	le_promisc_active_aa_t active_aa[32];
 109:bluetooth_rxtx.c **** 
 110:bluetooth_rxtx.c **** 	// recovering hop interval
 111:bluetooth_rxtx.c **** 	u32 smallest_hop_interval;
 112:bluetooth_rxtx.c **** 	int consec_intervals;
 113:bluetooth_rxtx.c **** } le_promisc_state_t;
 114:bluetooth_rxtx.c **** le_promisc_state_t le_promisc;
 115:bluetooth_rxtx.c **** #define AA_LIST_SIZE (int)(sizeof(le_promisc.active_aa) / sizeof(le_promisc_active_aa_t))
 116:bluetooth_rxtx.c **** 
 117:bluetooth_rxtx.c **** /* LE jamming */
 118:bluetooth_rxtx.c **** #define JAM_COUNT_DEFAULT 40
 119:bluetooth_rxtx.c **** int le_jam_count = 0;
 120:bluetooth_rxtx.c **** 
 121:bluetooth_rxtx.c **** /* set LE access address */
 122:bluetooth_rxtx.c **** static void le_set_access_address(u32 aa);
 123:bluetooth_rxtx.c **** 
 124:bluetooth_rxtx.c **** typedef int (*data_cb_t)(char *);
 125:bluetooth_rxtx.c **** data_cb_t data_cb = NULL;
 126:bluetooth_rxtx.c **** 
 127:bluetooth_rxtx.c **** typedef void (*packet_cb_t)(u8 *);
 128:bluetooth_rxtx.c **** packet_cb_t packet_cb = NULL;
 129:bluetooth_rxtx.c **** 
 130:bluetooth_rxtx.c **** /* Unpacked symbol buffers (two rxbufs) */
 131:bluetooth_rxtx.c **** char unpacked[DMA_SIZE*8*2];
 132:bluetooth_rxtx.c **** 
 133:bluetooth_rxtx.c **** static int enqueue(uint8_t type, uint8_t* buf)
 134:bluetooth_rxtx.c **** {
 135:bluetooth_rxtx.c **** 	usb_pkt_rx* f = usb_enqueue();
 136:bluetooth_rxtx.c **** 	
 137:bluetooth_rxtx.c **** 	/* fail if queue is full */
 138:bluetooth_rxtx.c **** 	if (f == NULL) {
 139:bluetooth_rxtx.c **** 		status |= FIFO_OVERFLOW;
 140:bluetooth_rxtx.c **** 		return 0;
 141:bluetooth_rxtx.c **** 	}
 142:bluetooth_rxtx.c **** 
 143:bluetooth_rxtx.c **** 	f->pkt_type = type;
 144:bluetooth_rxtx.c **** 	if(type == SPECAN) {
 145:bluetooth_rxtx.c **** 		f->clkn_high = (clkn >> 20) & 0xff;
 146:bluetooth_rxtx.c **** 		f->clk100ns = CLK100NS;
 147:bluetooth_rxtx.c **** 	} else {
ARM GAS  /tmp/ccMPHsjp.s 			page 4


 148:bluetooth_rxtx.c **** 		f->clkn_high = idle_buf_clkn_high;
 149:bluetooth_rxtx.c **** 		f->clk100ns = idle_buf_clk100ns;
 150:bluetooth_rxtx.c **** 		f->channel = (uint8_t)((idle_buf_channel - 2402) & 0xff);
 151:bluetooth_rxtx.c **** 		f->rssi_min = rssi_min;
 152:bluetooth_rxtx.c **** 		f->rssi_max = rssi_max;
 153:bluetooth_rxtx.c **** 		f->rssi_avg = rssi_get_avg(idle_buf_channel);
 154:bluetooth_rxtx.c **** 		f->rssi_count = rssi_count;
 155:bluetooth_rxtx.c **** 	}
 156:bluetooth_rxtx.c **** 
 157:bluetooth_rxtx.c **** 	memcpy(f->data, buf, DMA_SIZE);
 158:bluetooth_rxtx.c **** 
 159:bluetooth_rxtx.c **** 	f->status = status;
 160:bluetooth_rxtx.c **** 	status = 0;
 161:bluetooth_rxtx.c **** 
 162:bluetooth_rxtx.c **** 	return 1;
 163:bluetooth_rxtx.c **** }
 164:bluetooth_rxtx.c **** 
 165:bluetooth_rxtx.c **** //JWHUR usb_time_rx
 166:bluetooth_rxtx.c **** static int enqueue_time(uint8_t* buf)
 167:bluetooth_rxtx.c **** {
 168:bluetooth_rxtx.c **** 	usb_time_rx* f = usb_enqueue_time();
 169:bluetooth_rxtx.c **** 	if  (f == NULL) {
 170:bluetooth_rxtx.c **** 		status |= FIFO_OVERFLOW;
 171:bluetooth_rxtx.c **** 		return 0;
 172:bluetooth_rxtx.c **** 	}
 173:bluetooth_rxtx.c **** 	memcpy(f->time, buf, 16 * sizeof(long));
 174:bluetooth_rxtx.c **** 	return 1;
 175:bluetooth_rxtx.c **** }
 176:bluetooth_rxtx.c **** //
 177:bluetooth_rxtx.c **** 
 178:bluetooth_rxtx.c **** int enqueue_with_ts(uint8_t type, uint8_t* buf, uint32_t ts)
 179:bluetooth_rxtx.c **** {
 180:bluetooth_rxtx.c **** 	usb_pkt_rx* f = usb_enqueue();
 181:bluetooth_rxtx.c **** 
 182:bluetooth_rxtx.c **** 	/* fail if queue is full */
 183:bluetooth_rxtx.c **** 	if (f == NULL) {
 184:bluetooth_rxtx.c **** 		status |= FIFO_OVERFLOW;
 185:bluetooth_rxtx.c **** 		return 0;
 186:bluetooth_rxtx.c **** 	}
 187:bluetooth_rxtx.c **** 
 188:bluetooth_rxtx.c **** 	f->pkt_type = type;
 189:bluetooth_rxtx.c **** 
 190:bluetooth_rxtx.c **** 	f->clkn_high = 0;
 191:bluetooth_rxtx.c **** 	f->clk100ns = ts;
 192:bluetooth_rxtx.c **** 
 193:bluetooth_rxtx.c **** 	f->channel = (uint8_t)((channel - 2402) & 0xff);
 194:bluetooth_rxtx.c **** 	f->rssi_avg = 0;
 195:bluetooth_rxtx.c **** 	f->rssi_count = 0;
 196:bluetooth_rxtx.c **** 
 197:bluetooth_rxtx.c **** 	memcpy(f->data, buf, DMA_SIZE);
 198:bluetooth_rxtx.c **** 
 199:bluetooth_rxtx.c **** 	f->status = status;
 200:bluetooth_rxtx.c **** 	status = 0;
 201:bluetooth_rxtx.c **** 
 202:bluetooth_rxtx.c **** 	return 1;
 203:bluetooth_rxtx.c **** }
 204:bluetooth_rxtx.c **** 
ARM GAS  /tmp/ccMPHsjp.s 			page 5


 205:bluetooth_rxtx.c **** static int vendor_request_handler(uint8_t request, uint16_t* request_params, uint8_t* data, int* da
 206:bluetooth_rxtx.c **** {
 207:bluetooth_rxtx.c **** 	uint32_t clock;
 208:bluetooth_rxtx.c **** 	size_t length; // string length
 209:bluetooth_rxtx.c **** 	usb_pkt_rx* p = NULL;
 210:bluetooth_rxtx.c **** 	uint16_t reg_val;
 211:bluetooth_rxtx.c **** 	uint8_t i;
 212:bluetooth_rxtx.c **** 	dlen = *data_len;
 213:bluetooth_rxtx.c **** 
 214:bluetooth_rxtx.c **** 	switch (request) {
 215:bluetooth_rxtx.c **** 
 216:bluetooth_rxtx.c **** 	case UBERTOOTH_PING:
 217:bluetooth_rxtx.c **** 		*data_len = 0;
 218:bluetooth_rxtx.c **** 		break;
 219:bluetooth_rxtx.c **** 
 220:bluetooth_rxtx.c **** 	case UBERTOOTH_RX_SYMBOLS:
 221:bluetooth_rxtx.c **** 		requested_mode = MODE_RX_SYMBOLS;
 222:bluetooth_rxtx.c **** 		*data_len = 0;
 223:bluetooth_rxtx.c **** 		break;
 224:bluetooth_rxtx.c **** 
 225:bluetooth_rxtx.c **** 	case UBERTOOTH_TX_SYMBOLS:
 226:bluetooth_rxtx.c **** 		hop_mode = HOP_BLUETOOTH;
 227:bluetooth_rxtx.c **** 		requested_mode = MODE_TX_SYMBOLS;
 228:bluetooth_rxtx.c **** 		*data_len = 0;
 229:bluetooth_rxtx.c **** 		break;
 230:bluetooth_rxtx.c **** 
 231:bluetooth_rxtx.c **** 	case UBERTOOTH_GET_USRLED:
 232:bluetooth_rxtx.c **** 		data[0] = (USRLED) ? 1 : 0;
 233:bluetooth_rxtx.c **** 		*data_len = 1;
 234:bluetooth_rxtx.c **** 		break;
 235:bluetooth_rxtx.c **** 
 236:bluetooth_rxtx.c **** 	case UBERTOOTH_SET_USRLED:
 237:bluetooth_rxtx.c **** 		if (request_params[0])
 238:bluetooth_rxtx.c **** 			USRLED_SET;
 239:bluetooth_rxtx.c **** 		else
 240:bluetooth_rxtx.c **** 			USRLED_CLR;
 241:bluetooth_rxtx.c **** 		break;
 242:bluetooth_rxtx.c **** 
 243:bluetooth_rxtx.c **** 	case UBERTOOTH_GET_RXLED:
 244:bluetooth_rxtx.c **** 		data[0] = (RXLED) ? 1 : 0;
 245:bluetooth_rxtx.c **** 		*data_len = 1;
 246:bluetooth_rxtx.c **** 		break;
 247:bluetooth_rxtx.c **** 
 248:bluetooth_rxtx.c **** 	case UBERTOOTH_SET_RXLED:
 249:bluetooth_rxtx.c **** 		if (request_params[0])
 250:bluetooth_rxtx.c **** 			RXLED_SET;
 251:bluetooth_rxtx.c **** 		else
 252:bluetooth_rxtx.c **** 			RXLED_CLR;
 253:bluetooth_rxtx.c **** 		break;
 254:bluetooth_rxtx.c **** 
 255:bluetooth_rxtx.c **** 	case UBERTOOTH_GET_TXLED:
 256:bluetooth_rxtx.c **** 		data[0] = (TXLED) ? 1 : 0;
 257:bluetooth_rxtx.c **** 		*data_len = 1;
 258:bluetooth_rxtx.c **** 		break;
 259:bluetooth_rxtx.c **** 
 260:bluetooth_rxtx.c **** 	case UBERTOOTH_SET_TXLED:
 261:bluetooth_rxtx.c **** 		if (request_params[0])
ARM GAS  /tmp/ccMPHsjp.s 			page 6


 262:bluetooth_rxtx.c **** 			TXLED_SET;
 263:bluetooth_rxtx.c **** 		else
 264:bluetooth_rxtx.c **** 			TXLED_CLR;
 265:bluetooth_rxtx.c **** 		break;
 266:bluetooth_rxtx.c **** 
 267:bluetooth_rxtx.c **** 	case UBERTOOTH_GET_1V8:
 268:bluetooth_rxtx.c **** 		data[0] = (CC1V8) ? 1 : 0;
 269:bluetooth_rxtx.c **** 		*data_len = 1;
 270:bluetooth_rxtx.c **** 		break;
 271:bluetooth_rxtx.c **** 
 272:bluetooth_rxtx.c **** 	case UBERTOOTH_SET_1V8:
 273:bluetooth_rxtx.c **** 		if (request_params[0])
 274:bluetooth_rxtx.c **** 			CC1V8_SET;
 275:bluetooth_rxtx.c **** 		else
 276:bluetooth_rxtx.c **** 			CC1V8_CLR;
 277:bluetooth_rxtx.c **** 		break;
 278:bluetooth_rxtx.c **** 
 279:bluetooth_rxtx.c **** 	case UBERTOOTH_GET_PARTNUM:
 280:bluetooth_rxtx.c **** 		get_part_num(data, data_len);
 281:bluetooth_rxtx.c **** 		break;
 282:bluetooth_rxtx.c **** 
 283:bluetooth_rxtx.c **** 	case UBERTOOTH_RESET:
 284:bluetooth_rxtx.c **** 		requested_mode = MODE_RESET;
 285:bluetooth_rxtx.c **** 		break;
 286:bluetooth_rxtx.c **** 
 287:bluetooth_rxtx.c **** 	case UBERTOOTH_GET_SERIAL:
 288:bluetooth_rxtx.c **** 		get_device_serial(data, data_len);
 289:bluetooth_rxtx.c **** 		break;
 290:bluetooth_rxtx.c **** 
 291:bluetooth_rxtx.c **** #ifdef UBERTOOTH_ONE
 292:bluetooth_rxtx.c **** 	case UBERTOOTH_GET_PAEN:
 293:bluetooth_rxtx.c **** 		data[0] = (PAEN) ? 1 : 0;
 294:bluetooth_rxtx.c **** 		*data_len = 1;
 295:bluetooth_rxtx.c **** 		break;
 296:bluetooth_rxtx.c **** 
 297:bluetooth_rxtx.c **** 	case UBERTOOTH_SET_PAEN:
 298:bluetooth_rxtx.c **** 		if (request_params[0])
 299:bluetooth_rxtx.c **** 			PAEN_SET;
 300:bluetooth_rxtx.c **** 		else
 301:bluetooth_rxtx.c **** 			PAEN_CLR;
 302:bluetooth_rxtx.c **** 		break;
 303:bluetooth_rxtx.c **** 
 304:bluetooth_rxtx.c **** 	case UBERTOOTH_GET_HGM:
 305:bluetooth_rxtx.c **** 		data[0] = (HGM) ? 1 : 0;
 306:bluetooth_rxtx.c **** 		*data_len = 1;
 307:bluetooth_rxtx.c **** 		break;
 308:bluetooth_rxtx.c **** 
 309:bluetooth_rxtx.c **** 	case UBERTOOTH_SET_HGM:
 310:bluetooth_rxtx.c **** 		if (request_params[0])
 311:bluetooth_rxtx.c **** 			HGM_SET;
 312:bluetooth_rxtx.c **** 		else
 313:bluetooth_rxtx.c **** 			HGM_CLR;
 314:bluetooth_rxtx.c **** 		break;
 315:bluetooth_rxtx.c **** #endif
 316:bluetooth_rxtx.c **** 
 317:bluetooth_rxtx.c **** #ifdef TX_ENABLE
 318:bluetooth_rxtx.c **** 	case UBERTOOTH_TX_TEST:
ARM GAS  /tmp/ccMPHsjp.s 			page 7


 319:bluetooth_rxtx.c **** 		requested_mode = MODE_TX_TEST;
 320:bluetooth_rxtx.c **** 		break;
 321:bluetooth_rxtx.c **** 
 322:bluetooth_rxtx.c **** 	case UBERTOOTH_GET_PALEVEL:
 323:bluetooth_rxtx.c **** 		data[0] = cc2400_get(FREND) & 0x7;
 324:bluetooth_rxtx.c **** 		*data_len = 1;
 325:bluetooth_rxtx.c **** 		break;
 326:bluetooth_rxtx.c **** 
 327:bluetooth_rxtx.c **** 	case UBERTOOTH_SET_PALEVEL:
 328:bluetooth_rxtx.c **** 		if( request_params[0] < 8 ) {
 329:bluetooth_rxtx.c **** 			cc2400_set(FREND, 8 | request_params[0]);
 330:bluetooth_rxtx.c **** 		} else {
 331:bluetooth_rxtx.c **** 			return 0;
 332:bluetooth_rxtx.c **** 		}
 333:bluetooth_rxtx.c **** 		break;
 334:bluetooth_rxtx.c **** 
 335:bluetooth_rxtx.c **** 	case UBERTOOTH_RANGE_TEST:
 336:bluetooth_rxtx.c **** 		requested_mode = MODE_RANGE_TEST;
 337:bluetooth_rxtx.c **** 		break;
 338:bluetooth_rxtx.c **** 
 339:bluetooth_rxtx.c **** 	case UBERTOOTH_REPEATER:
 340:bluetooth_rxtx.c **** 		requested_mode = MODE_REPEATER;
 341:bluetooth_rxtx.c **** 		break;
 342:bluetooth_rxtx.c **** #endif
 343:bluetooth_rxtx.c **** 
 344:bluetooth_rxtx.c **** 	case UBERTOOTH_RANGE_CHECK:
 345:bluetooth_rxtx.c **** 		data[0] = rr.valid;
 346:bluetooth_rxtx.c **** 		data[1] = rr.request_pa;
 347:bluetooth_rxtx.c **** 		data[2] = rr.request_num;
 348:bluetooth_rxtx.c **** 		data[3] = rr.reply_pa;
 349:bluetooth_rxtx.c **** 		data[4] = rr.reply_num;
 350:bluetooth_rxtx.c **** 		*data_len = 5;
 351:bluetooth_rxtx.c **** 		break;
 352:bluetooth_rxtx.c **** 
 353:bluetooth_rxtx.c **** 	case UBERTOOTH_STOP:
 354:bluetooth_rxtx.c **** 		requested_mode = MODE_IDLE;
 355:bluetooth_rxtx.c **** 		break;
 356:bluetooth_rxtx.c **** 
 357:bluetooth_rxtx.c **** 	case UBERTOOTH_GET_MOD:
 358:bluetooth_rxtx.c **** 		data[0] = modulation;
 359:bluetooth_rxtx.c **** 		*data_len = 1;
 360:bluetooth_rxtx.c **** 		break;
 361:bluetooth_rxtx.c **** 
 362:bluetooth_rxtx.c **** 	case UBERTOOTH_SET_MOD:
 363:bluetooth_rxtx.c **** 		modulation = request_params[0];
 364:bluetooth_rxtx.c **** 		break;
 365:bluetooth_rxtx.c **** 
 366:bluetooth_rxtx.c **** 	case UBERTOOTH_GET_CHANNEL:
 367:bluetooth_rxtx.c **** 		data[0] = channel & 0xFF;
 368:bluetooth_rxtx.c **** 		data[1] = (channel >> 8) & 0xFF;
 369:bluetooth_rxtx.c **** 		*data_len = 2;
 370:bluetooth_rxtx.c **** 		break;
 371:bluetooth_rxtx.c **** 
 372:bluetooth_rxtx.c **** 	case UBERTOOTH_SET_CHANNEL:
 373:bluetooth_rxtx.c **** 		requested_channel = request_params[0];
 374:bluetooth_rxtx.c **** 		/* bluetooth band sweep mode, start at channel 2402 */
 375:bluetooth_rxtx.c **** 		if (requested_channel > MAX_FREQ) {
ARM GAS  /tmp/ccMPHsjp.s 			page 8


 376:bluetooth_rxtx.c **** 			hop_mode = HOP_SWEEP;
 377:bluetooth_rxtx.c **** 			requested_channel = 2402;
 378:bluetooth_rxtx.c **** 		}
 379:bluetooth_rxtx.c **** 		/* fixed channel mode, can be outside bluetooth band */
 380:bluetooth_rxtx.c **** 		else {
 381:bluetooth_rxtx.c **** 			hop_mode = HOP_NONE;
 382:bluetooth_rxtx.c **** 			requested_channel = MAX(requested_channel, MIN_FREQ);
 383:bluetooth_rxtx.c **** 			requested_channel = MIN(requested_channel, MAX_FREQ);
 384:bluetooth_rxtx.c **** 		}
 385:bluetooth_rxtx.c **** 
 386:bluetooth_rxtx.c **** 		le_adv_channel = requested_channel;
 387:bluetooth_rxtx.c **** 		if (mode != MODE_BT_FOLLOW_LE) {
 388:bluetooth_rxtx.c **** 			channel = requested_channel;
 389:bluetooth_rxtx.c **** 			requested_channel = 0;
 390:bluetooth_rxtx.c **** 
 391:bluetooth_rxtx.c **** 			/* CS threshold is mode-dependent. Update it after
 392:bluetooth_rxtx.c **** 			 * possible mode change. TODO - kludgy. */
 393:bluetooth_rxtx.c **** 			cs_threshold_calc_and_set(channel);
 394:bluetooth_rxtx.c **** 		}
 395:bluetooth_rxtx.c **** 		break;
 396:bluetooth_rxtx.c **** 
 397:bluetooth_rxtx.c **** 	case UBERTOOTH_SET_ISP:
 398:bluetooth_rxtx.c **** 		set_isp();
 399:bluetooth_rxtx.c **** 		*data_len = 0; /* should never return */
 400:bluetooth_rxtx.c **** 		break;
 401:bluetooth_rxtx.c **** 
 402:bluetooth_rxtx.c **** 	case UBERTOOTH_FLASH:
 403:bluetooth_rxtx.c **** 		bootloader_ctrl = DFU_MODE;
 404:bluetooth_rxtx.c **** 		requested_mode = MODE_RESET;
 405:bluetooth_rxtx.c **** 		break;
 406:bluetooth_rxtx.c **** 
 407:bluetooth_rxtx.c **** 	case UBERTOOTH_SPECAN:
 408:bluetooth_rxtx.c **** 		if (request_params[0] < 2049 || request_params[0] > 3072 ||
 409:bluetooth_rxtx.c **** 				request_params[1] < 2049 || request_params[1] > 3072 ||
 410:bluetooth_rxtx.c **** 				request_params[1] < request_params[0])
 411:bluetooth_rxtx.c **** 			return 0;
 412:bluetooth_rxtx.c **** 		low_freq = request_params[0];
 413:bluetooth_rxtx.c **** 		high_freq = request_params[1];
 414:bluetooth_rxtx.c **** 		requested_mode = MODE_SPECAN;
 415:bluetooth_rxtx.c **** 		*data_len = 0;
 416:bluetooth_rxtx.c **** 		break;
 417:bluetooth_rxtx.c **** 
 418:bluetooth_rxtx.c **** 	case UBERTOOTH_RX_GENERIC:
 419:bluetooth_rxtx.c **** 		requested_mode = MODE_RX_GENERIC;
 420:bluetooth_rxtx.c **** 		*data_len = 0;
 421:bluetooth_rxtx.c **** 		break;
 422:bluetooth_rxtx.c **** 
 423:bluetooth_rxtx.c **** 	case UBERTOOTH_LED_SPECAN:
 424:bluetooth_rxtx.c **** 		if (request_params[0] > 256)
 425:bluetooth_rxtx.c **** 			return 0;
 426:bluetooth_rxtx.c **** 		rssi_threshold = 54 - request_params[0];
 427:bluetooth_rxtx.c **** 		requested_mode = MODE_LED_SPECAN;
 428:bluetooth_rxtx.c **** 		*data_len = 0;
 429:bluetooth_rxtx.c **** 		break;
 430:bluetooth_rxtx.c **** 
 431:bluetooth_rxtx.c **** 	case UBERTOOTH_GET_REV_NUM:
 432:bluetooth_rxtx.c **** 		data[0] = 0x00;
ARM GAS  /tmp/ccMPHsjp.s 			page 9


 433:bluetooth_rxtx.c **** 		data[1] = 0x00;
 434:bluetooth_rxtx.c **** 
 435:bluetooth_rxtx.c **** 		length = (u8)strlen(GIT_REVISION);
 436:bluetooth_rxtx.c **** 		data[2] = length;
 437:bluetooth_rxtx.c **** 
 438:bluetooth_rxtx.c **** 		memcpy(&data[3], GIT_REVISION, length);
 439:bluetooth_rxtx.c **** 
 440:bluetooth_rxtx.c **** 		*data_len = 2 + 1 + length;
 441:bluetooth_rxtx.c **** 		break;
 442:bluetooth_rxtx.c **** 
 443:bluetooth_rxtx.c **** 	case UBERTOOTH_GET_COMPILE_INFO:
 444:bluetooth_rxtx.c **** 		length = (u8)strlen(compile_info);
 445:bluetooth_rxtx.c **** 		data[0] = length;
 446:bluetooth_rxtx.c **** 		memcpy(&data[1], compile_info, length);
 447:bluetooth_rxtx.c **** 		*data_len = 1 + length;
 448:bluetooth_rxtx.c **** 		break;
 449:bluetooth_rxtx.c **** 
 450:bluetooth_rxtx.c **** 	case UBERTOOTH_GET_BOARD_ID:
 451:bluetooth_rxtx.c **** 		data[0] = BOARD_ID;
 452:bluetooth_rxtx.c **** 		*data_len = 1;
 453:bluetooth_rxtx.c **** 		break;
 454:bluetooth_rxtx.c **** 
 455:bluetooth_rxtx.c **** 	case UBERTOOTH_SET_SQUELCH:
 456:bluetooth_rxtx.c **** 		cs_threshold_req = (int8_t)request_params[0];
 457:bluetooth_rxtx.c **** 		cs_threshold_calc_and_set(channel);
 458:bluetooth_rxtx.c **** 		break;
 459:bluetooth_rxtx.c **** 
 460:bluetooth_rxtx.c **** 	case UBERTOOTH_GET_SQUELCH:
 461:bluetooth_rxtx.c **** 		data[0] = cs_threshold_req;
 462:bluetooth_rxtx.c **** 		*data_len = 1;
 463:bluetooth_rxtx.c **** 		break;
 464:bluetooth_rxtx.c **** 
 465:bluetooth_rxtx.c **** 	case UBERTOOTH_SET_BDADDR:
 466:bluetooth_rxtx.c **** 		target.address = 0;
 467:bluetooth_rxtx.c **** 		target.syncword = 0;
 468:bluetooth_rxtx.c **** 		for(int i=0; i < 8; i++) {
 469:bluetooth_rxtx.c **** 			target.address |= (uint64_t)data[i] << 8*i;
 470:bluetooth_rxtx.c **** 		}
 471:bluetooth_rxtx.c **** 		for(int i=0; i < 8; i++) {
 472:bluetooth_rxtx.c **** 			target.syncword |= (uint64_t)data[i+8] << 8*i;
 473:bluetooth_rxtx.c **** 		}
 474:bluetooth_rxtx.c **** 		precalc();
 475:bluetooth_rxtx.c **** 		break;
 476:bluetooth_rxtx.c **** 
 477:bluetooth_rxtx.c **** 	case UBERTOOTH_START_HOPPING:
 478:bluetooth_rxtx.c **** 		clkn_offset = 0;
 479:bluetooth_rxtx.c **** 		for(int i=0; i < 4; i++) {
 480:bluetooth_rxtx.c **** 			clkn_offset <<= 8;
 481:bluetooth_rxtx.c **** 			clkn_offset |= data[i];
 482:bluetooth_rxtx.c **** 		}
 483:bluetooth_rxtx.c **** 		hop_mode = HOP_BLUETOOTH;
 484:bluetooth_rxtx.c **** 		dma_discard = 1;
 485:bluetooth_rxtx.c **** 		DIO_SSEL_SET;
 486:bluetooth_rxtx.c **** 		clk100ns_offset = (data[4] << 8) | (data[5] << 0);
 487:bluetooth_rxtx.c **** 		requested_mode = MODE_BT_FOLLOW;
 488:bluetooth_rxtx.c **** 		break;
 489:bluetooth_rxtx.c **** 
ARM GAS  /tmp/ccMPHsjp.s 			page 10


 490:bluetooth_rxtx.c **** 	case UBERTOOTH_AFH:
 491:bluetooth_rxtx.c **** 		hop_mode = HOP_AFH;
 492:bluetooth_rxtx.c **** 		requested_mode = MODE_AFH;
 493:bluetooth_rxtx.c **** 
 494:bluetooth_rxtx.c **** 		for(int i=0; i < 10; i++) {
 495:bluetooth_rxtx.c **** 			afh_map[i] = 0;
 496:bluetooth_rxtx.c **** 		}
 497:bluetooth_rxtx.c **** 		used_channels = 0;
 498:bluetooth_rxtx.c **** 		afh_enabled = 1;
 499:bluetooth_rxtx.c **** 		break;
 500:bluetooth_rxtx.c **** 
 501:bluetooth_rxtx.c **** 	case UBERTOOTH_HOP:
 502:bluetooth_rxtx.c **** 		do_hop = 1;
 503:bluetooth_rxtx.c **** 		break;
 504:bluetooth_rxtx.c **** 
 505:bluetooth_rxtx.c **** 	case UBERTOOTH_SET_CLOCK:
 506:bluetooth_rxtx.c **** 		clock = data[0] | data[1] << 8 | data[2] << 16 | data[3] << 24;
 507:bluetooth_rxtx.c **** 		clkn = clock;
 508:bluetooth_rxtx.c **** 		cs_threshold_calc_and_set(channel);
 509:bluetooth_rxtx.c **** 		break;
 510:bluetooth_rxtx.c **** 
 511:bluetooth_rxtx.c **** 	case UBERTOOTH_SET_AFHMAP:
 512:bluetooth_rxtx.c **** 		for(int i=0; i < 10; i++) {
 513:bluetooth_rxtx.c **** 			afh_map[i] = data[i];
 514:bluetooth_rxtx.c **** 		}
 515:bluetooth_rxtx.c **** 		afh_enabled = 1;
 516:bluetooth_rxtx.c **** 		*data_len = 10;
 517:bluetooth_rxtx.c **** 		break;
 518:bluetooth_rxtx.c **** 
 519:bluetooth_rxtx.c **** 	case UBERTOOTH_CLEAR_AFHMAP:
 520:bluetooth_rxtx.c **** 		for(int i=0; i < 10; i++) {
 521:bluetooth_rxtx.c **** 			afh_map[i] = 0;
 522:bluetooth_rxtx.c **** 		}
 523:bluetooth_rxtx.c **** 		afh_enabled = 0;
 524:bluetooth_rxtx.c **** 		*data_len = 10;
 525:bluetooth_rxtx.c **** 		break;
 526:bluetooth_rxtx.c **** 
 527:bluetooth_rxtx.c **** 	case UBERTOOTH_GET_CLOCK:
 528:bluetooth_rxtx.c **** 		clock = clkn;
 529:bluetooth_rxtx.c **** 		for(int i=0; i < 4; i++) {
 530:bluetooth_rxtx.c **** 			data[i] = (clock >> (8*i)) & 0xff;
 531:bluetooth_rxtx.c **** 		}
 532:bluetooth_rxtx.c **** 		*data_len = 4;
 533:bluetooth_rxtx.c **** 		break;
 534:bluetooth_rxtx.c **** 
 535:bluetooth_rxtx.c **** 	case UBERTOOTH_TRIM_CLOCK:
 536:bluetooth_rxtx.c **** 		clk100ns_offset = (data[0] << 8) | (data[1] << 0);
 537:bluetooth_rxtx.c **** 		break;
 538:bluetooth_rxtx.c **** 
 539:bluetooth_rxtx.c **** 	case UBERTOOTH_FIX_CLOCK_DRIFT:
 540:bluetooth_rxtx.c **** 		clk_drift_ppm += (int16_t)(data[0] << 8) | (data[1] << 0);
 541:bluetooth_rxtx.c **** 
 542:bluetooth_rxtx.c **** 		// Too slow
 543:bluetooth_rxtx.c **** 		if (clk_drift_ppm < 0) {
 544:bluetooth_rxtx.c **** 			clk_drift_correction = 320 / (uint16_t)(-clk_drift_ppm);
 545:bluetooth_rxtx.c **** 			clkn_next_drift_fix = clkn_last_drift_fix + clk_drift_correction;
 546:bluetooth_rxtx.c **** 		}
ARM GAS  /tmp/ccMPHsjp.s 			page 11


 547:bluetooth_rxtx.c **** 		// Too fast
 548:bluetooth_rxtx.c **** 		else if (clk_drift_ppm > 0) {
 549:bluetooth_rxtx.c **** 			clk_drift_correction = 320 / clk_drift_ppm;
 550:bluetooth_rxtx.c **** 			clkn_next_drift_fix = clkn_last_drift_fix + clk_drift_correction;
 551:bluetooth_rxtx.c **** 		}
 552:bluetooth_rxtx.c **** 		// Don't trim
 553:bluetooth_rxtx.c **** 		else {
 554:bluetooth_rxtx.c **** 			clk_drift_correction = 0;
 555:bluetooth_rxtx.c **** 			clkn_next_drift_fix = 0;
 556:bluetooth_rxtx.c **** 		}
 557:bluetooth_rxtx.c **** 
 558:bluetooth_rxtx.c **** 		break;
 559:bluetooth_rxtx.c **** 
 560:bluetooth_rxtx.c **** 	case UBERTOOTH_BTLE_SNIFFING:
 561:bluetooth_rxtx.c **** 		*data_len = 0;
 562:bluetooth_rxtx.c **** 
 563:bluetooth_rxtx.c **** 		do_hop = 0;
 564:bluetooth_rxtx.c **** 		hop_mode = HOP_BTLE;
 565:bluetooth_rxtx.c **** 		requested_mode = MODE_BT_FOLLOW_LE;
 566:bluetooth_rxtx.c **** 
 567:bluetooth_rxtx.c **** 		queue_init();
 568:bluetooth_rxtx.c **** 		cs_threshold_calc_and_set(channel);
 569:bluetooth_rxtx.c **** 		break;
 570:bluetooth_rxtx.c **** 	
 571:bluetooth_rxtx.c **** 	// JWHUR cfo estimation tracking
 572:bluetooth_rxtx.c **** 	case UBERTOOTH_BTLE_CFO:
 573:bluetooth_rxtx.c **** 		do_hop = 0;
 574:bluetooth_rxtx.c **** 		hop_mode = HOP_BTLE;
 575:bluetooth_rxtx.c **** 		requested_mode = MODE_BT_CFO_LE;
 576:bluetooth_rxtx.c **** 
 577:bluetooth_rxtx.c **** 		queue_init();
 578:bluetooth_rxtx.c **** 		cs_threshold_calc_and_set(channel);
 579:bluetooth_rxtx.c **** 		break;
 580:bluetooth_rxtx.c **** 
 581:bluetooth_rxtx.c **** 	case UBERTOOTH_BTLE_RSSI:
 582:bluetooth_rxtx.c **** 		do_hop = 0;
 583:bluetooth_rxtx.c **** 		hop_mode = HOP_BTLE;
 584:bluetooth_rxtx.c **** 		requested_mode = MODE_BT_RSSI_LE;
 585:bluetooth_rxtx.c **** 
 586:bluetooth_rxtx.c **** 		queue_init();
 587:bluetooth_rxtx.c **** 		cs_threshold_calc_and_set(channel);
 588:bluetooth_rxtx.c **** 		break;
 589:bluetooth_rxtx.c **** 
 590:bluetooth_rxtx.c **** 	case UBERTOOTH_GET_ACCESS_ADDRESS:
 591:bluetooth_rxtx.c **** 		for(int i=0; i < 4; i++) {
 592:bluetooth_rxtx.c **** 			data[i] = (le.access_address >> (8*i)) & 0xff;
 593:bluetooth_rxtx.c **** 		}
 594:bluetooth_rxtx.c **** 		*data_len = 4;
 595:bluetooth_rxtx.c **** 		break;
 596:bluetooth_rxtx.c **** 
 597:bluetooth_rxtx.c **** 	case UBERTOOTH_SET_ACCESS_ADDRESS:
 598:bluetooth_rxtx.c **** 		le_set_access_address(data[0] | data[1] << 8 | data[2] << 16 | data[3] << 24);
 599:bluetooth_rxtx.c **** 		le.target_set = 1;
 600:bluetooth_rxtx.c **** 		break;
 601:bluetooth_rxtx.c **** 
 602:bluetooth_rxtx.c **** 	case UBERTOOTH_DO_SOMETHING:
 603:bluetooth_rxtx.c **** 		// do something! just don't commit anything here
ARM GAS  /tmp/ccMPHsjp.s 			page 12


 604:bluetooth_rxtx.c **** 		break;
 605:bluetooth_rxtx.c **** 
 606:bluetooth_rxtx.c **** 	case UBERTOOTH_DO_SOMETHING_REPLY:
 607:bluetooth_rxtx.c **** 		// after you do something, tell me what you did!
 608:bluetooth_rxtx.c **** 		// don't commit here please
 609:bluetooth_rxtx.c **** 		data[0] = 0x13;
 610:bluetooth_rxtx.c **** 		data[1] = 0x37;
 611:bluetooth_rxtx.c **** 		*data_len = 2;
 612:bluetooth_rxtx.c **** 		break;
 613:bluetooth_rxtx.c **** 
 614:bluetooth_rxtx.c **** 	case UBERTOOTH_GET_CRC_VERIFY:
 615:bluetooth_rxtx.c **** 		data[0] = le.crc_verify ? 1 : 0;
 616:bluetooth_rxtx.c **** 		*data_len = 1;
 617:bluetooth_rxtx.c **** 		break;
 618:bluetooth_rxtx.c **** 
 619:bluetooth_rxtx.c **** 	case UBERTOOTH_SET_CRC_VERIFY:
 620:bluetooth_rxtx.c **** 		le.crc_verify = request_params[0] ? 1 : 0;
 621:bluetooth_rxtx.c **** 		break;
 622:bluetooth_rxtx.c **** 
 623:bluetooth_rxtx.c **** 	case UBERTOOTH_POLL:
 624:bluetooth_rxtx.c **** 		p = dequeue();
 625:bluetooth_rxtx.c **** 		if (p != NULL) {
 626:bluetooth_rxtx.c **** 			memcpy(data, (void *)p, sizeof(usb_pkt_rx));
 627:bluetooth_rxtx.c **** 			*data_len = sizeof(usb_pkt_rx);
 628:bluetooth_rxtx.c **** 		} else {
 629:bluetooth_rxtx.c **** 			data[0] = 0;
 630:bluetooth_rxtx.c **** 			*data_len = 1;
 631:bluetooth_rxtx.c **** 		}
 632:bluetooth_rxtx.c **** 		break;
 633:bluetooth_rxtx.c **** 
 634:bluetooth_rxtx.c **** 	case UBERTOOTH_BTLE_PROMISC:
 635:bluetooth_rxtx.c **** 		*data_len = 0;
 636:bluetooth_rxtx.c **** 
 637:bluetooth_rxtx.c **** 		hop_mode = HOP_NONE;
 638:bluetooth_rxtx.c **** 		requested_mode = MODE_BT_PROMISC_LE;
 639:bluetooth_rxtx.c **** 
 640:bluetooth_rxtx.c **** 		queue_init();
 641:bluetooth_rxtx.c **** 		cs_threshold_calc_and_set(channel);
 642:bluetooth_rxtx.c **** 		break;
 643:bluetooth_rxtx.c **** 
 644:bluetooth_rxtx.c **** 	case UBERTOOTH_READ_REGISTER:
 645:bluetooth_rxtx.c **** 		reg_val = cc2400_get(request_params[0]);
 646:bluetooth_rxtx.c **** 		data[0] = (reg_val >> 8) & 0xff;
 647:bluetooth_rxtx.c **** 		data[1] = reg_val & 0xff;
 648:bluetooth_rxtx.c **** 		*data_len = 2;
 649:bluetooth_rxtx.c **** 		break;
 650:bluetooth_rxtx.c **** 
 651:bluetooth_rxtx.c **** 	case UBERTOOTH_WRITE_REGISTER:
 652:bluetooth_rxtx.c **** 		cc2400_set(request_params[0] & 0xff, request_params[1]);
 653:bluetooth_rxtx.c **** 		break;
 654:bluetooth_rxtx.c **** 
 655:bluetooth_rxtx.c **** 	case UBERTOOTH_WRITE_REGISTERS:
 656:bluetooth_rxtx.c **** 		for(i=0; i<request_params[0]; i++) {
 657:bluetooth_rxtx.c **** 			reg_val = (data[(i*3)+1] << 8) | data[(i*3)+2];
 658:bluetooth_rxtx.c **** 			cc2400_set(data[i*3], reg_val);
 659:bluetooth_rxtx.c **** 		}
 660:bluetooth_rxtx.c **** 		break;
ARM GAS  /tmp/ccMPHsjp.s 			page 13


 661:bluetooth_rxtx.c **** 
 662:bluetooth_rxtx.c **** 	case UBERTOOTH_READ_ALL_REGISTERS:
 663:bluetooth_rxtx.c **** 		#define MAX_READ_REG 0x2d
 664:bluetooth_rxtx.c **** 		for(i=0; i<=MAX_READ_REG; i++) {
 665:bluetooth_rxtx.c **** 			reg_val = cc2400_get(i);
 666:bluetooth_rxtx.c **** 			data[i*3] = i;
 667:bluetooth_rxtx.c **** 			data[(i*3)+1] = (reg_val >> 8) & 0xff;
 668:bluetooth_rxtx.c **** 			data[(i*3)+2] = reg_val & 0xff;
 669:bluetooth_rxtx.c **** 		}
 670:bluetooth_rxtx.c **** 		*data_len = MAX_READ_REG*3;
 671:bluetooth_rxtx.c **** 		break;
 672:bluetooth_rxtx.c **** 
 673:bluetooth_rxtx.c **** 	case UBERTOOTH_TX_GENERIC_PACKET:
 674:bluetooth_rxtx.c **** 		i = 7 + data[6];
 675:bluetooth_rxtx.c **** 		memcpy(&tx_pkt, data, i);
 676:bluetooth_rxtx.c **** 		//tx_pkt.channel = data[4] << 8 | data[5];
 677:bluetooth_rxtx.c **** 		requested_mode = MODE_TX_GENERIC;
 678:bluetooth_rxtx.c **** 		*data_len = 0;
 679:bluetooth_rxtx.c **** 		break;
 680:bluetooth_rxtx.c **** 
 681:bluetooth_rxtx.c **** 	case UBERTOOTH_BTLE_SLAVE:
 682:bluetooth_rxtx.c **** 		// FIXME, If slave_mac_address_data has already been memory allocated, it has to be freed
 683:bluetooth_rxtx.c **** 		slave_mac_address_data = (uint8_t*) malloc(sizeof(uint8_t)*dlen);
 684:bluetooth_rxtx.c **** 		memcpy(slave_mac_address_data, data, dlen);
 685:bluetooth_rxtx.c **** 		requested_mode = MODE_BT_SLAVE_LE;
 686:bluetooth_rxtx.c **** 		break;
 687:bluetooth_rxtx.c **** 
 688:bluetooth_rxtx.c **** 	case UBERTOOTH_BTLE_SLAVE_BULK1:
 689:bluetooth_rxtx.c **** 		slave_mac_address_data = (uint8_t*) malloc(sizeof(uint8_t)*390); // Transmit 3 RSA public key enc
 690:bluetooth_rxtx.c **** 		memcpy(slave_mac_address_data, data, dlen);
 691:bluetooth_rxtx.c **** 		dlen_bulk1 = dlen;
 692:bluetooth_rxtx.c **** 		requested_mode = MODE_WAIT_BULK;
 693:bluetooth_rxtx.c **** 		break;
 694:bluetooth_rxtx.c **** 
 695:bluetooth_rxtx.c **** 	case UBERTOOTH_BTLE_SLAVE_BULK2:
 696:bluetooth_rxtx.c **** //		memcpy(slave_mac_address_data + dlen_bulk1, data, dlen);
 697:bluetooth_rxtx.c **** 		for(i=0; i<dlen; i++) slave_mac_address_data[dlen_bulk1 + i] = data[i];
 698:bluetooth_rxtx.c **** 		dlen = 390;
 699:bluetooth_rxtx.c **** 		requested_mode = MODE_BT_SLAVE_LE;
 700:bluetooth_rxtx.c **** 		break;
 701:bluetooth_rxtx.c **** 
 702:bluetooth_rxtx.c **** 	//JWHUR for rssi sampling synchronization
 703:bluetooth_rxtx.c **** 	case UBERTOOTH_BTLE_SYNC:
 704:bluetooth_rxtx.c **** 		slave_mac_address_data = (uint8_t*) malloc(sizeof(uint8_t)*6);
 705:bluetooth_rxtx.c **** 		memcpy(slave_mac_address_data, data, 6);
 706:bluetooth_rxtx.c **** 		requested_mode = MODE_BT_SYNC_LE;
 707:bluetooth_rxtx.c **** 		do_hop = 0;
 708:bluetooth_rxtx.c **** 		hop_mode = HOP_BTLE;
 709:bluetooth_rxtx.c **** 		queue_init();
 710:bluetooth_rxtx.c **** 		cs_threshold_calc_and_set(channel);
 711:bluetooth_rxtx.c **** 		break;
 712:bluetooth_rxtx.c **** 	
 713:bluetooth_rxtx.c **** 	case UBERTOOTH_BTLE_SET_TARGET:
 714:bluetooth_rxtx.c **** 		// Addresses appear in packets in reverse-octet order.
 715:bluetooth_rxtx.c **** 		// Store the target address in reverse order so that we can do a simple memcmp later
 716:bluetooth_rxtx.c **** 		le.target[0] = data[5];
 717:bluetooth_rxtx.c **** 		le.target[1] = data[4];
ARM GAS  /tmp/ccMPHsjp.s 			page 14


 718:bluetooth_rxtx.c **** 		le.target[2] = data[3];
 719:bluetooth_rxtx.c **** 		le.target[3] = data[2];
 720:bluetooth_rxtx.c **** 		le.target[4] = data[1];
 721:bluetooth_rxtx.c **** 		le.target[5] = data[0];
 722:bluetooth_rxtx.c **** 		le.target_set = 1;
 723:bluetooth_rxtx.c **** 		break;
 724:bluetooth_rxtx.c **** 
 725:bluetooth_rxtx.c **** #ifdef TX_ENABLE
 726:bluetooth_rxtx.c **** 	case UBERTOOTH_JAM_MODE:
 727:bluetooth_rxtx.c **** 		jam_mode = request_params[0];
 728:bluetooth_rxtx.c **** 		break;
 729:bluetooth_rxtx.c **** #endif
 730:bluetooth_rxtx.c **** 
 731:bluetooth_rxtx.c **** 	case UBERTOOTH_EGO:
 732:bluetooth_rxtx.c **** #ifndef TX_ENABLE
 733:bluetooth_rxtx.c **** 		if (ego_mode == EGO_JAM)
 734:bluetooth_rxtx.c **** 			return 0;
 735:bluetooth_rxtx.c **** #endif
 736:bluetooth_rxtx.c **** 		requested_mode = MODE_EGO;
 737:bluetooth_rxtx.c **** 		ego_mode = request_params[0];
 738:bluetooth_rxtx.c **** 		break;
 739:bluetooth_rxtx.c **** 
 740:bluetooth_rxtx.c **** 	default:
 741:bluetooth_rxtx.c **** 		return 0;
 742:bluetooth_rxtx.c **** 	}
 743:bluetooth_rxtx.c **** 	return 1;
 744:bluetooth_rxtx.c **** }
 745:bluetooth_rxtx.c **** 
 746:bluetooth_rxtx.c **** /* Update CLKN. */
 747:bluetooth_rxtx.c **** void TIMER0_IRQHandler()
 748:bluetooth_rxtx.c **** {
 749:bluetooth_rxtx.c **** 	if (T0IR & TIR_MR0_Interrupt) {
 750:bluetooth_rxtx.c **** 
 751:bluetooth_rxtx.c **** 		clkn += clkn_offset + 1;
 752:bluetooth_rxtx.c **** 		clkn_offset = 0;
 753:bluetooth_rxtx.c **** 
 754:bluetooth_rxtx.c **** 		uint32_t le_clk = (clkn - le.conn_epoch) & 0x03;
 755:bluetooth_rxtx.c **** 
 756:bluetooth_rxtx.c **** 		/* Trigger hop based on mode */
 757:bluetooth_rxtx.c **** 
 758:bluetooth_rxtx.c **** 		/* NONE or SWEEP -> 25 Hz */
 759:bluetooth_rxtx.c **** 		if (hop_mode == HOP_NONE || hop_mode == HOP_SWEEP) {
 760:bluetooth_rxtx.c **** 			if ((clkn & 0x7f) == 0)
 761:bluetooth_rxtx.c **** 				do_hop = 1;
 762:bluetooth_rxtx.c **** 		}
 763:bluetooth_rxtx.c **** 		/* BLUETOOTH -> 1600 Hz */
 764:bluetooth_rxtx.c **** 		else if (hop_mode == HOP_BLUETOOTH) {
 765:bluetooth_rxtx.c **** 			if ((clkn & 0x1) == 0)
 766:bluetooth_rxtx.c **** 				do_hop = 1;
 767:bluetooth_rxtx.c **** 		}
 768:bluetooth_rxtx.c **** 		/* BLUETOOTH Low Energy -> 7.5ms - 4.0s in multiples of 1.25 ms */
 769:bluetooth_rxtx.c **** 		else if (hop_mode == HOP_BTLE) {
 770:bluetooth_rxtx.c **** 			// Only hop if connected
 771:bluetooth_rxtx.c **** 			if (le.link_state == LINK_CONNECTED && le_clk == 0) {
 772:bluetooth_rxtx.c **** 				--le.interval_timer;
 773:bluetooth_rxtx.c **** 				if (le.interval_timer == 0) {
 774:bluetooth_rxtx.c **** 					do_hop = 1;
ARM GAS  /tmp/ccMPHsjp.s 			page 15


 775:bluetooth_rxtx.c **** 					++le.conn_count;
 776:bluetooth_rxtx.c **** 					le.interval_timer = le.conn_interval;
 777:bluetooth_rxtx.c **** 				} else {
 778:bluetooth_rxtx.c **** 					TXLED_CLR; // hack!
 779:bluetooth_rxtx.c **** 				}
 780:bluetooth_rxtx.c **** 			}
 781:bluetooth_rxtx.c **** 		}
 782:bluetooth_rxtx.c **** 		else if (hop_mode == HOP_AFH) {
 783:bluetooth_rxtx.c **** 			if( (last_hop + hop_timeout) == clkn ) {
 784:bluetooth_rxtx.c **** 				do_hop = 1;
 785:bluetooth_rxtx.c **** 			}
 786:bluetooth_rxtx.c **** 		}
 787:bluetooth_rxtx.c **** 
 788:bluetooth_rxtx.c **** 		// Fix linear clock drift deviation
 789:bluetooth_rxtx.c **** 		if(clkn_next_drift_fix != 0 && clk100ns_offset == 0) {
 790:bluetooth_rxtx.c **** 			if(clkn >= clkn_next_drift_fix) {
 791:bluetooth_rxtx.c **** 
 792:bluetooth_rxtx.c **** 				// Too fast
 793:bluetooth_rxtx.c **** 				if(clk_drift_ppm >= 0) {
 794:bluetooth_rxtx.c **** 					clk100ns_offset = 1;
 795:bluetooth_rxtx.c **** 				}
 796:bluetooth_rxtx.c **** 
 797:bluetooth_rxtx.c **** 				// Too slow
 798:bluetooth_rxtx.c **** 				else {
 799:bluetooth_rxtx.c **** 					clk100ns_offset = 6249;
 800:bluetooth_rxtx.c **** 				}
 801:bluetooth_rxtx.c **** 				clkn_last_drift_fix = clkn;
 802:bluetooth_rxtx.c **** 				clkn_next_drift_fix = clkn_last_drift_fix + clk_drift_correction;
 803:bluetooth_rxtx.c **** 			}
 804:bluetooth_rxtx.c **** 		}
 805:bluetooth_rxtx.c **** 
 806:bluetooth_rxtx.c **** 		// Negative clock correction
 807:bluetooth_rxtx.c **** 		if(clk100ns_offset > 3124)
 808:bluetooth_rxtx.c **** 			clkn += 2;
 809:bluetooth_rxtx.c **** 
 810:bluetooth_rxtx.c **** 		T0MR0 = 3124 + clk100ns_offset;
 811:bluetooth_rxtx.c **** 		clk100ns_offset = 0;
 812:bluetooth_rxtx.c **** 
 813:bluetooth_rxtx.c **** 		/* Ack interrupt */
 814:bluetooth_rxtx.c **** 		T0IR = TIR_MR0_Interrupt;
 815:bluetooth_rxtx.c **** 	}
 816:bluetooth_rxtx.c **** }
 817:bluetooth_rxtx.c **** 
 818:bluetooth_rxtx.c **** /* EINT3 handler is also defined in ubertooth.c for TC13BADGE. */
 819:bluetooth_rxtx.c **** #ifndef TC13BADGE
 820:bluetooth_rxtx.c **** void EINT3_IRQHandler()
 821:bluetooth_rxtx.c **** {
 822:bluetooth_rxtx.c **** 	/* TODO - check specific source of shared interrupt */
 823:bluetooth_rxtx.c **** 	IO2IntClr   = PIN_GIO6; // clear interrupt
 824:bluetooth_rxtx.c **** 	DIO_SSEL_CLR;           // enable SPI
 825:bluetooth_rxtx.c **** 	cs_trigger  = 1;        // signal trigger
 826:bluetooth_rxtx.c **** 	if (hop_mode == HOP_BLUETOOTH)
 827:bluetooth_rxtx.c **** 		dma_discard = 0; 
 828:bluetooth_rxtx.c **** 
 829:bluetooth_rxtx.c **** }
 830:bluetooth_rxtx.c **** #endif // TC13BADGE
 831:bluetooth_rxtx.c **** 
ARM GAS  /tmp/ccMPHsjp.s 			page 16


 832:bluetooth_rxtx.c **** /*
 833:bluetooth_rxtx.c ****  * Sleep (busy wait) for 'millis' milliseconds
 834:bluetooth_rxtx.c ****  * Needs clkn. Be sure to call clkn_init() before using it.
 835:bluetooth_rxtx.c ****  */
 836:bluetooth_rxtx.c **** static void msleep(uint32_t millis)
 837:bluetooth_rxtx.c **** {
  26              		.loc 1 837 0
  27              		.cfi_startproc
  28              		@ args = 0, pretend = 0, frame = 0
  29              		@ frame_needed = 0, uses_anonymous_args = 0
  30              	.LVL0:
  31 0000 10B5     		push	{r4, lr}
  32              		.cfi_def_cfa_offset 8
  33              		.cfi_offset 4, -8
  34              		.cfi_offset 14, -4
 838:bluetooth_rxtx.c **** 	uint32_t now = (clkn & 0xffffff);
 839:bluetooth_rxtx.c **** 	uint32_t stop_at = now + millis * 10000 / 3125; // millis -> clkn ticks
  35              		.loc 1 839 0
  36 0002 42F21071 		movw	r1, #10000
 838:bluetooth_rxtx.c **** 	uint32_t now = (clkn & 0xffffff);
  37              		.loc 1 838 0
  38 0006 084B     		ldr	r3, .L5
  39              		.loc 1 839 0
  40 0008 4843     		muls	r0, r1, r0
  41              	.LVL1:
 838:bluetooth_rxtx.c **** 	uint32_t now = (clkn & 0xffffff);
  42              		.loc 1 838 0
  43 000a 1A68     		ldr	r2, [r3]
  44              	.LVL2:
  45              		.loc 1 839 0
  46 000c 40F63544 		movw	r4, #3125
  47 0010 B0FBF4F1 		udiv	r1, r0, r4
 838:bluetooth_rxtx.c **** 	uint32_t now = (clkn & 0xffffff);
  48              		.loc 1 838 0
  49 0014 22F07F42 		bic	r2, r2, #-16777216
  50              	.LVL3:
  51              		.loc 1 839 0
  52 0018 0A44     		add	r2, r2, r1
  53              	.LVL4:
  54              	.L3:
 840:bluetooth_rxtx.c **** 
 841:bluetooth_rxtx.c **** 	// handle clkn overflow
 842:bluetooth_rxtx.c **** 	if (stop_at >= ((uint32_t)1<<28)) {
 843:bluetooth_rxtx.c **** 		stop_at -= ((uint32_t)1<<28);
 844:bluetooth_rxtx.c **** 		while ((clkn & 0xffffff) >= now || (clkn & 0xffffff) < stop_at);
 845:bluetooth_rxtx.c **** 	} else {
 846:bluetooth_rxtx.c **** 		while ((clkn & 0xffffff) < stop_at);
  55              		.loc 1 846 0 discriminator 1
  56 001a 1968     		ldr	r1, [r3]
  57 001c 21F07F41 		bic	r1, r1, #-16777216
  58 0020 9142     		cmp	r1, r2
  59 0022 FAD3     		bcc	.L3
 847:bluetooth_rxtx.c **** 	}
 848:bluetooth_rxtx.c **** }
  60              		.loc 1 848 0
  61 0024 10BD     		pop	{r4, pc}
  62              	.L6:
ARM GAS  /tmp/ccMPHsjp.s 			page 17


  63 0026 00BF     		.align	2
  64              	.L5:
  65 0028 00000000 		.word	clkn
  66              		.cfi_endproc
  67              	.LFE6:
  69              		.section	.text.reverse8,"ax",%progbits
  70              		.align	1
  71              		.thumb
  72              		.thumb_func
  74              	reverse8:
  75              	.LFB16:
 849:bluetooth_rxtx.c **** 
 850:bluetooth_rxtx.c **** void DMA_IRQHandler()
 851:bluetooth_rxtx.c **** {
 852:bluetooth_rxtx.c **** 	if ( mode == MODE_RX_SYMBOLS
 853:bluetooth_rxtx.c **** 	   || mode == MODE_BT_FOLLOW
 854:bluetooth_rxtx.c **** 	   || mode == MODE_SPECAN
 855:bluetooth_rxtx.c **** 	   || mode == MODE_BT_FOLLOW_LE
 856:bluetooth_rxtx.c **** 	   || mode == MODE_BT_CFO_LE
 857:bluetooth_rxtx.c **** 	   || mode == MODE_BT_RSSI_LE
 858:bluetooth_rxtx.c **** 	   || mode == MODE_BT_PROMISC_LE
 859:bluetooth_rxtx.c **** 	   || mode == MODE_BT_SLAVE_LE
 860:bluetooth_rxtx.c **** 	   || mode == MODE_WAIT_BULK
 861:bluetooth_rxtx.c **** 	   || mode == MODE_BT_SYNC_LE
 862:bluetooth_rxtx.c **** 	   || mode == MODE_RX_GENERIC)
 863:bluetooth_rxtx.c **** 	{
 864:bluetooth_rxtx.c **** 		/* interrupt on channel 0 */
 865:bluetooth_rxtx.c **** 		if (DMACIntStat & (1 << 0)) {
 866:bluetooth_rxtx.c **** 			if (DMACIntTCStat & (1 << 0)) {
 867:bluetooth_rxtx.c **** 				DMACIntTCClear = (1 << 0);
 868:bluetooth_rxtx.c **** 
 869:bluetooth_rxtx.c **** 				if (hop_mode == HOP_BLUETOOTH)
 870:bluetooth_rxtx.c **** 					DIO_SSEL_SET;
 871:bluetooth_rxtx.c **** 
 872:bluetooth_rxtx.c **** 				idle_buf_clk100ns  = CLK100NS;
 873:bluetooth_rxtx.c **** 				idle_buf_clkn_high = (clkn >> 20) & 0xff;
 874:bluetooth_rxtx.c **** 				idle_buf_channel   = channel;
 875:bluetooth_rxtx.c **** 
 876:bluetooth_rxtx.c **** 				/* Keep buffer swapping in sync with DMA. */
 877:bluetooth_rxtx.c **** 				volatile uint8_t* tmp = active_rxbuf;
 878:bluetooth_rxtx.c **** 				active_rxbuf = idle_rxbuf;
 879:bluetooth_rxtx.c **** 				idle_rxbuf = tmp;
 880:bluetooth_rxtx.c **** 
 881:bluetooth_rxtx.c **** 				++rx_tc;
 882:bluetooth_rxtx.c **** 			}
 883:bluetooth_rxtx.c **** 			if (DMACIntErrStat & (1 << 0)) {
 884:bluetooth_rxtx.c **** 				DMACIntErrClr = (1 << 0);
 885:bluetooth_rxtx.c **** 				++rx_err;
 886:bluetooth_rxtx.c **** 			}
 887:bluetooth_rxtx.c **** 		}
 888:bluetooth_rxtx.c **** 	}
 889:bluetooth_rxtx.c **** }
 890:bluetooth_rxtx.c **** 
 891:bluetooth_rxtx.c **** static void cc2400_idle()
 892:bluetooth_rxtx.c **** {
 893:bluetooth_rxtx.c **** 	cc2400_strobe(SRFOFF);
 894:bluetooth_rxtx.c **** 	while ((cc2400_status() & FS_LOCK)); // need to wait for unlock?
ARM GAS  /tmp/ccMPHsjp.s 			page 18


 895:bluetooth_rxtx.c **** 
 896:bluetooth_rxtx.c **** #ifdef UBERTOOTH_ONE
 897:bluetooth_rxtx.c **** 	PAEN_CLR;
 898:bluetooth_rxtx.c **** 	HGM_CLR;
 899:bluetooth_rxtx.c **** #endif
 900:bluetooth_rxtx.c **** 
 901:bluetooth_rxtx.c **** 	RXLED_CLR;
 902:bluetooth_rxtx.c **** 	TXLED_CLR;
 903:bluetooth_rxtx.c **** 	USRLED_CLR;
 904:bluetooth_rxtx.c **** 
 905:bluetooth_rxtx.c **** 	clkn_stop();
 906:bluetooth_rxtx.c **** 	dio_ssp_stop();
 907:bluetooth_rxtx.c **** 	cs_reset();
 908:bluetooth_rxtx.c **** 	rssi_reset();
 909:bluetooth_rxtx.c **** 
 910:bluetooth_rxtx.c **** 	/* hopping stuff */
 911:bluetooth_rxtx.c **** 	hop_mode = HOP_NONE;
 912:bluetooth_rxtx.c **** 	do_hop = 0;
 913:bluetooth_rxtx.c **** 	channel = 2441;
 914:bluetooth_rxtx.c **** 	hop_direct_channel = 0;
 915:bluetooth_rxtx.c **** 	hop_timeout = 158;
 916:bluetooth_rxtx.c **** 	requested_channel = 0;
 917:bluetooth_rxtx.c **** 	le_adv_channel = 2402;
 918:bluetooth_rxtx.c **** 
 919:bluetooth_rxtx.c **** 
 920:bluetooth_rxtx.c **** 	/* bulk USB stuff */
 921:bluetooth_rxtx.c **** 	idle_buf_clkn_high = 0;
 922:bluetooth_rxtx.c **** 	idle_buf_clk100ns = 0;
 923:bluetooth_rxtx.c **** 	idle_buf_channel = 0;
 924:bluetooth_rxtx.c **** 	dma_discard = 0;
 925:bluetooth_rxtx.c **** 	status = 0;
 926:bluetooth_rxtx.c **** 
 927:bluetooth_rxtx.c **** 	/* operation mode */
 928:bluetooth_rxtx.c **** 	mode = MODE_IDLE;
 929:bluetooth_rxtx.c **** 	requested_mode = MODE_IDLE;
 930:bluetooth_rxtx.c **** 	jam_mode = JAM_NONE;
 931:bluetooth_rxtx.c **** 	ego_mode = EGO_FOLLOW;
 932:bluetooth_rxtx.c **** 
 933:bluetooth_rxtx.c **** 	modulation = MOD_BT_BASIC_RATE;
 934:bluetooth_rxtx.c **** 
 935:bluetooth_rxtx.c **** 	/* specan stuff */
 936:bluetooth_rxtx.c **** 	low_freq = 2400;
 937:bluetooth_rxtx.c **** 	high_freq = 2483;
 938:bluetooth_rxtx.c **** 	rssi_threshold = -30;
 939:bluetooth_rxtx.c **** 
 940:bluetooth_rxtx.c **** 	target.address = 0;
 941:bluetooth_rxtx.c **** 	target.syncword = 0;
 942:bluetooth_rxtx.c **** }
 943:bluetooth_rxtx.c **** 
 944:bluetooth_rxtx.c **** /* start un-buffered rx */
 945:bluetooth_rxtx.c **** static void cc2400_rx()
 946:bluetooth_rxtx.c **** {
 947:bluetooth_rxtx.c **** 	u16 mdmctrl = 0;
 948:bluetooth_rxtx.c **** 
 949:bluetooth_rxtx.c **** 	if((modulation == MOD_BT_BASIC_RATE) || (modulation == MOD_BT_LOW_ENERGY)) {
 950:bluetooth_rxtx.c **** 		if (modulation == MOD_BT_BASIC_RATE) {
 951:bluetooth_rxtx.c **** 			mdmctrl = 0x0029; // 160 kHz frequency deviation
ARM GAS  /tmp/ccMPHsjp.s 			page 19


 952:bluetooth_rxtx.c **** 		} else if (modulation == MOD_BT_LOW_ENERGY) {
 953:bluetooth_rxtx.c **** 			mdmctrl = 0x0040; // 250 kHz frequency deviation
 954:bluetooth_rxtx.c **** 		}
 955:bluetooth_rxtx.c **** 		cc2400_set(MANAND,  0x7fff);
 956:bluetooth_rxtx.c **** 		cc2400_set(LMTST,   0x2b22);
 957:bluetooth_rxtx.c **** 		cc2400_set(MDMTST0, 0x134b); // without PRNG 16 MAX MIN PAIRS
 958:bluetooth_rxtx.c **** 		cc2400_set(GRMDM,   0x0101); // un-buffered mode, GFSK
 959:bluetooth_rxtx.c **** 		// 0 00 00 0 010 00 0 00 0 1
 960:bluetooth_rxtx.c **** 		//      |  | |   |  +--------> CRC off
 961:bluetooth_rxtx.c **** 		//      |  | |   +-----------> sync word: 8 MSB bits of SYNC_WORD
 962:bluetooth_rxtx.c **** 		//      |  | +---------------> 2 preamble bytes of 01010101
 963:bluetooth_rxtx.c **** 		//      |  +-----------------> not packet mode
 964:bluetooth_rxtx.c **** 			//      +--------------------> un-buffered mode
 965:bluetooth_rxtx.c **** 		cc2400_set(FSDIV,   channel - 1); // 1 MHz IF
 966:bluetooth_rxtx.c **** 		cc2400_set(MDMCTRL, mdmctrl);
 967:bluetooth_rxtx.c **** 	}
 968:bluetooth_rxtx.c **** 
 969:bluetooth_rxtx.c **** 	// Set up CS register
 970:bluetooth_rxtx.c **** 	cs_threshold_calc_and_set(channel);
 971:bluetooth_rxtx.c **** 
 972:bluetooth_rxtx.c **** 	clkn_start();
 973:bluetooth_rxtx.c **** 
 974:bluetooth_rxtx.c **** 	while (!(cc2400_status() & XOSC16M_STABLE));
 975:bluetooth_rxtx.c **** 	cc2400_strobe(SFSON);
 976:bluetooth_rxtx.c **** 	while (!(cc2400_status() & FS_LOCK));
 977:bluetooth_rxtx.c **** 	cc2400_strobe(SRX);
 978:bluetooth_rxtx.c **** #ifdef UBERTOOTH_ONE
 979:bluetooth_rxtx.c **** 	PAEN_SET;
 980:bluetooth_rxtx.c **** 	HGM_SET;
 981:bluetooth_rxtx.c **** #endif
 982:bluetooth_rxtx.c **** }
 983:bluetooth_rxtx.c **** 
 984:bluetooth_rxtx.c **** /* start un-buffered rx */
 985:bluetooth_rxtx.c **** static void cc2400_rx_sync(u32 sync)
 986:bluetooth_rxtx.c **** {
 987:bluetooth_rxtx.c **** 	u16 grmdm, mdmctrl;
 988:bluetooth_rxtx.c **** 
 989:bluetooth_rxtx.c **** 	if (modulation == MOD_BT_BASIC_RATE) {
 990:bluetooth_rxtx.c **** 		mdmctrl = 0x0029; // 160 kHz frequency deviation
 991:bluetooth_rxtx.c **** 		grmdm = 0x0461; // un-buffered mode, packet w/ sync word detection
 992:bluetooth_rxtx.c **** 		// 0 00 00 1 000 11 0 00 0 1
 993:bluetooth_rxtx.c **** 		//   |  |  | |   |  +--------> CRC off
 994:bluetooth_rxtx.c **** 		//   |  |  | |   +-----------> sync word: 32 MSB bits of SYNC_WORD
 995:bluetooth_rxtx.c **** 		//   |  |  | +---------------> 0 preamble bytes of 01010101
 996:bluetooth_rxtx.c **** 		//   |  |  +-----------------> packet mode
 997:bluetooth_rxtx.c **** 		//   |  +--------------------> un-buffered mode
 998:bluetooth_rxtx.c **** 		//   +-----------------------> sync error bits: 0
 999:bluetooth_rxtx.c **** 
1000:bluetooth_rxtx.c **** 	} else if (modulation == MOD_BT_LOW_ENERGY) {
1001:bluetooth_rxtx.c **** 		mdmctrl = 0x0040; // 250 kHz frequency deviation
1002:bluetooth_rxtx.c **** 		grmdm = 0x6561; // un-buffered mode, packet w/ sync word detection
1003:bluetooth_rxtx.c **** 		// 0 11 00 1 010 11 0 00 0 1
1004:bluetooth_rxtx.c **** 		//   |  |  | |   |  +--------> CRC off
1005:bluetooth_rxtx.c **** 		//   |  |  | |   +-----------> sync word: 32 MSB bits of SYNC_WORD
1006:bluetooth_rxtx.c **** 		//   |  |  | +---------------> 2 preamble bytes of 01010101
1007:bluetooth_rxtx.c **** 		//   |  |  +-----------------> packet mode
1008:bluetooth_rxtx.c **** 		//   |  +--------------------> un-buffered mode
ARM GAS  /tmp/ccMPHsjp.s 			page 20


1009:bluetooth_rxtx.c **** 		//   +-----------------------> sync error bits: 3
1010:bluetooth_rxtx.c **** 
1011:bluetooth_rxtx.c **** 	} else {
1012:bluetooth_rxtx.c **** 		/* oops */
1013:bluetooth_rxtx.c **** 		return;
1014:bluetooth_rxtx.c **** 	}
1015:bluetooth_rxtx.c **** 
1016:bluetooth_rxtx.c **** 	cc2400_set(MANAND,  0x7fff);
1017:bluetooth_rxtx.c **** 	cc2400_set(LMTST,   0x2b22);
1018:bluetooth_rxtx.c **** 
1019:bluetooth_rxtx.c **** 	cc2400_set(MDMTST0, 0x104b); //JWHUR AFC settling = 2 maxmin pairs
1020:bluetooth_rxtx.c **** 	//cc2400_set(MDMTST0, 0x124b);
1021:bluetooth_rxtx.c **** 	// 1      2      4b
1022:bluetooth_rxtx.c **** 	// 00 0 1 0 0 10 01001011
1023:bluetooth_rxtx.c **** 	//    | | | | |  +---------> AFC_DELTA = ??
1024:bluetooth_rxtx.c **** 	//    | | | | +------------> AFC settling = 4 pairs (8 bit preamble)
1025:bluetooth_rxtx.c **** 	//    | | | +--------------> no AFC adjust on packet
1026:bluetooth_rxtx.c **** 	//    | | +----------------> do not invert data
1027:bluetooth_rxtx.c **** 	//    | +------------------> TX IF freq 1 0Hz
1028:bluetooth_rxtx.c **** 	//    +--------------------> PRNG off
1029:bluetooth_rxtx.c **** 	//
1030:bluetooth_rxtx.c **** 	// ref: CC2400 datasheet page 67
1031:bluetooth_rxtx.c **** 	// AFC settling explained page 41/42
1032:bluetooth_rxtx.c **** 
1033:bluetooth_rxtx.c **** 	cc2400_set(GRMDM,   grmdm);
1034:bluetooth_rxtx.c **** 
1035:bluetooth_rxtx.c **** 	cc2400_set(SYNCL,   sync & 0xffff);
1036:bluetooth_rxtx.c **** 	cc2400_set(SYNCH,   (sync >> 16) & 0xffff);
1037:bluetooth_rxtx.c **** 
1038:bluetooth_rxtx.c **** 	cc2400_set(FSDIV,   channel - 1); // 1 MHz IF
1039:bluetooth_rxtx.c **** 	cc2400_set(MDMCTRL, mdmctrl);
1040:bluetooth_rxtx.c **** 
1041:bluetooth_rxtx.c **** 	//JWHUR RSSI sampling symbols
1042:bluetooth_rxtx.c **** 	cc2400_set(RSSI, 0x003f);
1043:bluetooth_rxtx.c **** 
1044:bluetooth_rxtx.c **** 	// Set up CS register
1045:bluetooth_rxtx.c **** 	cs_threshold_calc_and_set(channel);
1046:bluetooth_rxtx.c **** 
1047:bluetooth_rxtx.c **** 	clkn_start();
1048:bluetooth_rxtx.c **** 
1049:bluetooth_rxtx.c **** 	while (!(cc2400_status() & XOSC16M_STABLE));
1050:bluetooth_rxtx.c **** 	cc2400_strobe(SFSON);
1051:bluetooth_rxtx.c **** 	while (!(cc2400_status() & FS_LOCK));
1052:bluetooth_rxtx.c **** 	cc2400_strobe(SRX);
1053:bluetooth_rxtx.c **** #ifdef UBERTOOTH_ONE
1054:bluetooth_rxtx.c **** 	PAEN_SET;
1055:bluetooth_rxtx.c **** 	HGM_SET;
1056:bluetooth_rxtx.c **** #endif
1057:bluetooth_rxtx.c **** }
1058:bluetooth_rxtx.c **** 
1059:bluetooth_rxtx.c **** /* start buffered tx */
1060:bluetooth_rxtx.c **** static void cc2400_tx_sync(uint32_t sync)
1061:bluetooth_rxtx.c **** {
1062:bluetooth_rxtx.c **** #ifdef TX_ENABLE
1063:bluetooth_rxtx.c **** 	// Bluetooth-like modulation
1064:bluetooth_rxtx.c **** 	cc2400_set(MANAND,  0x7fff);
1065:bluetooth_rxtx.c **** 	cc2400_set(LMTST,   0x2b22);    // LNA and receive mixers test register
ARM GAS  /tmp/ccMPHsjp.s 			page 21


1066:bluetooth_rxtx.c **** 	cc2400_set(MDMTST0, 0x134b);    // no PRNG
1067:bluetooth_rxtx.c **** 
1068:bluetooth_rxtx.c **** 	cc2400_set(GRMDM,   0x0c01);
1069:bluetooth_rxtx.c **** 	// 0 00 01 1 000 00 0 00 0 1
1070:bluetooth_rxtx.c **** 	//      |  | |   |  +--------> CRC off
1071:bluetooth_rxtx.c **** 	//      |  | |   +-----------> sync word: 8 MSB bits of SYNC_WORD
1072:bluetooth_rxtx.c **** 	//      |  | +---------------> 0 preamble bytes of 01010101
1073:bluetooth_rxtx.c **** 	//      |  +-----------------> packet mode
1074:bluetooth_rxtx.c **** 	//      +--------------------> buffered mode
1075:bluetooth_rxtx.c **** 
1076:bluetooth_rxtx.c **** 	cc2400_set(SYNCL,   sync & 0xffff);
1077:bluetooth_rxtx.c **** 	cc2400_set(SYNCH,   (sync >> 16) & 0xffff);
1078:bluetooth_rxtx.c **** 
1079:bluetooth_rxtx.c **** 	cc2400_set(FSDIV,   channel);
1080:bluetooth_rxtx.c **** 	cc2400_set(FREND,   0b1011);    // amplifier level (-7 dBm, picked from hat)
1081:bluetooth_rxtx.c **** 
1082:bluetooth_rxtx.c **** 	if (modulation == MOD_BT_BASIC_RATE) {
1083:bluetooth_rxtx.c **** 		cc2400_set(MDMCTRL, 0x0029);    // 160 kHz frequency deviation
1084:bluetooth_rxtx.c **** 	} else if (modulation == MOD_BT_LOW_ENERGY) {
1085:bluetooth_rxtx.c **** 		cc2400_set(MDMCTRL, 0x0040);    // 250 kHz frequency deviation
1086:bluetooth_rxtx.c **** 	} else {
1087:bluetooth_rxtx.c **** 		/* oops */
1088:bluetooth_rxtx.c **** 		return;
1089:bluetooth_rxtx.c **** 	}
1090:bluetooth_rxtx.c **** 
1091:bluetooth_rxtx.c **** 	clkn_start();
1092:bluetooth_rxtx.c **** 
1093:bluetooth_rxtx.c **** 	while (!(cc2400_status() & XOSC16M_STABLE));
1094:bluetooth_rxtx.c **** 	cc2400_strobe(SFSON);
1095:bluetooth_rxtx.c **** 	while (!(cc2400_status() & FS_LOCK));
1096:bluetooth_rxtx.c **** 
1097:bluetooth_rxtx.c **** #ifdef UBERTOOTH_ONE
1098:bluetooth_rxtx.c **** 	PAEN_SET;
1099:bluetooth_rxtx.c **** #endif
1100:bluetooth_rxtx.c **** 
1101:bluetooth_rxtx.c **** 	while ((cc2400_get(FSMSTATE) & 0x1f) != STATE_STROBE_FS_ON);
1102:bluetooth_rxtx.c **** 	cc2400_strobe(STX);
1103:bluetooth_rxtx.c **** 
1104:bluetooth_rxtx.c **** #endif
1105:bluetooth_rxtx.c **** }
1106:bluetooth_rxtx.c **** 
1107:bluetooth_rxtx.c **** /*
1108:bluetooth_rxtx.c ****  * Transmit a BTLE packet with the specified access address.
1109:bluetooth_rxtx.c ****  *
1110:bluetooth_rxtx.c ****  * All modulation parameters are set within this function. The data
1111:bluetooth_rxtx.c ****  * should not be pre-whitened, but the CRC should be calculated and
1112:bluetooth_rxtx.c ****  * included in the data length.
1113:bluetooth_rxtx.c ****  */
1114:bluetooth_rxtx.c **** void le_transmit(u32 aa, u8 len, u8 *data, u16 ch)
1115:bluetooth_rxtx.c **** {
1116:bluetooth_rxtx.c **** 	unsigned i, j;
1117:bluetooth_rxtx.c **** 	int bit;
1118:bluetooth_rxtx.c **** 	uint16_t jw_channel = 2402;
1119:bluetooth_rxtx.c **** 	jw_channel = ch;
1120:bluetooth_rxtx.c **** 	u8 txbuf[64] = {0, };
1121:bluetooth_rxtx.c **** 	u8 tx_len;
1122:bluetooth_rxtx.c **** 	u8 byte;
ARM GAS  /tmp/ccMPHsjp.s 			page 22


1123:bluetooth_rxtx.c **** 	u16 gio_save;
1124:bluetooth_rxtx.c **** 	//JWHUR tx power control
1125:bluetooth_rxtx.c **** 	u8 tx_pwr = 0x0007;
1126:bluetooth_rxtx.c **** 
1127:bluetooth_rxtx.c **** 	// first four bytes: AA
1128:bluetooth_rxtx.c **** 	for (i = 0; i < 4; ++i) {
1129:bluetooth_rxtx.c **** 		byte = aa & 0xff;
1130:bluetooth_rxtx.c **** 		aa >>= 8;
1131:bluetooth_rxtx.c **** 		txbuf[i] = 0;
1132:bluetooth_rxtx.c **** 		for (j = 0; j < 8; ++j) {
1133:bluetooth_rxtx.c **** 			txbuf[i] |= (byte & 1) << (7 - j);
1134:bluetooth_rxtx.c **** 			byte >>= 1;
1135:bluetooth_rxtx.c **** 		}
1136:bluetooth_rxtx.c **** 	}
1137:bluetooth_rxtx.c **** 
1138:bluetooth_rxtx.c **** 	// whiten the data and copy it into the txbuf
1139:bluetooth_rxtx.c **** 	int idx = whitening_index[btle_channel_index(jw_channel-2402)];
1140:bluetooth_rxtx.c **** 	
1141:bluetooth_rxtx.c **** 	for (i = 0; i < len; ++i) {
1142:bluetooth_rxtx.c **** 		byte = data[i];
1143:bluetooth_rxtx.c **** 		txbuf[i+4] = 0;
1144:bluetooth_rxtx.c **** 		for (j = 0; j < 8; ++j) {
1145:bluetooth_rxtx.c **** 			bit = (byte & 1) ^ whitening[idx];
1146:bluetooth_rxtx.c **** 			idx = (idx + 1) % sizeof(whitening);
1147:bluetooth_rxtx.c **** 			byte >>= 1;
1148:bluetooth_rxtx.c **** 			txbuf[i+4] |= bit << (7 - j);
1149:bluetooth_rxtx.c **** 		}
1150:bluetooth_rxtx.c **** 	}
1151:bluetooth_rxtx.c **** 
1152:bluetooth_rxtx.c **** 	len += 4; // include the AA in len
1153:bluetooth_rxtx.c **** 
1154:bluetooth_rxtx.c **** 	// Bluetooth-like modulation
1155:bluetooth_rxtx.c **** 	cc2400_set(MANAND,  0x7fff);
1156:bluetooth_rxtx.c **** 	cc2400_set(LMTST,   0x2b22);    // LNA and receive mixers test register
1157:bluetooth_rxtx.c **** 	cc2400_set(MDMTST0, 0x134b);    // no PRNG
1158:bluetooth_rxtx.c **** 
1159:bluetooth_rxtx.c **** 	cc2400_set(GRMDM,   0x0c01);
1160:bluetooth_rxtx.c **** 	// 0 00 01 1 001 00 0 00 0 1
1161:bluetooth_rxtx.c **** 	//      |  | |   |  +--------> CRC off
1162:bluetooth_rxtx.c **** 	//      |  | |   +-----------> sync word: 8 MSB bits of SYNC_WORD
1163:bluetooth_rxtx.c **** 	//      |  | +---------------> 0 preamble bytes of 01010101
1164:bluetooth_rxtx.c **** 	//      |  +-----------------> packet mode
1165:bluetooth_rxtx.c **** 	//      +--------------------> buffered mode
1166:bluetooth_rxtx.c **** 
1167:bluetooth_rxtx.c **** 	cc2400_set(FSDIV,   jw_channel);
1168:bluetooth_rxtx.c **** 	// JWHUR cc2400 data sheet about power control
1169:bluetooth_rxtx.c **** 	// lsb 3 bit : dbm
1170:bluetooth_rxtx.c **** 	// 000 : -25
1171:bluetooth_rxtx.c **** 	// 001 : -15
1172:bluetooth_rxtx.c **** 	// 010 : -10
1173:bluetooth_rxtx.c **** 	// 011 : -7
1174:bluetooth_rxtx.c **** 	// 100 : -4.6
1175:bluetooth_rxtx.c **** 	// 101 : -2.8
1176:bluetooth_rxtx.c **** 	// 110 : -1.3
1177:bluetooth_rxtx.c **** 	// 111 : 0
1178:bluetooth_rxtx.c **** 	cc2400_set(FREND, tx_pwr);
1179:bluetooth_rxtx.c **** 	//cc2400_set(FREND,   0b1011);    // amplifier level (-7 dBm, picked from hat)
ARM GAS  /tmp/ccMPHsjp.s 			page 23


1180:bluetooth_rxtx.c **** 	cc2400_set(MDMCTRL, 0x0040);    // 250 kHz frequency deviation
1181:bluetooth_rxtx.c **** 	cc2400_set(INT,     0x0014);    // FIFO_THRESHOLD: 20 bytes
1182:bluetooth_rxtx.c **** 
1183:bluetooth_rxtx.c **** 	// sync byte depends on the first transmitted bit of the AA
1184:bluetooth_rxtx.c **** 	if (aa & 1)
1185:bluetooth_rxtx.c **** 		cc2400_set(SYNCH,   0xaaaa);
1186:bluetooth_rxtx.c **** 	else
1187:bluetooth_rxtx.c **** 		cc2400_set(SYNCH,   0x5555);
1188:bluetooth_rxtx.c **** 
1189:bluetooth_rxtx.c **** 	// set GIO to FIFO_FULL
1190:bluetooth_rxtx.c **** 	gio_save = cc2400_get(IOCFG);
1191:bluetooth_rxtx.c **** 	cc2400_set(IOCFG, (GIO_FIFO_FULL << 9) | (gio_save & 0x1ff));
1192:bluetooth_rxtx.c **** 
1193:bluetooth_rxtx.c **** 	while (!(cc2400_status() & XOSC16M_STABLE));
1194:bluetooth_rxtx.c **** 	cc2400_strobe(SFSON);
1195:bluetooth_rxtx.c **** 	while (!(cc2400_status() & FS_LOCK));
1196:bluetooth_rxtx.c **** 	TXLED_SET;
1197:bluetooth_rxtx.c **** #ifdef UBERTOOTH_ONE
1198:bluetooth_rxtx.c **** 	PAEN_SET;
1199:bluetooth_rxtx.c **** #endif
1200:bluetooth_rxtx.c **** 	while ((cc2400_get(FSMSTATE) & 0x1f) != STATE_STROBE_FS_ON);
1201:bluetooth_rxtx.c **** 	cc2400_strobe(STX);
1202:bluetooth_rxtx.c **** 
1203:bluetooth_rxtx.c **** 	// put the packet into the FIFO
1204:bluetooth_rxtx.c **** 	
1205:bluetooth_rxtx.c **** /*	for (i = 0; i < len; i += 16) {
1206:bluetooth_rxtx.c **** 		while (GIO6) ; // wait for the FIFO to drain (FIFO_FULL false)
1207:bluetooth_rxtx.c **** 		tx_len = len - i;
1208:bluetooth_rxtx.c **** 		if (tx_len >16)
1209:bluetooth_rxtx.c **** 			tx_len = 16;
1210:bluetooth_rxtx.c **** 		cc2400_fifo_write(tx_len, txbuf + i);
1211:bluetooth_rxtx.c **** 	}*/
1212:bluetooth_rxtx.c **** 
1213:bluetooth_rxtx.c **** 	//JWHUR cc2400 fifo write
1214:bluetooth_rxtx.c **** 	while (GIO6) ;
1215:bluetooth_rxtx.c **** 	if (len > 46) len = 46;
1216:bluetooth_rxtx.c **** 	cc2400_fifo_write(len, txbuf);
1217:bluetooth_rxtx.c **** 
1218:bluetooth_rxtx.c **** 	while ((cc2400_get(FSMSTATE) & 0x1f) != STATE_STROBE_FS_ON);
1219:bluetooth_rxtx.c **** 	TXLED_CLR;
1220:bluetooth_rxtx.c **** 
1221:bluetooth_rxtx.c **** 	cc2400_strobe(SRFOFF);
1222:bluetooth_rxtx.c **** 	while ((cc2400_status() & FS_LOCK));
1223:bluetooth_rxtx.c **** 
1224:bluetooth_rxtx.c **** #ifdef UBERTOOTH_ONE
1225:bluetooth_rxtx.c **** 	PAEN_CLR;
1226:bluetooth_rxtx.c **** #endif
1227:bluetooth_rxtx.c **** 
1228:bluetooth_rxtx.c **** 	// reset GIO
1229:bluetooth_rxtx.c **** 	cc2400_set(IOCFG, gio_save);
1230:bluetooth_rxtx.c **** }
1231:bluetooth_rxtx.c **** 
1232:bluetooth_rxtx.c **** void le_jam(void) {
1233:bluetooth_rxtx.c **** #ifdef TX_ENABLE
1234:bluetooth_rxtx.c **** 	cc2400_set(MANAND,  0x7fff);
1235:bluetooth_rxtx.c **** 	cc2400_set(LMTST,   0x2b22);    // LNA and receive mixers test register
1236:bluetooth_rxtx.c **** 	cc2400_set(MDMTST0, 0x234b);    // PRNG, 1 MHz offset
ARM GAS  /tmp/ccMPHsjp.s 			page 24


1237:bluetooth_rxtx.c **** 
1238:bluetooth_rxtx.c **** 	cc2400_set(GRMDM,   0x0c01);
1239:bluetooth_rxtx.c **** 	// 0 00 01 1 000 00 0 00 0 1
1240:bluetooth_rxtx.c **** 	//      |  | |   |  +--------> CRC off
1241:bluetooth_rxtx.c **** 	//      |  | |   +-----------> sync word: 8 MSB bits of SYNC_WORD
1242:bluetooth_rxtx.c **** 	//      |  | +---------------> 0 preamble bytes of 01010101
1243:bluetooth_rxtx.c **** 	//      |  +-----------------> packet mode
1244:bluetooth_rxtx.c **** 	//      +--------------------> buffered mode
1245:bluetooth_rxtx.c **** 
1246:bluetooth_rxtx.c **** 	// cc2400_set(FSDIV,   channel);
1247:bluetooth_rxtx.c **** 	cc2400_set(FREND,   0b1011);    // amplifier level (-7 dBm, picked from hat)
1248:bluetooth_rxtx.c **** 	cc2400_set(MDMCTRL, 0x0040);    // 250 kHz frequency deviation
1249:bluetooth_rxtx.c **** 
1250:bluetooth_rxtx.c **** 	while (!(cc2400_status() & XOSC16M_STABLE));
1251:bluetooth_rxtx.c **** 	cc2400_strobe(SFSON);
1252:bluetooth_rxtx.c **** 	while (!(cc2400_status() & FS_LOCK));
1253:bluetooth_rxtx.c **** 	TXLED_SET;
1254:bluetooth_rxtx.c **** #ifdef UBERTOOTH_ONE
1255:bluetooth_rxtx.c **** 	PAEN_SET;
1256:bluetooth_rxtx.c **** #endif
1257:bluetooth_rxtx.c **** 	while ((cc2400_get(FSMSTATE) & 0x1f) != STATE_STROBE_FS_ON);
1258:bluetooth_rxtx.c **** 	cc2400_strobe(STX);
1259:bluetooth_rxtx.c **** #endif
1260:bluetooth_rxtx.c **** }
1261:bluetooth_rxtx.c **** 
1262:bluetooth_rxtx.c **** /* TODO - return whether hop happened, or should caller have to keep
1263:bluetooth_rxtx.c ****  * track of this? */
1264:bluetooth_rxtx.c **** void hop(void)
1265:bluetooth_rxtx.c **** {
1266:bluetooth_rxtx.c **** 	do_hop = 0;
1267:bluetooth_rxtx.c **** 	last_hop = clkn;
1268:bluetooth_rxtx.c **** 
1269:bluetooth_rxtx.c **** 	// No hopping, if channel is set correctly, do nothing
1270:bluetooth_rxtx.c **** 	if (hop_mode == HOP_NONE) {
1271:bluetooth_rxtx.c **** 		if (cc2400_get(FSDIV) == (channel - 1))
1272:bluetooth_rxtx.c **** 			return;
1273:bluetooth_rxtx.c **** 	}
1274:bluetooth_rxtx.c **** 	/* Slow sweep (100 hops/sec)
1275:bluetooth_rxtx.c **** 	 * only hop to currently used channels if AFH is enabled
1276:bluetooth_rxtx.c **** 	 */
1277:bluetooth_rxtx.c **** 	else if (hop_mode == HOP_SWEEP) {
1278:bluetooth_rxtx.c **** 		do {
1279:bluetooth_rxtx.c **** 			channel += 32;
1280:bluetooth_rxtx.c **** 			if (channel > 2480)
1281:bluetooth_rxtx.c **** 				channel -= 79;
1282:bluetooth_rxtx.c **** 		} while ( used_channels != 0 && afh_enabled && !( afh_map[(channel-2402)/8] & 0x1<<((channel-2402
1283:bluetooth_rxtx.c **** 	}
1284:bluetooth_rxtx.c **** 
1285:bluetooth_rxtx.c **** 	/* AFH detection
1286:bluetooth_rxtx.c **** 	 * only hop to currently unused channesl
1287:bluetooth_rxtx.c **** 	 */
1288:bluetooth_rxtx.c **** 	else if (hop_mode == HOP_AFH) {
1289:bluetooth_rxtx.c **** 		do {
1290:bluetooth_rxtx.c **** 			channel += 32;
1291:bluetooth_rxtx.c **** 			if (channel > 2480)
1292:bluetooth_rxtx.c **** 				channel -= 79;
1293:bluetooth_rxtx.c **** 		} while( used_channels != 79 && (afh_map[(channel-2402)/8] & 0x1<<((channel-2402)%8)) );
ARM GAS  /tmp/ccMPHsjp.s 			page 25


1294:bluetooth_rxtx.c **** 	}
1295:bluetooth_rxtx.c **** 
1296:bluetooth_rxtx.c **** 	else if (hop_mode == HOP_BLUETOOTH) {
1297:bluetooth_rxtx.c **** 		channel = next_hop(clkn);
1298:bluetooth_rxtx.c **** 	}
1299:bluetooth_rxtx.c **** 
1300:bluetooth_rxtx.c **** 	else if (hop_mode == HOP_BTLE) {
1301:bluetooth_rxtx.c **** 		channel = btle_next_hop(&le);
1302:bluetooth_rxtx.c **** 	}
1303:bluetooth_rxtx.c **** 
1304:bluetooth_rxtx.c **** 	else if (hop_mode == HOP_DIRECT) {
1305:bluetooth_rxtx.c **** 		channel = hop_direct_channel;
1306:bluetooth_rxtx.c **** 	}
1307:bluetooth_rxtx.c **** 	/* IDLE mode, but leave amp on, so don't call cc2400_idle(). */
1308:bluetooth_rxtx.c **** 	cc2400_strobe(SRFOFF);
1309:bluetooth_rxtx.c **** 	while ((cc2400_status() & FS_LOCK)); // need to wait for unlock?
1310:bluetooth_rxtx.c **** 
1311:bluetooth_rxtx.c **** 	/* Retune */
1312:bluetooth_rxtx.c **** 	if(mode == MODE_TX_SYMBOLS)
1313:bluetooth_rxtx.c **** 		cc2400_set(FSDIV, channel);
1314:bluetooth_rxtx.c **** 	else
1315:bluetooth_rxtx.c **** 		cc2400_set(FSDIV, channel - 1);
1316:bluetooth_rxtx.c **** 
1317:bluetooth_rxtx.c **** 	/* Update CS register if hopping.  */
1318:bluetooth_rxtx.c **** 	if (hop_mode > 0) {
1319:bluetooth_rxtx.c **** 		cs_threshold_calc_and_set(channel);
1320:bluetooth_rxtx.c **** 	}
1321:bluetooth_rxtx.c **** 
1322:bluetooth_rxtx.c **** 	/* Wait for lock */
1323:bluetooth_rxtx.c **** 	cc2400_strobe(SFSON);
1324:bluetooth_rxtx.c **** 	while (!(cc2400_status() & FS_LOCK));
1325:bluetooth_rxtx.c **** 
1326:bluetooth_rxtx.c **** 	dma_discard = 1;
1327:bluetooth_rxtx.c **** 
1328:bluetooth_rxtx.c **** 	if(mode == MODE_TX_SYMBOLS)
1329:bluetooth_rxtx.c **** 		cc2400_strobe(STX);
1330:bluetooth_rxtx.c **** 	else
1331:bluetooth_rxtx.c **** 		cc2400_strobe(SRX);
1332:bluetooth_rxtx.c **** }
1333:bluetooth_rxtx.c **** 
1334:bluetooth_rxtx.c **** /* Bluetooth packet monitoring */
1335:bluetooth_rxtx.c **** void bt_stream_rx()
1336:bluetooth_rxtx.c **** {
1337:bluetooth_rxtx.c **** 	int8_t rssi;
1338:bluetooth_rxtx.c **** 	int8_t rssi_at_trigger;
1339:bluetooth_rxtx.c **** 
1340:bluetooth_rxtx.c **** 	RXLED_CLR;
1341:bluetooth_rxtx.c **** 
1342:bluetooth_rxtx.c **** 	queue_init();
1343:bluetooth_rxtx.c **** 	dio_ssp_init();
1344:bluetooth_rxtx.c **** 	dma_init();
1345:bluetooth_rxtx.c **** 	dio_ssp_start();
1346:bluetooth_rxtx.c **** 
1347:bluetooth_rxtx.c **** 	cc2400_rx();
1348:bluetooth_rxtx.c **** 
1349:bluetooth_rxtx.c **** 	cs_trigger_enable();
1350:bluetooth_rxtx.c **** 
ARM GAS  /tmp/ccMPHsjp.s 			page 26


1351:bluetooth_rxtx.c **** 	while ( requested_mode == MODE_RX_SYMBOLS || requested_mode == MODE_BT_FOLLOW )
1352:bluetooth_rxtx.c **** 	{
1353:bluetooth_rxtx.c **** 
1354:bluetooth_rxtx.c **** 		RXLED_CLR;
1355:bluetooth_rxtx.c **** 
1356:bluetooth_rxtx.c **** 		/* Wait for DMA transfer. TODO - need more work on
1357:bluetooth_rxtx.c **** 		 * RSSI. Should send RSSI indications to host even
1358:bluetooth_rxtx.c **** 		 * when not transferring data. That would also keep
1359:bluetooth_rxtx.c **** 		 * the USB stream going. This loop runs 50-80 times
1360:bluetooth_rxtx.c **** 		 * while waiting for DMA, but RSSI sampling does not
1361:bluetooth_rxtx.c **** 		 * cover all the symbols in a DMA transfer. Can not do
1362:bluetooth_rxtx.c **** 		 * RSSI sampling in CS interrupt, but could log time
1363:bluetooth_rxtx.c **** 		 * at multiple trigger points there. The MAX() below
1364:bluetooth_rxtx.c **** 		 * helps with statistics in the case that cs_trigger
1365:bluetooth_rxtx.c **** 		 * happened before the loop started. */
1366:bluetooth_rxtx.c **** 		rssi_reset();
1367:bluetooth_rxtx.c **** 		rssi_at_trigger = INT8_MIN;
1368:bluetooth_rxtx.c **** 		while (!rx_tc) {
1369:bluetooth_rxtx.c **** 			rssi = (int8_t)(cc2400_get(RSSI) >> 8);
1370:bluetooth_rxtx.c **** 			if (cs_trigger && (rssi_at_trigger == INT8_MIN)) {
1371:bluetooth_rxtx.c **** 				rssi = MAX(rssi,(cs_threshold_cur+54));
1372:bluetooth_rxtx.c **** 				rssi_at_trigger = rssi;
1373:bluetooth_rxtx.c **** 			}
1374:bluetooth_rxtx.c **** 			rssi_add(rssi);
1375:bluetooth_rxtx.c **** 
1376:bluetooth_rxtx.c **** 			handle_usb(clkn);
1377:bluetooth_rxtx.c **** 
1378:bluetooth_rxtx.c **** 			/* If timer says time to hop, do it. */
1379:bluetooth_rxtx.c **** 			if (do_hop) {
1380:bluetooth_rxtx.c **** 				hop();
1381:bluetooth_rxtx.c **** 			} else {
1382:bluetooth_rxtx.c **** 				TXLED_CLR;
1383:bluetooth_rxtx.c **** 			}
1384:bluetooth_rxtx.c **** 			/* TODO - set per-channel carrier sense threshold.
1385:bluetooth_rxtx.c **** 			 * Set by firmware or host. */
1386:bluetooth_rxtx.c **** 		}
1387:bluetooth_rxtx.c **** 
1388:bluetooth_rxtx.c **** 		RXLED_SET;
1389:bluetooth_rxtx.c **** 
1390:bluetooth_rxtx.c **** 		if (rx_err) {
1391:bluetooth_rxtx.c **** 			status |= DMA_ERROR;
1392:bluetooth_rxtx.c **** 		}
1393:bluetooth_rxtx.c **** 
1394:bluetooth_rxtx.c **** 		/* Missed a DMA trasfer? */
1395:bluetooth_rxtx.c **** 		if (rx_tc > 1)
1396:bluetooth_rxtx.c **** 			status |= DMA_OVERFLOW;
1397:bluetooth_rxtx.c **** 
1398:bluetooth_rxtx.c **** 		if (dma_discard) {
1399:bluetooth_rxtx.c **** 			status |= DISCARD;
1400:bluetooth_rxtx.c **** 			dma_discard = 0;
1401:bluetooth_rxtx.c **** 		}
1402:bluetooth_rxtx.c **** 
1403:bluetooth_rxtx.c **** 		rssi_iir_update(channel);
1404:bluetooth_rxtx.c **** 
1405:bluetooth_rxtx.c **** 		/* Set squelch hold if there was either a CS trigger, squelch
1406:bluetooth_rxtx.c **** 		 * is disabled, or if the current rssi_max is above the same
1407:bluetooth_rxtx.c **** 		 * threshold. Currently, this is redundant, but allows for
ARM GAS  /tmp/ccMPHsjp.s 			page 27


1408:bluetooth_rxtx.c **** 		 * per-channel or other rssi triggers in the future. */
1409:bluetooth_rxtx.c **** 		if (cs_trigger || cs_no_squelch) {
1410:bluetooth_rxtx.c **** 			status |= CS_TRIGGER;
1411:bluetooth_rxtx.c **** 			cs_trigger = 0;
1412:bluetooth_rxtx.c **** 		}
1413:bluetooth_rxtx.c **** 
1414:bluetooth_rxtx.c **** 		if (rssi_max >= (cs_threshold_cur + 54)) {
1415:bluetooth_rxtx.c **** 			status |= RSSI_TRIGGER;
1416:bluetooth_rxtx.c **** 		}
1417:bluetooth_rxtx.c **** 
1418:bluetooth_rxtx.c **** 		enqueue(BR_PACKET, (uint8_t*)idle_rxbuf);
1419:bluetooth_rxtx.c **** 
1420:bluetooth_rxtx.c **** 		handle_usb(clkn);
1421:bluetooth_rxtx.c **** 		rx_tc = 0;
1422:bluetooth_rxtx.c **** 		rx_err = 0;
1423:bluetooth_rxtx.c **** 	}
1424:bluetooth_rxtx.c **** 
1425:bluetooth_rxtx.c **** 	/* This call is a nop so far. Since bt_rx_stream() starts the
1426:bluetooth_rxtx.c **** 	 * stream, it makes sense that it would stop it. TODO - how
1427:bluetooth_rxtx.c **** 	 * should setup/teardown be handled? Should every new mode be
1428:bluetooth_rxtx.c **** 	 * starting from scratch? */
1429:bluetooth_rxtx.c **** 	dio_ssp_stop();
1430:bluetooth_rxtx.c **** 	cs_trigger_disable();
1431:bluetooth_rxtx.c **** }
1432:bluetooth_rxtx.c **** 
1433:bluetooth_rxtx.c **** static uint8_t reverse8(uint8_t data)
1434:bluetooth_rxtx.c **** {
  76              		.loc 1 1434 0
  77              		.cfi_startproc
  78              		@ args = 0, pretend = 0, frame = 0
  79              		@ frame_needed = 0, uses_anonymous_args = 0
  80              	.LVL5:
  81 0000 10B5     		push	{r4, lr}
  82              		.cfi_def_cfa_offset 8
  83              		.cfi_offset 4, -8
  84              		.cfi_offset 14, -4
  85              	.LVL6:
  86              	.LBB4:
1435:bluetooth_rxtx.c **** 	uint8_t reversed = 0;
1436:bluetooth_rxtx.c **** 
1437:bluetooth_rxtx.c **** 	for(size_t i=0; i<8; i++)
  87              		.loc 1 1437 0
  88 0002 0023     		movs	r3, #0
  89              	.LBE4:
1435:bluetooth_rxtx.c **** 	uint8_t reversed = 0;
  90              		.loc 1 1435 0
  91 0004 1A46     		mov	r2, r3
  92              	.LVL7:
  93              	.L9:
  94              	.LBB5:
1438:bluetooth_rxtx.c **** 	{
1439:bluetooth_rxtx.c **** 		reversed |= ((data >> i) & 0x01) << (7-i);
  95              		.loc 1 1439 0 discriminator 2
  96 0006 40FA03F1 		asr	r1, r0, r3
  97 000a C3F10704 		rsb	r4, r3, #7
  98 000e 01F00101 		and	r1, r1, #1
  99 0012 A140     		lsls	r1, r1, r4
ARM GAS  /tmp/ccMPHsjp.s 			page 28


1437:bluetooth_rxtx.c **** 	{
 100              		.loc 1 1437 0 discriminator 2
 101 0014 0133     		adds	r3, r3, #1
 102              	.LVL8:
 103              		.loc 1 1439 0 discriminator 2
 104 0016 0A43     		orrs	r2, r2, r1
 105              	.LVL9:
1437:bluetooth_rxtx.c **** 	{
 106              		.loc 1 1437 0 discriminator 2
 107 0018 082B     		cmp	r3, #8
 108              		.loc 1 1439 0 discriminator 2
 109 001a D2B2     		uxtb	r2, r2
 110              	.LVL10:
1437:bluetooth_rxtx.c **** 	{
 111              		.loc 1 1437 0 discriminator 2
 112 001c F3D1     		bne	.L9
 113              	.LBE5:
1440:bluetooth_rxtx.c **** 	}
1441:bluetooth_rxtx.c **** 
1442:bluetooth_rxtx.c **** 	return reversed;
1443:bluetooth_rxtx.c **** }
 114              		.loc 1 1443 0
 115 001e 1046     		mov	r0, r2
 116              	.LVL11:
 117 0020 10BD     		pop	{r4, pc}
 118              		.cfi_endproc
 119              	.LFE16:
 121              		.section	.text.cc2400_rx,"ax",%progbits
 122              		.align	1
 123              		.thumb
 124              		.thumb_func
 126              	cc2400_rx:
 127              	.LFB9:
 946:bluetooth_rxtx.c **** 	u16 mdmctrl = 0;
 128              		.loc 1 946 0
 129              		.cfi_startproc
 130              		@ args = 0, pretend = 0, frame = 0
 131              		@ frame_needed = 0, uses_anonymous_args = 0
 132 0000 38B5     		push	{r3, r4, r5, lr}
 133              		.cfi_def_cfa_offset 16
 134              		.cfi_offset 3, -16
 135              		.cfi_offset 4, -12
 136              		.cfi_offset 5, -8
 137              		.cfi_offset 14, -4
 138              	.LVL12:
 949:bluetooth_rxtx.c **** 		if (modulation == MOD_BT_BASIC_RATE) {
 139              		.loc 1 949 0
 140 0002 254B     		ldr	r3, .L24
 141 0004 254C     		ldr	r4, .L24+4
 142 0006 1A78     		ldrb	r2, [r3]	@ zero_extendqisi2
 143 0008 12B1     		cbz	r2, .L12
 949:bluetooth_rxtx.c **** 		if (modulation == MOD_BT_BASIC_RATE) {
 144              		.loc 1 949 0 is_stmt 0 discriminator 1
 145 000a 1A78     		ldrb	r2, [r3]	@ zero_extendqisi2
 146 000c 012A     		cmp	r2, #1
 147 000e 28D1     		bne	.L13
 148              	.L12:
ARM GAS  /tmp/ccMPHsjp.s 			page 29


 950:bluetooth_rxtx.c **** 			mdmctrl = 0x0029; // 160 kHz frequency deviation
 149              		.loc 1 950 0 is_stmt 1
 150 0010 1B78     		ldrb	r3, [r3]	@ zero_extendqisi2
 151 0012 33B1     		cbz	r3, .L19
 952:bluetooth_rxtx.c **** 			mdmctrl = 0x0040; // 250 kHz frequency deviation
 152              		.loc 1 952 0
 153 0014 204B     		ldr	r3, .L24
 154 0016 1D78     		ldrb	r5, [r3]	@ zero_extendqisi2
 947:bluetooth_rxtx.c **** 
 155              		.loc 1 947 0
 156 0018 012D     		cmp	r5, #1
 157 001a 0CBF     		ite	eq
 158 001c 4025     		moveq	r5, #64
 159 001e 0025     		movne	r5, #0
 160 0020 00E0     		b	.L14
 161              	.L19:
 951:bluetooth_rxtx.c **** 		} else if (modulation == MOD_BT_LOW_ENERGY) {
 162              		.loc 1 951 0
 163 0022 2925     		movs	r5, #41
 164              	.L14:
 165              	.LVL13:
 955:bluetooth_rxtx.c **** 		cc2400_set(LMTST,   0x2b22);
 166              		.loc 1 955 0
 167 0024 0D20     		movs	r0, #13
 168 0026 47F6FF71 		movw	r1, #32767
 169 002a FFF7FEFF 		bl	cc2400_set
 170              	.LVL14:
 956:bluetooth_rxtx.c **** 		cc2400_set(MDMTST0, 0x134b); // without PRNG 16 MAX MIN PAIRS
 171              		.loc 1 956 0
 172 002e 1220     		movs	r0, #18
 173 0030 42F62231 		movw	r1, #11042
 174 0034 FFF7FEFF 		bl	cc2400_set
 175              	.LVL15:
 957:bluetooth_rxtx.c **** 		cc2400_set(GRMDM,   0x0101); // un-buffered mode, GFSK
 176              		.loc 1 957 0
 177 0038 1420     		movs	r0, #20
 178 003a 41F24B31 		movw	r1, #4939
 179 003e FFF7FEFF 		bl	cc2400_set
 180              	.LVL16:
 958:bluetooth_rxtx.c **** 		// 0 00 00 0 010 00 0 00 0 1
 181              		.loc 1 958 0
 182 0042 2020     		movs	r0, #32
 183 0044 40F20111 		movw	r1, #257
 184 0048 FFF7FEFF 		bl	cc2400_set
 185              	.LVL17:
 965:bluetooth_rxtx.c **** 		cc2400_set(MDMCTRL, mdmctrl);
 186              		.loc 1 965 0
 187 004c 2188     		ldrh	r1, [r4]
 188 004e 0220     		movs	r0, #2
 189 0050 89B2     		uxth	r1, r1
 190 0052 0139     		subs	r1, r1, #1
 191 0054 89B2     		uxth	r1, r1
 192 0056 FFF7FEFF 		bl	cc2400_set
 193              	.LVL18:
 966:bluetooth_rxtx.c **** 	}
 194              		.loc 1 966 0
 195 005a 0320     		movs	r0, #3
ARM GAS  /tmp/ccMPHsjp.s 			page 30


 196 005c 2946     		mov	r1, r5
 197 005e FFF7FEFF 		bl	cc2400_set
 198              	.LVL19:
 199              	.L13:
 970:bluetooth_rxtx.c **** 
 200              		.loc 1 970 0
 201 0062 2088     		ldrh	r0, [r4]
 202 0064 80B2     		uxth	r0, r0
 203 0066 FFF7FEFF 		bl	cs_threshold_calc_and_set
 204              	.LVL20:
 972:bluetooth_rxtx.c **** 
 205              		.loc 1 972 0
 206 006a FFF7FEFF 		bl	clkn_start
 207              	.LVL21:
 208              	.L16:
 974:bluetooth_rxtx.c **** 	cc2400_strobe(SFSON);
 209              		.loc 1 974 0 discriminator 1
 210 006e FFF7FEFF 		bl	cc2400_status
 211              	.LVL22:
 212 0072 4206     		lsls	r2, r0, #25
 213 0074 FBD5     		bpl	.L16
 975:bluetooth_rxtx.c **** 	while (!(cc2400_status() & FS_LOCK));
 214              		.loc 1 975 0
 215 0076 6120     		movs	r0, #97
 216 0078 FFF7FEFF 		bl	cc2400_strobe
 217              	.LVL23:
 218              	.L18:
 976:bluetooth_rxtx.c **** 	cc2400_strobe(SRX);
 219              		.loc 1 976 0 discriminator 1
 220 007c FFF7FEFF 		bl	cc2400_status
 221              	.LVL24:
 222 0080 4307     		lsls	r3, r0, #29
 223 0082 FBD5     		bpl	.L18
 977:bluetooth_rxtx.c **** #ifdef UBERTOOTH_ONE
 224              		.loc 1 977 0
 225 0084 6220     		movs	r0, #98
 226 0086 FFF7FEFF 		bl	cc2400_strobe
 227              	.LVL25:
 979:bluetooth_rxtx.c **** 	HGM_SET;
 228              		.loc 1 979 0
 229 008a 054B     		ldr	r3, .L24+8
 230 008c 8022     		movs	r2, #128
 231 008e 1A60     		str	r2, [r3]
 980:bluetooth_rxtx.c **** #endif
 232              		.loc 1 980 0
 233 0090 4FF48072 		mov	r2, #256
 234 0094 1A60     		str	r2, [r3]
 235 0096 38BD     		pop	{r3, r4, r5, pc}
 236              	.L25:
 237              		.align	2
 238              	.L24:
 239 0098 00000000 		.word	.LANCHOR0
 240 009c 00000000 		.word	.LANCHOR1
 241 00a0 58C00920 		.word	537509976
 242              		.cfi_endproc
 243              	.LFE9:
 245              		.section	.text.cc2400_rx_sync,"ax",%progbits
ARM GAS  /tmp/ccMPHsjp.s 			page 31


 246              		.align	1
 247              		.thumb
 248              		.thumb_func
 250              	cc2400_rx_sync:
 251              	.LFB10:
 986:bluetooth_rxtx.c **** 	u16 grmdm, mdmctrl;
 252              		.loc 1 986 0
 253              		.cfi_startproc
 254              		@ args = 0, pretend = 0, frame = 0
 255              		@ frame_needed = 0, uses_anonymous_args = 0
 256              	.LVL26:
 257 0000 70B5     		push	{r4, r5, r6, lr}
 258              		.cfi_def_cfa_offset 16
 259              		.cfi_offset 4, -16
 260              		.cfi_offset 5, -12
 261              		.cfi_offset 6, -8
 262              		.cfi_offset 14, -4
 989:bluetooth_rxtx.c **** 		mdmctrl = 0x0029; // 160 kHz frequency deviation
 263              		.loc 1 989 0
 264 0002 2A4B     		ldr	r3, .L34
 986:bluetooth_rxtx.c **** 	u16 grmdm, mdmctrl;
 265              		.loc 1 986 0
 266 0004 0446     		mov	r4, r0
 989:bluetooth_rxtx.c **** 		mdmctrl = 0x0029; // 160 kHz frequency deviation
 267              		.loc 1 989 0
 268 0006 1A78     		ldrb	r2, [r3]	@ zero_extendqisi2
 269 0008 32B1     		cbz	r2, .L33
1000:bluetooth_rxtx.c **** 		mdmctrl = 0x0040; // 250 kHz frequency deviation
 270              		.loc 1 1000 0
 271 000a 1B78     		ldrb	r3, [r3]	@ zero_extendqisi2
 272 000c 012B     		cmp	r3, #1
 273 000e 4BD1     		bne	.L26
1001:bluetooth_rxtx.c **** 		grmdm = 0x6561; // un-buffered mode, packet w/ sync word detection
 274              		.loc 1 1001 0
 275 0010 4025     		movs	r5, #64
1002:bluetooth_rxtx.c **** 		// 0 11 00 1 010 11 0 00 0 1
 276              		.loc 1 1002 0
 277 0012 46F26156 		movw	r6, #25953
 278 0016 02E0     		b	.L27
 279              	.L33:
 990:bluetooth_rxtx.c **** 		grmdm = 0x0461; // un-buffered mode, packet w/ sync word detection
 280              		.loc 1 990 0
 281 0018 2925     		movs	r5, #41
 991:bluetooth_rxtx.c **** 		// 0 00 00 1 000 11 0 00 0 1
 282              		.loc 1 991 0
 283 001a 40F26146 		movw	r6, #1121
 284              	.L27:
 285              	.LVL27:
1016:bluetooth_rxtx.c **** 	cc2400_set(LMTST,   0x2b22);
 286              		.loc 1 1016 0
 287 001e 0D20     		movs	r0, #13
 288              	.LVL28:
 289 0020 47F6FF71 		movw	r1, #32767
 290 0024 FFF7FEFF 		bl	cc2400_set
 291              	.LVL29:
1017:bluetooth_rxtx.c **** 
 292              		.loc 1 1017 0
ARM GAS  /tmp/ccMPHsjp.s 			page 32


 293 0028 1220     		movs	r0, #18
 294 002a 42F62231 		movw	r1, #11042
 295 002e FFF7FEFF 		bl	cc2400_set
 296              	.LVL30:
1019:bluetooth_rxtx.c **** 	//cc2400_set(MDMTST0, 0x124b);
 297              		.loc 1 1019 0
 298 0032 1420     		movs	r0, #20
 299 0034 41F24B01 		movw	r1, #4171
 300 0038 FFF7FEFF 		bl	cc2400_set
 301              	.LVL31:
1033:bluetooth_rxtx.c **** 
 302              		.loc 1 1033 0
 303 003c 2020     		movs	r0, #32
 304 003e 3146     		mov	r1, r6
 305 0040 FFF7FEFF 		bl	cc2400_set
 306              	.LVL32:
1035:bluetooth_rxtx.c **** 	cc2400_set(SYNCH,   (sync >> 16) & 0xffff);
 307              		.loc 1 1035 0
 308 0044 A1B2     		uxth	r1, r4
 309 0046 2C20     		movs	r0, #44
 310 0048 FFF7FEFF 		bl	cc2400_set
 311              	.LVL33:
1036:bluetooth_rxtx.c **** 
 312              		.loc 1 1036 0
 313 004c 210C     		lsrs	r1, r4, #16
1038:bluetooth_rxtx.c **** 	cc2400_set(MDMCTRL, mdmctrl);
 314              		.loc 1 1038 0
 315 004e 184C     		ldr	r4, .L34+4
 316              	.LVL34:
1036:bluetooth_rxtx.c **** 
 317              		.loc 1 1036 0
 318 0050 2D20     		movs	r0, #45
 319 0052 FFF7FEFF 		bl	cc2400_set
 320              	.LVL35:
1038:bluetooth_rxtx.c **** 	cc2400_set(MDMCTRL, mdmctrl);
 321              		.loc 1 1038 0
 322 0056 2188     		ldrh	r1, [r4]
 323 0058 0220     		movs	r0, #2
 324 005a 89B2     		uxth	r1, r1
 325 005c 0139     		subs	r1, r1, #1
 326 005e 89B2     		uxth	r1, r1
 327 0060 FFF7FEFF 		bl	cc2400_set
 328              	.LVL36:
1039:bluetooth_rxtx.c **** 
 329              		.loc 1 1039 0
 330 0064 0320     		movs	r0, #3
 331 0066 2946     		mov	r1, r5
 332 0068 FFF7FEFF 		bl	cc2400_set
 333              	.LVL37:
1042:bluetooth_rxtx.c **** 
 334              		.loc 1 1042 0
 335 006c 0620     		movs	r0, #6
 336 006e 3F21     		movs	r1, #63
 337 0070 FFF7FEFF 		bl	cc2400_set
 338              	.LVL38:
1045:bluetooth_rxtx.c **** 
 339              		.loc 1 1045 0
ARM GAS  /tmp/ccMPHsjp.s 			page 33


 340 0074 2088     		ldrh	r0, [r4]
 341 0076 80B2     		uxth	r0, r0
 342 0078 FFF7FEFF 		bl	cs_threshold_calc_and_set
 343              	.LVL39:
1047:bluetooth_rxtx.c **** 
 344              		.loc 1 1047 0
 345 007c FFF7FEFF 		bl	clkn_start
 346              	.LVL40:
 347              	.L30:
1049:bluetooth_rxtx.c **** 	cc2400_strobe(SFSON);
 348              		.loc 1 1049 0 discriminator 1
 349 0080 FFF7FEFF 		bl	cc2400_status
 350              	.LVL41:
 351 0084 4006     		lsls	r0, r0, #25
 352 0086 FBD5     		bpl	.L30
1050:bluetooth_rxtx.c **** 	while (!(cc2400_status() & FS_LOCK));
 353              		.loc 1 1050 0
 354 0088 6120     		movs	r0, #97
 355 008a FFF7FEFF 		bl	cc2400_strobe
 356              	.LVL42:
 357              	.L32:
1051:bluetooth_rxtx.c **** 	cc2400_strobe(SRX);
 358              		.loc 1 1051 0 discriminator 1
 359 008e FFF7FEFF 		bl	cc2400_status
 360              	.LVL43:
 361 0092 4107     		lsls	r1, r0, #29
 362 0094 FBD5     		bpl	.L32
1052:bluetooth_rxtx.c **** #ifdef UBERTOOTH_ONE
 363              		.loc 1 1052 0
 364 0096 6220     		movs	r0, #98
 365 0098 FFF7FEFF 		bl	cc2400_strobe
 366              	.LVL44:
1054:bluetooth_rxtx.c **** 	HGM_SET;
 367              		.loc 1 1054 0
 368 009c 054B     		ldr	r3, .L34+8
 369 009e 8022     		movs	r2, #128
 370 00a0 1A60     		str	r2, [r3]
1055:bluetooth_rxtx.c **** #endif
 371              		.loc 1 1055 0
 372 00a2 4FF48072 		mov	r2, #256
 373 00a6 1A60     		str	r2, [r3]
 374              	.LVL45:
 375              	.L26:
 376 00a8 70BD     		pop	{r4, r5, r6, pc}
 377              	.L35:
 378 00aa 00BF     		.align	2
 379              	.L34:
 380 00ac 00000000 		.word	.LANCHOR0
 381 00b0 00000000 		.word	.LANCHOR1
 382 00b4 58C00920 		.word	537509976
 383              		.cfi_endproc
 384              	.LFE10:
 386              		.section	.text.enqueue,"ax",%progbits
 387              		.align	1
 388              		.thumb
 389              		.thumb_func
 391              	enqueue:
ARM GAS  /tmp/ccMPHsjp.s 			page 34


 392              	.LFB0:
 134:bluetooth_rxtx.c **** 	usb_pkt_rx* f = usb_enqueue();
 393              		.loc 1 134 0
 394              		.cfi_startproc
 395              		@ args = 0, pretend = 0, frame = 0
 396              		@ frame_needed = 0, uses_anonymous_args = 0
 397              	.LVL46:
 398 0000 F8B5     		push	{r3, r4, r5, r6, r7, lr}
 399              		.cfi_def_cfa_offset 24
 400              		.cfi_offset 3, -24
 401              		.cfi_offset 4, -20
 402              		.cfi_offset 5, -16
 403              		.cfi_offset 6, -12
 404              		.cfi_offset 7, -8
 405              		.cfi_offset 14, -4
 134:bluetooth_rxtx.c **** 	usb_pkt_rx* f = usb_enqueue();
 406              		.loc 1 134 0
 407 0002 0646     		mov	r6, r0
 408 0004 0F46     		mov	r7, r1
 135:bluetooth_rxtx.c **** 	
 409              		.loc 1 135 0
 410 0006 FFF7FEFF 		bl	usb_enqueue
 411              	.LVL47:
 412 000a 1E4D     		ldr	r5, .L41
 138:bluetooth_rxtx.c **** 		status |= FIFO_OVERFLOW;
 413              		.loc 1 138 0
 414 000c 0446     		mov	r4, r0
 415 000e 20B9     		cbnz	r0, .L37
 139:bluetooth_rxtx.c **** 		return 0;
 416              		.loc 1 139 0
 417 0010 6B78     		ldrb	r3, [r5, #1]	@ zero_extendqisi2
 418 0012 43F00403 		orr	r3, r3, #4
 419 0016 6B70     		strb	r3, [r5, #1]
 140:bluetooth_rxtx.c **** 	}
 420              		.loc 1 140 0
 421 0018 F8BD     		pop	{r3, r4, r5, r6, r7, pc}
 422              	.LVL48:
 423              	.L37:
 144:bluetooth_rxtx.c **** 		f->clkn_high = (clkn >> 20) & 0xff;
 424              		.loc 1 144 0
 425 001a 042E     		cmp	r6, #4
 143:bluetooth_rxtx.c **** 	if(type == SPECAN) {
 426              		.loc 1 143 0
 427 001c 0670     		strb	r6, [r0]
 144:bluetooth_rxtx.c **** 		f->clkn_high = (clkn >> 20) & 0xff;
 428              		.loc 1 144 0
 429 001e 0ED1     		bne	.L39
 145:bluetooth_rxtx.c **** 		f->clk100ns = CLK100NS;
 430              		.loc 1 145 0
 431 0020 194B     		ldr	r3, .L41+4
 146:bluetooth_rxtx.c **** 	} else {
 432              		.loc 1 146 0
 433 0022 40F63541 		movw	r1, #3125
 145:bluetooth_rxtx.c **** 		f->clk100ns = CLK100NS;
 434              		.loc 1 145 0
 435 0026 1A68     		ldr	r2, [r3]
 436 0028 120D     		lsrs	r2, r2, #20
ARM GAS  /tmp/ccMPHsjp.s 			page 35


 437 002a C270     		strb	r2, [r0, #3]
 146:bluetooth_rxtx.c **** 	} else {
 438              		.loc 1 146 0
 439 002c 174A     		ldr	r2, .L41+8
 440 002e 1B68     		ldr	r3, [r3]
 441 0030 1268     		ldr	r2, [r2]
 442 0032 C3F31303 		ubfx	r3, r3, #0, #20
 443 0036 01FB0323 		mla	r3, r1, r3, r2
 444 003a 4360     		str	r3, [r0, #4]
 445 003c 15E0     		b	.L40
 446              	.L39:
 148:bluetooth_rxtx.c **** 		f->clk100ns = idle_buf_clk100ns;
 447              		.loc 1 148 0
 448 003e AB78     		ldrb	r3, [r5, #2]	@ zero_extendqisi2
 449 0040 C370     		strb	r3, [r0, #3]
 149:bluetooth_rxtx.c **** 		f->channel = (uint8_t)((idle_buf_channel - 2402) & 0xff);
 450              		.loc 1 149 0
 451 0042 6B68     		ldr	r3, [r5, #4]
 452 0044 4360     		str	r3, [r0, #4]
 150:bluetooth_rxtx.c **** 		f->rssi_min = rssi_min;
 453              		.loc 1 150 0
 454 0046 2B89     		ldrh	r3, [r5, #8]
 455 0048 9BB2     		uxth	r3, r3
 456 004a 623B     		subs	r3, r3, #98
 457 004c 8370     		strb	r3, [r0, #2]
 151:bluetooth_rxtx.c **** 		f->rssi_max = rssi_max;
 458              		.loc 1 151 0
 459 004e 104B     		ldr	r3, .L41+12
 460 0050 1B78     		ldrb	r3, [r3]	@ zero_extendqisi2
 461 0052 4372     		strb	r3, [r0, #9]
 152:bluetooth_rxtx.c **** 		f->rssi_avg = rssi_get_avg(idle_buf_channel);
 462              		.loc 1 152 0
 463 0054 0F4B     		ldr	r3, .L41+16
 464 0056 1B78     		ldrb	r3, [r3]	@ zero_extendqisi2
 465 0058 0372     		strb	r3, [r0, #8]
 153:bluetooth_rxtx.c **** 		f->rssi_count = rssi_count;
 466              		.loc 1 153 0
 467 005a 2889     		ldrh	r0, [r5, #8]
 468              	.LVL49:
 469 005c 80B2     		uxth	r0, r0
 470 005e FFF7FEFF 		bl	rssi_get_avg
 471              	.LVL50:
 154:bluetooth_rxtx.c **** 	}
 472              		.loc 1 154 0
 473 0062 0D4B     		ldr	r3, .L41+20
 153:bluetooth_rxtx.c **** 		f->rssi_count = rssi_count;
 474              		.loc 1 153 0
 475 0064 A072     		strb	r0, [r4, #10]
 154:bluetooth_rxtx.c **** 	}
 476              		.loc 1 154 0
 477 0066 1B78     		ldrb	r3, [r3]	@ zero_extendqisi2
 478 0068 E372     		strb	r3, [r4, #11]
 479              	.L40:
 157:bluetooth_rxtx.c **** 
 480              		.loc 1 157 0
 481 006a 04F10E00 		add	r0, r4, #14
 482 006e 3946     		mov	r1, r7
ARM GAS  /tmp/ccMPHsjp.s 			page 36


 483 0070 3222     		movs	r2, #50
 484 0072 FFF7FEFF 		bl	memcpy
 485              	.LVL51:
 159:bluetooth_rxtx.c **** 	status = 0;
 486              		.loc 1 159 0
 487 0076 6B78     		ldrb	r3, [r5, #1]	@ zero_extendqisi2
 162:bluetooth_rxtx.c **** }
 488              		.loc 1 162 0
 489 0078 0120     		movs	r0, #1
 159:bluetooth_rxtx.c **** 	status = 0;
 490              		.loc 1 159 0
 491 007a 6370     		strb	r3, [r4, #1]
 160:bluetooth_rxtx.c **** 
 492              		.loc 1 160 0
 493 007c 0023     		movs	r3, #0
 494 007e 6B70     		strb	r3, [r5, #1]
 163:bluetooth_rxtx.c **** 
 495              		.loc 1 163 0
 496 0080 F8BD     		pop	{r3, r4, r5, r6, r7, pc}
 497              	.LVL52:
 498              	.L42:
 499 0082 00BF     		.align	2
 500              	.L41:
 501 0084 00000000 		.word	.LANCHOR0
 502 0088 00000000 		.word	clkn
 503 008c 08400040 		.word	1073758216
 504 0090 00000000 		.word	rssi_min
 505 0094 00000000 		.word	rssi_max
 506 0098 00000000 		.word	rssi_count
 507              		.cfi_endproc
 508              	.LFE0:
 510              		.section	.text.le_set_access_address,"ax",%progbits
 511              		.align	1
 512              		.thumb
 513              		.thumb_func
 515              	le_set_access_address:
 516              	.LFB19:
1444:bluetooth_rxtx.c **** 
1445:bluetooth_rxtx.c **** static uint16_t reverse16(uint16_t data)
1446:bluetooth_rxtx.c **** {
1447:bluetooth_rxtx.c **** 	uint16_t reversed = 0;
1448:bluetooth_rxtx.c **** 
1449:bluetooth_rxtx.c **** 	for(size_t i=0; i<16; i++)
1450:bluetooth_rxtx.c **** 	{
1451:bluetooth_rxtx.c **** 		reversed |= ((data >> i) & 0x01) << (15-i);
1452:bluetooth_rxtx.c **** 	}
1453:bluetooth_rxtx.c **** 
1454:bluetooth_rxtx.c **** 	return reversed;
1455:bluetooth_rxtx.c **** }
1456:bluetooth_rxtx.c **** 
1457:bluetooth_rxtx.c **** /*
1458:bluetooth_rxtx.c ****  * Transmit a BTBR packet with the specified access code.
1459:bluetooth_rxtx.c ****  *
1460:bluetooth_rxtx.c ****  * All modulation parameters are set within this function.
1461:bluetooth_rxtx.c ****  */
1462:bluetooth_rxtx.c **** void br_transmit()
1463:bluetooth_rxtx.c **** {
ARM GAS  /tmp/ccMPHsjp.s 			page 37


1464:bluetooth_rxtx.c **** 	uint16_t gio_save;
1465:bluetooth_rxtx.c **** 
1466:bluetooth_rxtx.c **** 	uint32_t clkn_saved = 0;
1467:bluetooth_rxtx.c **** 
1468:bluetooth_rxtx.c **** 	uint16_t preamble = (target.syncword & 1) == 1 ? 0x5555 : 0xaaaa;
1469:bluetooth_rxtx.c **** 	uint8_t trailer = ((target.syncword >> 63) & 1) == 1 ? 0xaa : 0x55;
1470:bluetooth_rxtx.c **** 
1471:bluetooth_rxtx.c **** 	uint8_t data[16] = {
1472:bluetooth_rxtx.c **** 		reverse8((target.syncword >> 0) & 0xFF),
1473:bluetooth_rxtx.c **** 		reverse8((target.syncword >> 8) & 0xFF),
1474:bluetooth_rxtx.c **** 		reverse8((target.syncword >> 16) & 0xFF),
1475:bluetooth_rxtx.c **** 		reverse8((target.syncword >> 24) & 0xFF),
1476:bluetooth_rxtx.c **** 		reverse8((target.syncword >> 32) & 0xFF),
1477:bluetooth_rxtx.c **** 		reverse8((target.syncword >> 40) & 0xFF),
1478:bluetooth_rxtx.c **** 		reverse8((target.syncword >> 48) & 0xFF),
1479:bluetooth_rxtx.c **** 		reverse8((target.syncword >> 56) & 0xFF),
1480:bluetooth_rxtx.c **** 		reverse8(trailer),
1481:bluetooth_rxtx.c **** 		reverse8(0x77),
1482:bluetooth_rxtx.c **** 		reverse8(0x66),
1483:bluetooth_rxtx.c **** 		reverse8(0x55),
1484:bluetooth_rxtx.c **** 		reverse8(0x44),
1485:bluetooth_rxtx.c **** 		reverse8(0x33),
1486:bluetooth_rxtx.c **** 		reverse8(0x22),
1487:bluetooth_rxtx.c **** 		reverse8(0x11)
1488:bluetooth_rxtx.c **** 	};
1489:bluetooth_rxtx.c **** 
1490:bluetooth_rxtx.c **** 	cc2400_tx_sync(reverse16(preamble));
1491:bluetooth_rxtx.c **** 
1492:bluetooth_rxtx.c **** 	cc2400_set(INT,     0x0014);    // FIFO_THRESHOLD: 20 bytes
1493:bluetooth_rxtx.c **** 
1494:bluetooth_rxtx.c **** 	// set GIO to FIFO_FULL
1495:bluetooth_rxtx.c **** 	gio_save = cc2400_get(IOCFG);
1496:bluetooth_rxtx.c **** 	cc2400_set(IOCFG, (GIO_FIFO_FULL << 9) | (gio_save & 0x1ff));
1497:bluetooth_rxtx.c **** 
1498:bluetooth_rxtx.c **** 	while ( requested_mode == MODE_TX_SYMBOLS )
1499:bluetooth_rxtx.c **** 	{
1500:bluetooth_rxtx.c **** 
1501:bluetooth_rxtx.c **** 		while ((clkn >> 1) == (clkn_saved >> 1) || T0TC < 2250) {
1502:bluetooth_rxtx.c **** 
1503:bluetooth_rxtx.c **** 			// If timer says time to hop, do it.
1504:bluetooth_rxtx.c **** 			if (do_hop) {
1505:bluetooth_rxtx.c **** 				hop();
1506:bluetooth_rxtx.c **** 			}
1507:bluetooth_rxtx.c **** 		}
1508:bluetooth_rxtx.c **** 
1509:bluetooth_rxtx.c **** 		clkn_saved = clkn;
1510:bluetooth_rxtx.c **** 
1511:bluetooth_rxtx.c **** 		TXLED_SET;
1512:bluetooth_rxtx.c **** 
1513:bluetooth_rxtx.c **** 		cc2400_fifo_write(16, data);
1514:bluetooth_rxtx.c **** 
1515:bluetooth_rxtx.c **** 		while ((cc2400_get(FSMSTATE) & 0x1f) != STATE_STROBE_FS_ON);
1516:bluetooth_rxtx.c **** 		TXLED_CLR;
1517:bluetooth_rxtx.c **** 
1518:bluetooth_rxtx.c **** 		cc2400_strobe(SRFOFF);
1519:bluetooth_rxtx.c **** 		while ((cc2400_status() & FS_LOCK));
1520:bluetooth_rxtx.c **** 
ARM GAS  /tmp/ccMPHsjp.s 			page 38


1521:bluetooth_rxtx.c **** 		while (!(cc2400_status() & XOSC16M_STABLE));
1522:bluetooth_rxtx.c **** 		cc2400_strobe(SFSON);
1523:bluetooth_rxtx.c **** 		while (!(cc2400_status() & FS_LOCK));
1524:bluetooth_rxtx.c **** 
1525:bluetooth_rxtx.c **** 		while ((cc2400_get(FSMSTATE) & 0x1f) != STATE_STROBE_FS_ON);
1526:bluetooth_rxtx.c **** 		cc2400_strobe(STX);
1527:bluetooth_rxtx.c **** 
1528:bluetooth_rxtx.c **** 		handle_usb(clkn);
1529:bluetooth_rxtx.c **** 	}
1530:bluetooth_rxtx.c **** 
1531:bluetooth_rxtx.c **** #ifdef UBERTOOTH_ONE
1532:bluetooth_rxtx.c **** 	PAEN_CLR;
1533:bluetooth_rxtx.c **** #endif
1534:bluetooth_rxtx.c **** 
1535:bluetooth_rxtx.c **** 	// reset GIO
1536:bluetooth_rxtx.c **** 	cc2400_set(IOCFG, gio_save);
1537:bluetooth_rxtx.c **** }
1538:bluetooth_rxtx.c **** 
1539:bluetooth_rxtx.c **** /* set LE access address */
1540:bluetooth_rxtx.c **** static void le_set_access_address(u32 aa) {
 517              		.loc 1 1540 0
 518              		.cfi_startproc
 519              		@ args = 0, pretend = 0, frame = 0
 520              		@ frame_needed = 0, uses_anonymous_args = 0
 521              	.LVL53:
 522 0000 10B5     		push	{r4, lr}
 523              		.cfi_def_cfa_offset 8
 524              		.cfi_offset 4, -8
 525              		.cfi_offset 14, -4
1541:bluetooth_rxtx.c **** 	u32 aa_rev;
1542:bluetooth_rxtx.c **** 
1543:bluetooth_rxtx.c **** 	le.access_address = aa;
 526              		.loc 1 1543 0
 527 0002 044C     		ldr	r4, .L44
 528 0004 6060     		str	r0, [r4, #4]
1544:bluetooth_rxtx.c **** 	aa_rev = rbit(aa);
 529              		.loc 1 1544 0
 530 0006 FFF7FEFF 		bl	rbit
 531              	.LVL54:
1545:bluetooth_rxtx.c **** 	le.syncl = aa_rev & 0xffff;
 532              		.loc 1 1545 0
 533 000a 6081     		strh	r0, [r4, #10]	@ movhi
1546:bluetooth_rxtx.c **** 	le.synch = aa_rev >> 16;
 534              		.loc 1 1546 0
 535 000c 000C     		lsrs	r0, r0, #16
 536              	.LVL55:
 537 000e 2081     		strh	r0, [r4, #8]	@ movhi
 538 0010 10BD     		pop	{r4, pc}
 539              	.L45:
 540 0012 00BF     		.align	2
 541              	.L44:
 542 0014 00000000 		.word	.LANCHOR1
 543              		.cfi_endproc
 544              	.LFE19:
 546              		.section	.text.cc2400_idle,"ax",%progbits
 547              		.align	1
 548              		.thumb
ARM GAS  /tmp/ccMPHsjp.s 			page 39


 549              		.thumb_func
 551              	cc2400_idle:
 552              	.LFB8:
 892:bluetooth_rxtx.c **** 	cc2400_strobe(SRFOFF);
 553              		.loc 1 892 0
 554              		.cfi_startproc
 555              		@ args = 0, pretend = 0, frame = 0
 556              		@ frame_needed = 0, uses_anonymous_args = 0
 557 0000 10B5     		push	{r4, lr}
 558              		.cfi_def_cfa_offset 8
 559              		.cfi_offset 4, -8
 560              		.cfi_offset 14, -4
 893:bluetooth_rxtx.c **** 	while ((cc2400_status() & FS_LOCK)); // need to wait for unlock?
 561              		.loc 1 893 0
 562 0002 6420     		movs	r0, #100
 563 0004 FFF7FEFF 		bl	cc2400_strobe
 564              	.LVL56:
 565              	.L48:
 894:bluetooth_rxtx.c **** 
 566              		.loc 1 894 0 discriminator 1
 567 0008 FFF7FEFF 		bl	cc2400_status
 568              	.LVL57:
 569 000c 00F00400 		and	r0, r0, #4
 570 0010 00F0FF04 		and	r4, r0, #255
 571 0014 0028     		cmp	r0, #0
 572 0016 F7D1     		bne	.L48
 897:bluetooth_rxtx.c **** 	HGM_CLR;
 573              		.loc 1 897 0
 574 0018 204B     		ldr	r3, .L49
 575 001a 8022     		movs	r2, #128
 576 001c 1A60     		str	r2, [r3]
 901:bluetooth_rxtx.c **** 	TXLED_CLR;
 577              		.loc 1 901 0
 578 001e 1021     		movs	r1, #16
 898:bluetooth_rxtx.c **** #endif
 579              		.loc 1 898 0
 580 0020 4FF48072 		mov	r2, #256
 581 0024 1A60     		str	r2, [r3]
 901:bluetooth_rxtx.c **** 	TXLED_CLR;
 582              		.loc 1 901 0
 583 0026 43F8201C 		str	r1, [r3, #-32]
 902:bluetooth_rxtx.c **** 	USRLED_CLR;
 584              		.loc 1 902 0
 585 002a 43F8202C 		str	r2, [r3, #-32]
 903:bluetooth_rxtx.c **** 
 586              		.loc 1 903 0
 587 002e 0222     		movs	r2, #2
 588 0030 43F8202C 		str	r2, [r3, #-32]
 905:bluetooth_rxtx.c **** 	dio_ssp_stop();
 589              		.loc 1 905 0
 590 0034 FFF7FEFF 		bl	clkn_stop
 591              	.LVL58:
 906:bluetooth_rxtx.c **** 	cs_reset();
 592              		.loc 1 906 0
 593 0038 FFF7FEFF 		bl	dio_ssp_stop
 594              	.LVL59:
 907:bluetooth_rxtx.c **** 	rssi_reset();
ARM GAS  /tmp/ccMPHsjp.s 			page 40


 595              		.loc 1 907 0
 596 003c FFF7FEFF 		bl	cs_reset
 597              	.LVL60:
 908:bluetooth_rxtx.c **** 
 598              		.loc 1 908 0
 599 0040 FFF7FEFF 		bl	rssi_reset
 600              	.LVL61:
 911:bluetooth_rxtx.c **** 	do_hop = 0;
 601              		.loc 1 911 0
 602 0044 164B     		ldr	r3, .L49+4
 913:bluetooth_rxtx.c **** 	hop_direct_channel = 0;
 603              		.loc 1 913 0
 604 0046 174A     		ldr	r2, .L49+8
 605 0048 40F68911 		movw	r1, #2441
 911:bluetooth_rxtx.c **** 	do_hop = 0;
 606              		.loc 1 911 0
 607 004c 9C72     		strb	r4, [r3, #10]
 912:bluetooth_rxtx.c **** 	channel = 2441;
 608              		.loc 1 912 0
 609 004e DC72     		strb	r4, [r3, #11]
 913:bluetooth_rxtx.c **** 	hop_direct_channel = 0;
 610              		.loc 1 913 0
 611 0050 1180     		strh	r1, [r2]	@ movhi
 915:bluetooth_rxtx.c **** 	requested_channel = 0;
 612              		.loc 1 915 0
 613 0052 9E21     		movs	r1, #158
 914:bluetooth_rxtx.c **** 	hop_timeout = 158;
 614              		.loc 1 914 0
 615 0054 9C81     		strh	r4, [r3, #12]	@ movhi
 915:bluetooth_rxtx.c **** 	requested_channel = 0;
 616              		.loc 1 915 0
 617 0056 A2F84810 		strh	r1, [r2, #72]	@ movhi
 917:bluetooth_rxtx.c **** 
 618              		.loc 1 917 0
 619 005a 40F66211 		movw	r1, #2402
 916:bluetooth_rxtx.c **** 	le_adv_channel = 2402;
 620              		.loc 1 916 0
 621 005e DC81     		strh	r4, [r3, #14]	@ movhi
 917:bluetooth_rxtx.c **** 
 622              		.loc 1 917 0
 623 0060 A2F84A10 		strh	r1, [r2, #74]	@ movhi
 921:bluetooth_rxtx.c **** 	idle_buf_clk100ns = 0;
 624              		.loc 1 921 0
 625 0064 9C70     		strb	r4, [r3, #2]
 922:bluetooth_rxtx.c **** 	idle_buf_channel = 0;
 626              		.loc 1 922 0
 627 0066 5C60     		str	r4, [r3, #4]
 923:bluetooth_rxtx.c **** 	dma_discard = 0;
 628              		.loc 1 923 0
 629 0068 1C81     		strh	r4, [r3, #8]	@ movhi
 924:bluetooth_rxtx.c **** 	status = 0;
 630              		.loc 1 924 0
 631 006a 1C74     		strb	r4, [r3, #16]
 925:bluetooth_rxtx.c **** 
 632              		.loc 1 925 0
 633 006c 5C70     		strb	r4, [r3, #1]
 928:bluetooth_rxtx.c **** 	requested_mode = MODE_IDLE;
ARM GAS  /tmp/ccMPHsjp.s 			page 41


 634              		.loc 1 928 0
 635 006e 5C74     		strb	r4, [r3, #17]
 929:bluetooth_rxtx.c **** 	jam_mode = JAM_NONE;
 636              		.loc 1 929 0
 637 0070 9C74     		strb	r4, [r3, #18]
 930:bluetooth_rxtx.c **** 	ego_mode = EGO_FOLLOW;
 638              		.loc 1 930 0
 639 0072 DC74     		strb	r4, [r3, #19]
 931:bluetooth_rxtx.c **** 
 640              		.loc 1 931 0
 641 0074 1C75     		strb	r4, [r3, #20]
 933:bluetooth_rxtx.c **** 
 642              		.loc 1 933 0
 643 0076 1C70     		strb	r4, [r3]
 936:bluetooth_rxtx.c **** 	high_freq = 2483;
 644              		.loc 1 936 0
 645 0078 4FF41663 		mov	r3, #2400
 646 007c A2F84C30 		strh	r3, [r2, #76]	@ movhi
 937:bluetooth_rxtx.c **** 	rssi_threshold = -30;
 647              		.loc 1 937 0
 648 0080 5333     		adds	r3, r3, #83
 649 0082 A2F84E30 		strh	r3, [r2, #78]	@ movhi
 940:bluetooth_rxtx.c **** 	target.syncword = 0;
 650              		.loc 1 940 0
 651 0086 0849     		ldr	r1, .L49+12
 938:bluetooth_rxtx.c **** 
 652              		.loc 1 938 0
 653 0088 E223     		movs	r3, #226
 654 008a 82F85030 		strb	r3, [r2, #80]
 940:bluetooth_rxtx.c **** 	target.syncword = 0;
 655              		.loc 1 940 0
 656 008e 0022     		movs	r2, #0
 657 0090 0023     		movs	r3, #0
 658 0092 C1E90023 		strd	r2, [r1]
 941:bluetooth_rxtx.c **** }
 659              		.loc 1 941 0
 660 0096 C1E90223 		strd	r2, [r1, #8]
 661 009a 10BD     		pop	{r4, pc}
 662              	.L50:
 663              		.align	2
 664              	.L49:
 665 009c 5CC00920 		.word	537509980
 666 00a0 00000000 		.word	.LANCHOR0
 667 00a4 00000000 		.word	.LANCHOR1
 668 00a8 00000000 		.word	target
 669              		.cfi_endproc
 670              	.LFE8:
 672              		.section	.text.cb_follow_le,"ax",%progbits
 673              		.align	1
 674              		.global	cb_follow_le
 675              		.thumb
 676              		.thumb_func
 678              	cb_follow_le:
 679              	.LFB26:
1547:bluetooth_rxtx.c **** }
1548:bluetooth_rxtx.c **** 
1549:bluetooth_rxtx.c **** /* reset le state, called by bt_generic_le and bt_follow_le() */
ARM GAS  /tmp/ccMPHsjp.s 			page 42


1550:bluetooth_rxtx.c **** void reset_le() {
1551:bluetooth_rxtx.c **** 	le_set_access_address(0x8e89bed6);     // advertising channel access address
1552:bluetooth_rxtx.c **** 	le.crc_init  = 0x555555;               // advertising channel CRCInit
1553:bluetooth_rxtx.c **** 	le.crc_init_reversed = 0xAAAAAA;
1554:bluetooth_rxtx.c **** 	//JWHUR crc verify on
1555:bluetooth_rxtx.c **** 	le.crc_verify = 1;
1556:bluetooth_rxtx.c **** 	le.last_packet = 0;
1557:bluetooth_rxtx.c **** 
1558:bluetooth_rxtx.c **** 	le.link_state = LINK_INACTIVE;
1559:bluetooth_rxtx.c **** 
1560:bluetooth_rxtx.c **** 	le.channel_idx = 0;
1561:bluetooth_rxtx.c **** 	le.channel_increment = 0;
1562:bluetooth_rxtx.c **** 
1563:bluetooth_rxtx.c **** 	le.conn_epoch = 0;
1564:bluetooth_rxtx.c **** 	le.interval_timer = 0;
1565:bluetooth_rxtx.c **** 	le.conn_interval = 0;
1566:bluetooth_rxtx.c **** 	le.conn_interval = 0;
1567:bluetooth_rxtx.c **** 	le.conn_count = 0;
1568:bluetooth_rxtx.c **** 
1569:bluetooth_rxtx.c **** 	le.win_size = 0;
1570:bluetooth_rxtx.c **** 	le.win_offset = 0;
1571:bluetooth_rxtx.c **** 
1572:bluetooth_rxtx.c **** 	le.update_pending = 0;
1573:bluetooth_rxtx.c **** 	le.update_instant = 0;
1574:bluetooth_rxtx.c **** 	le.interval_update = 0;
1575:bluetooth_rxtx.c **** 	le.win_size_update = 0;
1576:bluetooth_rxtx.c **** 	le.win_offset_update = 0;
1577:bluetooth_rxtx.c **** 
1578:bluetooth_rxtx.c **** 	do_hop = 0;
1579:bluetooth_rxtx.c **** }
1580:bluetooth_rxtx.c **** 
1581:bluetooth_rxtx.c **** // reset LE Promisc state
1582:bluetooth_rxtx.c **** void reset_le_promisc(void) {
1583:bluetooth_rxtx.c **** 	memset(&le_promisc, 0, sizeof(le_promisc));
1584:bluetooth_rxtx.c **** 	le_promisc.smallest_hop_interval = 0xffffffff;
1585:bluetooth_rxtx.c **** }
1586:bluetooth_rxtx.c **** 
1587:bluetooth_rxtx.c **** /* generic le mode */
1588:bluetooth_rxtx.c **** void bt_generic_le(u8 active_mode)
1589:bluetooth_rxtx.c **** {
1590:bluetooth_rxtx.c **** 	u8 hold;
1591:bluetooth_rxtx.c **** 	int i, j;
1592:bluetooth_rxtx.c **** 	int8_t rssi, rssi_at_trigger;
1593:bluetooth_rxtx.c **** 
1594:bluetooth_rxtx.c **** 	modulation = MOD_BT_LOW_ENERGY;
1595:bluetooth_rxtx.c **** 	mode = active_mode;
1596:bluetooth_rxtx.c **** 
1597:bluetooth_rxtx.c **** 	reset_le();
1598:bluetooth_rxtx.c **** 
1599:bluetooth_rxtx.c **** 	// enable USB interrupts
1600:bluetooth_rxtx.c **** 	ISER0 = ISER0_ISE_USB;
1601:bluetooth_rxtx.c **** 
1602:bluetooth_rxtx.c **** 	RXLED_CLR;
1603:bluetooth_rxtx.c **** 
1604:bluetooth_rxtx.c **** 	queue_init();
1605:bluetooth_rxtx.c **** 	dio_ssp_init();
1606:bluetooth_rxtx.c **** 	dma_init();
ARM GAS  /tmp/ccMPHsjp.s 			page 43


1607:bluetooth_rxtx.c **** 	dio_ssp_start();
1608:bluetooth_rxtx.c **** 	cc2400_rx();
1609:bluetooth_rxtx.c **** 
1610:bluetooth_rxtx.c **** 	cs_trigger_enable();
1611:bluetooth_rxtx.c **** 
1612:bluetooth_rxtx.c **** 	hold = 0;
1613:bluetooth_rxtx.c **** 
1614:bluetooth_rxtx.c **** 	while (requested_mode == active_mode) {
1615:bluetooth_rxtx.c **** 		if (requested_channel != 0) {
1616:bluetooth_rxtx.c **** 			cc2400_strobe(SRFOFF);
1617:bluetooth_rxtx.c **** 			while ((cc2400_status() & FS_LOCK)); // need to wait for unlock?
1618:bluetooth_rxtx.c **** 
1619:bluetooth_rxtx.c **** 			/* Retune */
1620:bluetooth_rxtx.c **** 			cc2400_set(FSDIV, channel - 1);
1621:bluetooth_rxtx.c **** 
1622:bluetooth_rxtx.c **** 			/* Wait for lock */
1623:bluetooth_rxtx.c **** 			cc2400_strobe(SFSON);
1624:bluetooth_rxtx.c **** 			while (!(cc2400_status() & FS_LOCK));
1625:bluetooth_rxtx.c **** 
1626:bluetooth_rxtx.c **** 			/* RX mode */
1627:bluetooth_rxtx.c **** 			cc2400_strobe(SRX);
1628:bluetooth_rxtx.c **** 
1629:bluetooth_rxtx.c **** 			requested_channel = 0;
1630:bluetooth_rxtx.c **** 		}
1631:bluetooth_rxtx.c **** 
1632:bluetooth_rxtx.c **** 		if (do_hop) {
1633:bluetooth_rxtx.c **** 			hop();
1634:bluetooth_rxtx.c **** 		} else {
1635:bluetooth_rxtx.c **** 			TXLED_CLR;
1636:bluetooth_rxtx.c **** 		}
1637:bluetooth_rxtx.c **** 
1638:bluetooth_rxtx.c **** 		RXLED_CLR;
1639:bluetooth_rxtx.c **** 
1640:bluetooth_rxtx.c **** 		/* Wait for DMA. Meanwhile keep track of RSSI. */
1641:bluetooth_rxtx.c **** 		rssi_reset();
1642:bluetooth_rxtx.c **** 		rssi_at_trigger = INT8_MIN;
1643:bluetooth_rxtx.c **** 		while ((rx_tc == 0) && (rx_err == 0))
1644:bluetooth_rxtx.c **** 		{
1645:bluetooth_rxtx.c **** 			rssi = (int8_t)(cc2400_get(RSSI) >> 8);
1646:bluetooth_rxtx.c **** 			if (cs_trigger && (rssi_at_trigger == INT8_MIN)) {
1647:bluetooth_rxtx.c **** 				rssi = MAX(rssi,(cs_threshold_cur+54));
1648:bluetooth_rxtx.c **** 				rssi_at_trigger = rssi;
1649:bluetooth_rxtx.c **** 			}
1650:bluetooth_rxtx.c **** 			rssi_add(rssi);
1651:bluetooth_rxtx.c **** 		}
1652:bluetooth_rxtx.c **** 
1653:bluetooth_rxtx.c **** 		if (rx_err) {
1654:bluetooth_rxtx.c **** 			status |= DMA_ERROR;
1655:bluetooth_rxtx.c **** 		}
1656:bluetooth_rxtx.c **** 
1657:bluetooth_rxtx.c **** 		/* No DMA transfer? */
1658:bluetooth_rxtx.c **** 		if (!rx_tc)
1659:bluetooth_rxtx.c **** 			goto rx_continue;
1660:bluetooth_rxtx.c **** 
1661:bluetooth_rxtx.c **** 		/* Missed a DMA trasfer? */
1662:bluetooth_rxtx.c **** 		if (rx_tc > 1)
1663:bluetooth_rxtx.c **** 			status |= DMA_OVERFLOW;
ARM GAS  /tmp/ccMPHsjp.s 			page 44


1664:bluetooth_rxtx.c **** 
1665:bluetooth_rxtx.c **** 		rssi_iir_update(channel);
1666:bluetooth_rxtx.c **** 
1667:bluetooth_rxtx.c **** 		/* Set squelch hold if there was either a CS trigger, squelch
1668:bluetooth_rxtx.c **** 		 * is disabled, or if the current rssi_max is above the same
1669:bluetooth_rxtx.c **** 		 * threshold. Currently, this is redundant, but allows for
1670:bluetooth_rxtx.c **** 		 * per-channel or other rssi triggers in the future. */
1671:bluetooth_rxtx.c **** 		if (cs_trigger || cs_no_squelch) {
1672:bluetooth_rxtx.c **** 			status |= CS_TRIGGER;
1673:bluetooth_rxtx.c **** 			hold = CS_HOLD_TIME;
1674:bluetooth_rxtx.c **** 			cs_trigger = 0;
1675:bluetooth_rxtx.c **** 		}
1676:bluetooth_rxtx.c **** 
1677:bluetooth_rxtx.c **** 		if (rssi_max >= (cs_threshold_cur + 54)) {
1678:bluetooth_rxtx.c **** 			status |= RSSI_TRIGGER;
1679:bluetooth_rxtx.c **** 			hold = CS_HOLD_TIME;
1680:bluetooth_rxtx.c **** 		}
1681:bluetooth_rxtx.c **** 
1682:bluetooth_rxtx.c **** 		/* Hold expired? Ignore data. */
1683:bluetooth_rxtx.c **** 		if (hold == 0) {
1684:bluetooth_rxtx.c **** 			goto rx_continue;
1685:bluetooth_rxtx.c **** 		}
1686:bluetooth_rxtx.c **** 		hold--;
1687:bluetooth_rxtx.c **** 
1688:bluetooth_rxtx.c **** 		// copy the previously unpacked symbols to the front of the buffer
1689:bluetooth_rxtx.c **** 		memcpy(unpacked, unpacked + DMA_SIZE*8, DMA_SIZE*8);
1690:bluetooth_rxtx.c **** 
1691:bluetooth_rxtx.c **** 		// unpack the new packet to the end of the buffer
1692:bluetooth_rxtx.c **** 		for (i = 0; i < DMA_SIZE; ++i) {
1693:bluetooth_rxtx.c **** 			/* output one byte for each received symbol (0x00 or 0x01) */
1694:bluetooth_rxtx.c **** 			for (j = 0; j < 8; ++j) {
1695:bluetooth_rxtx.c **** 				unpacked[DMA_SIZE*8 + i * 8 + j] = (idle_rxbuf[i] & 0x80) >> 7;
1696:bluetooth_rxtx.c **** 				idle_rxbuf[i] <<= 1;
1697:bluetooth_rxtx.c **** 			}
1698:bluetooth_rxtx.c **** 		}
1699:bluetooth_rxtx.c **** 
1700:bluetooth_rxtx.c **** 		int ret = data_cb(unpacked);
1701:bluetooth_rxtx.c **** 		if (!ret) break;
1702:bluetooth_rxtx.c **** 
1703:bluetooth_rxtx.c **** 	rx_continue:
1704:bluetooth_rxtx.c **** 		rx_tc = 0;
1705:bluetooth_rxtx.c **** 		rx_err = 0;
1706:bluetooth_rxtx.c **** 	}
1707:bluetooth_rxtx.c **** 
1708:bluetooth_rxtx.c **** 	// disable USB interrupts
1709:bluetooth_rxtx.c **** 	ICER0 = ICER0_ICE_USB;
1710:bluetooth_rxtx.c **** 
1711:bluetooth_rxtx.c **** 	// reset the radio completely
1712:bluetooth_rxtx.c **** 	cc2400_idle();
1713:bluetooth_rxtx.c **** 	dio_ssp_stop();
1714:bluetooth_rxtx.c **** 	cs_trigger_disable();
1715:bluetooth_rxtx.c **** }
1716:bluetooth_rxtx.c **** 
1717:bluetooth_rxtx.c **** //JWHUR rssi tracking
1718:bluetooth_rxtx.c **** void bt_le_sync_rssi(u8 active_mode) 
1719:bluetooth_rxtx.c **** {
1720:bluetooth_rxtx.c **** 	int i;
ARM GAS  /tmp/ccMPHsjp.s 			page 45


1721:bluetooth_rxtx.c **** 	int8_t rssi;
1722:bluetooth_rxtx.c **** 	// channel 37 = 2402, channel 38 = 2426, channel 39 = 2480
1723:bluetooth_rxtx.c **** 	static int restart_jamming = 0;
1724:bluetooth_rxtx.c **** 	u8 rssi_buf[DMA_SIZE] = {0, };
1725:bluetooth_rxtx.c **** 
1726:bluetooth_rxtx.c **** 	if (start_sync >= ((uint32_t)1<<28)) {
1727:bluetooth_rxtx.c **** 		start_sync -= ((uint32_t)1<<28);
1728:bluetooth_rxtx.c **** 		while ((clkn & 0xffffff) >= now_sync || (clkn & 0xffffff) < start_sync);
1729:bluetooth_rxtx.c **** 	} else {
1730:bluetooth_rxtx.c **** 		while ((clkn & 0xffffff) < start_sync);
1731:bluetooth_rxtx.c **** 	}
1732:bluetooth_rxtx.c **** 
1733:bluetooth_rxtx.c **** 	// rssi sampling for only 3000 ms
1734:bluetooth_rxtx.c **** 	uint32_t now = (clkn & 0xffffff);
1735:bluetooth_rxtx.c **** 	uint32_t stop_at = now + 3000 * 10000 / 3125; // millis -> clkn ticks
1736:bluetooth_rxtx.c **** 	int overflow = 0;
1737:bluetooth_rxtx.c **** 	// handle clkn overflow
1738:bluetooth_rxtx.c **** 	if (stop_at >= ((uint32_t)1<<28)) {
1739:bluetooth_rxtx.c **** 		stop_at -= ((uint32_t)1<<28);
1740:bluetooth_rxtx.c **** 		overflow = 1;
1741:bluetooth_rxtx.c **** 	}
1742:bluetooth_rxtx.c **** 
1743:bluetooth_rxtx.c **** 	modulation = MOD_BT_LOW_ENERGY;
1744:bluetooth_rxtx.c **** 	requested_mode = active_mode;
1745:bluetooth_rxtx.c **** 	mode = active_mode;
1746:bluetooth_rxtx.c **** 
1747:bluetooth_rxtx.c **** 	le.link_state = LINK_LISTENING;
1748:bluetooth_rxtx.c **** 
1749:bluetooth_rxtx.c **** 	ISER0 = ISER0_ISE_USB;
1750:bluetooth_rxtx.c **** 	RXLED_CLR;
1751:bluetooth_rxtx.c **** 	queue_init();
1752:bluetooth_rxtx.c **** 	dio_ssp_init();
1753:bluetooth_rxtx.c **** 	dma_init_le();
1754:bluetooth_rxtx.c **** 	dio_ssp_start();
1755:bluetooth_rxtx.c **** 
1756:bluetooth_rxtx.c **** 	cc2400_rx_sync(rbit(le.access_address));
1757:bluetooth_rxtx.c **** 
1758:bluetooth_rxtx.c **** 	requested_channel = 1;
1759:bluetooth_rxtx.c **** 	channel = 2462;
1760:bluetooth_rxtx.c **** 	while (requested_mode == active_mode) {
1761:bluetooth_rxtx.c **** 		if (requested_channel != 0) {
1762:bluetooth_rxtx.c **** 			cc2400_strobe(SRFOFF);
1763:bluetooth_rxtx.c **** 			while ((cc2400_status() & FS_LOCK));
1764:bluetooth_rxtx.c **** 			cc2400_set(FSDIV, channel);
1765:bluetooth_rxtx.c **** 			cc2400_strobe(SFSON);
1766:bluetooth_rxtx.c **** 			while (!(cc2400_status() & FS_LOCK));
1767:bluetooth_rxtx.c **** 			cc2400_strobe(SRX);
1768:bluetooth_rxtx.c **** 			requested_channel = 0;
1769:bluetooth_rxtx.c **** 		}
1770:bluetooth_rxtx.c **** 		RXLED_CLR;
1771:bluetooth_rxtx.c **** 		if (requested_mode != active_mode) {
1772:bluetooth_rxtx.c **** 			goto cleanup;
1773:bluetooth_rxtx.c **** 		}
1774:bluetooth_rxtx.c **** 
1775:bluetooth_rxtx.c **** 		//JWHUR buffering time information
1776:bluetooth_rxtx.c **** 		u32 time_buf1[16] = {0, };
1777:bluetooth_rxtx.c **** 		u32 time_buf2[16] = {0, };
ARM GAS  /tmp/ccMPHsjp.s 			page 46


1778:bluetooth_rxtx.c **** 		u32 time_buf3[16] = {0, };
1779:bluetooth_rxtx.c **** 		u32 time_buf4[16] = {0, };
1780:bluetooth_rxtx.c **** 		for (i = 0; i < DMA_SIZE; i++) {
1781:bluetooth_rxtx.c **** 			if (i<16) time_buf1[i] = CLK100NS;
1782:bluetooth_rxtx.c **** 			if (15<i && i<32) time_buf2[i-16] = CLK100NS;
1783:bluetooth_rxtx.c **** 			if (31<i && i<48) time_buf3[i-32] = CLK100NS;
1784:bluetooth_rxtx.c **** 			if (47<i) time_buf4[i-48] = CLK100NS;
1785:bluetooth_rxtx.c **** 			rssi_buf[i] = (u8)(cc2400_get(RSSI) >> 8);
1786:bluetooth_rxtx.c **** 			//rssi_buf[i] = (u8)(cc2400_get_rev(FREQEST));
1787:bluetooth_rxtx.c **** 			volatile u32 j = 1314; while (--j); // empty for loop ~= 70ns, 598 empty while loop ~= 41.8us, 1
1788:bluetooth_rxtx.c **** 		}
1789:bluetooth_rxtx.c **** 
1790:bluetooth_rxtx.c **** 		RXLED_SET;
1791:bluetooth_rxtx.c **** 
1792:bluetooth_rxtx.c **** 		ICER0 = ICER0_ICE_USB;
1793:bluetooth_rxtx.c **** 		enqueue_with_ts(RSSI_TRACK, (uint8_t *)rssi_buf, CLK100NS);
1794:bluetooth_rxtx.c **** 		enqueue_time((uint8_t *) time_buf1);
1795:bluetooth_rxtx.c **** 		enqueue_time((uint8_t *) time_buf2);
1796:bluetooth_rxtx.c **** 		enqueue_time((uint8_t *) time_buf3);
1797:bluetooth_rxtx.c **** 		enqueue_time((uint8_t *) time_buf4);
1798:bluetooth_rxtx.c **** 		ISER0 = ISER0_ISE_USB;
1799:bluetooth_rxtx.c **** 	
1800:bluetooth_rxtx.c **** 		if (overflow == 0) {
1801:bluetooth_rxtx.c **** 			if ((clkn & 0xffffff) > stop_at)
1802:bluetooth_rxtx.c **** 				goto cleanup;
1803:bluetooth_rxtx.c **** 		} else {
1804:bluetooth_rxtx.c **** 			if ((clkn & 0xffffff) < now_sync && (clkn & 0xffffff) > stop_at)
1805:bluetooth_rxtx.c **** 				goto cleanup;
1806:bluetooth_rxtx.c **** 		}
1807:bluetooth_rxtx.c **** 	
1808:bluetooth_rxtx.c **** 	}
1809:bluetooth_rxtx.c **** cleanup:
1810:bluetooth_rxtx.c **** 	ICER0 = ICER0_ICE_USB;
1811:bluetooth_rxtx.c **** 	cc2400_idle();
1812:bluetooth_rxtx.c **** 	dio_ssp_stop ();
1813:bluetooth_rxtx.c **** 	cs_trigger_disable();
1814:bluetooth_rxtx.c **** }
1815:bluetooth_rxtx.c **** 
1816:bluetooth_rxtx.c **** 
1817:bluetooth_rxtx.c **** void bt_le_sync(u8 active_mode)
1818:bluetooth_rxtx.c **** {
1819:bluetooth_rxtx.c **** 	int i;
1820:bluetooth_rxtx.c **** 	int8_t rssi;
1821:bluetooth_rxtx.c **** 	static int restart_jamming = 0;
1822:bluetooth_rxtx.c **** 	int sync_flag = 0; //JWHUR to detect packet with pdu sync
1823:bluetooth_rxtx.c **** 
1824:bluetooth_rxtx.c **** 	modulation = MOD_BT_LOW_ENERGY;
1825:bluetooth_rxtx.c **** 	mode = active_mode;
1826:bluetooth_rxtx.c **** 
1827:bluetooth_rxtx.c **** 	le.link_state = LINK_LISTENING;
1828:bluetooth_rxtx.c **** 
1829:bluetooth_rxtx.c **** 	// enable USB interrupts
1830:bluetooth_rxtx.c **** 	ISER0 = ISER0_ISE_USB;
1831:bluetooth_rxtx.c **** 
1832:bluetooth_rxtx.c **** 	RXLED_CLR;
1833:bluetooth_rxtx.c **** 
1834:bluetooth_rxtx.c **** 	queue_init();
ARM GAS  /tmp/ccMPHsjp.s 			page 47


1835:bluetooth_rxtx.c **** 	dio_ssp_init();
1836:bluetooth_rxtx.c **** 	dma_init_le();
1837:bluetooth_rxtx.c **** 	dio_ssp_start();
1838:bluetooth_rxtx.c **** 
1839:bluetooth_rxtx.c **** 	cc2400_rx_sync(rbit(le.access_address)); // bit-reversed access address
1840:bluetooth_rxtx.c **** 
1841:bluetooth_rxtx.c **** 	while (requested_mode == active_mode) {
1842:bluetooth_rxtx.c **** 		if (requested_channel != 0) {
1843:bluetooth_rxtx.c **** 			cc2400_strobe(SRFOFF);
1844:bluetooth_rxtx.c **** 			while ((cc2400_status() & FS_LOCK)); // need to wait for unlock?
1845:bluetooth_rxtx.c **** 
1846:bluetooth_rxtx.c **** 			/* Retune */
1847:bluetooth_rxtx.c **** 			cc2400_set(FSDIV, channel - 1);
1848:bluetooth_rxtx.c **** 
1849:bluetooth_rxtx.c **** 			/* Wait for lock */
1850:bluetooth_rxtx.c **** 			cc2400_strobe(SFSON);
1851:bluetooth_rxtx.c **** 			while (!(cc2400_status() & FS_LOCK));
1852:bluetooth_rxtx.c **** 
1853:bluetooth_rxtx.c **** 			/* RX mode */
1854:bluetooth_rxtx.c **** 			cc2400_strobe(SRX);
1855:bluetooth_rxtx.c **** 
1856:bluetooth_rxtx.c **** 			requested_channel = 0;
1857:bluetooth_rxtx.c **** 		}
1858:bluetooth_rxtx.c **** 
1859:bluetooth_rxtx.c **** 		RXLED_CLR;
1860:bluetooth_rxtx.c **** 
1861:bluetooth_rxtx.c **** 		/* Wait for DMA. Meanwhile keep track of RSSI. */
1862:bluetooth_rxtx.c **** 		rssi_reset();
1863:bluetooth_rxtx.c **** 		while ((rx_tc == 0) && (rx_err == 0) && (do_hop == 0) && requested_mode == active_mode)	;
1864:bluetooth_rxtx.c **** 
1865:bluetooth_rxtx.c **** 		rssi = (int8_t)(cc2400_get(RSSI) >> 8);
1866:bluetooth_rxtx.c **** 		rssi_min = rssi_max = rssi;
1867:bluetooth_rxtx.c **** 
1868:bluetooth_rxtx.c **** 		if (requested_mode != active_mode) {
1869:bluetooth_rxtx.c **** 			goto cleanup;
1870:bluetooth_rxtx.c **** 		}
1871:bluetooth_rxtx.c **** 
1872:bluetooth_rxtx.c **** 		if (rx_err) {
1873:bluetooth_rxtx.c **** 			status |= DMA_ERROR;
1874:bluetooth_rxtx.c **** 		}
1875:bluetooth_rxtx.c **** 
1876:bluetooth_rxtx.c **** 		if (do_hop)
1877:bluetooth_rxtx.c **** 			goto rx_flush;
1878:bluetooth_rxtx.c **** 
1879:bluetooth_rxtx.c **** 		/* No DMA transfer? */
1880:bluetooth_rxtx.c **** 		if (!rx_tc)
1881:bluetooth_rxtx.c **** 			continue;
1882:bluetooth_rxtx.c **** 
1883:bluetooth_rxtx.c **** 		/////////////////////
1884:bluetooth_rxtx.c **** 		// process the packet
1885:bluetooth_rxtx.c **** 
1886:bluetooth_rxtx.c **** 		uint32_t packet[48/4+1] = { 0, };
1887:bluetooth_rxtx.c **** 		u8 *p = (u8 *)packet;
1888:bluetooth_rxtx.c **** 		packet[0] = le.access_address;
1889:bluetooth_rxtx.c **** 
1890:bluetooth_rxtx.c **** 		const uint32_t *whit = whitening_word[btle_channel_index(channel-2402)];
1891:bluetooth_rxtx.c **** 		for (i = 0; i < 4; i+= 4) {
ARM GAS  /tmp/ccMPHsjp.s 			page 48


1892:bluetooth_rxtx.c **** 			uint32_t v = rxbuf1[i+0] << 24
1893:bluetooth_rxtx.c **** 					   | rxbuf1[i+1] << 16
1894:bluetooth_rxtx.c **** 					   | rxbuf1[i+2] << 8
1895:bluetooth_rxtx.c **** 					   | rxbuf1[i+3] << 0;
1896:bluetooth_rxtx.c **** 			packet[i/4+1] = rbit(v) ^ whit[i/4];
1897:bluetooth_rxtx.c **** 		}
1898:bluetooth_rxtx.c **** 
1899:bluetooth_rxtx.c **** 		u8 len = (p[5] & 0x3f) + 2;
1900:bluetooth_rxtx.c **** 		if (len > 39)
1901:bluetooth_rxtx.c **** 			goto rx_flush;
1902:bluetooth_rxtx.c **** 
1903:bluetooth_rxtx.c **** 		// transfer the minimum number of bytes from the CC2400
1904:bluetooth_rxtx.c **** 		// this allows us enough time to resume RX for subsequent packets on the same channel
1905:bluetooth_rxtx.c **** 		unsigned total_transfers = ((len + 3) + 4 - 1) / 4;
1906:bluetooth_rxtx.c **** 		if (total_transfers < 11) {
1907:bluetooth_rxtx.c **** 			while (DMACC0DestAddr < (uint32_t)rxbuf1 + 4 * total_transfers && rx_err == 0)
1908:bluetooth_rxtx.c **** 				;
1909:bluetooth_rxtx.c **** 		} else { // max transfers? just wait till DMA's done
1910:bluetooth_rxtx.c **** 			while (DMACC0Config & DMACCxConfig_E && rx_err == 0)
1911:bluetooth_rxtx.c **** 				;
1912:bluetooth_rxtx.c **** 		}
1913:bluetooth_rxtx.c **** 		DIO_SSP_DMACR &= ~SSPDMACR_RXDMAE;
1914:bluetooth_rxtx.c **** 
1915:bluetooth_rxtx.c **** 		// strobe SFSON to allow the resync to occur while we process the packet
1916:bluetooth_rxtx.c **** 		cc2400_strobe(SFSON);
1917:bluetooth_rxtx.c **** 
1918:bluetooth_rxtx.c **** 		// unwhiten the rest of the packet
1919:bluetooth_rxtx.c **** 		for (i = 4; i < 44; i += 4) {
1920:bluetooth_rxtx.c **** 			uint32_t v = rxbuf1[i+0] << 24
1921:bluetooth_rxtx.c **** 					   | rxbuf1[i+1] << 16
1922:bluetooth_rxtx.c **** 					   | rxbuf1[i+2] << 8
1923:bluetooth_rxtx.c **** 					   | rxbuf1[i+3] << 0;
1924:bluetooth_rxtx.c **** 			packet[i/4+1] = rbit(v) ^ whit[i/4];
1925:bluetooth_rxtx.c **** 		}
1926:bluetooth_rxtx.c **** 
1927:bluetooth_rxtx.c **** 		
1928:bluetooth_rxtx.c **** 		if (le.crc_verify) {
1929:bluetooth_rxtx.c **** 			u32 calc_crc = btle_crcgen_lut(le.crc_init_reversed, p + 4, len);
1930:bluetooth_rxtx.c **** 			u32 wire_crc = (p[4+len+2] << 16)
1931:bluetooth_rxtx.c **** 						 | (p[4+len+1] << 8)
1932:bluetooth_rxtx.c **** 						 | (p[4+len+0] << 0);
1933:bluetooth_rxtx.c **** 			if (calc_crc != wire_crc) // skip packets with a bad CRC
1934:bluetooth_rxtx.c **** 				goto rx_flush;
1935:bluetooth_rxtx.c **** 		}
1936:bluetooth_rxtx.c **** 
1937:bluetooth_rxtx.c **** 		//JWHUR rssi sampling synchronization test
1938:bluetooth_rxtx.c **** 		//If a BLE advertising packet with pdu preamble 0xff, data SYNC received, after 100ms goto le_syn
1939:bluetooth_rxtx.c **** 		if (p[23] == 0xff && p[24] == 0x53 && p[25] == 0x59 && p[26] == 0x4e && p[27] == 0x43) {
1940:bluetooth_rxtx.c **** 			sync_flag = 1;
1941:bluetooth_rxtx.c **** 			now_sync = (clkn & 0xffffff);
1942:bluetooth_rxtx.c **** 			start_sync = now_sync + 100 * 10000 / 3125; // wait for 100 ms
1943:bluetooth_rxtx.c **** //			sync_channel = (u16)p[28];
1944:bluetooth_rxtx.c **** 		}
1945:bluetooth_rxtx.c **** 
1946:bluetooth_rxtx.c **** 
1947:bluetooth_rxtx.c **** 		RXLED_SET;
1948:bluetooth_rxtx.c **** 		packet_cb((uint8_t *)packet);
ARM GAS  /tmp/ccMPHsjp.s 			page 49


1949:bluetooth_rxtx.c **** 
1950:bluetooth_rxtx.c **** 		// disable USB interrupts while we touch USB data structures
1951:bluetooth_rxtx.c **** 		ICER0 = ICER0_ICE_USB;
1952:bluetooth_rxtx.c **** 		enqueue(LE_PACKET, (uint8_t *)packet);
1953:bluetooth_rxtx.c **** 		ISER0 = ISER0_ISE_USB;
1954:bluetooth_rxtx.c **** 
1955:bluetooth_rxtx.c **** 		le.last_packet = CLK100NS;
1956:bluetooth_rxtx.c **** 
1957:bluetooth_rxtx.c **** 		//JWHUR if sync_flag receive
1958:bluetooth_rxtx.c **** 		if (sync_flag == 1) {
1959:bluetooth_rxtx.c **** 			requested_mode = MODE_BT_RSSI_LE;
1960:bluetooth_rxtx.c **** 			bt_le_sync_rssi(MODE_BT_RSSI_LE);
1961:bluetooth_rxtx.c **** 			goto cleanup;
1962:bluetooth_rxtx.c **** 		}
1963:bluetooth_rxtx.c **** 	
1964:bluetooth_rxtx.c **** 	rx_flush:
1965:bluetooth_rxtx.c **** 		// this might happen twice, but it's safe to do so
1966:bluetooth_rxtx.c **** 		cc2400_strobe(SFSON);
1967:bluetooth_rxtx.c **** 
1968:bluetooth_rxtx.c **** 		// flush any excess bytes from the SSP's buffer
1969:bluetooth_rxtx.c **** 		DIO_SSP_DMACR &= ~SSPDMACR_RXDMAE;
1970:bluetooth_rxtx.c **** 		while (SSP1SR & SSPSR_RNE) {
1971:bluetooth_rxtx.c **** 			u8 tmp = (u8)DIO_SSP_DR;
1972:bluetooth_rxtx.c **** 		}
1973:bluetooth_rxtx.c **** 
1974:bluetooth_rxtx.c **** 		// timeout - FIXME this is an ugly hack
1975:bluetooth_rxtx.c **** 		u32 now = CLK100NS;
1976:bluetooth_rxtx.c **** 		if (now < le.last_packet)
1977:bluetooth_rxtx.c **** 			now += 3276800000; // handle rollover
1978:bluetooth_rxtx.c **** 		if  ( // timeout
1979:bluetooth_rxtx.c **** 			((le.link_state == LINK_CONNECTED || le.link_state == LINK_CONN_PENDING)
1980:bluetooth_rxtx.c **** 			&& (now - le.last_packet > 50000000))
1981:bluetooth_rxtx.c **** 			// jam finished
1982:bluetooth_rxtx.c **** 			|| (le_jam_count == 1)
1983:bluetooth_rxtx.c **** 			)
1984:bluetooth_rxtx.c **** 		{
1985:bluetooth_rxtx.c **** 			reset_le();
1986:bluetooth_rxtx.c **** 			le_jam_count = 0;
1987:bluetooth_rxtx.c **** 			TXLED_CLR;
1988:bluetooth_rxtx.c **** 
1989:bluetooth_rxtx.c **** 			if (jam_mode == JAM_ONCE) {
1990:bluetooth_rxtx.c **** 				jam_mode = JAM_NONE;
1991:bluetooth_rxtx.c **** 				requested_mode = MODE_IDLE;
1992:bluetooth_rxtx.c **** 				goto cleanup;
1993:bluetooth_rxtx.c **** 			}
1994:bluetooth_rxtx.c **** 
1995:bluetooth_rxtx.c **** 			// go back to promisc if the connection dies
1996:bluetooth_rxtx.c **** 			if (active_mode == MODE_BT_PROMISC_LE)
1997:bluetooth_rxtx.c **** 				goto cleanup;
1998:bluetooth_rxtx.c **** 
1999:bluetooth_rxtx.c **** 			le.link_state = LINK_LISTENING;
2000:bluetooth_rxtx.c **** 
2001:bluetooth_rxtx.c **** 			cc2400_strobe(SRFOFF);
2002:bluetooth_rxtx.c **** 			while ((cc2400_status() & FS_LOCK));
2003:bluetooth_rxtx.c **** 
2004:bluetooth_rxtx.c **** 			/* Retune */
2005:bluetooth_rxtx.c **** 			channel = le_adv_channel != 0 ? le_adv_channel : 2402;
ARM GAS  /tmp/ccMPHsjp.s 			page 50


2006:bluetooth_rxtx.c **** 			restart_jamming = 1;
2007:bluetooth_rxtx.c **** 		}
2008:bluetooth_rxtx.c **** 
2009:bluetooth_rxtx.c **** 		cc2400_set(SYNCL, le.syncl);
2010:bluetooth_rxtx.c **** 		cc2400_set(SYNCH, le.synch);
2011:bluetooth_rxtx.c **** 
2012:bluetooth_rxtx.c **** 		if (do_hop)
2013:bluetooth_rxtx.c **** 			hop();
2014:bluetooth_rxtx.c **** 
2015:bluetooth_rxtx.c **** 		//  you can jam but you keep turning off the light 
2016:bluetooth_rxtx.c **** 		if (le_jam_count > 0) {
2017:bluetooth_rxtx.c **** 			le_jam();
2018:bluetooth_rxtx.c **** 			--le_jam_count;
2019:bluetooth_rxtx.c **** 		} else {
2020:bluetooth_rxtx.c **** 			/* RX mode */
2021:bluetooth_rxtx.c **** 			dma_init_le();
2022:bluetooth_rxtx.c **** 			dio_ssp_start();
2023:bluetooth_rxtx.c **** 
2024:bluetooth_rxtx.c **** 			if (restart_jamming) {
2025:bluetooth_rxtx.c **** 				cc2400_rx_sync(rbit(le.access_address));
2026:bluetooth_rxtx.c **** 				restart_jamming = 0;
2027:bluetooth_rxtx.c **** 			} else {
2028:bluetooth_rxtx.c **** 				// wait till we're in FSLOCK before strobing RX
2029:bluetooth_rxtx.c **** 				while (!(cc2400_status() & FS_LOCK));
2030:bluetooth_rxtx.c **** 				cc2400_strobe(SRX);
2031:bluetooth_rxtx.c **** 			}
2032:bluetooth_rxtx.c **** 		}
2033:bluetooth_rxtx.c **** 
2034:bluetooth_rxtx.c **** 		rx_tc = 0;
2035:bluetooth_rxtx.c **** 		rx_err = 0;
2036:bluetooth_rxtx.c **** 	}
2037:bluetooth_rxtx.c **** 
2038:bluetooth_rxtx.c **** cleanup:
2039:bluetooth_rxtx.c **** 
2040:bluetooth_rxtx.c **** 	// disable USB interrupts
2041:bluetooth_rxtx.c **** 	ICER0 = ICER0_ICE_USB;
2042:bluetooth_rxtx.c **** 
2043:bluetooth_rxtx.c **** 	// reset the radio completely
2044:bluetooth_rxtx.c **** 	cc2400_idle();
2045:bluetooth_rxtx.c **** 	dio_ssp_stop();
2046:bluetooth_rxtx.c **** 	cs_trigger_disable();
2047:bluetooth_rxtx.c **** }
2048:bluetooth_rxtx.c **** 
2049:bluetooth_rxtx.c **** //JWHUR cfo estimation tracking
2050:bluetooth_rxtx.c **** void bt_le_sync_cfo(u8 active_mode) 
2051:bluetooth_rxtx.c **** {
2052:bluetooth_rxtx.c **** 	int i;
2053:bluetooth_rxtx.c **** 	int8_t rssi;
2054:bluetooth_rxtx.c **** 	static int restart_jamming = 0;
2055:bluetooth_rxtx.c **** 	u8 cfo_buf[DMA_SIZE] = {0, };
2056:bluetooth_rxtx.c **** 
2057:bluetooth_rxtx.c **** 	modulation = MOD_BT_LOW_ENERGY;
2058:bluetooth_rxtx.c **** 	mode = active_mode;
2059:bluetooth_rxtx.c **** 
2060:bluetooth_rxtx.c **** 	le.link_state = LINK_LISTENING;
2061:bluetooth_rxtx.c **** 
2062:bluetooth_rxtx.c **** 	ISER0 = ISER0_ISE_USB;
ARM GAS  /tmp/ccMPHsjp.s 			page 51


2063:bluetooth_rxtx.c **** 	RXLED_CLR;
2064:bluetooth_rxtx.c **** 	queue_init();
2065:bluetooth_rxtx.c **** 	dio_ssp_init();
2066:bluetooth_rxtx.c **** 	dma_init_le();
2067:bluetooth_rxtx.c **** 	dio_ssp_start();
2068:bluetooth_rxtx.c **** 
2069:bluetooth_rxtx.c **** 	cc2400_rx_sync(rbit(le.access_address));
2070:bluetooth_rxtx.c **** 
2071:bluetooth_rxtx.c **** 	while (requested_mode == active_mode) {
2072:bluetooth_rxtx.c **** 		if (requested_channel != 0) {
2073:bluetooth_rxtx.c **** 			cc2400_strobe(SRFOFF);
2074:bluetooth_rxtx.c **** 			while ((cc2400_status() & FS_LOCK));
2075:bluetooth_rxtx.c **** 			cc2400_set(FSDIV, channel - 1);
2076:bluetooth_rxtx.c **** 			cc2400_strobe(SFSON);
2077:bluetooth_rxtx.c **** 			while (!(cc2400_status() & FS_LOCK));
2078:bluetooth_rxtx.c **** 			cc2400_strobe(SRX);
2079:bluetooth_rxtx.c **** 			requested_channel = 0;
2080:bluetooth_rxtx.c **** 		}
2081:bluetooth_rxtx.c **** 		RXLED_CLR;
2082:bluetooth_rxtx.c **** 		rssi_reset();
2083:bluetooth_rxtx.c **** 		while ((rx_tc == 0) && (rx_err == 0) && (do_hop == 0) && requested_mode == active_mode) ;
2084:bluetooth_rxtx.c **** 		rssi = (int8_t)(cc2400_get(RSSI) >> 8);
2085:bluetooth_rxtx.c **** 		rssi_min = rssi_max = rssi;
2086:bluetooth_rxtx.c **** 
2087:bluetooth_rxtx.c **** 		if (requested_mode != active_mode) {
2088:bluetooth_rxtx.c **** 			goto cleanup;
2089:bluetooth_rxtx.c **** 		}
2090:bluetooth_rxtx.c **** 		if (rx_err) {
2091:bluetooth_rxtx.c **** 			status |= DMA_ERROR;
2092:bluetooth_rxtx.c **** 		}
2093:bluetooth_rxtx.c **** 		if (do_hop)
2094:bluetooth_rxtx.c **** 			goto rx_flush;
2095:bluetooth_rxtx.c **** 		if (!rx_tc)
2096:bluetooth_rxtx.c **** 			continue;
2097:bluetooth_rxtx.c **** 		
2098:bluetooth_rxtx.c **** 		uint32_t packet[48/4+1] = {0, };
2099:bluetooth_rxtx.c **** 		uint32_t whiten_packet[48/4+1] = {0, };
2100:bluetooth_rxtx.c **** 		u8 *p = (u8 *)packet;
2101:bluetooth_rxtx.c **** 
2102:bluetooth_rxtx.c **** 		//JWHUR buffering carrier frequency offset estimation
2103:bluetooth_rxtx.c **** 		for (i = 0; i < DMA_SIZE; i++) {
2104:bluetooth_rxtx.c **** 			cfo_buf[i] = cc2400_get_rev(FREQEST);
2105:bluetooth_rxtx.c **** 		}
2106:bluetooth_rxtx.c **** 
2107:bluetooth_rxtx.c **** 		packet[0] = le.access_address;
2108:bluetooth_rxtx.c **** 		
2109:bluetooth_rxtx.c **** 		const uint32_t *whit = whitening_word[btle_channel_index(channel-2402)];
2110:bluetooth_rxtx.c **** 		for (i=0; i<4; i+= 4) {
2111:bluetooth_rxtx.c **** 			uint32_t v = rxbuf1[i+0] << 24
2112:bluetooth_rxtx.c **** 					   | rxbuf1[i+1] << 16
2113:bluetooth_rxtx.c **** 					   | rxbuf1[i+2] << 8
2114:bluetooth_rxtx.c **** 					   | rxbuf1[i+3] << 0;
2115:bluetooth_rxtx.c **** 			packet[i/4+1] = rbit(v) ^ whit[i/4];
2116:bluetooth_rxtx.c **** 			whiten_packet[i/4+1] = rbit(v);
2117:bluetooth_rxtx.c **** 		}
2118:bluetooth_rxtx.c **** 
2119:bluetooth_rxtx.c **** 		unsigned len = (p[5] & 0x3f) + 2;
ARM GAS  /tmp/ccMPHsjp.s 			page 52


2120:bluetooth_rxtx.c **** 		cfo_buf[DMA_SIZE - 1] = p[5];
2121:bluetooth_rxtx.c **** 
2122:bluetooth_rxtx.c **** 		if (len > 39)
2123:bluetooth_rxtx.c **** 			goto rx_flush;
2124:bluetooth_rxtx.c **** 
2125:bluetooth_rxtx.c **** 		unsigned total_transfers = ((len + 3) + 4 - 1) / 4;
2126:bluetooth_rxtx.c **** 		if (total_transfers < 11) {
2127:bluetooth_rxtx.c **** 			while (DMACC0DestAddr < (uint32_t)rxbuf1 + 4 * total_transfers && rx_err == 0) ;
2128:bluetooth_rxtx.c **** 		} else { while (DMACC0Config & DMACCxConfig_E && rx_err == 0) ;
2129:bluetooth_rxtx.c **** 		}
2130:bluetooth_rxtx.c **** 
2131:bluetooth_rxtx.c **** 		DIO_SSP_DMACR &= ~SSPDMACR_RXDMAE;
2132:bluetooth_rxtx.c **** 		cc2400_strobe(SFSON);
2133:bluetooth_rxtx.c **** 
2134:bluetooth_rxtx.c **** 		for (i=4; i<44; i+=4) {
2135:bluetooth_rxtx.c **** 			uint32_t v = rxbuf1[i+0] << 24
2136:bluetooth_rxtx.c **** 					   | rxbuf1[i+1] << 16
2137:bluetooth_rxtx.c **** 					   | rxbuf1[i+2] << 8
2138:bluetooth_rxtx.c **** 					   | rxbuf1[i+3] << 0;
2139:bluetooth_rxtx.c **** 			packet[i/4+1] = rbit(v) ^ whit[i/4];
2140:bluetooth_rxtx.c **** 			whiten_packet[i/4+1] = rbit(v);
2141:bluetooth_rxtx.c **** 		}
2142:bluetooth_rxtx.c **** 
2143:bluetooth_rxtx.c **** 		if (le.crc_verify) {
2144:bluetooth_rxtx.c **** 			u32 calc_crc = btle_crcgen_lut(le.crc_init_reversed, p + 4, len);
2145:bluetooth_rxtx.c **** 			u32 wire_crc = (p[4+len+2] << 16)
2146:bluetooth_rxtx.c **** 						 | (p[4+len+1] << 8)
2147:bluetooth_rxtx.c **** 						 | (p[4+len+0] << 0);
2148:bluetooth_rxtx.c **** 			if (calc_crc != wire_crc)
2149:bluetooth_rxtx.c **** 				goto rx_flush;
2150:bluetooth_rxtx.c **** 		}
2151:bluetooth_rxtx.c **** 
2152:bluetooth_rxtx.c **** 		RXLED_SET;
2153:bluetooth_rxtx.c **** 		packet_cb((uint8_t *)packet);
2154:bluetooth_rxtx.c **** 
2155:bluetooth_rxtx.c **** 		ICER0 = ICER0_ICE_USB;
2156:bluetooth_rxtx.c **** 		if (p[10] == 0x55 && p[11] == 0xec) {
2157:bluetooth_rxtx.c **** 			enqueue(LE_PACKET, (uint8_t *)packet);
2158:bluetooth_rxtx.c **** 			enqueue(CFO_TRACK, (uint8_t *)cfo_buf);
2159:bluetooth_rxtx.c **** 			//enqueue(MESSAGE, (uint8_t *)whiten_packet);
2160:bluetooth_rxtx.c **** 		}
2161:bluetooth_rxtx.c **** 		ISER0 = ISER0_ISE_USB;
2162:bluetooth_rxtx.c **** 
2163:bluetooth_rxtx.c **** 		le.last_packet = CLK100NS;
2164:bluetooth_rxtx.c **** 
2165:bluetooth_rxtx.c **** 	rx_flush:
2166:bluetooth_rxtx.c **** 		cc2400_strobe(SFSON);
2167:bluetooth_rxtx.c **** 		DIO_SSP_DMACR &= ~SSPDMACR_RXDMAE;
2168:bluetooth_rxtx.c **** 		while (SSP1SR & SSPSR_RNE) {
2169:bluetooth_rxtx.c **** 			u8 tmp = (u8) DIO_SSP_DR;
2170:bluetooth_rxtx.c **** 		}
2171:bluetooth_rxtx.c **** 		u32 now = CLK100NS;
2172:bluetooth_rxtx.c **** 		if (now <le.last_packet)
2173:bluetooth_rxtx.c **** 			now += 3276800000;
2174:bluetooth_rxtx.c **** 		if ( ((le.link_state == LINK_CONNECTED || le.link_state == LINK_CONN_PENDING) && (now - le.last_p
2175:bluetooth_rxtx.c **** 			reset_le();
2176:bluetooth_rxtx.c **** 			le_jam_count = 0;
ARM GAS  /tmp/ccMPHsjp.s 			page 53


2177:bluetooth_rxtx.c **** 			TXLED_CLR;
2178:bluetooth_rxtx.c **** 			if (jam_mode == JAM_ONCE) {
2179:bluetooth_rxtx.c **** 				jam_mode = JAM_NONE;
2180:bluetooth_rxtx.c **** 				requested_mode = MODE_IDLE;
2181:bluetooth_rxtx.c **** 				goto cleanup;
2182:bluetooth_rxtx.c **** 			}
2183:bluetooth_rxtx.c **** 			le.link_state = LINK_LISTENING;
2184:bluetooth_rxtx.c **** 			cc2400_strobe(SRFOFF);
2185:bluetooth_rxtx.c **** 			while ((cc2400_status() & FS_LOCK));
2186:bluetooth_rxtx.c **** 
2187:bluetooth_rxtx.c **** 			channel = le_adv_channel != 0 ? le_adv_channel : 2402;
2188:bluetooth_rxtx.c **** 			restart_jamming = 1;
2189:bluetooth_rxtx.c **** 		}
2190:bluetooth_rxtx.c **** 
2191:bluetooth_rxtx.c **** 		cc2400_set(SYNCL, le.syncl);
2192:bluetooth_rxtx.c **** 		cc2400_set(SYNCH, le.synch);
2193:bluetooth_rxtx.c **** 
2194:bluetooth_rxtx.c **** 		if (do_hop)
2195:bluetooth_rxtx.c **** 			hop();
2196:bluetooth_rxtx.c **** 		if (le_jam_count > 0) {
2197:bluetooth_rxtx.c **** 			le_jam();
2198:bluetooth_rxtx.c **** 			--le_jam_count;
2199:bluetooth_rxtx.c **** 		} else {
2200:bluetooth_rxtx.c **** 			dma_init_le();
2201:bluetooth_rxtx.c **** 			dio_ssp_start();
2202:bluetooth_rxtx.c **** 
2203:bluetooth_rxtx.c **** 			if (restart_jamming) {
2204:bluetooth_rxtx.c **** 				cc2400_rx_sync(rbit(le.access_address));
2205:bluetooth_rxtx.c **** 				restart_jamming = 0;
2206:bluetooth_rxtx.c **** 			} else {
2207:bluetooth_rxtx.c **** 				while (!(cc2400_status() & FS_LOCK));
2208:bluetooth_rxtx.c **** 				cc2400_strobe(SRX);
2209:bluetooth_rxtx.c **** 			}
2210:bluetooth_rxtx.c **** 		}
2211:bluetooth_rxtx.c **** 		rx_tc = 0;
2212:bluetooth_rxtx.c **** 		rx_err = 0;
2213:bluetooth_rxtx.c **** 
2214:bluetooth_rxtx.c **** 	}
2215:bluetooth_rxtx.c **** 	goto cleanup;
2216:bluetooth_rxtx.c **** 
2217:bluetooth_rxtx.c **** cleanup:
2218:bluetooth_rxtx.c **** 	ICER0 = ICER0_ICE_USB;
2219:bluetooth_rxtx.c **** 	cc2400_idle();
2220:bluetooth_rxtx.c **** 	dio_ssp_stop ();
2221:bluetooth_rxtx.c **** 	cs_trigger_disable();
2222:bluetooth_rxtx.c **** }
2223:bluetooth_rxtx.c **** 
2224:bluetooth_rxtx.c **** /* low energy connection following
2225:bluetooth_rxtx.c ****  * follows a known AA around */
2226:bluetooth_rxtx.c **** int cb_follow_le() {
 680              		.loc 1 2226 0
 681              		.cfi_startproc
 682              		@ args = 0, pretend = 0, frame = 0
 683              		@ frame_needed = 0, uses_anonymous_args = 0
 684 0000 2DE9F843 		push	{r3, r4, r5, r6, r7, r8, r9, lr}
 685              		.cfi_def_cfa_offset 32
 686              		.cfi_offset 3, -32
ARM GAS  /tmp/ccMPHsjp.s 			page 54


 687              		.cfi_offset 4, -28
 688              		.cfi_offset 5, -24
 689              		.cfi_offset 6, -20
 690              		.cfi_offset 7, -16
 691              		.cfi_offset 8, -12
 692              		.cfi_offset 9, -8
 693              		.cfi_offset 14, -4
2227:bluetooth_rxtx.c **** 	int i, j, k;
2228:bluetooth_rxtx.c **** 	int idx = whitening_index[btle_channel_index(channel-2402)];
 694              		.loc 1 2228 0
 695 0004 394C     		ldr	r4, .L72
 696 0006 2088     		ldrh	r0, [r4]
 697 0008 2646     		mov	r6, r4
 698 000a 80B2     		uxth	r0, r0
 699 000c 6238     		subs	r0, r0, #98
 700 000e C0B2     		uxtb	r0, r0
 701 0010 FFF7FEFF 		bl	btle_channel_index
 702              	.LVL62:
 703 0014 3649     		ldr	r1, .L72+4
2229:bluetooth_rxtx.c **** 
2230:bluetooth_rxtx.c **** 	u32 access_address = 0;
 704              		.loc 1 2230 0
 705 0016 0022     		movs	r2, #0
2228:bluetooth_rxtx.c **** 
 706              		.loc 1 2228 0
 707 0018 0D5C     		ldrb	r5, [r1, r0]	@ zero_extendqisi2
 708              	.LVL63:
2231:bluetooth_rxtx.c **** 	for (i = 0; i < 31; ++i) {
 709              		.loc 1 2231 0
 710 001a 1346     		mov	r3, r2
 711 001c 8C46     		mov	ip, r1
 712              	.LVL64:
 713              	.L53:
2232:bluetooth_rxtx.c **** 		access_address >>= 1;
2233:bluetooth_rxtx.c **** 		access_address |= (unpacked[i] << 31);
 714              		.loc 1 2233 0 discriminator 2
 715 001e 354F     		ldr	r7, .L72+8
 716 0020 D95D     		ldrb	r1, [r3, r7]	@ zero_extendqisi2
2231:bluetooth_rxtx.c **** 	for (i = 0; i < 31; ++i) {
 717              		.loc 1 2231 0 discriminator 2
 718 0022 0133     		adds	r3, r3, #1
 719              	.LVL65:
 720              		.loc 1 2233 0 discriminator 2
 721 0024 C907     		lsls	r1, r1, #31
2231:bluetooth_rxtx.c **** 	for (i = 0; i < 31; ++i) {
 722              		.loc 1 2231 0 discriminator 2
 723 0026 1F2B     		cmp	r3, #31
 724              		.loc 1 2233 0 discriminator 2
 725 0028 41EA5202 		orr	r2, r1, r2, lsr #1
 726              	.LVL66:
2231:bluetooth_rxtx.c **** 	for (i = 0; i < 31; ++i) {
 727              		.loc 1 2231 0 discriminator 2
 728 002c F7D1     		bne	.L53
2234:bluetooth_rxtx.c **** 	}
2235:bluetooth_rxtx.c **** 
2236:bluetooth_rxtx.c **** 	for (i = 31; i < DMA_SIZE * 8 + 32; i++) {
2237:bluetooth_rxtx.c **** 		access_address >>= 1;
ARM GAS  /tmp/ccMPHsjp.s 			page 55


2238:bluetooth_rxtx.c **** 		access_address |= (unpacked[i] << 31);
2239:bluetooth_rxtx.c **** 		if (access_address == le.access_address) {
 729              		.loc 1 2239 0
 730 002e 7168     		ldr	r1, [r6, #4]
 731              	.L65:
 732              	.LVL67:
2238:bluetooth_rxtx.c **** 		if (access_address == le.access_address) {
 733              		.loc 1 2238 0
 734 0030 F85C     		ldrb	r0, [r7, r3]	@ zero_extendqisi2
 735 0032 C007     		lsls	r0, r0, #31
 736 0034 40EA5202 		orr	r2, r0, r2, lsr #1
 737              	.LVL68:
 738              		.loc 1 2239 0
 739 0038 8A42     		cmp	r2, r1
 740 003a 4FD1     		bne	.L54
 741 003c 0022     		movs	r2, #0
 742              	.LVL69:
 743              	.L55:
 744 003e 07EB0308 		add	r8, r7, r3
2231:bluetooth_rxtx.c **** 		access_address >>= 1;
 745              		.loc 1 2231 0 discriminator 1
 746 0042 0020     		movs	r0, #0
 747 0044 08EBC208 		add	r8, r8, r2, lsl #3
 748 0048 0146     		mov	r1, r0
 749              	.LVL70:
 750              	.L60:
 751 004a 08EB0104 		add	r4, r8, r1
 752              	.LBB6:
 753              	.LBB7:
2240:bluetooth_rxtx.c **** 			for (j = 0; j < 46; ++j) {
2241:bluetooth_rxtx.c **** 				u8 byte = 0;
2242:bluetooth_rxtx.c **** 				for (k = 0; k < 8; k++) {
2243:bluetooth_rxtx.c **** 					int offset = k + (j * 8) + i - 31;
2244:bluetooth_rxtx.c **** 					if (offset >= DMA_SIZE*8*2) break;
2245:bluetooth_rxtx.c **** 					int bit = unpacked[offset];
2246:bluetooth_rxtx.c **** 					if (j >= 4) { // unwhiten data bytes
 754              		.loc 1 2246 0
 755 004e 032A     		cmp	r2, #3
2245:bluetooth_rxtx.c **** 					if (j >= 4) { // unwhiten data bytes
 756              		.loc 1 2245 0
 757 0050 14F81F4C 		ldrb	r4, [r4, #-31]	@ zero_extendqisi2
 758              	.LVL71:
 759              		.loc 1 2246 0
 760 0054 0CDD     		ble	.L57
2247:bluetooth_rxtx.c **** 						bit ^= whitening[idx];
 761              		.loc 1 2247 0
 762 0056 0CEB050E 		add	lr, ip, r5
 763 005a 9EF828E0 		ldrb	lr, [lr, #40]	@ zero_extendqisi2
2248:bluetooth_rxtx.c **** 						idx = (idx + 1) % sizeof(whitening);
 764              		.loc 1 2248 0
 765 005e 0135     		adds	r5, r5, #1
 766              	.LVL72:
2247:bluetooth_rxtx.c **** 						bit ^= whitening[idx];
 767              		.loc 1 2247 0
 768 0060 84EA0E04 		eor	r4, r4, lr
 769              	.LVL73:
 770              		.loc 1 2248 0
ARM GAS  /tmp/ccMPHsjp.s 			page 56


 771 0064 4FF07F0E 		mov	lr, #127
 772 0068 B5FBFEF9 		udiv	r9, r5, lr
 773 006c 0EFB1955 		mls	r5, lr, r9, r5
 774              	.LVL74:
 775              	.L57:
2249:bluetooth_rxtx.c **** 					}
2250:bluetooth_rxtx.c **** 					byte |= bit << k;
 776              		.loc 1 2250 0
 777 0070 8C40     		lsls	r4, r4, r1
 778              	.LVL75:
 779              	.LBE7:
2242:bluetooth_rxtx.c **** 					int offset = k + (j * 8) + i - 31;
 780              		.loc 1 2242 0
 781 0072 0131     		adds	r1, r1, #1
 782              	.LVL76:
 783              	.LBB8:
 784              		.loc 1 2250 0
 785 0074 2043     		orrs	r0, r0, r4
 786              	.LVL77:
 787              	.LBE8:
2242:bluetooth_rxtx.c **** 					int offset = k + (j * 8) + i - 31;
 788              		.loc 1 2242 0
 789 0076 0829     		cmp	r1, #8
 790              	.LBB9:
 791              		.loc 1 2250 0
 792 0078 C0B2     		uxtb	r0, r0
 793              	.LVL78:
 794              	.LBE9:
2242:bluetooth_rxtx.c **** 					int offset = k + (j * 8) + i - 31;
 795              		.loc 1 2242 0
 796 007a E6D1     		bne	.L60
2251:bluetooth_rxtx.c **** 				}
2252:bluetooth_rxtx.c **** 				idle_rxbuf[j] = byte;
 797              		.loc 1 2252 0
 798 007c 1E4C     		ldr	r4, .L72+12
 799 007e 2168     		ldr	r1, [r4]
 800              	.LVL79:
 801 0080 8854     		strb	r0, [r1, r2]
 802              	.LBE6:
2240:bluetooth_rxtx.c **** 				u8 byte = 0;
 803              		.loc 1 2240 0
 804 0082 0132     		adds	r2, r2, #1
 805              	.LVL80:
 806 0084 2E2A     		cmp	r2, #46
 807 0086 DAD1     		bne	.L55
2253:bluetooth_rxtx.c **** 			}
2254:bluetooth_rxtx.c **** 
2255:bluetooth_rxtx.c **** 			// verify CRC
2256:bluetooth_rxtx.c **** 			if (le.crc_verify) {
 808              		.loc 1 2256 0
 809 0088 7369     		ldr	r3, [r6, #20]
 810              	.LVL81:
 811 008a 5BB9     		cbnz	r3, .L61
 812              	.LVL82:
 813              	.L63:
2257:bluetooth_rxtx.c **** 				int len		 = (idle_rxbuf[5] & 0x3f) + 2;
2258:bluetooth_rxtx.c **** 				u32 calc_crc = btle_crcgen_lut(le.crc_init_reversed, (uint8_t*)idle_rxbuf + 4, len);
ARM GAS  /tmp/ccMPHsjp.s 			page 57


2259:bluetooth_rxtx.c **** 				u32 wire_crc = (idle_rxbuf[4+len+2] << 16)
2260:bluetooth_rxtx.c **** 							 | (idle_rxbuf[4+len+1] << 8)
2261:bluetooth_rxtx.c **** 							 |  idle_rxbuf[4+len+0];
2262:bluetooth_rxtx.c **** 				if (calc_crc != wire_crc) // skip packets with a bad CRC
2263:bluetooth_rxtx.c **** 					break;
2264:bluetooth_rxtx.c **** 			}
2265:bluetooth_rxtx.c **** 
2266:bluetooth_rxtx.c **** 			// send to PC
2267:bluetooth_rxtx.c **** 			enqueue(LE_PACKET, (uint8_t*)idle_rxbuf);
 814              		.loc 1 2267 0
 815 008c 2168     		ldr	r1, [r4]
 816 008e 0120     		movs	r0, #1
 817 0090 FFF7FEFF 		bl	enqueue
 818              	.LVL83:
2268:bluetooth_rxtx.c **** 			RXLED_SET;
 819              		.loc 1 2268 0
 820 0094 194B     		ldr	r3, .L72+16
 821 0096 1022     		movs	r2, #16
 822 0098 1A60     		str	r2, [r3]
2269:bluetooth_rxtx.c **** 
2270:bluetooth_rxtx.c **** 			packet_cb((uint8_t*)idle_rxbuf);
 823              		.loc 1 2270 0
 824 009a 194B     		ldr	r3, .L72+20
 825 009c 2068     		ldr	r0, [r4]
 826 009e 9B69     		ldr	r3, [r3, #24]
 827 00a0 9847     		blx	r3
 828              	.LVL84:
2271:bluetooth_rxtx.c **** 
2272:bluetooth_rxtx.c **** 			break;
 829              		.loc 1 2272 0
 830 00a2 1FE0     		b	.L62
 831              	.LVL85:
 832              	.L61:
 833              	.LBB10:
2257:bluetooth_rxtx.c **** 				u32 calc_crc = btle_crcgen_lut(le.crc_init_reversed, (uint8_t*)idle_rxbuf + 4, len);
 834              		.loc 1 2257 0
 835 00a4 2368     		ldr	r3, [r4]
 836 00a6 5D79     		ldrb	r5, [r3, #5]	@ zero_extendqisi2
 837              	.LVL86:
2258:bluetooth_rxtx.c **** 				u32 wire_crc = (idle_rxbuf[4+len+2] << 16)
 838              		.loc 1 2258 0
 839 00a8 104B     		ldr	r3, .L72
 840 00aa 2168     		ldr	r1, [r4]
2257:bluetooth_rxtx.c **** 				u32 calc_crc = btle_crcgen_lut(le.crc_init_reversed, (uint8_t*)idle_rxbuf + 4, len);
 841              		.loc 1 2257 0
 842 00ac 05F03F05 		and	r5, r5, #63
 843              	.LVL87:
2258:bluetooth_rxtx.c **** 				u32 wire_crc = (idle_rxbuf[4+len+2] << 16)
 844              		.loc 1 2258 0
 845 00b0 AA1C     		adds	r2, r5, #2
 846              	.LVL88:
 847 00b2 1869     		ldr	r0, [r3, #16]
 848              	.LVL89:
 849 00b4 0431     		adds	r1, r1, #4
 850 00b6 FFF7FEFF 		bl	btle_crcgen_lut
 851              	.LVL90:
2259:bluetooth_rxtx.c **** 							 | (idle_rxbuf[4+len+1] << 8)
ARM GAS  /tmp/ccMPHsjp.s 			page 58


 852              		.loc 1 2259 0
 853 00ba 2268     		ldr	r2, [r4]
 854 00bc 05F10803 		add	r3, r5, #8
 855 00c0 D15C     		ldrb	r1, [r2, r3]	@ zero_extendqisi2
2260:bluetooth_rxtx.c **** 							 |  idle_rxbuf[4+len+0];
 856              		.loc 1 2260 0
 857 00c2 2268     		ldr	r2, [r4]
 858 00c4 EB1D     		adds	r3, r5, #7
 859 00c6 D35C     		ldrb	r3, [r2, r3]	@ zero_extendqisi2
2261:bluetooth_rxtx.c **** 				if (calc_crc != wire_crc) // skip packets with a bad CRC
 860              		.loc 1 2261 0
 861 00c8 2268     		ldr	r2, [r4]
 862 00ca 0635     		adds	r5, r5, #6
 863              	.LVL91:
 864 00cc 525D     		ldrb	r2, [r2, r5]	@ zero_extendqisi2
 865              	.LVL92:
2260:bluetooth_rxtx.c **** 							 |  idle_rxbuf[4+len+0];
 866              		.loc 1 2260 0
 867 00ce 1B02     		lsls	r3, r3, #8
 868              	.LVL93:
 869 00d0 43EA0143 		orr	r3, r3, r1, lsl #16
2261:bluetooth_rxtx.c **** 				if (calc_crc != wire_crc) // skip packets with a bad CRC
 870              		.loc 1 2261 0
 871 00d4 1343     		orrs	r3, r3, r2
2262:bluetooth_rxtx.c **** 					break;
 872              		.loc 1 2262 0
 873 00d6 9842     		cmp	r0, r3
 874 00d8 04D1     		bne	.L62
 875 00da D7E7     		b	.L63
 876              	.LVL94:
 877              	.L54:
 878              	.LBE10:
2236:bluetooth_rxtx.c **** 		access_address >>= 1;
 879              		.loc 1 2236 0
 880 00dc 0133     		adds	r3, r3, #1
 881              	.LVL95:
 882 00de B3F5D87F 		cmp	r3, #432
 883 00e2 A5D1     		bne	.L65
 884              	.LVL96:
 885              	.L62:
2273:bluetooth_rxtx.c **** 		}
2274:bluetooth_rxtx.c **** 	}
2275:bluetooth_rxtx.c **** 
2276:bluetooth_rxtx.c **** 	return 1;
2277:bluetooth_rxtx.c **** }
 886              		.loc 1 2277 0
 887 00e4 0120     		movs	r0, #1
 888 00e6 BDE8F883 		pop	{r3, r4, r5, r6, r7, r8, r9, pc}
 889              	.L73:
 890 00ea 00BF     		.align	2
 891              	.L72:
 892 00ec 00000000 		.word	.LANCHOR1
 893 00f0 00000000 		.word	.LANCHOR2
 894 00f4 00000000 		.word	unpacked
 895 00f8 00000000 		.word	idle_rxbuf
 896 00fc 38C00920 		.word	537509944
 897 0100 00000000 		.word	.LANCHOR0
ARM GAS  /tmp/ccMPHsjp.s 			page 59


 898              		.cfi_endproc
 899              	.LFE26:
 901              		.section	.text.connection_follow_cb,"ax",%progbits
 902              		.align	1
 903              		.global	connection_follow_cb
 904              		.thumb
 905              		.thumb_func
 907              	connection_follow_cb:
 908              	.LFB27:
2278:bluetooth_rxtx.c **** 
2279:bluetooth_rxtx.c **** /**
2280:bluetooth_rxtx.c ****  * Called when we receive a packet in connection following mode.
2281:bluetooth_rxtx.c ****  */
2282:bluetooth_rxtx.c **** void connection_follow_cb(u8 *packet) {
 909              		.loc 1 2282 0
 910              		.cfi_startproc
 911              		@ args = 0, pretend = 0, frame = 0
 912              		@ frame_needed = 0, uses_anonymous_args = 0
 913              	.LVL97:
 914 0000 38B5     		push	{r3, r4, r5, lr}
 915              		.cfi_def_cfa_offset 16
 916              		.cfi_offset 3, -16
 917              		.cfi_offset 4, -12
 918              		.cfi_offset 5, -8
 919              		.cfi_offset 14, -4
 920              	.LVL98:
2283:bluetooth_rxtx.c **** 	int i;
2284:bluetooth_rxtx.c **** 	u32 aa = 0;
2285:bluetooth_rxtx.c **** 
2286:bluetooth_rxtx.c **** #define ADV_ADDRESS_IDX 0
2287:bluetooth_rxtx.c **** #define HEADER_IDX 4
2288:bluetooth_rxtx.c **** #define DATA_LEN_IDX 5
2289:bluetooth_rxtx.c **** #define DATA_START_IDX 6
2290:bluetooth_rxtx.c **** 
2291:bluetooth_rxtx.c **** 	// u8 *adv_addr = &packet[ADV_ADDRESS_IDX];
2292:bluetooth_rxtx.c **** 	u8 header = packet[HEADER_IDX];
2293:bluetooth_rxtx.c **** 	u8 *data_len = &packet[DATA_LEN_IDX];
2294:bluetooth_rxtx.c **** 	u8 *data = &packet[DATA_START_IDX];
2295:bluetooth_rxtx.c **** 	// u8 *crc = &packet[DATA_START_IDX + *data_len];
2296:bluetooth_rxtx.c **** 
2297:bluetooth_rxtx.c **** 	if (le.link_state == LINK_CONN_PENDING) {
 921              		.loc 1 2297 0
 922 0002 584B     		ldr	r3, .L92
2282:bluetooth_rxtx.c **** 	int i;
 923              		.loc 1 2282 0
 924 0004 0546     		mov	r5, r0
 925              		.loc 1 2297 0
 926 0006 1A7E     		ldrb	r2, [r3, #24]	@ zero_extendqisi2
2292:bluetooth_rxtx.c **** 	u8 *data_len = &packet[DATA_LEN_IDX];
 927              		.loc 1 2292 0
 928 0008 0179     		ldrb	r1, [r0, #4]	@ zero_extendqisi2
 929              	.LVL99:
 930              		.loc 1 2297 0
 931 000a 022A     		cmp	r2, #2
 932 000c 1C46     		mov	r4, r3
 933 000e 13D1     		bne	.L75
2298:bluetooth_rxtx.c **** 		// We received a packet in the connection pending state, so now the device *should* be connected
ARM GAS  /tmp/ccMPHsjp.s 			page 60


2299:bluetooth_rxtx.c **** 		le.link_state = LINK_CONNECTED;
 934              		.loc 1 2299 0
 935 0010 0322     		movs	r2, #3
 936 0012 1A76     		strb	r2, [r3, #24]
 937              	.LVL100:
2300:bluetooth_rxtx.c **** 		le.conn_epoch = clkn;
 938              		.loc 1 2300 0
 939 0014 544A     		ldr	r2, .L92+4
 940 0016 1268     		ldr	r2, [r2]
 941 0018 DA61     		str	r2, [r3, #28]
2301:bluetooth_rxtx.c **** 		le.interval_timer = le.conn_interval - 1;
 942              		.loc 1 2301 0
 943 001a 5A8C     		ldrh	r2, [r3, #34]
 944 001c 013A     		subs	r2, r2, #1
 945 001e 92B2     		uxth	r2, r2
 946 0020 1A84     		strh	r2, [r3, #32]	@ movhi
2302:bluetooth_rxtx.c **** 		le.conn_count = 0;
 947              		.loc 1 2302 0
 948 0022 0022     		movs	r2, #0
 949 0024 9A84     		strh	r2, [r3, #36]	@ movhi
2303:bluetooth_rxtx.c **** 		le.update_pending = 0;
 950              		.loc 1 2303 0
 951 0026 DA62     		str	r2, [r3, #44]
2304:bluetooth_rxtx.c **** 
2305:bluetooth_rxtx.c **** 		// hue hue hue
2306:bluetooth_rxtx.c **** 		if (jam_mode != JAM_NONE)
 952              		.loc 1 2306 0
 953 0028 504B     		ldr	r3, .L92+8
 954 002a DA7C     		ldrb	r2, [r3, #19]	@ zero_extendqisi2
 955 002c 002A     		cmp	r2, #0
 956 002e 00F09880 		beq	.L74
2307:bluetooth_rxtx.c **** 			le_jam_count = JAM_COUNT_DEFAULT;
 957              		.loc 1 2307 0
 958 0032 2822     		movs	r2, #40
 959 0034 DA61     		str	r2, [r3, #28]
 960 0036 38BD     		pop	{r3, r4, r5, pc}
 961              	.LVL101:
 962              	.L75:
2308:bluetooth_rxtx.c **** 
2309:bluetooth_rxtx.c **** 	} else if (le.link_state == LINK_CONNECTED) {
 963              		.loc 1 2309 0
 964 0038 032A     		cmp	r2, #3
 965 003a 3BD1     		bne	.L78
 966              	.LBB11:
2310:bluetooth_rxtx.c **** 		u8 llid =  header & 0x03;
2311:bluetooth_rxtx.c **** 
2312:bluetooth_rxtx.c **** 		// Apply any connection parameter update if necessary
2313:bluetooth_rxtx.c **** 		if (le.update_pending && le.conn_count == le.update_instant) {
 967              		.loc 1 2313 0
 968 003c DB6A     		ldr	r3, [r3, #44]
2310:bluetooth_rxtx.c **** 		u8 llid =  header & 0x03;
 969              		.loc 1 2310 0
 970 003e 01F00301 		and	r1, r1, #3
 971              	.LVL102:
 972              		.loc 1 2313 0
 973 0042 A3B1     		cbz	r3, .L79
 974              		.loc 1 2313 0 is_stmt 0 discriminator 1
ARM GAS  /tmp/ccMPHsjp.s 			page 61


 975 0044 A38C     		ldrh	r3, [r4, #36]
 976 0046 228E     		ldrh	r2, [r4, #48]
 977 0048 9BB2     		uxth	r3, r3
 978 004a 9A42     		cmp	r2, r3
 979 004c 0FD1     		bne	.L79
2314:bluetooth_rxtx.c **** 			// This is the first packet received in the connection interval for which the new parameters app
2315:bluetooth_rxtx.c **** 			le.conn_epoch = clkn;
 980              		.loc 1 2315 0 is_stmt 1
 981 004e 464B     		ldr	r3, .L92+4
 982 0050 1B68     		ldr	r3, [r3]
 983 0052 E361     		str	r3, [r4, #28]
 984              	.LVL103:
2316:bluetooth_rxtx.c **** 			le.conn_interval = le.interval_update;
 985              		.loc 1 2316 0
 986 0054 638E     		ldrh	r3, [r4, #50]
 987 0056 6384     		strh	r3, [r4, #34]	@ movhi
2317:bluetooth_rxtx.c **** 			le.interval_timer = le.interval_update - 1;
 988              		.loc 1 2317 0
 989 0058 013B     		subs	r3, r3, #1
 990 005a 9BB2     		uxth	r3, r3
 991 005c 2384     		strh	r3, [r4, #32]	@ movhi
2318:bluetooth_rxtx.c **** 			le.win_size = le.win_size_update;
 992              		.loc 1 2318 0
 993 005e 94F83430 		ldrb	r3, [r4, #52]	@ zero_extendqisi2
 994 0062 84F82630 		strb	r3, [r4, #38]
2319:bluetooth_rxtx.c **** 			le.win_offset = le.win_offset_update;
 995              		.loc 1 2319 0
 996 0066 E38E     		ldrh	r3, [r4, #54]
 997 0068 2385     		strh	r3, [r4, #40]	@ movhi
2320:bluetooth_rxtx.c **** 			le.update_pending = 0;
 998              		.loc 1 2320 0
 999 006a 0023     		movs	r3, #0
 1000 006c E362     		str	r3, [r4, #44]
 1001              	.L79:
2321:bluetooth_rxtx.c **** 		}
2322:bluetooth_rxtx.c **** 
2323:bluetooth_rxtx.c **** 		if (llid == 0x03 && data[0] == 0x00) {
 1002              		.loc 1 2323 0
 1003 006e 0329     		cmp	r1, #3
 1004 0070 77D1     		bne	.L74
 1005              		.loc 1 2323 0 is_stmt 0 discriminator 1
 1006 0072 AB79     		ldrb	r3, [r5, #6]	@ zero_extendqisi2
 1007 0074 002B     		cmp	r3, #0
 1008 0076 74D1     		bne	.L74
2324:bluetooth_rxtx.c **** 			// This is a CONNECTION_UPDATE_REQ.
2325:bluetooth_rxtx.c **** 			// The host is changing the connection parameters.
2326:bluetooth_rxtx.c **** 			le.win_size_update = packet[7];
 1009              		.loc 1 2326 0 is_stmt 1
 1010 0078 EB79     		ldrb	r3, [r5, #7]	@ zero_extendqisi2
 1011 007a 84F83430 		strb	r3, [r4, #52]
2327:bluetooth_rxtx.c **** 			le.win_offset_update = packet[8] + ((u16)packet[9] << 8);
 1012              		.loc 1 2327 0
 1013 007e 6A7A     		ldrb	r2, [r5, #9]	@ zero_extendqisi2
 1014 0080 2B7A     		ldrb	r3, [r5, #8]	@ zero_extendqisi2
 1015 0082 03EB0223 		add	r3, r3, r2, lsl #8
 1016 0086 E386     		strh	r3, [r4, #54]	@ movhi
2328:bluetooth_rxtx.c **** 			le.interval_update = packet[10] + ((u16)packet[11] << 8);
ARM GAS  /tmp/ccMPHsjp.s 			page 62


 1017              		.loc 1 2328 0
 1018 0088 EA7A     		ldrb	r2, [r5, #11]	@ zero_extendqisi2
 1019 008a AB7A     		ldrb	r3, [r5, #10]	@ zero_extendqisi2
 1020 008c 03EB0223 		add	r3, r3, r2, lsl #8
 1021 0090 6386     		strh	r3, [r4, #50]	@ movhi
2329:bluetooth_rxtx.c **** 			le.update_instant = packet[16] + ((u16)packet[17] << 8);
 1022              		.loc 1 2329 0
 1023 0092 6A7C     		ldrb	r2, [r5, #17]	@ zero_extendqisi2
 1024 0094 2B7C     		ldrb	r3, [r5, #16]	@ zero_extendqisi2
 1025 0096 03EB0223 		add	r3, r3, r2, lsl #8
2330:bluetooth_rxtx.c **** 			if (le.update_instant - le.conn_count < 32767)
 1026              		.loc 1 2330 0
 1027 009a A28C     		ldrh	r2, [r4, #36]
2329:bluetooth_rxtx.c **** 			le.update_instant = packet[16] + ((u16)packet[17] << 8);
 1028              		.loc 1 2329 0
 1029 009c 9BB2     		uxth	r3, r3
 1030              		.loc 1 2330 0
 1031 009e 92B2     		uxth	r2, r2
2329:bluetooth_rxtx.c **** 			le.update_instant = packet[16] + ((u16)packet[17] << 8);
 1032              		.loc 1 2329 0
 1033 00a0 2386     		strh	r3, [r4, #48]	@ movhi
 1034              		.loc 1 2330 0
 1035 00a2 9B1A     		subs	r3, r3, r2
 1036 00a4 47F6FE72 		movw	r2, #32766
 1037 00a8 9342     		cmp	r3, r2
 1038 00aa 5ADC     		bgt	.L74
2331:bluetooth_rxtx.c **** 				le.update_pending = 1;
 1039              		.loc 1 2331 0
 1040 00ac 2D4B     		ldr	r3, .L92
 1041 00ae 0122     		movs	r2, #1
 1042 00b0 DA62     		str	r2, [r3, #44]
 1043 00b2 38BD     		pop	{r3, r4, r5, pc}
 1044              	.LVL104:
 1045              	.L78:
 1046              	.LBE11:
2332:bluetooth_rxtx.c **** 		}
2333:bluetooth_rxtx.c **** 
2334:bluetooth_rxtx.c **** 	} else if (le.link_state == LINK_LISTENING) {
 1047              		.loc 1 2334 0
 1048 00b4 012A     		cmp	r2, #1
 1049 00b6 54D1     		bne	.L74
 1050              	.LVL105:
 1051              	.LBB12:
2335:bluetooth_rxtx.c **** 		u8 pkt_type = packet[4] & 0x0F;
2336:bluetooth_rxtx.c **** 		if (pkt_type == 0x05) {
 1052              		.loc 1 2336 0
 1053 00b8 01F00F01 		and	r1, r1, #15
 1054              	.LVL106:
 1055 00bc 0529     		cmp	r1, #5
 1056 00be 50D1     		bne	.L74
 1057              	.LBB13:
2337:bluetooth_rxtx.c **** 			uint16_t conn_interval;
2338:bluetooth_rxtx.c **** 
2339:bluetooth_rxtx.c **** 			// ignore packets with incorrect length
2340:bluetooth_rxtx.c **** 			if (*data_len != 34)
 1058              		.loc 1 2340 0
 1059 00c0 4379     		ldrb	r3, [r0, #5]	@ zero_extendqisi2
ARM GAS  /tmp/ccMPHsjp.s 			page 63


 1060 00c2 222B     		cmp	r3, #34
 1061 00c4 4DD1     		bne	.L74
 1062              	.LVL107:
2341:bluetooth_rxtx.c **** 				return;
2342:bluetooth_rxtx.c **** 
2343:bluetooth_rxtx.c **** 			// conn interval must be [7.5 ms, 4.0s] in units of 1.25 ms
2344:bluetooth_rxtx.c **** 			conn_interval = (packet[29] << 8) | packet[28];
 1063              		.loc 1 2344 0
 1064 00c6 037F     		ldrb	r3, [r0, #28]	@ zero_extendqisi2
 1065 00c8 427F     		ldrb	r2, [r0, #29]	@ zero_extendqisi2
 1066 00ca 43EA0222 		orr	r2, r3, r2, lsl #8
2345:bluetooth_rxtx.c **** 			if (conn_interval < 6 || conn_interval > 3200)
 1067              		.loc 1 2345 0
 1068 00ce 063A     		subs	r2, r2, #6
 1069 00d0 92B2     		uxth	r2, r2
 1070 00d2 40F67A43 		movw	r3, #3194
 1071 00d6 9A42     		cmp	r2, r3
 1072 00d8 43D8     		bhi	.L74
2346:bluetooth_rxtx.c **** 				return;
2347:bluetooth_rxtx.c **** 
2348:bluetooth_rxtx.c **** 			// This is a connect packet
2349:bluetooth_rxtx.c **** 			// if we have a target, see if InitA or AdvA matches
2350:bluetooth_rxtx.c **** 			if (le.target_set &&
 1073              		.loc 1 2350 0
 1074 00da 236C     		ldr	r3, [r4, #64]
 1075 00dc 2BB9     		cbnz	r3, .L81
 1076              	.LVL108:
 1077              	.L83:
2351:bluetooth_rxtx.c **** 				memcmp(le.target, &packet[6], 6) &&  // Target address doesn't match Initiator.
2352:bluetooth_rxtx.c **** 				memcmp(le.target, &packet[12], 6)) {  // Target address doesn't match Advertiser.
2353:bluetooth_rxtx.c **** 				return;
2354:bluetooth_rxtx.c **** 			}
2355:bluetooth_rxtx.c **** 
2356:bluetooth_rxtx.c **** 			le.link_state = LINK_CONN_PENDING;
 1078              		.loc 1 2356 0
 1079 00de 0223     		movs	r3, #2
2357:bluetooth_rxtx.c **** 			le.crc_verify = 0; // we will drop many packets if we attempt to filter by CRC
 1080              		.loc 1 2357 0
 1081 00e0 0020     		movs	r0, #0
2356:bluetooth_rxtx.c **** 			le.crc_verify = 0; // we will drop many packets if we attempt to filter by CRC
 1082              		.loc 1 2356 0
 1083 00e2 2376     		strb	r3, [r4, #24]
 1084              		.loc 1 2357 0
 1085 00e4 6061     		str	r0, [r4, #20]
 1086              	.LVL109:
2358:bluetooth_rxtx.c **** 
2359:bluetooth_rxtx.c **** 			for (i = 0; i < 4; ++i)
 1087              		.loc 1 2359 0
 1088 00e6 0346     		mov	r3, r0
 1089 00e8 11E0     		b	.L82
 1090              	.LVL110:
 1091              	.L81:
2351:bluetooth_rxtx.c **** 				memcmp(le.target, &packet[12], 6)) {  // Target address doesn't match Advertiser.
 1092              		.loc 1 2351 0 discriminator 1
 1093 00ea 04F13800 		add	r0, r4, #56
 1094              	.LVL111:
 1095 00ee A91D     		adds	r1, r5, #6
ARM GAS  /tmp/ccMPHsjp.s 			page 64


 1096 00f0 0622     		movs	r2, #6
 1097 00f2 FFF7FEFF 		bl	memcmp
 1098              	.LVL112:
2350:bluetooth_rxtx.c **** 				memcmp(le.target, &packet[6], 6) &&  // Target address doesn't match Initiator.
 1099              		.loc 1 2350 0 discriminator 1
 1100 00f6 0028     		cmp	r0, #0
 1101 00f8 F1D0     		beq	.L83
2352:bluetooth_rxtx.c **** 				return;
 1102              		.loc 1 2352 0
 1103 00fa 04F13800 		add	r0, r4, #56
 1104 00fe 05F10C01 		add	r1, r5, #12
 1105 0102 0622     		movs	r2, #6
 1106 0104 FFF7FEFF 		bl	memcmp
 1107              	.LVL113:
2351:bluetooth_rxtx.c **** 				memcmp(le.target, &packet[12], 6)) {  // Target address doesn't match Advertiser.
 1108              		.loc 1 2351 0
 1109 0108 0028     		cmp	r0, #0
 1110 010a E8D0     		beq	.L83
 1111 010c 38BD     		pop	{r3, r4, r5, pc}
 1112              	.LVL114:
 1113              	.L82:
 1114 010e EA18     		adds	r2, r5, r3
2360:bluetooth_rxtx.c **** 				aa |= packet[18+i] << (i*8);
 1115              		.loc 1 2360 0 discriminator 2
 1116 0110 917C     		ldrb	r1, [r2, #18]	@ zero_extendqisi2
 1117 0112 DA00     		lsls	r2, r3, #3
 1118 0114 01FA02F2 		lsl	r2, r1, r2
2359:bluetooth_rxtx.c **** 				aa |= packet[18+i] << (i*8);
 1119              		.loc 1 2359 0 discriminator 2
 1120 0118 0133     		adds	r3, r3, #1
 1121              	.LVL115:
 1122 011a 042B     		cmp	r3, #4
 1123              		.loc 1 2360 0 discriminator 2
 1124 011c 40EA0200 		orr	r0, r0, r2
 1125              	.LVL116:
2359:bluetooth_rxtx.c **** 				aa |= packet[18+i] << (i*8);
 1126              		.loc 1 2359 0 discriminator 2
 1127 0120 F5D1     		bne	.L82
2361:bluetooth_rxtx.c **** 			le_set_access_address(aa);
 1128              		.loc 1 2361 0
 1129 0122 FFF7FEFF 		bl	le_set_access_address
 1130              	.LVL117:
2362:bluetooth_rxtx.c **** 
2363:bluetooth_rxtx.c **** #define CRC_INIT (2+4+6+6+4)
2364:bluetooth_rxtx.c **** 			le.crc_init = (packet[CRC_INIT+2] << 16)
2365:bluetooth_rxtx.c **** 						| (packet[CRC_INIT+1] << 8)
 1131              		.loc 1 2365 0
 1132 0126 E87D     		ldrb	r0, [r5, #23]	@ zero_extendqisi2
2364:bluetooth_rxtx.c **** 						| (packet[CRC_INIT+1] << 8)
 1133              		.loc 1 2364 0
 1134 0128 2B7E     		ldrb	r3, [r5, #24]	@ zero_extendqisi2
 1135              		.loc 1 2365 0
 1136 012a 0002     		lsls	r0, r0, #8
 1137 012c 40EA0340 		orr	r0, r0, r3, lsl #16
2366:bluetooth_rxtx.c **** 						|  packet[CRC_INIT+0];
 1138              		.loc 1 2366 0
 1139 0130 AB7D     		ldrb	r3, [r5, #22]	@ zero_extendqisi2
ARM GAS  /tmp/ccMPHsjp.s 			page 65


 1140 0132 1843     		orrs	r0, r0, r3
2364:bluetooth_rxtx.c **** 						| (packet[CRC_INIT+1] << 8)
 1141              		.loc 1 2364 0
 1142 0134 E060     		str	r0, [r4, #12]
2367:bluetooth_rxtx.c **** 			le.crc_init_reversed = rbit(le.crc_init);
 1143              		.loc 1 2367 0
 1144 0136 FFF7FEFF 		bl	rbit
 1145              	.LVL118:
2368:bluetooth_rxtx.c **** 
2369:bluetooth_rxtx.c **** #define WIN_SIZE (2+4+6+6+4+3)
2370:bluetooth_rxtx.c **** 			le.win_size = packet[WIN_SIZE];
 1146              		.loc 1 2370 0
 1147 013a 6B7E     		ldrb	r3, [r5, #25]	@ zero_extendqisi2
2367:bluetooth_rxtx.c **** 			le.crc_init_reversed = rbit(le.crc_init);
 1148              		.loc 1 2367 0
 1149 013c 2061     		str	r0, [r4, #16]
 1150              		.loc 1 2370 0
 1151 013e 84F82630 		strb	r3, [r4, #38]
2371:bluetooth_rxtx.c **** 
2372:bluetooth_rxtx.c **** #define WIN_OFFSET (2+4+6+6+4+3+1)
2373:bluetooth_rxtx.c **** 			le.win_offset = packet[WIN_OFFSET];
 1152              		.loc 1 2373 0
 1153 0142 AB7E     		ldrb	r3, [r5, #26]	@ zero_extendqisi2
 1154 0144 2385     		strh	r3, [r4, #40]	@ movhi
2374:bluetooth_rxtx.c **** 
2375:bluetooth_rxtx.c **** #define CONN_INTERVAL (2+4+6+6+4+3+1+2)
2376:bluetooth_rxtx.c **** 			le.conn_interval = (packet[CONN_INTERVAL+1] << 8)
 1155              		.loc 1 2376 0
 1156 0146 6A7F     		ldrb	r2, [r5, #29]	@ zero_extendqisi2
 1157 0148 2B7F     		ldrb	r3, [r5, #28]	@ zero_extendqisi2
 1158 014a 43EA0223 		orr	r3, r3, r2, lsl #8
 1159 014e 6384     		strh	r3, [r4, #34]	@ movhi
2377:bluetooth_rxtx.c **** 							 |  packet[CONN_INTERVAL+0];
2378:bluetooth_rxtx.c **** 
2379:bluetooth_rxtx.c **** #define CHANNEL_INC (2+4+6+6+4+3+1+2+2+2+2+5)
2380:bluetooth_rxtx.c **** 			le.channel_increment = packet[CHANNEL_INC] & 0x1f;
 1160              		.loc 1 2380 0
 1161 0150 95F82730 		ldrb	r3, [r5, #39]	@ zero_extendqisi2
2381:bluetooth_rxtx.c **** 			le.channel_idx = le.channel_increment;
2382:bluetooth_rxtx.c **** 
2383:bluetooth_rxtx.c **** 			// Hop to the initial channel immediately
2384:bluetooth_rxtx.c **** 			do_hop = 1;
 1162              		.loc 1 2384 0
 1163 0154 0122     		movs	r2, #1
2380:bluetooth_rxtx.c **** 			le.channel_idx = le.channel_increment;
 1164              		.loc 1 2380 0
 1165 0156 03F01F03 		and	r3, r3, #31
 1166 015a A376     		strb	r3, [r4, #26]
2381:bluetooth_rxtx.c **** 			le.channel_idx = le.channel_increment;
 1167              		.loc 1 2381 0
 1168 015c 6376     		strb	r3, [r4, #25]
 1169              		.loc 1 2384 0
 1170 015e 034B     		ldr	r3, .L92+8
 1171 0160 DA72     		strb	r2, [r3, #11]
 1172              	.L74:
 1173 0162 38BD     		pop	{r3, r4, r5, pc}
 1174              	.LVL119:
ARM GAS  /tmp/ccMPHsjp.s 			page 66


 1175              	.L93:
 1176              		.align	2
 1177              	.L92:
 1178 0164 00000000 		.word	.LANCHOR1
 1179 0168 00000000 		.word	clkn
 1180 016c 00000000 		.word	.LANCHOR0
 1181              	.LBE13:
 1182              	.LBE12:
 1183              		.cfi_endproc
 1184              	.LFE27:
 1186              		.global	__aeabi_llsl
 1187              		.section	.text.vendor_request_handler,"ax",%progbits
 1188              		.align	1
 1189              		.thumb
 1190              		.thumb_func
 1192              	vendor_request_handler:
 1193              	.LFB3:
 206:bluetooth_rxtx.c **** 	uint32_t clock;
 1194              		.loc 1 206 0
 1195              		.cfi_startproc
 1196              		@ args = 0, pretend = 0, frame = 0
 1197              		@ frame_needed = 0, uses_anonymous_args = 0
 1198              	.LVL120:
 1199 0000 2DE9F041 		push	{r4, r5, r6, r7, r8, lr}
 1200              		.cfi_def_cfa_offset 24
 1201              		.cfi_offset 4, -24
 1202              		.cfi_offset 5, -20
 1203              		.cfi_offset 6, -16
 1204              		.cfi_offset 7, -12
 1205              		.cfi_offset 8, -8
 1206              		.cfi_offset 14, -4
 1207              	.LVL121:
 212:bluetooth_rxtx.c **** 
 1208              		.loc 1 212 0
 1209 0004 8A4C     		ldr	r4, .L255
 206:bluetooth_rxtx.c **** 	uint32_t clock;
 1210              		.loc 1 206 0
 1211 0006 1D46     		mov	r5, r3
 212:bluetooth_rxtx.c **** 
 1212              		.loc 1 212 0
 1213 0008 1B68     		ldr	r3, [r3]
 1214              	.LVL122:
 206:bluetooth_rxtx.c **** 	uint32_t clock;
 1215              		.loc 1 206 0
 1216 000a 0F46     		mov	r7, r1
 1217 000c 1646     		mov	r6, r2
 212:bluetooth_rxtx.c **** 
 1218              		.loc 1 212 0
 1219 000e 2362     		str	r3, [r4, #32]
 214:bluetooth_rxtx.c **** 
 1220              		.loc 1 214 0
 1221 0010 4A28     		cmp	r0, #74
 1222 0012 00F25483 		bhi	.L213
 1223 0016 DFE810F0 		tbh	[pc, r0, lsl #1]
 1224              	.LVL123:
 1225              	.L97:
 1226 001a 0401     		.2byte	(.L230-.L97)/2
ARM GAS  /tmp/ccMPHsjp.s 			page 67


 1227 001c 4F00     		.2byte	(.L98-.L97)/2
 1228 001e 5300     		.2byte	(.L99-.L97)/2
 1229 0020 5600     		.2byte	(.L100-.L97)/2
 1230 0022 5B00     		.2byte	(.L101-.L97)/2
 1231 0024 5E00     		.2byte	(.L102-.L97)/2
 1232 0026 6300     		.2byte	(.L103-.L97)/2
 1233 0028 6600     		.2byte	(.L104-.L97)/2
 1234 002a 6800     		.2byte	(.L105-.L97)/2
 1235 002c 6C00     		.2byte	(.L106-.L97)/2
 1236 002e 7100     		.2byte	(.L107-.L97)/2
 1237 0030 C400     		.2byte	(.L108-.L97)/2
 1238 0032 CB00     		.2byte	(.L109-.L97)/2
 1239 0034 0901     		.2byte	(.L245-.L97)/2
 1240 0036 7F00     		.2byte	(.L111-.L97)/2
 1241 0038 7A00     		.2byte	(.L112-.L97)/2
 1242 003a 8400     		.2byte	(.L113-.L97)/2
 1243 003c 8900     		.2byte	(.L114-.L97)/2
 1244 003e 8C00     		.2byte	(.L115-.L97)/2
 1245 0040 9100     		.2byte	(.L116-.L97)/2
 1246 0042 9900     		.2byte	(.L117-.L97)/2
 1247 0044 BD00     		.2byte	(.L118-.L97)/2
 1248 0046 BF00     		.2byte	(.L119-.L97)/2
 1249 0048 C100     		.2byte	(.L120-.L97)/2
 1250 004a 0201     		.2byte	(.L121-.L97)/2
 1251 004c 0601     		.2byte	(.L122-.L97)/2
 1252 004e 5203     		.2byte	(.L213-.L97)/2
 1253 0050 2101     		.2byte	(.L123-.L97)/2
 1254 0052 9C00     		.2byte	(.L124-.L97)/2
 1255 0054 A300     		.2byte	(.L125-.L97)/2
 1256 0056 AD00     		.2byte	(.L126-.L97)/2
 1257 0058 AB00     		.2byte	(.L127-.L97)/2
 1258 005a AF00     		.2byte	(.L128-.L97)/2
 1259 005c 4E01     		.2byte	(.L129-.L97)/2
 1260 005e 4001     		.2byte	(.L130-.L97)/2
 1261 0060 6B01     		.2byte	(.L131-.L97)/2
 1262 0062 6E01     		.2byte	(.L132-.L97)/2
 1263 0064 7201     		.2byte	(.L133-.L97)/2
 1264 0066 7601     		.2byte	(.L134-.L97)/2
 1265 0068 A901     		.2byte	(.L135-.L97)/2
 1266 006a DE01     		.2byte	(.L136-.L97)/2
 1267 006c 0202     		.2byte	(.L137-.L97)/2
 1268 006e 4202     		.2byte	(.L138-.L97)/2
 1269 0070 5502     		.2byte	(.L139-.L97)/2
 1270 0072 6002     		.2byte	(.L140-.L97)/2
 1271 0074 4F03     		.2byte	(.L206-.L97)/2
 1272 0076 6F02     		.2byte	(.L142-.L97)/2
 1273 0078 7402     		.2byte	(.L143-.L97)/2
 1274 007a 7A02     		.2byte	(.L144-.L97)/2
 1275 007c 8102     		.2byte	(.L145-.L97)/2
 1276 007e 9002     		.2byte	(.L146-.L97)/2
 1277 0080 EB01     		.2byte	(.L147-.L97)/2
 1278 0082 F801     		.2byte	(.L148-.L97)/2
 1279 0084 B702     		.2byte	(.L149-.L97)/2
 1280 0086 EE02     		.2byte	(.L150-.L97)/2
 1281 0088 5D01     		.2byte	(.L151-.L97)/2
 1282 008a 3103     		.2byte	(.L152-.L97)/2
 1283 008c 5203     		.2byte	(.L213-.L97)/2
ARM GAS  /tmp/ccMPHsjp.s 			page 68


 1284 008e BF02     		.2byte	(.L153-.L97)/2
 1285 0090 4803     		.2byte	(.L154-.L97)/2
 1286 0092 4B03     		.2byte	(.L155-.L97)/2
 1287 0094 C801     		.2byte	(.L156-.L97)/2
 1288 0096 DA01     		.2byte	(.L157-.L97)/2
 1289 0098 0D02     		.2byte	(.L158-.L97)/2
 1290 009a 5203     		.2byte	(.L213-.L97)/2
 1291 009c 4D00     		.2byte	(.L159-.L97)/2
 1292 009e D502     		.2byte	(.L160-.L97)/2
 1293 00a0 3E01     		.2byte	(.L161-.L97)/2
 1294 00a2 E502     		.2byte	(.L162-.L97)/2
 1295 00a4 1402     		.2byte	(.L163-.L97)/2
 1296 00a6 4902     		.2byte	(.L164-.L97)/2
 1297 00a8 4F02     		.2byte	(.L165-.L97)/2
 1298 00aa 1A03     		.2byte	(.L166-.L97)/2
 1299 00ac F902     		.2byte	(.L167-.L97)/2
 1300 00ae 4B00     		.2byte	(.L168-.L97)/2
 1301              	.L168:
 1302 00b0 0023     		movs	r3, #0
 1303 00b2 B9E2     		b	.L169
 1304              	.L159:
 1305 00b4 0024     		movs	r4, #0
 1306 00b6 74E2     		b	.L170
 1307              	.L98:
 221:bluetooth_rxtx.c **** 		*data_len = 0;
 1308              		.loc 1 221 0
 1309 00b8 0120     		movs	r0, #1
 1310              	.LVL124:
 1311 00ba A074     		strb	r0, [r4, #18]
 222:bluetooth_rxtx.c **** 		break;
 1312              		.loc 1 222 0
 1313 00bc 0023     		movs	r3, #0
 1314 00be A1E1     		b	.L223
 1315              	.LVL125:
 1316              	.L99:
 226:bluetooth_rxtx.c **** 		requested_mode = MODE_TX_SYMBOLS;
 1317              		.loc 1 226 0
 1318 00c0 0223     		movs	r3, #2
 1319 00c2 A372     		strb	r3, [r4, #10]
 1320 00c4 F5E0     		b	.L246
 1321              	.L100:
 232:bluetooth_rxtx.c **** 		*data_len = 1;
 1322              		.loc 1 232 0
 1323 00c6 5B4B     		ldr	r3, .L255+4
 1324 00c8 1B68     		ldr	r3, [r3]
 1325 00ca C3F34003 		ubfx	r3, r3, #1, #1
 1326 00ce 18E1     		b	.L224
 1327              	.L101:
 237:bluetooth_rxtx.c **** 			USRLED_SET;
 1328              		.loc 1 237 0
 1329 00d0 0A88     		ldrh	r2, [r1]
 1330 00d2 0223     		movs	r3, #2
 1331 00d4 15E0     		b	.L242
 1332              	.L102:
 244:bluetooth_rxtx.c **** 		*data_len = 1;
 1333              		.loc 1 244 0
 1334 00d6 574B     		ldr	r3, .L255+4
ARM GAS  /tmp/ccMPHsjp.s 			page 69


 1335 00d8 1B68     		ldr	r3, [r3]
 1336 00da C3F30013 		ubfx	r3, r3, #4, #1
 1337 00de 10E1     		b	.L224
 1338              	.L103:
 249:bluetooth_rxtx.c **** 			RXLED_SET;
 1339              		.loc 1 249 0
 1340 00e0 0A88     		ldrh	r2, [r1]
 1341 00e2 1023     		movs	r3, #16
 1342 00e4 0DE0     		b	.L242
 1343              	.L104:
 256:bluetooth_rxtx.c **** 		*data_len = 1;
 1344              		.loc 1 256 0
 1345 00e6 534B     		ldr	r3, .L255+4
 1346 00e8 24E0     		b	.L248
 1347              	.L105:
 261:bluetooth_rxtx.c **** 			TXLED_SET;
 1348              		.loc 1 261 0
 1349 00ea 0A88     		ldrh	r2, [r1]
 1350 00ec 4FF48073 		mov	r3, #256
 1351 00f0 07E0     		b	.L242
 1352              	.L106:
 268:bluetooth_rxtx.c **** 		*data_len = 1;
 1353              		.loc 1 268 0
 1354 00f2 504B     		ldr	r3, .L255+4
 1355 00f4 1B68     		ldr	r3, [r3]
 1356 00f6 C3F34023 		ubfx	r3, r3, #9, #1
 1357 00fa 02E1     		b	.L224
 1358              	.L107:
 273:bluetooth_rxtx.c **** 			CC1V8_SET;
 1359              		.loc 1 273 0
 1360 00fc 0A88     		ldrh	r2, [r1]
 1361 00fe 4FF40073 		mov	r3, #512
 1362              	.L242:
 1363 0102 12B9     		cbnz	r2, .L253
 264:bluetooth_rxtx.c **** 		break;
 1364              		.loc 1 264 0
 1365 0104 4C4A     		ldr	r2, .L255+8
 1366              	.L226:
 1367 0106 1360     		str	r3, [r2]
 1368 0108 D6E2     		b	.L206
 1369              	.L253:
 274:bluetooth_rxtx.c **** 		else
 1370              		.loc 1 274 0
 1371 010a 4C4A     		ldr	r2, .L255+12
 1372 010c FBE7     		b	.L226
 1373              	.L112:
 280:bluetooth_rxtx.c **** 		break;
 1374              		.loc 1 280 0
 1375 010e 3046     		mov	r0, r6
 1376              	.LVL126:
 1377 0110 2946     		mov	r1, r5
 1378              	.LVL127:
 1379 0112 FFF7FEFF 		bl	get_part_num
 1380              	.LVL128:
 1381 0116 CFE2     		b	.L206
 1382              	.LVL129:
 1383              	.L111:
ARM GAS  /tmp/ccMPHsjp.s 			page 70


 288:bluetooth_rxtx.c **** 		break;
 1384              		.loc 1 288 0
 1385 0118 3046     		mov	r0, r6
 1386              	.LVL130:
 1387 011a 2946     		mov	r1, r5
 1388              	.LVL131:
 1389 011c FFF7FEFF 		bl	get_device_serial
 1390              	.LVL132:
 1391 0120 CAE2     		b	.L206
 1392              	.LVL133:
 1393              	.L113:
 293:bluetooth_rxtx.c **** 		*data_len = 1;
 1394              		.loc 1 293 0
 1395 0122 474B     		ldr	r3, .L255+16
 1396 0124 1B68     		ldr	r3, [r3]
 1397 0126 C3F3C013 		ubfx	r3, r3, #7, #1
 1398 012a EAE0     		b	.L224
 1399              	.L114:
 298:bluetooth_rxtx.c **** 			PAEN_SET;
 1400              		.loc 1 298 0
 1401 012c 0A88     		ldrh	r2, [r1]
 1402 012e 8023     		movs	r3, #128
 1403 0130 07E0     		b	.L244
 1404              	.L115:
 305:bluetooth_rxtx.c **** 		*data_len = 1;
 1405              		.loc 1 305 0
 1406 0132 434B     		ldr	r3, .L255+16
 1407              	.L248:
 1408 0134 1B68     		ldr	r3, [r3]
 1409 0136 C3F30023 		ubfx	r3, r3, #8, #1
 1410 013a E2E0     		b	.L224
 1411              	.L116:
 310:bluetooth_rxtx.c **** 			HGM_SET;
 1412              		.loc 1 310 0
 1413 013c 0A88     		ldrh	r2, [r1]
 1414 013e 4FF48073 		mov	r3, #256
 1415              	.L244:
 1416 0142 0AB1     		cbz	r2, .L176
 311:bluetooth_rxtx.c **** 		else
 1417              		.loc 1 311 0
 1418 0144 3F4A     		ldr	r2, .L255+20
 1419 0146 DEE7     		b	.L226
 1420              	.L176:
 313:bluetooth_rxtx.c **** 		break;
 1421              		.loc 1 313 0
 1422 0148 3F4A     		ldr	r2, .L255+24
 1423 014a DCE7     		b	.L226
 1424              	.L117:
 319:bluetooth_rxtx.c **** 		break;
 1425              		.loc 1 319 0
 1426 014c 0323     		movs	r3, #3
 1427              	.LVL134:
 1428              	.L229:
 1429 014e A374     		strb	r3, [r4, #18]
 1430 0150 B2E2     		b	.L206
 1431              	.LVL135:
 1432              	.L124:
ARM GAS  /tmp/ccMPHsjp.s 			page 71


 323:bluetooth_rxtx.c **** 		*data_len = 1;
 1433              		.loc 1 323 0
 1434 0152 0520     		movs	r0, #5
 1435              	.LVL136:
 1436 0154 FFF7FEFF 		bl	cc2400_get
 1437              	.LVL137:
 1438 0158 00F00700 		and	r0, r0, #7
 1439 015c 3070     		strb	r0, [r6]
 1440 015e E8E1     		b	.L220
 1441              	.LVL138:
 1442              	.L125:
 328:bluetooth_rxtx.c **** 			cc2400_set(FREND, 8 | request_params[0]);
 1443              		.loc 1 328 0
 1444 0160 0988     		ldrh	r1, [r1]
 1445              	.LVL139:
 1446 0162 0729     		cmp	r1, #7
 1447 0164 00F2AB82 		bhi	.L213
 329:bluetooth_rxtx.c **** 		} else {
 1448              		.loc 1 329 0
 1449 0168 0520     		movs	r0, #5
 1450              	.LVL140:
 1451 016a 41F00801 		orr	r1, r1, #8
 1452 016e 15E2     		b	.L234
 1453              	.LVL141:
 1454              	.L127:
 336:bluetooth_rxtx.c **** 		break;
 1455              		.loc 1 336 0
 1456 0170 0523     		movs	r3, #5
 1457 0172 ECE7     		b	.L229
 1458              	.L126:
 340:bluetooth_rxtx.c **** 		break;
 1459              		.loc 1 340 0
 1460 0174 0623     		movs	r3, #6
 1461 0176 EAE7     		b	.L229
 1462              	.L128:
 345:bluetooth_rxtx.c **** 		data[1] = rr.request_pa;
 1463              		.loc 1 345 0
 1464 0178 344B     		ldr	r3, .L255+28
 1465 017a 1A78     		ldrb	r2, [r3]	@ zero_extendqisi2
 1466 017c 3270     		strb	r2, [r6]
 346:bluetooth_rxtx.c **** 		data[2] = rr.request_num;
 1467              		.loc 1 346 0
 1468 017e 5A78     		ldrb	r2, [r3, #1]	@ zero_extendqisi2
 1469 0180 7270     		strb	r2, [r6, #1]
 347:bluetooth_rxtx.c **** 		data[3] = rr.reply_pa;
 1470              		.loc 1 347 0
 1471 0182 9A78     		ldrb	r2, [r3, #2]	@ zero_extendqisi2
 1472 0184 B270     		strb	r2, [r6, #2]
 348:bluetooth_rxtx.c **** 		data[4] = rr.reply_num;
 1473              		.loc 1 348 0
 1474 0186 DA78     		ldrb	r2, [r3, #3]	@ zero_extendqisi2
 1475 0188 F270     		strb	r2, [r6, #3]
 349:bluetooth_rxtx.c **** 		*data_len = 5;
 1476              		.loc 1 349 0
 1477 018a 1B79     		ldrb	r3, [r3, #4]	@ zero_extendqisi2
 1478 018c 3371     		strb	r3, [r6, #4]
 350:bluetooth_rxtx.c **** 		break;
ARM GAS  /tmp/ccMPHsjp.s 			page 72


 1479              		.loc 1 350 0
 1480 018e 0523     		movs	r3, #5
 1481              	.LVL142:
 1482              	.L232:
 1483 0190 2B60     		str	r3, [r5]
 1484 0192 91E2     		b	.L206
 1485              	.LVL143:
 1486              	.L118:
 354:bluetooth_rxtx.c **** 		break;
 1487              		.loc 1 354 0
 1488 0194 0023     		movs	r3, #0
 1489 0196 DAE7     		b	.L229
 1490              	.L119:
 358:bluetooth_rxtx.c **** 		*data_len = 1;
 1491              		.loc 1 358 0
 1492 0198 2378     		ldrb	r3, [r4]	@ zero_extendqisi2
 1493 019a B2E0     		b	.L224
 1494              	.L120:
 363:bluetooth_rxtx.c **** 		break;
 1495              		.loc 1 363 0
 1496 019c 0B78     		ldrb	r3, [r1]	@ zero_extendqisi2
 1497 019e 2370     		strb	r3, [r4]
 1498 01a0 8AE2     		b	.L206
 1499              	.L108:
 367:bluetooth_rxtx.c **** 		data[1] = (channel >> 8) & 0xFF;
 1500              		.loc 1 367 0
 1501 01a2 2B4B     		ldr	r3, .L255+32
 1502 01a4 1A88     		ldrh	r2, [r3]
 1503 01a6 3270     		strb	r2, [r6]
 368:bluetooth_rxtx.c **** 		*data_len = 2;
 1504              		.loc 1 368 0
 1505 01a8 1B88     		ldrh	r3, [r3]
 1506 01aa C3F30723 		ubfx	r3, r3, #8, #8
 1507 01ae A6E1     		b	.L252
 1508              	.L109:
 373:bluetooth_rxtx.c **** 		/* bluetooth band sweep mode, start at channel 2402 */
 1509              		.loc 1 373 0
 1510 01b0 0A88     		ldrh	r2, [r1]
 1511 01b2 1F4B     		ldr	r3, .L255
 1512 01b4 E281     		strh	r2, [r4, #14]	@ movhi
 375:bluetooth_rxtx.c **** 			hop_mode = HOP_SWEEP;
 1513              		.loc 1 375 0
 1514 01b6 E189     		ldrh	r1, [r4, #14]
 1515              	.LVL144:
 1516 01b8 40F6EA22 		movw	r2, #2794
 1517 01bc 89B2     		uxth	r1, r1
 1518 01be 9142     		cmp	r1, r2
 1519 01c0 05D9     		bls	.L177
 376:bluetooth_rxtx.c **** 			requested_channel = 2402;
 1520              		.loc 1 376 0
 1521 01c2 0122     		movs	r2, #1
 1522 01c4 9A72     		strb	r2, [r3, #10]
 377:bluetooth_rxtx.c **** 		}
 1523              		.loc 1 377 0
 1524 01c6 40F66212 		movw	r2, #2402
 1525 01ca DA81     		strh	r2, [r3, #14]	@ movhi
 1526 01cc 17E0     		b	.L178
ARM GAS  /tmp/ccMPHsjp.s 			page 73


 1527              	.L177:
 381:bluetooth_rxtx.c **** 			requested_channel = MAX(requested_channel, MIN_FREQ);
 1528              		.loc 1 381 0
 1529 01ce 0022     		movs	r2, #0
 1530 01d0 9A72     		strb	r2, [r3, #10]
 382:bluetooth_rxtx.c **** 			requested_channel = MIN(requested_channel, MAX_FREQ);
 1531              		.loc 1 382 0
 1532 01d2 D989     		ldrh	r1, [r3, #14]
 1533 01d4 40F6DC02 		movw	r2, #2268
 1534 01d8 89B2     		uxth	r1, r1
 1535 01da 9142     		cmp	r1, r2
 1536 01dc 8ABF     		itet	hi
 1537 01de DB89     		ldrhhi	r3, [r3, #14]
 1538 01e0 1346     		movls	r3, r2
 1539 01e2 9BB2     		uxthhi	r3, r3
 1540 01e4 E381     		strh	r3, [r4, #14]	@ movhi
 383:bluetooth_rxtx.c **** 		}
 1541              		.loc 1 383 0
 1542 01e6 E289     		ldrh	r2, [r4, #14]
 1543 01e8 40F6E923 		movw	r3, #2793
 1544 01ec 92B2     		uxth	r2, r2
 1545 01ee 9A42     		cmp	r2, r3
 1546 01f0 97BF     		itett	ls
 1547 01f2 0F4B     		ldrls	r3, .L255
 1548 01f4 40F6EA23 		movwhi	r3, #2794
 1549 01f8 DB89     		ldrhls	r3, [r3, #14]
 1550 01fa 9BB2     		uxthls	r3, r3
 1551 01fc E381     		strh	r3, [r4, #14]	@ movhi
 1552              	.L178:
 386:bluetooth_rxtx.c **** 		if (mode != MODE_BT_FOLLOW_LE) {
 1553              		.loc 1 386 0
 1554 01fe E189     		ldrh	r1, [r4, #14]
 1555 0200 134B     		ldr	r3, .L255+32
 1556 0202 89B2     		uxth	r1, r1
 1557 0204 A3F84A10 		strh	r1, [r3, #74]	@ movhi
 387:bluetooth_rxtx.c **** 			channel = requested_channel;
 1558              		.loc 1 387 0
 1559 0208 617C     		ldrb	r1, [r4, #17]	@ zero_extendqisi2
 386:bluetooth_rxtx.c **** 		if (mode != MODE_BT_FOLLOW_LE) {
 1560              		.loc 1 386 0
 1561 020a 094A     		ldr	r2, .L255
 387:bluetooth_rxtx.c **** 			channel = requested_channel;
 1562              		.loc 1 387 0
 1563 020c 0929     		cmp	r1, #9
 1564 020e 00F05382 		beq	.L206
 388:bluetooth_rxtx.c **** 			requested_channel = 0;
 1565              		.loc 1 388 0
 1566 0212 D189     		ldrh	r1, [r2, #14]
 1567 0214 89B2     		uxth	r1, r1
 1568 0216 1980     		strh	r1, [r3]	@ movhi
 389:bluetooth_rxtx.c **** 
 1569              		.loc 1 389 0
 1570 0218 0021     		movs	r1, #0
 1571 021a D181     		strh	r1, [r2, #14]	@ movhi
 1572 021c 29E2     		b	.L236
 1573              	.LVL145:
 1574              	.L121:
ARM GAS  /tmp/ccMPHsjp.s 			page 74


 398:bluetooth_rxtx.c **** 		*data_len = 0; /* should never return */
 1575              		.loc 1 398 0
 1576 021e FFF7FEFF 		bl	set_isp
 1577              	.LVL146:
 1578              	.L230:
 399:bluetooth_rxtx.c **** 		break;
 1579              		.loc 1 399 0
 1580 0222 0023     		movs	r3, #0
 1581 0224 B4E7     		b	.L232
 1582              	.LVL147:
 1583              	.L122:
 403:bluetooth_rxtx.c **** 		requested_mode = MODE_RESET;
 1584              		.loc 1 403 0
 1585 0226 0B4A     		ldr	r2, .L255+36
 1586 0228 0B4B     		ldr	r3, .L255+40
 1587 022a 1A60     		str	r2, [r3]
 1588              	.L245:
 404:bluetooth_rxtx.c **** 		break;
 1589              		.loc 1 404 0
 1590 022c 0B23     		movs	r3, #11
 1591 022e 8EE7     		b	.L229
 1592              	.L256:
 1593              		.align	2
 1594              	.L255:
 1595 0230 00000000 		.word	.LANCHOR0
 1596 0234 34C00920 		.word	537509940
 1597 0238 3CC00920 		.word	537509948
 1598 023c 38C00920 		.word	537509944
 1599 0240 54C00920 		.word	537509972
 1600 0244 58C00920 		.word	537509976
 1601 0248 5CC00920 		.word	537509980
 1602 024c 00000000 		.word	rr
 1603 0250 00000000 		.word	.LANCHOR1
 1604 0254 21BB0543 		.word	1124449057
 1605 0258 00000000 		.word	bootloader_ctrl
 1606              	.L123:
 408:bluetooth_rxtx.c **** 				request_params[1] < 2049 || request_params[1] > 3072 ||
 1607              		.loc 1 408 0
 1608 025c 0A88     		ldrh	r2, [r1]
 1609 025e 6FF4006C 		mvn	ip, #2048
 1610 0262 02EB0C03 		add	r3, r2, ip
 1611 0266 40F2FF31 		movw	r1, #1023
 1612              	.LVL148:
 1613 026a 9BB2     		uxth	r3, r3
 1614 026c 8B42     		cmp	r3, r1
 1615 026e 00F22682 		bhi	.L213
 409:bluetooth_rxtx.c **** 				request_params[1] < request_params[0])
 1616              		.loc 1 409 0 discriminator 1
 1617 0272 7B88     		ldrh	r3, [r7, #2]
 408:bluetooth_rxtx.c **** 				request_params[1] < 2049 || request_params[1] > 3072 ||
 1618              		.loc 1 408 0 discriminator 1
 1619 0274 6FF40066 		mvn	r6, #2048
 1620              	.LVL149:
 1621 0278 9819     		adds	r0, r3, r6
 1622              	.LVL150:
 1623 027a 80B2     		uxth	r0, r0
 1624 027c 8842     		cmp	r0, r1
ARM GAS  /tmp/ccMPHsjp.s 			page 75


 1625 027e 00F21E82 		bhi	.L213
 409:bluetooth_rxtx.c **** 				request_params[1] < request_params[0])
 1626              		.loc 1 409 0 discriminator 1
 1627 0282 9342     		cmp	r3, r2
 1628 0284 C0F01B82 		bcc	.L213
 412:bluetooth_rxtx.c **** 		high_freq = request_params[1];
 1629              		.loc 1 412 0
 1630 0288 AF49     		ldr	r1, .L257
 1631 028a A1F84C20 		strh	r2, [r1, #76]	@ movhi
 413:bluetooth_rxtx.c **** 		requested_mode = MODE_SPECAN;
 1632              		.loc 1 413 0
 1633 028e A1F84E30 		strh	r3, [r1, #78]	@ movhi
 414:bluetooth_rxtx.c **** 		*data_len = 0;
 1634              		.loc 1 414 0
 1635 0292 0423     		movs	r3, #4
 1636 0294 0DE0     		b	.L246
 1637              	.LVL151:
 1638              	.L161:
 419:bluetooth_rxtx.c **** 		*data_len = 0;
 1639              		.loc 1 419 0
 1640 0296 0F23     		movs	r3, #15
 1641 0298 0BE0     		b	.L246
 1642              	.L130:
 424:bluetooth_rxtx.c **** 			return 0;
 1643              		.loc 1 424 0
 1644 029a 0B88     		ldrh	r3, [r1]
 1645 029c B3F5807F 		cmp	r3, #256
 1646 02a0 00F20D82 		bhi	.L213
 426:bluetooth_rxtx.c **** 		requested_mode = MODE_LED_SPECAN;
 1647              		.loc 1 426 0
 1648 02a4 C3F13603 		rsb	r3, r3, #54
 1649 02a8 A74A     		ldr	r2, .L257
 1650 02aa DBB2     		uxtb	r3, r3
 1651 02ac 82F85030 		strb	r3, [r2, #80]
 427:bluetooth_rxtx.c **** 		*data_len = 0;
 1652              		.loc 1 427 0
 1653 02b0 0723     		movs	r3, #7
 1654              	.LVL152:
 1655              	.L246:
 1656 02b2 A374     		strb	r3, [r4, #18]
 1657 02b4 B5E7     		b	.L230
 1658              	.LVL153:
 1659              	.L129:
 432:bluetooth_rxtx.c **** 		data[1] = 0x00;
 1660              		.loc 1 432 0
 1661 02b6 0023     		movs	r3, #0
 1662 02b8 3370     		strb	r3, [r6]
 433:bluetooth_rxtx.c **** 
 1663              		.loc 1 433 0
 1664 02ba 7370     		strb	r3, [r6, #1]
 435:bluetooth_rxtx.c **** 		data[2] = length;
 1665              		.loc 1 435 0
 1666 02bc A348     		ldr	r0, .L257+4
 1667              	.LVL154:
 1668 02be FFF7FEFF 		bl	strlen
 1669              	.LVL155:
 1670 02c2 C4B2     		uxtb	r4, r0
ARM GAS  /tmp/ccMPHsjp.s 			page 76


 1671              	.LVL156:
 436:bluetooth_rxtx.c **** 
 1672              		.loc 1 436 0
 1673 02c4 B470     		strb	r4, [r6, #2]
 438:bluetooth_rxtx.c **** 
 1674              		.loc 1 438 0
 1675 02c6 2246     		mov	r2, r4
 1676 02c8 F01C     		adds	r0, r6, #3
 1677 02ca A049     		ldr	r1, .L257+4
 1678 02cc FFF7FEFF 		bl	memcpy
 1679              	.LVL157:
 440:bluetooth_rxtx.c **** 		break;
 1680              		.loc 1 440 0
 1681 02d0 0334     		adds	r4, r4, #3
 1682              	.LVL158:
 1683 02d2 0BE0     		b	.L235
 1684              	.LVL159:
 1685              	.L151:
 444:bluetooth_rxtx.c **** 		data[0] = length;
 1686              		.loc 1 444 0
 1687 02d4 9E48     		ldr	r0, .L257+8
 1688              	.LVL160:
 1689 02d6 FFF7FEFF 		bl	strlen
 1690              	.LVL161:
 1691 02da C4B2     		uxtb	r4, r0
 1692              	.LVL162:
 445:bluetooth_rxtx.c **** 		memcpy(&data[1], compile_info, length);
 1693              		.loc 1 445 0
 1694 02dc 3046     		mov	r0, r6
 1695 02de 00F8014B 		strb	r4, [r0], #1
 446:bluetooth_rxtx.c **** 		*data_len = 1 + length;
 1696              		.loc 1 446 0
 1697 02e2 2246     		mov	r2, r4
 1698 02e4 9A49     		ldr	r1, .L257+8
 1699 02e6 FFF7FEFF 		bl	memcpy
 1700              	.LVL163:
 447:bluetooth_rxtx.c **** 		break;
 1701              		.loc 1 447 0
 1702 02ea 0134     		adds	r4, r4, #1
 1703              	.LVL164:
 1704              	.L235:
 1705 02ec 2C60     		str	r4, [r5]
 1706 02ee E3E1     		b	.L206
 1707              	.LVL165:
 1708              	.L131:
 451:bluetooth_rxtx.c **** 		*data_len = 1;
 1709              		.loc 1 451 0
 1710 02f0 0120     		movs	r0, #1
 1711              	.LVL166:
 1712 02f2 3070     		strb	r0, [r6]
 1713 02f4 1EE1     		b	.L221
 1714              	.LVL167:
 1715              	.L132:
 456:bluetooth_rxtx.c **** 		cs_threshold_calc_and_set(channel);
 1716              		.loc 1 456 0
 1717 02f6 0A88     		ldrh	r2, [r1]
 1718 02f8 964B     		ldr	r3, .L257+12
ARM GAS  /tmp/ccMPHsjp.s 			page 77


 1719 02fa 1A70     		strb	r2, [r3]
 1720 02fc B8E1     		b	.L233
 1721              	.L133:
 461:bluetooth_rxtx.c **** 		*data_len = 1;
 1722              		.loc 1 461 0
 1723 02fe 954B     		ldr	r3, .L257+12
 1724 0300 1B78     		ldrb	r3, [r3]	@ zero_extendqisi2
 1725              	.L224:
 1726 0302 3370     		strb	r3, [r6]
 1727 0304 15E1     		b	.L220
 1728              	.L134:
 466:bluetooth_rxtx.c **** 		target.syncword = 0;
 1729              		.loc 1 466 0
 1730 0306 944F     		ldr	r7, .L257+16
 1731 0308 0024     		movs	r4, #0
 1732 030a 0025     		movs	r5, #0
 1733              	.LVL168:
 1734 030c C7E90045 		strd	r4, [r7]
 467:bluetooth_rxtx.c **** 		for(int i=0; i < 8; i++) {
 1735              		.loc 1 467 0
 1736 0310 C7E90245 		strd	r4, [r7, #8]
 1737              	.LVL169:
 1738              	.LBB14:
 468:bluetooth_rxtx.c **** 			target.address |= (uint64_t)data[i] << 8*i;
 1739              		.loc 1 468 0
 1740 0314 4FF00008 		mov	r8, #0
 1741              	.LVL170:
 1742              	.L183:
 469:bluetooth_rxtx.c **** 		}
 1743              		.loc 1 469 0 discriminator 2
 1744 0318 16F80800 		ldrb	r0, [r6, r8]	@ zero_extendqisi2
 1745 031c 4FEAC802 		lsl	r2, r8, #3
 1746 0320 0021     		movs	r1, #0
 1747 0322 FFF7FEFF 		bl	__aeabi_llsl
 1748              	.LVL171:
 1749 0326 D7E90045 		ldrd	r4, [r7]
 468:bluetooth_rxtx.c **** 			target.address |= (uint64_t)data[i] << 8*i;
 1750              		.loc 1 468 0 discriminator 2
 1751 032a 08F10108 		add	r8, r8, #1
 1752              	.LVL172:
 469:bluetooth_rxtx.c **** 		}
 1753              		.loc 1 469 0 discriminator 2
 1754 032e 2043     		orrs	r0, r0, r4
 1755 0330 2943     		orrs	r1, r1, r5
 468:bluetooth_rxtx.c **** 			target.address |= (uint64_t)data[i] << 8*i;
 1756              		.loc 1 468 0 discriminator 2
 1757 0332 B8F1080F 		cmp	r8, #8
 469:bluetooth_rxtx.c **** 		}
 1758              		.loc 1 469 0 discriminator 2
 1759 0336 C7E90001 		strd	r0, [r7]
 468:bluetooth_rxtx.c **** 			target.address |= (uint64_t)data[i] << 8*i;
 1760              		.loc 1 468 0 discriminator 2
 1761 033a EDD1     		bne	.L183
 468:bluetooth_rxtx.c **** 			target.address |= (uint64_t)data[i] << 8*i;
 1762              		.loc 1 468 0 is_stmt 0
 1763 033c 4FF00008 		mov	r8, #0
 1764              	.LVL173:
ARM GAS  /tmp/ccMPHsjp.s 			page 78


 1765              	.L185:
 1766 0340 06EB0803 		add	r3, r6, r8
 1767              	.LBE14:
 1768              	.LBB15:
 472:bluetooth_rxtx.c **** 		}
 1769              		.loc 1 472 0 is_stmt 1 discriminator 2
 1770 0344 187A     		ldrb	r0, [r3, #8]	@ zero_extendqisi2
 1771 0346 4FEAC802 		lsl	r2, r8, #3
 1772 034a 0021     		movs	r1, #0
 1773 034c FFF7FEFF 		bl	__aeabi_llsl
 1774              	.LVL174:
 1775 0350 D7E90245 		ldrd	r4, [r7, #8]
 471:bluetooth_rxtx.c **** 			target.syncword |= (uint64_t)data[i+8] << 8*i;
 1776              		.loc 1 471 0 discriminator 2
 1777 0354 08F10108 		add	r8, r8, #1
 1778              	.LVL175:
 472:bluetooth_rxtx.c **** 		}
 1779              		.loc 1 472 0 discriminator 2
 1780 0358 2043     		orrs	r0, r0, r4
 1781 035a 2943     		orrs	r1, r1, r5
 471:bluetooth_rxtx.c **** 			target.syncword |= (uint64_t)data[i+8] << 8*i;
 1782              		.loc 1 471 0 discriminator 2
 1783 035c B8F1080F 		cmp	r8, #8
 472:bluetooth_rxtx.c **** 		}
 1784              		.loc 1 472 0 discriminator 2
 1785 0360 C7E90201 		strd	r0, [r7, #8]
 471:bluetooth_rxtx.c **** 			target.syncword |= (uint64_t)data[i+8] << 8*i;
 1786              		.loc 1 471 0 discriminator 2
 1787 0364 ECD1     		bne	.L185
 1788              	.LBE15:
 474:bluetooth_rxtx.c **** 		break;
 1789              		.loc 1 474 0
 1790 0366 FFF7FEFF 		bl	precalc
 1791              	.LVL176:
 1792 036a A5E1     		b	.L206
 1793              	.LVL177:
 1794              	.L135:
 478:bluetooth_rxtx.c **** 		for(int i=0; i < 4; i++) {
 1795              		.loc 1 478 0
 1796 036c 7B4A     		ldr	r2, .L257+20
 1797 036e 0023     		movs	r3, #0
 1798 0370 1360     		str	r3, [r2]
 1799              	.LVL178:
 1800              	.L187:
 1801              	.LBB16:
 480:bluetooth_rxtx.c **** 			clkn_offset |= data[i];
 1802              		.loc 1 480 0 discriminator 2
 1803 0372 1168     		ldr	r1, [r2]
 1804 0374 0902     		lsls	r1, r1, #8
 1805 0376 1160     		str	r1, [r2]
 481:bluetooth_rxtx.c **** 		}
 1806              		.loc 1 481 0 discriminator 2
 1807 0378 F05C     		ldrb	r0, [r6, r3]	@ zero_extendqisi2
 1808 037a 1168     		ldr	r1, [r2]
 479:bluetooth_rxtx.c **** 			clkn_offset <<= 8;
 1809              		.loc 1 479 0 discriminator 2
 1810 037c 0133     		adds	r3, r3, #1
ARM GAS  /tmp/ccMPHsjp.s 			page 79


 1811              	.LVL179:
 481:bluetooth_rxtx.c **** 		}
 1812              		.loc 1 481 0 discriminator 2
 1813 037e 0143     		orrs	r1, r1, r0
 479:bluetooth_rxtx.c **** 			clkn_offset <<= 8;
 1814              		.loc 1 479 0 discriminator 2
 1815 0380 042B     		cmp	r3, #4
 481:bluetooth_rxtx.c **** 		}
 1816              		.loc 1 481 0 discriminator 2
 1817 0382 1160     		str	r1, [r2]
 479:bluetooth_rxtx.c **** 			clkn_offset <<= 8;
 1818              		.loc 1 479 0 discriminator 2
 1819 0384 F5D1     		bne	.L187
 1820              	.LBE16:
 483:bluetooth_rxtx.c **** 		dma_discard = 1;
 1821              		.loc 1 483 0
 1822 0386 0223     		movs	r3, #2
 1823              	.LVL180:
 1824 0388 A372     		strb	r3, [r4, #10]
 485:bluetooth_rxtx.c **** 		clk100ns_offset = (data[4] << 8) | (data[5] << 0);
 1825              		.loc 1 485 0
 1826 038a 754B     		ldr	r3, .L257+24
 484:bluetooth_rxtx.c **** 		DIO_SSEL_SET;
 1827              		.loc 1 484 0
 1828 038c 0120     		movs	r0, #1
 485:bluetooth_rxtx.c **** 		clk100ns_offset = (data[4] << 8) | (data[5] << 0);
 1829              		.loc 1 485 0
 1830 038e 4FF08052 		mov	r2, #268435456
 484:bluetooth_rxtx.c **** 		DIO_SSEL_SET;
 1831              		.loc 1 484 0
 1832 0392 2074     		strb	r0, [r4, #16]
 485:bluetooth_rxtx.c **** 		clk100ns_offset = (data[4] << 8) | (data[5] << 0);
 1833              		.loc 1 485 0
 1834 0394 1A60     		str	r2, [r3]
 486:bluetooth_rxtx.c **** 		requested_mode = MODE_BT_FOLLOW;
 1835              		.loc 1 486 0
 1836 0396 7379     		ldrb	r3, [r6, #5]	@ zero_extendqisi2
 1837 0398 3279     		ldrb	r2, [r6, #4]	@ zero_extendqisi2
 1838 039a 43EA0222 		orr	r2, r3, r2, lsl #8
 1839 039e 714B     		ldr	r3, .L257+28
 1840 03a0 1A80     		strh	r2, [r3]	@ movhi
 487:bluetooth_rxtx.c **** 		break;
 1841              		.loc 1 487 0
 1842 03a2 0823     		movs	r3, #8
 1843 03a4 A374     		strb	r3, [r4, #18]
 488:bluetooth_rxtx.c **** 
 1844              		.loc 1 488 0
 1845 03a6 BDE8F081 		pop	{r4, r5, r6, r7, r8, pc}
 1846              	.LVL181:
 1847              	.L156:
 491:bluetooth_rxtx.c **** 		requested_mode = MODE_AFH;
 1848              		.loc 1 491 0
 1849 03aa 0523     		movs	r3, #5
 1850 03ac A372     		strb	r3, [r4, #10]
 492:bluetooth_rxtx.c **** 
 1851              		.loc 1 492 0
 1852 03ae 0E23     		movs	r3, #14
ARM GAS  /tmp/ccMPHsjp.s 			page 80


 1853 03b0 A374     		strb	r3, [r4, #18]
 1854              	.LVL182:
 1855              	.LBB17:
 494:bluetooth_rxtx.c **** 			afh_map[i] = 0;
 1856              		.loc 1 494 0
 1857 03b2 0023     		movs	r3, #0
 1858              	.LVL183:
 1859              	.L189:
 495:bluetooth_rxtx.c **** 		}
 1860              		.loc 1 495 0 discriminator 2
 1861 03b4 6C49     		ldr	r1, .L257+32
 1862 03b6 0022     		movs	r2, #0
 1863 03b8 5A54     		strb	r2, [r3, r1]
 494:bluetooth_rxtx.c **** 			afh_map[i] = 0;
 1864              		.loc 1 494 0 discriminator 2
 1865 03ba 0133     		adds	r3, r3, #1
 1866              	.LVL184:
 1867 03bc 0A2B     		cmp	r3, #10
 1868 03be F9D1     		bne	.L189
 1869              	.LBE17:
 497:bluetooth_rxtx.c **** 		afh_enabled = 1;
 1870              		.loc 1 497 0
 1871 03c0 6A4B     		ldr	r3, .L257+36
 1872              	.LVL185:
 498:bluetooth_rxtx.c **** 		break;
 1873              		.loc 1 498 0
 1874 03c2 0120     		movs	r0, #1
 1875              	.LVL186:
 497:bluetooth_rxtx.c **** 		afh_enabled = 1;
 1876              		.loc 1 497 0
 1877 03c4 1A70     		strb	r2, [r3]
 498:bluetooth_rxtx.c **** 		break;
 1878              		.loc 1 498 0
 1879 03c6 6A4B     		ldr	r3, .L257+40
 1880 03c8 1870     		strb	r0, [r3]
 499:bluetooth_rxtx.c **** 
 1881              		.loc 1 499 0
 1882 03ca BDE8F081 		pop	{r4, r5, r6, r7, r8, pc}
 1883              	.LVL187:
 1884              	.L157:
 502:bluetooth_rxtx.c **** 		break;
 1885              		.loc 1 502 0
 1886 03ce 0120     		movs	r0, #1
 1887              	.LVL188:
 1888 03d0 E072     		strb	r0, [r4, #11]
 503:bluetooth_rxtx.c **** 
 1889              		.loc 1 503 0
 1890 03d2 BDE8F081 		pop	{r4, r5, r6, r7, r8, pc}
 1891              	.LVL189:
 1892              	.L136:
 506:bluetooth_rxtx.c **** 		clkn = clock;
 1893              		.loc 1 506 0
 1894 03d6 B278     		ldrb	r2, [r6, #2]	@ zero_extendqisi2
 1895 03d8 7378     		ldrb	r3, [r6, #1]	@ zero_extendqisi2
 1896 03da 1204     		lsls	r2, r2, #16
 1897 03dc 42EA0322 		orr	r2, r2, r3, lsl #8
 1898 03e0 3378     		ldrb	r3, [r6]	@ zero_extendqisi2
ARM GAS  /tmp/ccMPHsjp.s 			page 81


 1899 03e2 1A43     		orrs	r2, r2, r3
 1900 03e4 F378     		ldrb	r3, [r6, #3]	@ zero_extendqisi2
 1901 03e6 42EA0362 		orr	r2, r2, r3, lsl #24
 1902              	.LVL190:
 507:bluetooth_rxtx.c **** 		cs_threshold_calc_and_set(channel);
 1903              		.loc 1 507 0
 1904 03ea 624B     		ldr	r3, .L257+44
 1905 03ec 1A60     		str	r2, [r3]
 1906 03ee 3FE1     		b	.L233
 1907              	.LVL191:
 1908              	.L147:
 214:bluetooth_rxtx.c **** 
 1909              		.loc 1 214 0
 1910 03f0 0023     		movs	r3, #0
 1911              	.LVL192:
 1912              	.L191:
 1913              	.LBB18:
 513:bluetooth_rxtx.c **** 		}
 1914              		.loc 1 513 0 discriminator 2
 1915 03f2 F15C     		ldrb	r1, [r6, r3]	@ zero_extendqisi2
 1916 03f4 5C4A     		ldr	r2, .L257+32
 1917 03f6 9954     		strb	r1, [r3, r2]
 512:bluetooth_rxtx.c **** 			afh_map[i] = data[i];
 1918              		.loc 1 512 0 discriminator 2
 1919 03f8 0133     		adds	r3, r3, #1
 1920              	.LVL193:
 1921 03fa 0A2B     		cmp	r3, #10
 1922 03fc F9D1     		bne	.L191
 1923              	.LBE18:
 515:bluetooth_rxtx.c **** 		*data_len = 10;
 1924              		.loc 1 515 0
 1925 03fe 5C4A     		ldr	r2, .L257+40
 1926 0400 0120     		movs	r0, #1
 1927              	.LVL194:
 1928 0402 1070     		strb	r0, [r2]
 1929              	.LVL195:
 1930              	.L223:
 516:bluetooth_rxtx.c **** 		break;
 1931              		.loc 1 516 0
 1932 0404 2B60     		str	r3, [r5]
 517:bluetooth_rxtx.c **** 
 1933              		.loc 1 517 0
 1934 0406 BDE8F081 		pop	{r4, r5, r6, r7, r8, pc}
 1935              	.LVL196:
 1936              	.L148:
 214:bluetooth_rxtx.c **** 
 1937              		.loc 1 214 0
 1938 040a 0023     		movs	r3, #0
 1939              	.LVL197:
 1940              	.L193:
 1941              	.LBB19:
 521:bluetooth_rxtx.c **** 		}
 1942              		.loc 1 521 0 discriminator 2
 1943 040c 5649     		ldr	r1, .L257+32
 1944 040e 0022     		movs	r2, #0
 1945 0410 5A54     		strb	r2, [r3, r1]
 520:bluetooth_rxtx.c **** 			afh_map[i] = 0;
ARM GAS  /tmp/ccMPHsjp.s 			page 82


 1946              		.loc 1 520 0 discriminator 2
 1947 0412 0133     		adds	r3, r3, #1
 1948              	.LVL198:
 1949 0414 0A2B     		cmp	r3, #10
 1950 0416 F9D1     		bne	.L193
 1951              	.LBE19:
 523:bluetooth_rxtx.c **** 		*data_len = 10;
 1952              		.loc 1 523 0
 1953 0418 5549     		ldr	r1, .L257+40
 1954 041a 0A70     		strb	r2, [r1]
 1955 041c B8E6     		b	.L232
 1956              	.LVL199:
 1957              	.L137:
 528:bluetooth_rxtx.c **** 		for(int i=0; i < 4; i++) {
 1958              		.loc 1 528 0
 1959 041e 554B     		ldr	r3, .L257+44
 1960 0420 1968     		ldr	r1, [r3]
 1961              	.LVL200:
 1962              	.LBB20:
 529:bluetooth_rxtx.c **** 			data[i] = (clock >> (8*i)) & 0xff;
 1963              		.loc 1 529 0
 1964 0422 0023     		movs	r3, #0
 1965              	.LVL201:
 1966              	.L195:
 1967 0424 DA00     		lsls	r2, r3, #3
 530:bluetooth_rxtx.c **** 		}
 1968              		.loc 1 530 0 discriminator 2
 1969 0426 21FA02F2 		lsr	r2, r1, r2
 1970 042a F254     		strb	r2, [r6, r3]
 529:bluetooth_rxtx.c **** 			data[i] = (clock >> (8*i)) & 0xff;
 1971              		.loc 1 529 0 discriminator 2
 1972 042c 0133     		adds	r3, r3, #1
 1973              	.LVL202:
 1974 042e 042B     		cmp	r3, #4
 1975 0430 F8D1     		bne	.L195
 1976 0432 ADE6     		b	.L232
 1977              	.LVL203:
 1978              	.L158:
 1979              	.LBE20:
 536:bluetooth_rxtx.c **** 		break;
 1980              		.loc 1 536 0
 1981 0434 7378     		ldrb	r3, [r6, #1]	@ zero_extendqisi2
 1982 0436 3278     		ldrb	r2, [r6]	@ zero_extendqisi2
 1983 0438 43EA0222 		orr	r2, r3, r2, lsl #8
 1984 043c 494B     		ldr	r3, .L257+28
 1985 043e 1A80     		strh	r2, [r3]	@ movhi
 1986 0440 3AE1     		b	.L206
 1987              	.L163:
 540:bluetooth_rxtx.c **** 
 1988              		.loc 1 540 0
 1989 0442 4D4B     		ldr	r3, .L257+48
 1990 0444 3078     		ldrb	r0, [r6]	@ zero_extendqisi2
 1991              	.LVL204:
 1992 0446 1988     		ldrh	r1, [r3]
 1993              	.LVL205:
 1994 0448 7278     		ldrb	r2, [r6, #1]	@ zero_extendqisi2
 1995 044a 89B2     		uxth	r1, r1
ARM GAS  /tmp/ccMPHsjp.s 			page 83


 1996 044c 42EA0022 		orr	r2, r2, r0, lsl #8
 1997 0450 0A44     		add	r2, r2, r1
 1998 0452 92B2     		uxth	r2, r2
 1999 0454 1A80     		strh	r2, [r3]	@ movhi
 543:bluetooth_rxtx.c **** 			clk_drift_correction = 320 / (uint16_t)(-clk_drift_ppm);
 2000              		.loc 1 543 0
 2001 0456 1A88     		ldrh	r2, [r3]
 2002 0458 4849     		ldr	r1, .L257+52
 2003 045a 12B2     		sxth	r2, r2
 2004 045c 002A     		cmp	r2, #0
 2005 045e 484A     		ldr	r2, .L257+56
 2006 0460 07DA     		bge	.L196
 544:bluetooth_rxtx.c **** 			clkn_next_drift_fix = clkn_last_drift_fix + clk_drift_correction;
 2007              		.loc 1 544 0
 2008 0462 1B88     		ldrh	r3, [r3]
 2009 0464 4FF4A070 		mov	r0, #320
 2010 0468 5B42     		negs	r3, r3
 2011 046a 9BB2     		uxth	r3, r3
 2012 046c 90FBF3F3 		sdiv	r3, r0, r3
 2013 0470 0AE0     		b	.L249
 2014              	.L196:
 548:bluetooth_rxtx.c **** 			clk_drift_correction = 320 / clk_drift_ppm;
 2015              		.loc 1 548 0
 2016 0472 1888     		ldrh	r0, [r3]
 2017 0474 00B2     		sxth	r0, r0
 2018 0476 0028     		cmp	r0, #0
 2019 0478 0DDD     		ble	.L197
 549:bluetooth_rxtx.c **** 			clkn_next_drift_fix = clkn_last_drift_fix + clk_drift_correction;
 2020              		.loc 1 549 0
 2021 047a 1B88     		ldrh	r3, [r3]
 2022 047c 4FF4A070 		mov	r0, #320
 2023 0480 1BB2     		sxth	r3, r3
 2024 0482 90FBF3F3 		sdiv	r3, r0, r3
 2025 0486 9BB2     		uxth	r3, r3
 2026              	.L249:
 2027 0488 1380     		strh	r3, [r2]	@ movhi
 550:bluetooth_rxtx.c **** 		}
 2028              		.loc 1 550 0
 2029 048a 3E4B     		ldr	r3, .L257+60
 2030 048c 1868     		ldr	r0, [r3]
 2031 048e 1388     		ldrh	r3, [r2]
 2032 0490 9BB2     		uxth	r3, r3
 2033 0492 0344     		add	r3, r3, r0
 2034 0494 01E0     		b	.L227
 2035              	.L197:
 554:bluetooth_rxtx.c **** 			clkn_next_drift_fix = 0;
 2036              		.loc 1 554 0
 2037 0496 0023     		movs	r3, #0
 2038 0498 1380     		strh	r3, [r2]	@ movhi
 2039              	.L227:
 555:bluetooth_rxtx.c **** 		}
 2040              		.loc 1 555 0
 2041 049a 0B60     		str	r3, [r1]
 2042 049c 0CE1     		b	.L206
 2043              	.LVL206:
 2044              	.L138:
 561:bluetooth_rxtx.c **** 
ARM GAS  /tmp/ccMPHsjp.s 			page 84


 2045              		.loc 1 561 0
 2046 049e 0023     		movs	r3, #0
 2047 04a0 2B60     		str	r3, [r5]
 563:bluetooth_rxtx.c **** 		hop_mode = HOP_BTLE;
 2048              		.loc 1 563 0
 2049 04a2 E372     		strb	r3, [r4, #11]
 564:bluetooth_rxtx.c **** 		requested_mode = MODE_BT_FOLLOW_LE;
 2050              		.loc 1 564 0
 2051 04a4 0323     		movs	r3, #3
 2052 04a6 A372     		strb	r3, [r4, #10]
 565:bluetooth_rxtx.c **** 
 2053              		.loc 1 565 0
 2054 04a8 0923     		movs	r3, #9
 2055 04aa 4AE0     		b	.L250
 2056              	.L164:
 573:bluetooth_rxtx.c **** 		hop_mode = HOP_BTLE;
 2057              		.loc 1 573 0
 2058 04ac 0023     		movs	r3, #0
 2059 04ae E372     		strb	r3, [r4, #11]
 574:bluetooth_rxtx.c **** 		requested_mode = MODE_BT_CFO_LE;
 2060              		.loc 1 574 0
 2061 04b0 0323     		movs	r3, #3
 2062 04b2 A372     		strb	r3, [r4, #10]
 575:bluetooth_rxtx.c **** 
 2063              		.loc 1 575 0
 2064 04b4 1123     		movs	r3, #17
 2065 04b6 44E0     		b	.L250
 2066              	.L165:
 582:bluetooth_rxtx.c **** 		hop_mode = HOP_BTLE;
 2067              		.loc 1 582 0
 2068 04b8 0023     		movs	r3, #0
 2069 04ba E372     		strb	r3, [r4, #11]
 583:bluetooth_rxtx.c **** 		requested_mode = MODE_BT_RSSI_LE;
 2070              		.loc 1 583 0
 2071 04bc 0323     		movs	r3, #3
 2072 04be A372     		strb	r3, [r4, #10]
 584:bluetooth_rxtx.c **** 
 2073              		.loc 1 584 0
 2074 04c0 1223     		movs	r3, #18
 2075 04c2 3EE0     		b	.L250
 2076              	.L139:
 214:bluetooth_rxtx.c **** 
 2077              		.loc 1 214 0
 2078 04c4 0023     		movs	r3, #0
 2079              	.LVL207:
 2080              	.L199:
 2081              	.LBB21:
 592:bluetooth_rxtx.c **** 		}
 2082              		.loc 1 592 0 discriminator 2
 2083 04c6 2049     		ldr	r1, .L257
 2084 04c8 DA00     		lsls	r2, r3, #3
 2085 04ca 4968     		ldr	r1, [r1, #4]
 2086 04cc 21FA02F2 		lsr	r2, r1, r2
 2087 04d0 F254     		strb	r2, [r6, r3]
 591:bluetooth_rxtx.c **** 			data[i] = (le.access_address >> (8*i)) & 0xff;
 2088              		.loc 1 591 0 discriminator 2
 2089 04d2 0133     		adds	r3, r3, #1
ARM GAS  /tmp/ccMPHsjp.s 			page 85


 2090              	.LVL208:
 2091 04d4 042B     		cmp	r3, #4
 2092 04d6 F6D1     		bne	.L199
 2093 04d8 5AE6     		b	.L232
 2094              	.LVL209:
 2095              	.L140:
 2096              	.LBE21:
 598:bluetooth_rxtx.c **** 		le.target_set = 1;
 2097              		.loc 1 598 0
 2098 04da B378     		ldrb	r3, [r6, #2]	@ zero_extendqisi2
 2099 04dc 7278     		ldrb	r2, [r6, #1]	@ zero_extendqisi2
 2100 04de 1B04     		lsls	r3, r3, #16
 2101 04e0 43EA0223 		orr	r3, r3, r2, lsl #8
 2102 04e4 3278     		ldrb	r2, [r6]	@ zero_extendqisi2
 2103 04e6 F078     		ldrb	r0, [r6, #3]	@ zero_extendqisi2
 2104              	.LVL210:
 2105 04e8 1343     		orrs	r3, r3, r2
 2106 04ea 43EA0060 		orr	r0, r3, r0, lsl #24
 2107 04ee FFF7FEFF 		bl	le_set_access_address
 2108              	.LVL211:
 599:bluetooth_rxtx.c **** 		break;
 2109              		.loc 1 599 0
 2110 04f2 0120     		movs	r0, #1
 2111 04f4 144B     		ldr	r3, .L257
 2112 04f6 D5E0     		b	.L222
 2113              	.LVL212:
 2114              	.L142:
 609:bluetooth_rxtx.c **** 		data[1] = 0x37;
 2115              		.loc 1 609 0
 2116 04f8 1323     		movs	r3, #19
 2117 04fa 3370     		strb	r3, [r6]
 610:bluetooth_rxtx.c **** 		*data_len = 2;
 2118              		.loc 1 610 0
 2119 04fc 3723     		movs	r3, #55
 2120              	.L252:
 2121 04fe 7370     		strb	r3, [r6, #1]
 2122 0500 48E0     		b	.L247
 2123              	.L143:
 615:bluetooth_rxtx.c **** 		*data_len = 1;
 2124              		.loc 1 615 0
 2125 0502 114B     		ldr	r3, .L257
 2126 0504 5B69     		ldr	r3, [r3, #20]
 2127 0506 0033     		adds	r3, r3, #0
 2128 0508 18BF     		it	ne
 2129 050a 0123     		movne	r3, #1
 2130 050c F9E6     		b	.L224
 2131              	.L144:
 620:bluetooth_rxtx.c **** 		break;
 2132              		.loc 1 620 0
 2133 050e 0A88     		ldrh	r2, [r1]
 2134 0510 0D4B     		ldr	r3, .L257
 2135 0512 0032     		adds	r2, r2, #0
 2136 0514 18BF     		it	ne
 2137 0516 0122     		movne	r2, #1
 2138 0518 5A61     		str	r2, [r3, #20]
 2139 051a CDE0     		b	.L206
 2140              	.L145:
ARM GAS  /tmp/ccMPHsjp.s 			page 86


 624:bluetooth_rxtx.c **** 		if (p != NULL) {
 2141              		.loc 1 624 0
 2142 051c FFF7FEFF 		bl	dequeue
 2143              	.LVL213:
 625:bluetooth_rxtx.c **** 			memcpy(data, (void *)p, sizeof(usb_pkt_rx));
 2144              		.loc 1 625 0
 2145 0520 0146     		mov	r1, r0
 2146 0522 28B1     		cbz	r0, .L200
 626:bluetooth_rxtx.c **** 			*data_len = sizeof(usb_pkt_rx);
 2147              		.loc 1 626 0
 2148 0524 3046     		mov	r0, r6
 2149              	.LVL214:
 2150 0526 4022     		movs	r2, #64
 2151 0528 FFF7FEFF 		bl	memcpy
 2152              	.LVL215:
 627:bluetooth_rxtx.c **** 		} else {
 2153              		.loc 1 627 0
 2154 052c 4023     		movs	r3, #64
 2155 052e 2FE6     		b	.L232
 2156              	.LVL216:
 2157              	.L200:
 629:bluetooth_rxtx.c **** 			*data_len = 1;
 2158              		.loc 1 629 0
 2159 0530 3070     		strb	r0, [r6]
 2160              	.LVL217:
 2161              	.L220:
 630:bluetooth_rxtx.c **** 		}
 2162              		.loc 1 630 0
 2163 0532 0120     		movs	r0, #1
 2164              	.L221:
 2165 0534 2860     		str	r0, [r5]
 2166 0536 BDE8F081 		pop	{r4, r5, r6, r7, r8, pc}
 2167              	.LVL218:
 2168              	.L146:
 635:bluetooth_rxtx.c **** 
 2169              		.loc 1 635 0
 2170 053a 0023     		movs	r3, #0
 2171 053c 2B60     		str	r3, [r5]
 637:bluetooth_rxtx.c **** 		requested_mode = MODE_BT_PROMISC_LE;
 2172              		.loc 1 637 0
 2173 053e A372     		strb	r3, [r4, #10]
 638:bluetooth_rxtx.c **** 
 2174              		.loc 1 638 0
 2175 0540 0A23     		movs	r3, #10
 2176              	.L250:
 2177 0542 A374     		strb	r3, [r4, #18]
 2178 0544 92E0     		b	.L231
 2179              	.L258:
 2180 0546 00BF     		.align	2
 2181              	.L257:
 2182 0548 00000000 		.word	.LANCHOR1
 2183 054c 00000000 		.word	.LC5
 2184 0550 A7000000 		.word	.LANCHOR2+167
 2185 0554 00000000 		.word	cs_threshold_req
 2186 0558 00000000 		.word	target
 2187 055c 00000000 		.word	clkn_offset
 2188 0560 98C00920 		.word	537510040
ARM GAS  /tmp/ccMPHsjp.s 			page 87


 2189 0564 00000000 		.word	clk100ns_offset
 2190 0568 00000000 		.word	afh_map
 2191 056c 00000000 		.word	used_channels
 2192 0570 00000000 		.word	afh_enabled
 2193 0574 00000000 		.word	clkn
 2194 0578 00000000 		.word	clk_drift_ppm
 2195 057c 00000000 		.word	clkn_next_drift_fix
 2196 0580 00000000 		.word	clk_drift_correction
 2197 0584 00000000 		.word	clkn_last_drift_fix
 2198              	.L149:
 645:bluetooth_rxtx.c **** 		data[0] = (reg_val >> 8) & 0xff;
 2199              		.loc 1 645 0
 2200 0588 0878     		ldrb	r0, [r1]	@ zero_extendqisi2
 2201              	.LVL219:
 2202 058a FFF7FEFF 		bl	cc2400_get
 2203              	.LVL220:
 646:bluetooth_rxtx.c **** 		data[1] = reg_val & 0xff;
 2204              		.loc 1 646 0
 2205 058e 030A     		lsrs	r3, r0, #8
 2206 0590 3370     		strb	r3, [r6]
 647:bluetooth_rxtx.c **** 		*data_len = 2;
 2207              		.loc 1 647 0
 2208 0592 7070     		strb	r0, [r6, #1]
 2209              	.LVL221:
 2210              	.L247:
 648:bluetooth_rxtx.c **** 		break;
 2211              		.loc 1 648 0
 2212 0594 0223     		movs	r3, #2
 2213 0596 FBE5     		b	.L232
 2214              	.LVL222:
 2215              	.L153:
 652:bluetooth_rxtx.c **** 		break;
 2216              		.loc 1 652 0
 2217 0598 0878     		ldrb	r0, [r1]	@ zero_extendqisi2
 2218              	.LVL223:
 2219 059a 4988     		ldrh	r1, [r1, #2]
 2220              	.LVL224:
 2221              	.L234:
 2222 059c FFF7FEFF 		bl	cc2400_set
 2223              	.LVL225:
 2224 05a0 8AE0     		b	.L206
 2225              	.L170:
 2226              	.LVL226:
 656:bluetooth_rxtx.c **** 			reg_val = (data[(i*3)+1] << 8) | data[(i*3)+2];
 2227              		.loc 1 656 0 discriminator 1
 2228 05a2 3B88     		ldrh	r3, [r7]
 2229 05a4 A342     		cmp	r3, r4
 2230 05a6 40F28780 		bls	.L206
 657:bluetooth_rxtx.c **** 			cc2400_set(data[i*3], reg_val);
 2231              		.loc 1 657 0 discriminator 2
 2232 05aa 0323     		movs	r3, #3
 2233 05ac 6343     		muls	r3, r4, r3
 2234              	.LVL227:
 2235 05ae F218     		adds	r2, r6, r3
 2236              	.LVL228:
 2237 05b0 5178     		ldrb	r1, [r2, #1]	@ zero_extendqisi2
 2238 05b2 9278     		ldrb	r2, [r2, #2]	@ zero_extendqisi2
ARM GAS  /tmp/ccMPHsjp.s 			page 88


 2239              	.LVL229:
 658:bluetooth_rxtx.c **** 		}
 2240              		.loc 1 658 0 discriminator 2
 2241 05b4 F05C     		ldrb	r0, [r6, r3]	@ zero_extendqisi2
 2242 05b6 42EA0121 		orr	r1, r2, r1, lsl #8
 656:bluetooth_rxtx.c **** 			reg_val = (data[(i*3)+1] << 8) | data[(i*3)+2];
 2243              		.loc 1 656 0 discriminator 2
 2244 05ba 0134     		adds	r4, r4, #1
 2245              	.LVL230:
 658:bluetooth_rxtx.c **** 		}
 2246              		.loc 1 658 0 discriminator 2
 2247 05bc FFF7FEFF 		bl	cc2400_set
 2248              	.LVL231:
 656:bluetooth_rxtx.c **** 			reg_val = (data[(i*3)+1] << 8) | data[(i*3)+2];
 2249              		.loc 1 656 0 discriminator 2
 2250 05c0 E4B2     		uxtb	r4, r4
 2251              	.LVL232:
 2252 05c2 EEE7     		b	.L170
 2253              	.LVL233:
 2254              	.L160:
 214:bluetooth_rxtx.c **** 
 2255              		.loc 1 214 0
 2256 05c4 0024     		movs	r4, #0
 2257              	.LVL234:
 2258              	.L204:
 665:bluetooth_rxtx.c **** 			data[i*3] = i;
 2259              		.loc 1 665 0 discriminator 2
 2260 05c6 2046     		mov	r0, r4
 2261 05c8 FFF7FEFF 		bl	cc2400_get
 2262              	.LVL235:
 666:bluetooth_rxtx.c **** 			data[(i*3)+1] = (reg_val >> 8) & 0xff;
 2263              		.loc 1 666 0 discriminator 2
 2264 05cc 3470     		strb	r4, [r6]
 664:bluetooth_rxtx.c **** 			reg_val = cc2400_get(i);
 2265              		.loc 1 664 0 discriminator 2
 2266 05ce 0134     		adds	r4, r4, #1
 2267              	.LVL236:
 2268 05d0 E4B2     		uxtb	r4, r4
 2269              	.LVL237:
 667:bluetooth_rxtx.c **** 			data[(i*3)+2] = reg_val & 0xff;
 2270              		.loc 1 667 0 discriminator 2
 2271 05d2 030A     		lsrs	r3, r0, #8
 664:bluetooth_rxtx.c **** 			reg_val = cc2400_get(i);
 2272              		.loc 1 664 0 discriminator 2
 2273 05d4 2E2C     		cmp	r4, #46
 667:bluetooth_rxtx.c **** 			data[(i*3)+2] = reg_val & 0xff;
 2274              		.loc 1 667 0 discriminator 2
 2275 05d6 7370     		strb	r3, [r6, #1]
 668:bluetooth_rxtx.c **** 		}
 2276              		.loc 1 668 0 discriminator 2
 2277 05d8 B070     		strb	r0, [r6, #2]
 2278 05da 06F10306 		add	r6, r6, #3
 664:bluetooth_rxtx.c **** 			reg_val = cc2400_get(i);
 2279              		.loc 1 664 0 discriminator 2
 2280 05de F2D1     		bne	.L204
 670:bluetooth_rxtx.c **** 		break;
 2281              		.loc 1 670 0
ARM GAS  /tmp/ccMPHsjp.s 			page 89


 2282 05e0 8723     		movs	r3, #135
 2283 05e2 D5E5     		b	.L232
 2284              	.LVL238:
 2285              	.L162:
 674:bluetooth_rxtx.c **** 		memcpy(&tx_pkt, data, i);
 2286              		.loc 1 674 0
 2287 05e4 B279     		ldrb	r2, [r6, #6]	@ zero_extendqisi2
 675:bluetooth_rxtx.c **** 		//tx_pkt.channel = data[4] << 8 | data[5];
 2288              		.loc 1 675 0
 2289 05e6 3748     		ldr	r0, .L259
 2290              	.LVL239:
 674:bluetooth_rxtx.c **** 		memcpy(&tx_pkt, data, i);
 2291              		.loc 1 674 0
 2292 05e8 0732     		adds	r2, r2, #7
 675:bluetooth_rxtx.c **** 		//tx_pkt.channel = data[4] << 8 | data[5];
 2293              		.loc 1 675 0
 2294 05ea 3146     		mov	r1, r6
 2295              	.LVL240:
 2296 05ec D2B2     		uxtb	r2, r2
 2297 05ee FFF7FEFF 		bl	memcpy
 2298              	.LVL241:
 677:bluetooth_rxtx.c **** 		*data_len = 0;
 2299              		.loc 1 677 0
 2300 05f2 1023     		movs	r3, #16
 2301 05f4 5DE6     		b	.L246
 2302              	.LVL242:
 2303              	.L150:
 683:bluetooth_rxtx.c **** 		memcpy(slave_mac_address_data, data, dlen);
 2304              		.loc 1 683 0
 2305 05f6 1846     		mov	r0, r3
 2306              	.LVL243:
 2307 05f8 FFF7FEFF 		bl	malloc
 2308              	.LVL244:
 2309 05fc 324B     		ldr	r3, .L259+4
 684:bluetooth_rxtx.c **** 		requested_mode = MODE_BT_SLAVE_LE;
 2310              		.loc 1 684 0
 2311 05fe 3146     		mov	r1, r6
 2312 0600 226A     		ldr	r2, [r4, #32]
 683:bluetooth_rxtx.c **** 		memcpy(slave_mac_address_data, data, dlen);
 2313              		.loc 1 683 0
 2314 0602 1860     		str	r0, [r3]
 684:bluetooth_rxtx.c **** 		requested_mode = MODE_BT_SLAVE_LE;
 2315              		.loc 1 684 0
 2316 0604 FFF7FEFF 		bl	memcpy
 2317              	.LVL245:
 685:bluetooth_rxtx.c **** 		break;
 2318              		.loc 1 685 0
 2319 0608 0C23     		movs	r3, #12
 2320 060a A0E5     		b	.L229
 2321              	.LVL246:
 2322              	.L167:
 689:bluetooth_rxtx.c **** 		memcpy(slave_mac_address_data, data, dlen);
 2323              		.loc 1 689 0
 2324 060c 4FF4C370 		mov	r0, #390
 2325              	.LVL247:
 2326 0610 FFF7FEFF 		bl	malloc
 2327              	.LVL248:
ARM GAS  /tmp/ccMPHsjp.s 			page 90


 2328 0614 2C4B     		ldr	r3, .L259+4
 690:bluetooth_rxtx.c **** 		dlen_bulk1 = dlen;
 2329              		.loc 1 690 0
 2330 0616 3146     		mov	r1, r6
 2331 0618 226A     		ldr	r2, [r4, #32]
 689:bluetooth_rxtx.c **** 		memcpy(slave_mac_address_data, data, dlen);
 2332              		.loc 1 689 0
 2333 061a 1860     		str	r0, [r3]
 690:bluetooth_rxtx.c **** 		dlen_bulk1 = dlen;
 2334              		.loc 1 690 0
 2335 061c FFF7FEFF 		bl	memcpy
 2336              	.LVL249:
 691:bluetooth_rxtx.c **** 		requested_mode = MODE_WAIT_BULK;
 2337              		.loc 1 691 0
 2338 0620 236A     		ldr	r3, [r4, #32]
 2339 0622 6362     		str	r3, [r4, #36]
 692:bluetooth_rxtx.c **** 		break;
 2340              		.loc 1 692 0
 2341 0624 1423     		movs	r3, #20
 2342 0626 92E5     		b	.L229
 2343              	.L169:
 2344              	.LVL250:
 697:bluetooth_rxtx.c **** 		dlen = 390;
 2345              		.loc 1 697 0 discriminator 1
 2346 0628 216A     		ldr	r1, [r4, #32]
 2347 062a 284A     		ldr	r2, .L259+8
 2348 062c 8B42     		cmp	r3, r1
 2349 062e 08DA     		bge	.L254
 697:bluetooth_rxtx.c **** 		dlen = 390;
 2350              		.loc 1 697 0 is_stmt 0 discriminator 2
 2351 0630 2548     		ldr	r0, .L259+4
 2352 0632 526A     		ldr	r2, [r2, #36]
 2353 0634 0068     		ldr	r0, [r0]
 2354 0636 F15C     		ldrb	r1, [r6, r3]	@ zero_extendqisi2
 2355 0638 0244     		add	r2, r2, r0
 2356 063a D154     		strb	r1, [r2, r3]
 2357 063c 0133     		adds	r3, r3, #1
 2358              	.LVL251:
 2359 063e DBB2     		uxtb	r3, r3
 2360              	.LVL252:
 2361 0640 F2E7     		b	.L169
 2362              	.L254:
 698:bluetooth_rxtx.c **** 		requested_mode = MODE_BT_SLAVE_LE;
 2363              		.loc 1 698 0 is_stmt 1
 2364 0642 4FF4C373 		mov	r3, #390
 2365              	.LVL253:
 2366 0646 1362     		str	r3, [r2, #32]
 699:bluetooth_rxtx.c **** 		break;
 2367              		.loc 1 699 0
 2368 0648 0C23     		movs	r3, #12
 2369 064a 9374     		strb	r3, [r2, #18]
 2370 064c 34E0     		b	.L206
 2371              	.LVL254:
 2372              	.L166:
 704:bluetooth_rxtx.c **** 		memcpy(slave_mac_address_data, data, 6);
 2373              		.loc 1 704 0
 2374 064e 0620     		movs	r0, #6
ARM GAS  /tmp/ccMPHsjp.s 			page 91


 2375              	.LVL255:
 2376 0650 FFF7FEFF 		bl	malloc
 2377              	.LVL256:
 2378 0654 1C4B     		ldr	r3, .L259+4
 705:bluetooth_rxtx.c **** 		requested_mode = MODE_BT_SYNC_LE;
 2379              		.loc 1 705 0
 2380 0656 3146     		mov	r1, r6
 2381 0658 0622     		movs	r2, #6
 704:bluetooth_rxtx.c **** 		memcpy(slave_mac_address_data, data, 6);
 2382              		.loc 1 704 0
 2383 065a 1860     		str	r0, [r3]
 705:bluetooth_rxtx.c **** 		requested_mode = MODE_BT_SYNC_LE;
 2384              		.loc 1 705 0
 2385 065c FFF7FEFF 		bl	memcpy
 2386              	.LVL257:
 706:bluetooth_rxtx.c **** 		do_hop = 0;
 2387              		.loc 1 706 0
 2388 0660 1323     		movs	r3, #19
 2389 0662 A374     		strb	r3, [r4, #18]
 707:bluetooth_rxtx.c **** 		hop_mode = HOP_BTLE;
 2390              		.loc 1 707 0
 2391 0664 0023     		movs	r3, #0
 2392 0666 E372     		strb	r3, [r4, #11]
 708:bluetooth_rxtx.c **** 		queue_init();
 2393              		.loc 1 708 0
 2394 0668 0323     		movs	r3, #3
 2395 066a A372     		strb	r3, [r4, #10]
 2396              	.L231:
 709:bluetooth_rxtx.c **** 		cs_threshold_calc_and_set(channel);
 2397              		.loc 1 709 0
 2398 066c FFF7FEFF 		bl	queue_init
 2399              	.LVL258:
 2400              	.L233:
 710:bluetooth_rxtx.c **** 		break;
 2401              		.loc 1 710 0
 2402 0670 174B     		ldr	r3, .L259+12
 2403              	.L236:
 2404 0672 1888     		ldrh	r0, [r3]
 2405 0674 80B2     		uxth	r0, r0
 2406 0676 FFF7FEFF 		bl	cs_threshold_calc_and_set
 2407              	.LVL259:
 2408 067a 1DE0     		b	.L206
 2409              	.LVL260:
 2410              	.L152:
 716:bluetooth_rxtx.c **** 		le.target[1] = data[4];
 2411              		.loc 1 716 0
 2412 067c 7279     		ldrb	r2, [r6, #5]	@ zero_extendqisi2
 2413 067e 144B     		ldr	r3, .L259+12
 722:bluetooth_rxtx.c **** 		break;
 2414              		.loc 1 722 0
 2415 0680 0120     		movs	r0, #1
 2416              	.LVL261:
 716:bluetooth_rxtx.c **** 		le.target[1] = data[4];
 2417              		.loc 1 716 0
 2418 0682 83F83820 		strb	r2, [r3, #56]
 717:bluetooth_rxtx.c **** 		le.target[2] = data[3];
 2419              		.loc 1 717 0
ARM GAS  /tmp/ccMPHsjp.s 			page 92


 2420 0686 3279     		ldrb	r2, [r6, #4]	@ zero_extendqisi2
 2421 0688 83F83920 		strb	r2, [r3, #57]
 718:bluetooth_rxtx.c **** 		le.target[3] = data[2];
 2422              		.loc 1 718 0
 2423 068c F278     		ldrb	r2, [r6, #3]	@ zero_extendqisi2
 2424 068e 83F83A20 		strb	r2, [r3, #58]
 719:bluetooth_rxtx.c **** 		le.target[4] = data[1];
 2425              		.loc 1 719 0
 2426 0692 B278     		ldrb	r2, [r6, #2]	@ zero_extendqisi2
 2427 0694 83F83B20 		strb	r2, [r3, #59]
 720:bluetooth_rxtx.c **** 		le.target[5] = data[0];
 2428              		.loc 1 720 0
 2429 0698 7278     		ldrb	r2, [r6, #1]	@ zero_extendqisi2
 2430 069a 83F83C20 		strb	r2, [r3, #60]
 721:bluetooth_rxtx.c **** 		le.target_set = 1;
 2431              		.loc 1 721 0
 2432 069e 3278     		ldrb	r2, [r6]	@ zero_extendqisi2
 2433 06a0 83F83D20 		strb	r2, [r3, #61]
 2434              	.LVL262:
 2435              	.L222:
 722:bluetooth_rxtx.c **** 		break;
 2436              		.loc 1 722 0
 2437 06a4 1864     		str	r0, [r3, #64]
 723:bluetooth_rxtx.c **** 
 2438              		.loc 1 723 0
 2439 06a6 BDE8F081 		pop	{r4, r5, r6, r7, r8, pc}
 2440              	.LVL263:
 2441              	.L154:
 727:bluetooth_rxtx.c **** 		break;
 2442              		.loc 1 727 0
 2443 06aa 0B78     		ldrb	r3, [r1]	@ zero_extendqisi2
 2444 06ac E374     		strb	r3, [r4, #19]
 2445 06ae 03E0     		b	.L206
 2446              	.L155:
 736:bluetooth_rxtx.c **** 		ego_mode = request_params[0];
 2447              		.loc 1 736 0
 2448 06b0 0D23     		movs	r3, #13
 2449 06b2 A374     		strb	r3, [r4, #18]
 737:bluetooth_rxtx.c **** 		break;
 2450              		.loc 1 737 0
 2451 06b4 0B78     		ldrb	r3, [r1]	@ zero_extendqisi2
 2452 06b6 2375     		strb	r3, [r4, #20]
 2453              	.LVL264:
 2454              	.L206:
 743:bluetooth_rxtx.c **** }
 2455              		.loc 1 743 0
 2456 06b8 0120     		movs	r0, #1
 2457 06ba BDE8F081 		pop	{r4, r5, r6, r7, r8, pc}
 2458              	.LVL265:
 2459              	.L213:
 331:bluetooth_rxtx.c **** 		}
 2460              		.loc 1 331 0
 2461 06be 0020     		movs	r0, #0
 744:bluetooth_rxtx.c **** 
 2462              		.loc 1 744 0
 2463 06c0 BDE8F081 		pop	{r4, r5, r6, r7, r8, pc}
 2464              	.LVL266:
ARM GAS  /tmp/ccMPHsjp.s 			page 93


 2465              	.L260:
 2466              		.align	2
 2467              	.L259:
 2468 06c4 00000000 		.word	tx_pkt
 2469 06c8 00000000 		.word	slave_mac_address_data
 2470 06cc 00000000 		.word	.LANCHOR0
 2471 06d0 00000000 		.word	.LANCHOR1
 2472              		.cfi_endproc
 2473              	.LFE3:
 2475              		.section	.text.enqueue_time,"ax",%progbits
 2476              		.align	1
 2477              		.thumb
 2478              		.thumb_func
 2480              	enqueue_time:
 2481              	.LFB1:
 167:bluetooth_rxtx.c **** 	usb_time_rx* f = usb_enqueue_time();
 2482              		.loc 1 167 0
 2483              		.cfi_startproc
 2484              		@ args = 0, pretend = 0, frame = 0
 2485              		@ frame_needed = 0, uses_anonymous_args = 0
 2486              	.LVL267:
 2487 0000 10B5     		push	{r4, lr}
 2488              		.cfi_def_cfa_offset 8
 2489              		.cfi_offset 4, -8
 2490              		.cfi_offset 14, -4
 167:bluetooth_rxtx.c **** 	usb_time_rx* f = usb_enqueue_time();
 2491              		.loc 1 167 0
 2492 0002 0446     		mov	r4, r0
 168:bluetooth_rxtx.c **** 	if  (f == NULL) {
 2493              		.loc 1 168 0
 2494 0004 FFF7FEFF 		bl	usb_enqueue_time
 2495              	.LVL268:
 169:bluetooth_rxtx.c **** 		status |= FIFO_OVERFLOW;
 2496              		.loc 1 169 0
 2497 0008 28B9     		cbnz	r0, .L262
 2498              	.LVL269:
 2499              	.LBB24:
 2500              	.LBB25:
 170:bluetooth_rxtx.c **** 		return 0;
 2501              		.loc 1 170 0
 2502 000a 064B     		ldr	r3, .L264
 2503 000c 5978     		ldrb	r1, [r3, #1]	@ zero_extendqisi2
 2504 000e 41F00401 		orr	r1, r1, #4
 2505 0012 5970     		strb	r1, [r3, #1]
 2506 0014 10BD     		pop	{r4, pc}
 2507              	.LVL270:
 2508              	.L262:
 2509              	.LBE25:
 2510              	.LBE24:
 173:bluetooth_rxtx.c **** 	return 1;
 2511              		.loc 1 173 0
 2512 0016 2146     		mov	r1, r4
 2513 0018 4022     		movs	r2, #64
 2514 001a FFF7FEFF 		bl	memcpy
 2515              	.LVL271:
 174:bluetooth_rxtx.c **** }
 2516              		.loc 1 174 0
ARM GAS  /tmp/ccMPHsjp.s 			page 94


 2517 001e 0120     		movs	r0, #1
 175:bluetooth_rxtx.c **** //
 2518              		.loc 1 175 0
 2519 0020 10BD     		pop	{r4, pc}
 2520              	.LVL272:
 2521              	.L265:
 2522 0022 00BF     		.align	2
 2523              	.L264:
 2524 0024 00000000 		.word	.LANCHOR0
 2525              		.cfi_endproc
 2526              	.LFE1:
 2528              		.section	.text.enqueue_with_ts,"ax",%progbits
 2529              		.align	1
 2530              		.global	enqueue_with_ts
 2531              		.thumb
 2532              		.thumb_func
 2534              	enqueue_with_ts:
 2535              	.LFB2:
 179:bluetooth_rxtx.c **** 	usb_pkt_rx* f = usb_enqueue();
 2536              		.loc 1 179 0
 2537              		.cfi_startproc
 2538              		@ args = 0, pretend = 0, frame = 0
 2539              		@ frame_needed = 0, uses_anonymous_args = 0
 2540              	.LVL273:
 2541 0000 2DE9F041 		push	{r4, r5, r6, r7, r8, lr}
 2542              		.cfi_def_cfa_offset 24
 2543              		.cfi_offset 4, -24
 2544              		.cfi_offset 5, -20
 2545              		.cfi_offset 6, -16
 2546              		.cfi_offset 7, -12
 2547              		.cfi_offset 8, -8
 2548              		.cfi_offset 14, -4
 179:bluetooth_rxtx.c **** 	usb_pkt_rx* f = usb_enqueue();
 2549              		.loc 1 179 0
 2550 0004 0646     		mov	r6, r0
 2551 0006 0F46     		mov	r7, r1
 2552 0008 9046     		mov	r8, r2
 180:bluetooth_rxtx.c **** 
 2553              		.loc 1 180 0
 2554 000a FFF7FEFF 		bl	usb_enqueue
 2555              	.LVL274:
 2556 000e 104D     		ldr	r5, .L269
 183:bluetooth_rxtx.c **** 		status |= FIFO_OVERFLOW;
 2557              		.loc 1 183 0
 2558 0010 0446     		mov	r4, r0
 2559 0012 28B9     		cbnz	r0, .L267
 184:bluetooth_rxtx.c **** 		return 0;
 2560              		.loc 1 184 0
 2561 0014 6B78     		ldrb	r3, [r5, #1]	@ zero_extendqisi2
 2562 0016 43F00403 		orr	r3, r3, #4
 2563 001a 6B70     		strb	r3, [r5, #1]
 185:bluetooth_rxtx.c **** 	}
 2564              		.loc 1 185 0
 2565 001c BDE8F081 		pop	{r4, r5, r6, r7, r8, pc}
 2566              	.LVL275:
 2567              	.L267:
 193:bluetooth_rxtx.c **** 	f->rssi_avg = 0;
ARM GAS  /tmp/ccMPHsjp.s 			page 95


 2568              		.loc 1 193 0
 2569 0020 0C4B     		ldr	r3, .L269+4
 188:bluetooth_rxtx.c **** 
 2570              		.loc 1 188 0
 2571 0022 0670     		strb	r6, [r0]
 193:bluetooth_rxtx.c **** 	f->rssi_avg = 0;
 2572              		.loc 1 193 0
 2573 0024 1B88     		ldrh	r3, [r3]
 190:bluetooth_rxtx.c **** 	f->clk100ns = ts;
 2574              		.loc 1 190 0
 2575 0026 0026     		movs	r6, #0
 193:bluetooth_rxtx.c **** 	f->rssi_avg = 0;
 2576              		.loc 1 193 0
 2577 0028 9BB2     		uxth	r3, r3
 2578 002a 623B     		subs	r3, r3, #98
 190:bluetooth_rxtx.c **** 	f->clk100ns = ts;
 2579              		.loc 1 190 0
 2580 002c C670     		strb	r6, [r0, #3]
 191:bluetooth_rxtx.c **** 
 2581              		.loc 1 191 0
 2582 002e C0F80480 		str	r8, [r0, #4]
 193:bluetooth_rxtx.c **** 	f->rssi_avg = 0;
 2583              		.loc 1 193 0
 2584 0032 8370     		strb	r3, [r0, #2]
 194:bluetooth_rxtx.c **** 	f->rssi_count = 0;
 2585              		.loc 1 194 0
 2586 0034 8672     		strb	r6, [r0, #10]
 195:bluetooth_rxtx.c **** 
 2587              		.loc 1 195 0
 2588 0036 C672     		strb	r6, [r0, #11]
 197:bluetooth_rxtx.c **** 
 2589              		.loc 1 197 0
 2590 0038 3946     		mov	r1, r7
 2591 003a 3222     		movs	r2, #50
 2592 003c 0E30     		adds	r0, r0, #14
 2593              	.LVL276:
 2594 003e FFF7FEFF 		bl	memcpy
 2595              	.LVL277:
 199:bluetooth_rxtx.c **** 	status = 0;
 2596              		.loc 1 199 0
 2597 0042 6B78     		ldrb	r3, [r5, #1]	@ zero_extendqisi2
 200:bluetooth_rxtx.c **** 
 2598              		.loc 1 200 0
 2599 0044 6E70     		strb	r6, [r5, #1]
 199:bluetooth_rxtx.c **** 	status = 0;
 2600              		.loc 1 199 0
 2601 0046 6370     		strb	r3, [r4, #1]
 202:bluetooth_rxtx.c **** }
 2602              		.loc 1 202 0
 2603 0048 0120     		movs	r0, #1
 203:bluetooth_rxtx.c **** 
 2604              		.loc 1 203 0
 2605 004a BDE8F081 		pop	{r4, r5, r6, r7, r8, pc}
 2606              	.LVL278:
 2607              	.L270:
 2608 004e 00BF     		.align	2
 2609              	.L269:
ARM GAS  /tmp/ccMPHsjp.s 			page 96


 2610 0050 00000000 		.word	.LANCHOR0
 2611 0054 00000000 		.word	.LANCHOR1
 2612              		.cfi_endproc
 2613              	.LFE2:
 2615              		.section	.text.TIMER0_IRQHandler,"ax",%progbits
 2616              		.align	1
 2617              		.global	TIMER0_IRQHandler
 2618              		.thumb
 2619              		.thumb_func
 2621              	TIMER0_IRQHandler:
 2622              	.LFB4:
 748:bluetooth_rxtx.c **** 	if (T0IR & TIR_MR0_Interrupt) {
 2623              		.loc 1 748 0
 2624              		.cfi_startproc
 2625              		@ args = 0, pretend = 0, frame = 0
 2626              		@ frame_needed = 0, uses_anonymous_args = 0
 2627 0000 70B5     		push	{r4, r5, r6, lr}
 2628              		.cfi_def_cfa_offset 16
 2629              		.cfi_offset 4, -16
 2630              		.cfi_offset 5, -12
 2631              		.cfi_offset 6, -8
 2632              		.cfi_offset 14, -4
 749:bluetooth_rxtx.c **** 
 2633              		.loc 1 749 0
 2634 0002 4FF04023 		mov	r3, #1073758208
 2635 0006 1B68     		ldr	r3, [r3]
 2636 0008 DB07     		lsls	r3, r3, #31
 2637 000a 7FD5     		bpl	.L271
 2638              	.LBB26:
 751:bluetooth_rxtx.c **** 		clkn_offset = 0;
 2639              		.loc 1 751 0
 2640 000c 4049     		ldr	r1, .L294
 2641 000e 414B     		ldr	r3, .L294+4
 2642 0010 0868     		ldr	r0, [r1]
 2643 0012 1A68     		ldr	r2, [r3]
 2644 0014 0244     		add	r2, r2, r0
 2645 0016 0132     		adds	r2, r2, #1
 2646 0018 0A60     		str	r2, [r1]
 752:bluetooth_rxtx.c **** 
 2647              		.loc 1 752 0
 2648 001a 0022     		movs	r2, #0
 2649 001c 1A60     		str	r2, [r3]
 759:bluetooth_rxtx.c **** 			if ((clkn & 0x7f) == 0)
 2650              		.loc 1 759 0
 2651 001e 3E4A     		ldr	r2, .L294+8
 754:bluetooth_rxtx.c **** 
 2652              		.loc 1 754 0
 2653 0020 0C68     		ldr	r4, [r1]
 2654 0022 3E4B     		ldr	r3, .L294+12
 759:bluetooth_rxtx.c **** 			if ((clkn & 0x7f) == 0)
 2655              		.loc 1 759 0
 2656 0024 967A     		ldrb	r6, [r2, #10]	@ zero_extendqisi2
 754:bluetooth_rxtx.c **** 
 2657              		.loc 1 754 0
 2658 0026 D869     		ldr	r0, [r3, #28]
 2659              	.LVL279:
 2660 0028 1546     		mov	r5, r2
ARM GAS  /tmp/ccMPHsjp.s 			page 97


 759:bluetooth_rxtx.c **** 			if ((clkn & 0x7f) == 0)
 2661              		.loc 1 759 0
 2662 002a 16B1     		cbz	r6, .L273
 759:bluetooth_rxtx.c **** 			if ((clkn & 0x7f) == 0)
 2663              		.loc 1 759 0 is_stmt 0 discriminator 1
 2664 002c 967A     		ldrb	r6, [r2, #10]	@ zero_extendqisi2
 2665 002e 012E     		cmp	r6, #1
 2666 0030 05D1     		bne	.L274
 2667              	.L273:
 760:bluetooth_rxtx.c **** 				do_hop = 1;
 2668              		.loc 1 760 0 is_stmt 1
 2669 0032 0B68     		ldr	r3, [r1]
 2670 0034 5E06     		lsls	r6, r3, #25
 2671 0036 37D1     		bne	.L275
 761:bluetooth_rxtx.c **** 		}
 2672              		.loc 1 761 0
 2673 0038 0123     		movs	r3, #1
 2674 003a EB72     		strb	r3, [r5, #11]
 2675 003c 34E0     		b	.L275
 2676              	.L274:
 764:bluetooth_rxtx.c **** 			if ((clkn & 0x1) == 0)
 2677              		.loc 1 764 0
 2678 003e 957A     		ldrb	r5, [r2, #10]	@ zero_extendqisi2
 2679 0040 022D     		cmp	r5, #2
 2680 0042 03D1     		bne	.L276
 765:bluetooth_rxtx.c **** 				do_hop = 1;
 2681              		.loc 1 765 0
 2682 0044 0B68     		ldr	r3, [r1]
 2683 0046 DC07     		lsls	r4, r3, #31
 2684              	.LVL280:
 2685 0048 2ED4     		bmi	.L275
 2686 004a 2BE0     		b	.L292
 2687              	.LVL281:
 2688              	.L276:
 769:bluetooth_rxtx.c **** 			// Only hop if connected
 2689              		.loc 1 769 0
 2690 004c 957A     		ldrb	r5, [r2, #10]	@ zero_extendqisi2
 2691 004e 032D     		cmp	r5, #3
 2692 0050 1CD1     		bne	.L277
 771:bluetooth_rxtx.c **** 				--le.interval_timer;
 2693              		.loc 1 771 0
 2694 0052 1D7E     		ldrb	r5, [r3, #24]	@ zero_extendqisi2
 2695 0054 032D     		cmp	r5, #3
 2696 0056 27D1     		bne	.L275
 754:bluetooth_rxtx.c **** 
 2697              		.loc 1 754 0 discriminator 1
 2698 0058 201A     		subs	r0, r4, r0
 2699              	.LVL282:
 771:bluetooth_rxtx.c **** 				--le.interval_timer;
 2700              		.loc 1 771 0 discriminator 1
 2701 005a 8007     		lsls	r0, r0, #30
 2702 005c 24D1     		bne	.L275
 772:bluetooth_rxtx.c **** 				if (le.interval_timer == 0) {
 2703              		.loc 1 772 0
 2704 005e 188C     		ldrh	r0, [r3, #32]
 2705 0060 80B2     		uxth	r0, r0
 2706 0062 0138     		subs	r0, r0, #1
ARM GAS  /tmp/ccMPHsjp.s 			page 98


 2707 0064 80B2     		uxth	r0, r0
 2708 0066 1884     		strh	r0, [r3, #32]	@ movhi
 773:bluetooth_rxtx.c **** 					do_hop = 1;
 2709              		.loc 1 773 0
 2710 0068 188C     		ldrh	r0, [r3, #32]
 2711 006a 80B2     		uxth	r0, r0
 2712 006c 48B9     		cbnz	r0, .L278
 774:bluetooth_rxtx.c **** 					++le.conn_count;
 2713              		.loc 1 774 0
 2714 006e 0120     		movs	r0, #1
 2715 0070 D072     		strb	r0, [r2, #11]
 775:bluetooth_rxtx.c **** 					le.interval_timer = le.conn_interval;
 2716              		.loc 1 775 0
 2717 0072 9A8C     		ldrh	r2, [r3, #36]
 2718 0074 92B2     		uxth	r2, r2
 2719 0076 0244     		add	r2, r2, r0
 2720 0078 92B2     		uxth	r2, r2
 2721 007a 9A84     		strh	r2, [r3, #36]	@ movhi
 776:bluetooth_rxtx.c **** 				} else {
 2722              		.loc 1 776 0
 2723 007c 5A8C     		ldrh	r2, [r3, #34]
 2724 007e 1A84     		strh	r2, [r3, #32]	@ movhi
 2725 0080 12E0     		b	.L275
 2726              	.L278:
 778:bluetooth_rxtx.c **** 				}
 2727              		.loc 1 778 0
 2728 0082 274B     		ldr	r3, .L294+16
 2729 0084 4FF48072 		mov	r2, #256
 2730 0088 1A60     		str	r2, [r3]
 2731 008a 0DE0     		b	.L275
 2732              	.LVL283:
 2733              	.L277:
 782:bluetooth_rxtx.c **** 			if( (last_hop + hop_timeout) == clkn ) {
 2734              		.loc 1 782 0
 2735 008c 907A     		ldrb	r0, [r2, #10]	@ zero_extendqisi2
 2736              	.LVL284:
 2737 008e 0528     		cmp	r0, #5
 2738 0090 0AD1     		bne	.L275
 783:bluetooth_rxtx.c **** 				do_hop = 1;
 2739              		.loc 1 783 0
 2740 0092 2448     		ldr	r0, .L294+20
 2741 0094 0468     		ldr	r4, [r0]
 2742              	.LVL285:
 2743 0096 B3F84800 		ldrh	r0, [r3, #72]
 2744 009a 0B68     		ldr	r3, [r1]
 2745 009c 80B2     		uxth	r0, r0
 2746 009e 2044     		add	r0, r0, r4
 2747 00a0 9842     		cmp	r0, r3
 2748 00a2 01D1     		bne	.L275
 2749              	.L292:
 784:bluetooth_rxtx.c **** 			}
 2750              		.loc 1 784 0
 2751 00a4 0123     		movs	r3, #1
 2752 00a6 D372     		strb	r3, [r2, #11]
 2753              	.L275:
 789:bluetooth_rxtx.c **** 			if(clkn >= clkn_next_drift_fix) {
 2754              		.loc 1 789 0
ARM GAS  /tmp/ccMPHsjp.s 			page 99


 2755 00a8 1F4A     		ldr	r2, .L294+24
 2756 00aa 204B     		ldr	r3, .L294+28
 2757 00ac 1068     		ldr	r0, [r2]
 2758 00ae C0B1     		cbz	r0, .L279
 789:bluetooth_rxtx.c **** 			if(clkn >= clkn_next_drift_fix) {
 2759              		.loc 1 789 0 is_stmt 0 discriminator 1
 2760 00b0 1888     		ldrh	r0, [r3]
 2761 00b2 80B2     		uxth	r0, r0
 2762 00b4 A8B9     		cbnz	r0, .L279
 790:bluetooth_rxtx.c **** 
 2763              		.loc 1 790 0 is_stmt 1
 2764 00b6 0C68     		ldr	r4, [r1]
 2765 00b8 1068     		ldr	r0, [r2]
 2766 00ba 8442     		cmp	r4, r0
 2767 00bc 11D3     		bcc	.L279
 793:bluetooth_rxtx.c **** 					clk100ns_offset = 1;
 2768              		.loc 1 793 0
 2769 00be 1C48     		ldr	r0, .L294+32
 2770 00c0 0088     		ldrh	r0, [r0]
 2771 00c2 00B2     		sxth	r0, r0
 2772 00c4 0028     		cmp	r0, #0
 794:bluetooth_rxtx.c **** 				}
 2773              		.loc 1 794 0
 2774 00c6 ACBF     		ite	ge
 2775 00c8 0120     		movge	r0, #1
 799:bluetooth_rxtx.c **** 				}
 2776              		.loc 1 799 0
 2777 00ca 41F66900 		movwlt	r0, #6249
 2778 00ce 1880     		strh	r0, [r3]	@ movhi
 801:bluetooth_rxtx.c **** 				clkn_next_drift_fix = clkn_last_drift_fix + clk_drift_correction;
 2779              		.loc 1 801 0
 2780 00d0 0C68     		ldr	r4, [r1]
 2781 00d2 1848     		ldr	r0, .L294+36
 2782 00d4 0460     		str	r4, [r0]
 802:bluetooth_rxtx.c **** 			}
 2783              		.loc 1 802 0
 2784 00d6 0468     		ldr	r4, [r0]
 2785 00d8 1748     		ldr	r0, .L294+40
 2786 00da 0088     		ldrh	r0, [r0]
 2787 00dc 80B2     		uxth	r0, r0
 2788 00de 2044     		add	r0, r0, r4
 2789 00e0 1060     		str	r0, [r2]
 2790              	.L279:
 807:bluetooth_rxtx.c **** 			clkn += 2;
 2791              		.loc 1 807 0
 2792 00e2 1888     		ldrh	r0, [r3]
 2793 00e4 40F63442 		movw	r2, #3124
 2794 00e8 80B2     		uxth	r0, r0
 2795 00ea 9042     		cmp	r0, r2
 2796 00ec 02D9     		bls	.L282
 808:bluetooth_rxtx.c **** 
 2797              		.loc 1 808 0
 2798 00ee 0A68     		ldr	r2, [r1]
 2799 00f0 0232     		adds	r2, r2, #2
 2800 00f2 0A60     		str	r2, [r1]
 2801              	.L282:
 810:bluetooth_rxtx.c **** 		clk100ns_offset = 0;
ARM GAS  /tmp/ccMPHsjp.s 			page 100


 2802              		.loc 1 810 0
 2803 00f4 1988     		ldrh	r1, [r3]
 2804 00f6 114A     		ldr	r2, .L294+44
 2805 00f8 89B2     		uxth	r1, r1
 2806 00fa 01F63441 		addw	r1, r1, #3124
 2807 00fe 1160     		str	r1, [r2]
 811:bluetooth_rxtx.c **** 
 2808              		.loc 1 811 0
 2809 0100 0022     		movs	r2, #0
 2810 0102 1A80     		strh	r2, [r3]	@ movhi
 814:bluetooth_rxtx.c **** 	}
 2811              		.loc 1 814 0
 2812 0104 0122     		movs	r2, #1
 2813 0106 4FF04023 		mov	r3, #1073758208
 2814 010a 1A60     		str	r2, [r3]
 2815              	.L271:
 2816 010c 70BD     		pop	{r4, r5, r6, pc}
 2817              	.L295:
 2818 010e 00BF     		.align	2
 2819              	.L294:
 2820 0110 00000000 		.word	clkn
 2821 0114 00000000 		.word	clkn_offset
 2822 0118 00000000 		.word	.LANCHOR0
 2823 011c 00000000 		.word	.LANCHOR1
 2824 0120 3CC00920 		.word	537509948
 2825 0124 00000000 		.word	last_hop
 2826 0128 00000000 		.word	clkn_next_drift_fix
 2827 012c 00000000 		.word	clk100ns_offset
 2828 0130 00000000 		.word	clk_drift_ppm
 2829 0134 00000000 		.word	clkn_last_drift_fix
 2830 0138 00000000 		.word	clk_drift_correction
 2831 013c 18400040 		.word	1073758232
 2832              	.LBE26:
 2833              		.cfi_endproc
 2834              	.LFE4:
 2836              		.section	.text.EINT3_IRQHandler,"ax",%progbits
 2837              		.align	1
 2838              		.global	EINT3_IRQHandler
 2839              		.thumb
 2840              		.thumb_func
 2842              	EINT3_IRQHandler:
 2843              	.LFB5:
 821:bluetooth_rxtx.c **** 	/* TODO - check specific source of shared interrupt */
 2844              		.loc 1 821 0
 2845              		.cfi_startproc
 2846              		@ args = 0, pretend = 0, frame = 0
 2847              		@ frame_needed = 0, uses_anonymous_args = 0
 2848              		@ link register save eliminated.
 823:bluetooth_rxtx.c **** 	DIO_SSEL_CLR;           // enable SPI
 2849              		.loc 1 823 0
 2850 0000 084B     		ldr	r3, .L298
 2851 0002 0422     		movs	r2, #4
 2852 0004 1A60     		str	r2, [r3]
 824:bluetooth_rxtx.c **** 	cs_trigger  = 1;        // signal trigger
 2853              		.loc 1 824 0
 2854 0006 084B     		ldr	r3, .L298+4
 2855 0008 4FF08052 		mov	r2, #268435456
ARM GAS  /tmp/ccMPHsjp.s 			page 101


 2856 000c 1A60     		str	r2, [r3]
 825:bluetooth_rxtx.c **** 	if (hop_mode == HOP_BLUETOOTH)
 2857              		.loc 1 825 0
 2858 000e 074B     		ldr	r3, .L298+8
 2859 0010 0122     		movs	r2, #1
 2860 0012 1A70     		strb	r2, [r3]
 826:bluetooth_rxtx.c **** 		dma_discard = 0; 
 2861              		.loc 1 826 0
 2862 0014 064B     		ldr	r3, .L298+12
 2863 0016 9A7A     		ldrb	r2, [r3, #10]	@ zero_extendqisi2
 2864 0018 022A     		cmp	r2, #2
 827:bluetooth_rxtx.c **** 
 2865              		.loc 1 827 0
 2866 001a 04BF     		itt	eq
 2867 001c 0022     		moveq	r2, #0
 2868 001e 1A74     		strbeq	r2, [r3, #16]
 2869 0020 7047     		bx	lr
