ARM GAS  /tmp/cc9UKiNn.s 			page 1


   1              		.syntax unified
   2              		.cpu cortex-m3
   3              		.fpu softvfp
   4              		.eabi_attribute 20, 1
   5              		.eabi_attribute 21, 1
   6              		.eabi_attribute 23, 3
   7              		.eabi_attribute 24, 1
   8              		.eabi_attribute 25, 1
   9              		.eabi_attribute 26, 1
  10              		.eabi_attribute 30, 4
  11              		.eabi_attribute 34, 1
  12              		.eabi_attribute 18, 4
  13              		.thumb
  14              		.file	"ubertooth.c"
  15              		.text
  16              	.Ltext0:
  17              		.cfi_sections	.debug_frame
  18              		.section	.text.spi_delay,"ax",%progbits
  19              		.align	1
  20              		.thumb
  21              		.thumb_func
  23              	spi_delay:
  24              	.LFB16:
  25              		.file 1 "../common/ubertooth.c"
   1:../common/ubertooth.c **** /*
   2:../common/ubertooth.c ****  * Copyright 2010, 2011 Michael Ossmann
   3:../common/ubertooth.c ****  *
   4:../common/ubertooth.c ****  * This file is part of Project Ubertooth.
   5:../common/ubertooth.c ****  *
   6:../common/ubertooth.c ****  * This program is free software; you can redistribute it and/or modify
   7:../common/ubertooth.c ****  * it under the terms of the GNU General Public License as published by
   8:../common/ubertooth.c ****  * the Free Software Foundation; either version 2, or (at your option)
   9:../common/ubertooth.c ****  * any later version.
  10:../common/ubertooth.c ****  *
  11:../common/ubertooth.c ****  * This program is distributed in the hope that it will be useful,
  12:../common/ubertooth.c ****  * but WITHOUT ANY WARRANTY; without even the implied warranty of
  13:../common/ubertooth.c ****  * MERCHANTABILITY or FITNESS FOR A PARTICULAR PURPOSE.  See the
  14:../common/ubertooth.c ****  * GNU General Public License for more details.
  15:../common/ubertooth.c ****  *
  16:../common/ubertooth.c ****  * You should have received a copy of the GNU General Public License
  17:../common/ubertooth.c ****  * along with this program; see the file COPYING.  If not, write to
  18:../common/ubertooth.c ****  * the Free Software Foundation, Inc., 51 Franklin Street,
  19:../common/ubertooth.c ****  * Boston, MA 02110-1301, USA.
  20:../common/ubertooth.c ****  */
  21:../common/ubertooth.c **** 
  22:../common/ubertooth.c **** #include "ubertooth.h"
  23:../common/ubertooth.c **** 
  24:../common/ubertooth.c **** #define IAP_LOCATION 0x1FFF1FF1
  25:../common/ubertooth.c **** const IAP_ENTRY iap_entry = (IAP_ENTRY)IAP_LOCATION;
  26:../common/ubertooth.c **** 
  27:../common/ubertooth.c **** /* delay a number of seconds while on internal oscillator (4 MHz) */
  28:../common/ubertooth.c **** void wait(u8 seconds)
  29:../common/ubertooth.c **** {
  30:../common/ubertooth.c **** 	wait_us(seconds * 1000000);
  31:../common/ubertooth.c **** }
  32:../common/ubertooth.c **** 
  33:../common/ubertooth.c **** /* delay a number of milliseconds while on internal oscillator (4 MHz) */
ARM GAS  /tmp/cc9UKiNn.s 			page 2


  34:../common/ubertooth.c **** void wait_ms(u32 ms)
  35:../common/ubertooth.c **** {
  36:../common/ubertooth.c **** 	wait_us(ms * 1000);
  37:../common/ubertooth.c **** }
  38:../common/ubertooth.c **** 
  39:../common/ubertooth.c **** /* efficiently reverse the bits of a 32-bit word */
  40:../common/ubertooth.c **** u32 rbit(u32 value) {
  41:../common/ubertooth.c ****   u32 result = 0;
  42:../common/ubertooth.c ****   asm("rbit %0, %1" : "=r" (result) : "r" (value));
  43:../common/ubertooth.c ****   return result;
  44:../common/ubertooth.c **** }
  45:../common/ubertooth.c **** 
  46:../common/ubertooth.c **** /* delay a number of microseconds while on internal oscillator (4 MHz) */
  47:../common/ubertooth.c **** /* we only have a resolution of 1000/400, so to the nearest 2.5        */
  48:../common/ubertooth.c **** static volatile u32 wait_us_counter;
  49:../common/ubertooth.c **** void wait_us(u32 us)
  50:../common/ubertooth.c **** {
  51:../common/ubertooth.c **** 	/* This is binary multiply by ~0.3999, i.e, multiply by
  52:../common/ubertooth.c **** 	   0.011011011b. The loop also contains 6 instructions at -Os, so
  53:../common/ubertooth.c **** 	   why this factor works is not at all related to the comment
  54:../common/ubertooth.c **** 	   above ;-) */
  55:../common/ubertooth.c **** 	wait_us_counter =
  56:../common/ubertooth.c **** 		(us>>2) + (us>>3) + (us>>6) + (us>>7) + (us>>10) + (us>>11);
  57:../common/ubertooth.c **** 	while(--wait_us_counter);
  58:../common/ubertooth.c **** }
  59:../common/ubertooth.c **** 
  60:../common/ubertooth.c **** 
  61:../common/ubertooth.c **** /*
  62:../common/ubertooth.c ****  * This should be called very early by every firmware in order to ensure safe
  63:../common/ubertooth.c ****  * operating conditions for the CC2400.
  64:../common/ubertooth.c ****  */
  65:../common/ubertooth.c **** void gpio_init()
  66:../common/ubertooth.c **** {
  67:../common/ubertooth.c **** 	/* 
  68:../common/ubertooth.c **** 	 * Set all pins for GPIO.  This shouldn't be necessary after a reset, but
  69:../common/ubertooth.c **** 	 * we might get called at other times.
  70:../common/ubertooth.c **** 	 */
  71:../common/ubertooth.c **** 	all_pins_off();
  72:../common/ubertooth.c **** 
  73:../common/ubertooth.c **** 	/* set certain pins as outputs, all others inputs */
  74:../common/ubertooth.c **** #ifdef UBERTOOTH_ZERO
  75:../common/ubertooth.c **** 	FIO0DIR = PIN_USRLED;
  76:../common/ubertooth.c **** 	FIO1DIR = (PIN_CC3V3 | PIN_RX | PIN_TX | PIN_CSN |
  77:../common/ubertooth.c **** 			PIN_SCLK | PIN_MOSI | PIN_CC1V8 | PIN_BTGR);
  78:../common/ubertooth.c **** 	FIO2DIR = PIN_SSEL0;
  79:../common/ubertooth.c **** 	FIO3DIR = 0;
  80:../common/ubertooth.c **** 	FIO4DIR = (PIN_RXLED | PIN_TXLED);
  81:../common/ubertooth.c **** #endif
  82:../common/ubertooth.c **** #ifdef UBERTOOTH_ONE
  83:../common/ubertooth.c **** 	FIO0DIR = 0;
  84:../common/ubertooth.c **** 	FIO1DIR = (PIN_USRLED | PIN_RXLED | PIN_TXLED | PIN_CC3V3 |
  85:../common/ubertooth.c **** 			PIN_RX | PIN_CC1V8 | PIN_BTGR);
  86:../common/ubertooth.c **** 	FIO2DIR = (PIN_CSN | PIN_SCLK | PIN_MOSI | PIN_PAEN | PIN_HGM);
  87:../common/ubertooth.c **** 	FIO3DIR = 0;
  88:../common/ubertooth.c **** 	FIO4DIR = (PIN_TX | PIN_SSEL1);
  89:../common/ubertooth.c **** #endif
  90:../common/ubertooth.c **** #ifdef TC13BADGE
ARM GAS  /tmp/cc9UKiNn.s 			page 3


  91:../common/ubertooth.c **** 	/*
  92:../common/ubertooth.c **** 	 * Leave all the CC2400 pins configured as inputs until cc2400_init() is
  93:../common/ubertooth.c **** 	 * called so that we don't interfere with the R8C's control of the CC2400.
  94:../common/ubertooth.c **** 	 */
  95:../common/ubertooth.c **** 	FIO0DIR = 0;
  96:../common/ubertooth.c **** 	FIO1DIR = PIN_R8C_CTL;
  97:../common/ubertooth.c **** 	FIO2DIR = 0;
  98:../common/ubertooth.c **** 	FIO3DIR = 0;
  99:../common/ubertooth.c **** 	FIO4DIR = 0;
 100:../common/ubertooth.c **** #endif
 101:../common/ubertooth.c **** 
 102:../common/ubertooth.c **** 	/* set all outputs low */
 103:../common/ubertooth.c **** 	FIO0PIN = 0;
 104:../common/ubertooth.c **** 	FIO1PIN = 0;
 105:../common/ubertooth.c **** 	FIO2PIN = 0;
 106:../common/ubertooth.c **** 	FIO3PIN = 0;
 107:../common/ubertooth.c **** 	FIO4PIN = 0;
 108:../common/ubertooth.c **** 
 109:../common/ubertooth.c **** #ifdef TC13BADGE
 110:../common/ubertooth.c **** 	/* R8C_CTL is active low */
 111:../common/ubertooth.c **** 	R8C_CTL_SET;
 112:../common/ubertooth.c **** #endif
 113:../common/ubertooth.c **** }
 114:../common/ubertooth.c **** 
 115:../common/ubertooth.c **** void all_pins_off(void)
 116:../common/ubertooth.c **** {
 117:../common/ubertooth.c **** 	/* configure all pins for GPIO */
 118:../common/ubertooth.c **** 	PINSEL0 = 0;
 119:../common/ubertooth.c **** 	PINSEL1 = 0;
 120:../common/ubertooth.c **** 	PINSEL2 = 0;
 121:../common/ubertooth.c **** 	PINSEL3 = 0;
 122:../common/ubertooth.c **** 	PINSEL4 = 0;
 123:../common/ubertooth.c **** 	PINSEL7 = 0;
 124:../common/ubertooth.c **** 	PINSEL9 = 0;
 125:../common/ubertooth.c **** 	PINSEL10 = 0;
 126:../common/ubertooth.c **** 
 127:../common/ubertooth.c **** 	/* configure all pins as inputs */
 128:../common/ubertooth.c **** 	FIO0DIR = 0;
 129:../common/ubertooth.c **** 	FIO1DIR = 0;
 130:../common/ubertooth.c **** 	FIO2DIR = 0;
 131:../common/ubertooth.c **** 	FIO3DIR = 0;
 132:../common/ubertooth.c **** 	FIO4DIR = 0;
 133:../common/ubertooth.c **** 
 134:../common/ubertooth.c **** 	/* pull-up on every pin */
 135:../common/ubertooth.c **** 	PINMODE0 = 0;
 136:../common/ubertooth.c **** 	PINMODE1 = 0;
 137:../common/ubertooth.c **** 	PINMODE2 = 0;
 138:../common/ubertooth.c **** 	PINMODE3 = 0;
 139:../common/ubertooth.c **** 	PINMODE4 = 0;
 140:../common/ubertooth.c **** 	PINMODE7 = 0;
 141:../common/ubertooth.c **** 	PINMODE9 = 0;
 142:../common/ubertooth.c **** 
 143:../common/ubertooth.c **** 	/* set all outputs low */
 144:../common/ubertooth.c **** 	FIO0PIN = 0;
 145:../common/ubertooth.c **** 	FIO1PIN = 0;
 146:../common/ubertooth.c **** 	FIO2PIN = 0;
 147:../common/ubertooth.c **** 	FIO3PIN = 0;
ARM GAS  /tmp/cc9UKiNn.s 			page 4


 148:../common/ubertooth.c **** 	FIO4PIN = 0;
 149:../common/ubertooth.c **** }
 150:../common/ubertooth.c **** 
 151:../common/ubertooth.c **** /*
 152:../common/ubertooth.c ****  * Every application that uses the main oscillator (including any that use both
 153:../common/ubertooth.c ****  * USB and the CC2400) should start with this.
 154:../common/ubertooth.c ****  */
 155:../common/ubertooth.c **** void ubertooth_init()
 156:../common/ubertooth.c **** {
 157:../common/ubertooth.c **** 	gpio_init();
 158:../common/ubertooth.c **** 	cc2400_init();
 159:../common/ubertooth.c **** 	clock_start();
 160:../common/ubertooth.c **** }
 161:../common/ubertooth.c **** 
 162:../common/ubertooth.c **** /* configure SSP for CC2400's secondary serial data interface */
 163:../common/ubertooth.c **** void dio_ssp_init()
 164:../common/ubertooth.c **** {
 165:../common/ubertooth.c **** #ifdef UBERTOOTH_ZERO
 166:../common/ubertooth.c **** 	/* set P0.15 as SCK0 */
 167:../common/ubertooth.c **** 	PINSEL0 = (PINSEL0 & ~(3 << 30)) | (2 << 30);
 168:../common/ubertooth.c **** 
 169:../common/ubertooth.c **** 	/* set P1.16 as SSEL0 */
 170:../common/ubertooth.c **** 	PINSEL1 = (PINSEL1 & ~(3 << 0)) | (2 << 0);
 171:../common/ubertooth.c **** 
 172:../common/ubertooth.c **** 	/* set P1.17 as MISO0 */
 173:../common/ubertooth.c **** 	PINSEL1 = (PINSEL1 & ~(3 << 2)) | (2 << 2);
 174:../common/ubertooth.c **** 
 175:../common/ubertooth.c **** 	/* set P1.18 as MOSI0 */
 176:../common/ubertooth.c **** 	PINSEL1 = (PINSEL1 & ~(3 << 4)) | (2 << 4);
 177:../common/ubertooth.c **** #endif
 178:../common/ubertooth.c **** #if defined UBERTOOTH_ONE || defined TC13BADGE
 179:../common/ubertooth.c **** 	/* set P0.7 as SCK1 */
 180:../common/ubertooth.c **** 	PINSEL0 = (PINSEL0 & ~(3 << 14)) | (2 << 14);
 181:../common/ubertooth.c **** 
 182:../common/ubertooth.c **** 	/* set P0.6 as SSEL1 */
 183:../common/ubertooth.c **** 	PINSEL0 = (PINSEL0 & ~(3 << 12)) | (2 << 12);
 184:../common/ubertooth.c **** 
 185:../common/ubertooth.c **** 	/* set P0.8 as MISO1 */
 186:../common/ubertooth.c **** 	PINSEL0 = (PINSEL0 & ~(3 << 16)) | (2 << 16);
 187:../common/ubertooth.c **** 
 188:../common/ubertooth.c **** 	/* set P0.9 as MOSI1 */
 189:../common/ubertooth.c **** 	PINSEL0 = (PINSEL0 & ~(3 << 18)) | (2 << 18);
 190:../common/ubertooth.c **** #endif
 191:../common/ubertooth.c **** 
 192:../common/ubertooth.c **** 	/*
 193:../common/ubertooth.c **** 	 * DIO_SSEL is a GPIO output connected directly to the SSEL input on the
 194:../common/ubertooth.c **** 	 * microcontroller for the CC2400's un-buffered (DIO/DCLK) serial
 195:../common/ubertooth.c **** 	 * interface.  Since the CC2400 doesn't have a slave select output, we
 196:../common/ubertooth.c **** 	 * control it with this.  DIO_SSEL should already be configured by
 197:../common/ubertooth.c **** 	 * gpio_init().  We set it high by default because it is an active low
 198:../common/ubertooth.c **** 	 * signal.
 199:../common/ubertooth.c **** 	 */
 200:../common/ubertooth.c **** 	DIO_SSEL_SET;
 201:../common/ubertooth.c **** 
 202:../common/ubertooth.c **** 	/* configure DIO_SSP */
 203:../common/ubertooth.c **** 	DIO_SSP_CR0 = (0x7 /* 8 bit transfer */ | SSPCR0_CPOL | SSPCR0_CPHA);
 204:../common/ubertooth.c **** 	DIO_SSP_CR1 = (SSPCR1_MS | SSPCR1_SOD);
ARM GAS  /tmp/cc9UKiNn.s 			page 5


 205:../common/ubertooth.c **** }
 206:../common/ubertooth.c **** 
 207:../common/ubertooth.c **** void atest_init()
 208:../common/ubertooth.c **** {
 209:../common/ubertooth.c **** 	/*
 210:../common/ubertooth.c **** 	 * ADC can optionally be configured for ATEST1 and ATEST2, but for now we
 211:../common/ubertooth.c **** 	 * set them as floating inputs.
 212:../common/ubertooth.c **** 	 */
 213:../common/ubertooth.c **** 
 214:../common/ubertooth.c **** 	/* P0.25 is ATEST1, P0.26 is ATEST2 */
 215:../common/ubertooth.c **** 	PINSEL1 &= ~((0x3 << 20) | (0x3 << 18)); // set as GPIO
 216:../common/ubertooth.c **** 	FIO0DIR &= ~(0x3 << 25); // set as input
 217:../common/ubertooth.c **** 	PINMODE1 |= (0x5 << 19); // no pull-up/pull-down
 218:../common/ubertooth.c **** 	PINMODE1 &= ~(0x5 << 18); // no pull-up/pull-down
 219:../common/ubertooth.c **** }
 220:../common/ubertooth.c **** 
 221:../common/ubertooth.c **** void cc2400_init()
 222:../common/ubertooth.c **** {
 223:../common/ubertooth.c **** #ifdef TC13BADGE
 224:../common/ubertooth.c **** 	/* request CC2400 control from the R8C */
 225:../common/ubertooth.c **** 	r8c_takeover();
 226:../common/ubertooth.c **** 
 227:../common/ubertooth.c **** 	/* configure output pins for CC2400 control */
 228:../common/ubertooth.c **** 	FIO0DIR = 0;
 229:../common/ubertooth.c **** 	FIO1DIR = (PIN_CC3V3 | PIN_CC1V8 | PIN_CSN | PIN_SCLK | PIN_MOSI |
 230:../common/ubertooth.c **** 			PIN_R8C_CTL);
 231:../common/ubertooth.c **** 	FIO2DIR = (PIN_CSN | PIN_SCLK | PIN_MOSI);
 232:../common/ubertooth.c **** 	FIO3DIR = 0;
 233:../common/ubertooth.c **** 	FIO4DIR = PIN_SSEL1;
 234:../common/ubertooth.c **** 
 235:../common/ubertooth.c **** 	/* set all outputs low */
 236:../common/ubertooth.c **** 	FIO0PIN = 0;
 237:../common/ubertooth.c **** 	FIO1PIN = 0; /* assuming we have already asserted R8C_CTL low */
 238:../common/ubertooth.c **** 	FIO2PIN = 0;
 239:../common/ubertooth.c **** 	FIO3PIN = 0;
 240:../common/ubertooth.c **** 	FIO4PIN = 0;
 241:../common/ubertooth.c **** #else
 242:../common/ubertooth.c **** 	atest_init();
 243:../common/ubertooth.c **** #endif
 244:../common/ubertooth.c **** 
 245:../common/ubertooth.c **** 	/* activate 1V8 supply for CC2400 */
 246:../common/ubertooth.c **** 	CC1V8_SET;
 247:../common/ubertooth.c **** 	wait_us(50);
 248:../common/ubertooth.c **** 
 249:../common/ubertooth.c **** 	/* CSN (slave select) is active low */
 250:../common/ubertooth.c **** 	CSN_SET;
 251:../common/ubertooth.c **** 
 252:../common/ubertooth.c **** 	/* activate 3V3 supply for CC2400 IO */
 253:../common/ubertooth.c **** 	CC3V3_SET;
 254:../common/ubertooth.c **** 
 255:../common/ubertooth.c **** 	/* initialise various cc2400 settings - see datasheet pg63 */
 256:../common/ubertooth.c **** 	cc2400_set(MANAND,  0x7fff);
 257:../common/ubertooth.c **** }
 258:../common/ubertooth.c **** 
 259:../common/ubertooth.c **** /*
 260:../common/ubertooth.c ****  * This is a single SPI transaction of variable length, usually 8 or 24 bits.
 261:../common/ubertooth.c ****  * The CC2400 also supports longer transactions (e.g. for the FIFO), but we
ARM GAS  /tmp/cc9UKiNn.s 			page 6


 262:../common/ubertooth.c ****  * haven't implemented anything longer than 32 bits.
 263:../common/ubertooth.c ****  *
 264:../common/ubertooth.c ****  * We're bit-banging because:
 265:../common/ubertooth.c ****  *
 266:../common/ubertooth.c ****  * 1. We're using one SPI peripheral for the CC2400's unbuffered data
 267:../common/ubertooth.c ****  *    interace.
 268:../common/ubertooth.c ****  * 2. We're saving the second SPI peripheral for an expansion port.
 269:../common/ubertooth.c ****  * 3. The CC2400 needs CSN held low for the entire transaction which the
 270:../common/ubertooth.c ****  *    LPC17xx SPI peripheral won't do without some workaround anyway.
 271:../common/ubertooth.c ****  */
 272:../common/ubertooth.c **** u32 cc2400_spi(u8 len, u32 data)
 273:../common/ubertooth.c **** {
 274:../common/ubertooth.c **** 	u32 msb = 1 << (len - 1);
 275:../common/ubertooth.c **** 
 276:../common/ubertooth.c **** 	/* start transaction by dropping CSN */
 277:../common/ubertooth.c **** 	CSN_CLR;
 278:../common/ubertooth.c **** 
 279:../common/ubertooth.c **** 	while (len--) {
 280:../common/ubertooth.c **** 		if (data & msb)
 281:../common/ubertooth.c **** 			MOSI_SET;
 282:../common/ubertooth.c **** 		else
 283:../common/ubertooth.c **** 			MOSI_CLR;
 284:../common/ubertooth.c **** 		data <<= 1;
 285:../common/ubertooth.c **** 
 286:../common/ubertooth.c **** 		SCLK_SET;
 287:../common/ubertooth.c **** 		if (MISO)
 288:../common/ubertooth.c **** 			data |= 1;
 289:../common/ubertooth.c **** 
 290:../common/ubertooth.c **** 		SCLK_CLR;
 291:../common/ubertooth.c **** 	}
 292:../common/ubertooth.c **** 
 293:../common/ubertooth.c **** 	/* end transaction by raising CSN */
 294:../common/ubertooth.c **** 	CSN_SET;
 295:../common/ubertooth.c **** 
 296:../common/ubertooth.c **** 	return data;
 297:../common/ubertooth.c **** }
 298:../common/ubertooth.c **** 
 299:../common/ubertooth.c **** /* read 16 bit value from a register */
 300:../common/ubertooth.c **** u16 cc2400_get(u8 reg)
 301:../common/ubertooth.c **** {
 302:../common/ubertooth.c **** 	u32 in;
 303:../common/ubertooth.c **** 
 304:../common/ubertooth.c **** 	u32 out = (reg | 0x80) << 16;
 305:../common/ubertooth.c **** 	in = cc2400_spi(24, out);
 306:../common/ubertooth.c **** 	return in & 0xFFFF;
 307:../common/ubertooth.c **** }
 308:../common/ubertooth.c **** 
 309:../common/ubertooth.c **** /* write 16 bit value to a register */
 310:../common/ubertooth.c **** void cc2400_set(u8 reg, u16 val)
 311:../common/ubertooth.c **** {
 312:../common/ubertooth.c **** 	u32 out = (reg << 16) | val;
 313:../common/ubertooth.c **** 	cc2400_spi(24, out);
 314:../common/ubertooth.c **** }
 315:../common/ubertooth.c **** 
 316:../common/ubertooth.c **** /* read 8 bit value from a register */
 317:../common/ubertooth.c **** u8 cc2400_get8(u8 reg)
 318:../common/ubertooth.c **** {
ARM GAS  /tmp/cc9UKiNn.s 			page 7


 319:../common/ubertooth.c **** 	u16 in;
 320:../common/ubertooth.c **** 
 321:../common/ubertooth.c **** 	u16 out = (reg | 0x80) << 8;
 322:../common/ubertooth.c **** 	in = cc2400_spi(16, out);
 323:../common/ubertooth.c **** 	return in & 0xFF;
 324:../common/ubertooth.c **** }
 325:../common/ubertooth.c **** 
 326:../common/ubertooth.c **** //JWHUR cc2400_get_rev
 327:../common/ubertooth.c **** u8 cc2400_get_rev (u8 reg)
 328:../common/ubertooth.c **** {
 329:../common/ubertooth.c **** 	u32 out = (reg | 0x80) << 8;
 330:../common/ubertooth.c **** 	u32 msb = 1 << 15;
 331:../common/ubertooth.c **** 	u8 len = 16;
 332:../common/ubertooth.c **** 	CSN_CLR;
 333:../common/ubertooth.c **** 	while (len--) {
 334:../common/ubertooth.c **** 		if (out & msb) MOSI_SET;
 335:../common/ubertooth.c **** 		else MOSI_CLR;
 336:../common/ubertooth.c **** 		out <<= 1;
 337:../common/ubertooth.c **** 		SCLK_SET;
 338:../common/ubertooth.c **** 		if (MISO) out |= 1;
 339:../common/ubertooth.c **** 		SCLK_CLR;
 340:../common/ubertooth.c **** 	}
 341:../common/ubertooth.c **** 	CSN_SET;
 342:../common/ubertooth.c **** 	return out & 0xFF;
 343:../common/ubertooth.c **** }
 344:../common/ubertooth.c **** 
 345:../common/ubertooth.c **** /* write 8 bit value to a register */
 346:../common/ubertooth.c **** void cc2400_set8(u8 reg, u8 val)
 347:../common/ubertooth.c **** {
 348:../common/ubertooth.c **** 	u32 out = (reg << 8) | val;
 349:../common/ubertooth.c **** 	cc2400_spi(16, out);
 350:../common/ubertooth.c **** }
 351:../common/ubertooth.c **** 
 352:../common/ubertooth.c **** static volatile u32 delay_counter;
 353:../common/ubertooth.c **** static void spi_delay() {
  26              		.loc 1 353 0
  27              		.cfi_startproc
  28              		@ args = 0, pretend = 0, frame = 0
  29              		@ frame_needed = 0, uses_anonymous_args = 0
  30              		@ link register save eliminated.
 354:../common/ubertooth.c ****        delay_counter = 10;
  31              		.loc 1 354 0
  32 0000 044A     		ldr	r2, .L5
  33 0002 0A23     		movs	r3, #10
  34 0004 1360     		str	r3, [r2]
  35              	.L3:
 355:../common/ubertooth.c ****        while (--delay_counter);
  36              		.loc 1 355 0 discriminator 1
  37 0006 1368     		ldr	r3, [r2]
  38 0008 013B     		subs	r3, r3, #1
  39 000a 1360     		str	r3, [r2]
  40 000c 002B     		cmp	r3, #0
  41 000e FAD1     		bne	.L3
 356:../common/ubertooth.c **** }
  42              		.loc 1 356 0
  43 0010 7047     		bx	lr
  44              	.L6:
ARM GAS  /tmp/cc9UKiNn.s 			page 8


  45 0012 00BF     		.align	2
  46              	.L5:
  47 0014 00000000 		.word	.LANCHOR0
  48              		.cfi_endproc
  49              	.LFE16:
  51              		.section	.text.rbit,"ax",%progbits
  52              		.align	1
  53              		.global	rbit
  54              		.thumb
  55              		.thumb_func
  57              	rbit:
  58              	.LFB2:
  40:../common/ubertooth.c ****   u32 result = 0;
  59              		.loc 1 40 0
  60              		.cfi_startproc
  61              		@ args = 0, pretend = 0, frame = 0
  62              		@ frame_needed = 0, uses_anonymous_args = 0
  63              		@ link register save eliminated.
  64              	.LVL0:
  65              	.LVL1:
  42:../common/ubertooth.c ****   return result;
  66              		.loc 1 42 0
  67              	@ 42 "../common/ubertooth.c" 1
  68 0000 90FAA0F0 		rbit r0, r0
  69              	@ 0 "" 2
  70              	.LVL2:
  44:../common/ubertooth.c **** 
  71              		.loc 1 44 0
  72              		.thumb
  73 0004 7047     		bx	lr
  74              		.cfi_endproc
  75              	.LFE2:
  77              		.section	.text.wait_us,"ax",%progbits
  78              		.align	1
  79              		.global	wait_us
  80              		.thumb
  81              		.thumb_func
  83              	wait_us:
  84              	.LFB3:
  50:../common/ubertooth.c **** 	/* This is binary multiply by ~0.3999, i.e, multiply by
  85              		.loc 1 50 0
  86              		.cfi_startproc
  87              		@ args = 0, pretend = 0, frame = 0
  88              		@ frame_needed = 0, uses_anonymous_args = 0
  89              		@ link register save eliminated.
  90              	.LVL3:
  56:../common/ubertooth.c **** 	while(--wait_us_counter);
  91              		.loc 1 56 0
  92 0000 8308     		lsrs	r3, r0, #2
  93 0002 03EBD003 		add	r3, r3, r0, lsr #3
  94 0006 03EB9013 		add	r3, r3, r0, lsr #6
  95 000a 03EBD013 		add	r3, r3, r0, lsr #7
  96 000e 03EB9023 		add	r3, r3, r0, lsr #10
  55:../common/ubertooth.c **** 		(us>>2) + (us>>3) + (us>>6) + (us>>7) + (us>>10) + (us>>11);
  97              		.loc 1 55 0
  98 0012 054A     		ldr	r2, .L11
  56:../common/ubertooth.c **** 	while(--wait_us_counter);
ARM GAS  /tmp/cc9UKiNn.s 			page 9


  99              		.loc 1 56 0
 100 0014 03EBD020 		add	r0, r3, r0, lsr #11
 101              	.LVL4:
  55:../common/ubertooth.c **** 		(us>>2) + (us>>3) + (us>>6) + (us>>7) + (us>>10) + (us>>11);
 102              		.loc 1 55 0
 103 0018 5060     		str	r0, [r2, #4]
 104              	.L10:
  57:../common/ubertooth.c **** }
 105              		.loc 1 57 0 discriminator 1
 106 001a 5368     		ldr	r3, [r2, #4]
 107 001c 013B     		subs	r3, r3, #1
 108 001e 5360     		str	r3, [r2, #4]
 109 0020 002B     		cmp	r3, #0
 110 0022 FAD1     		bne	.L10
  58:../common/ubertooth.c **** 
 111              		.loc 1 58 0
 112 0024 7047     		bx	lr
 113              	.L12:
 114 0026 00BF     		.align	2
 115              	.L11:
 116 0028 00000000 		.word	.LANCHOR0
 117              		.cfi_endproc
 118              	.LFE3:
 120              		.section	.text.wait,"ax",%progbits
 121              		.align	1
 122              		.global	wait
 123              		.thumb
 124              		.thumb_func
 126              	wait:
 127              	.LFB0:
  29:../common/ubertooth.c **** 	wait_us(seconds * 1000000);
 128              		.loc 1 29 0
 129              		.cfi_startproc
 130              		@ args = 0, pretend = 0, frame = 0
 131              		@ frame_needed = 0, uses_anonymous_args = 0
 132              		@ link register save eliminated.
 133              	.LVL5:
  30:../common/ubertooth.c **** }
 134              		.loc 1 30 0
 135 0000 014B     		ldr	r3, .L14
 136 0002 5843     		muls	r0, r3, r0
 137              	.LVL6:
 138 0004 FFF7FEBF 		b	wait_us
 139              	.LVL7:
 140              	.L15:
 141              		.align	2
 142              	.L14:
 143 0008 40420F00 		.word	1000000
 144              		.cfi_endproc
 145              	.LFE0:
 147              		.section	.text.wait_ms,"ax",%progbits
 148              		.align	1
 149              		.global	wait_ms
 150              		.thumb
 151              		.thumb_func
 153              	wait_ms:
 154              	.LFB1:
ARM GAS  /tmp/cc9UKiNn.s 			page 10


  35:../common/ubertooth.c **** 	wait_us(ms * 1000);
 155              		.loc 1 35 0
 156              		.cfi_startproc
 157              		@ args = 0, pretend = 0, frame = 0
 158              		@ frame_needed = 0, uses_anonymous_args = 0
 159              		@ link register save eliminated.
 160              	.LVL8:
  36:../common/ubertooth.c **** }
 161              		.loc 1 36 0
 162 0000 4FF47A73 		mov	r3, #1000
 163 0004 5843     		muls	r0, r3, r0
 164              	.LVL9:
 165 0006 FFF7FEBF 		b	wait_us
 166              	.LVL10:
 167              		.cfi_endproc
 168              	.LFE1:
 170              		.section	.text.all_pins_off,"ax",%progbits
 171              		.align	1
 172              		.global	all_pins_off
 173              		.thumb
 174              		.thumb_func
 176              	all_pins_off:
 177              	.LFB5:
 116:../common/ubertooth.c **** 	/* configure all pins for GPIO */
 178              		.loc 1 116 0
 179              		.cfi_startproc
 180              		@ args = 0, pretend = 0, frame = 0
 181              		@ frame_needed = 0, uses_anonymous_args = 0
 182              		@ link register save eliminated.
 118:../common/ubertooth.c **** 	PINSEL1 = 0;
 183              		.loc 1 118 0
 184 0000 104A     		ldr	r2, .L18
 185 0002 0023     		movs	r3, #0
 186 0004 1360     		str	r3, [r2]
 119:../common/ubertooth.c **** 	PINSEL2 = 0;
 187              		.loc 1 119 0
 188 0006 5360     		str	r3, [r2, #4]
 120:../common/ubertooth.c **** 	PINSEL3 = 0;
 189              		.loc 1 120 0
 190 0008 9360     		str	r3, [r2, #8]
 121:../common/ubertooth.c **** 	PINSEL4 = 0;
 191              		.loc 1 121 0
 192 000a D360     		str	r3, [r2, #12]
 122:../common/ubertooth.c **** 	PINSEL7 = 0;
 193              		.loc 1 122 0
 194 000c 1361     		str	r3, [r2, #16]
 123:../common/ubertooth.c **** 	PINSEL9 = 0;
 195              		.loc 1 123 0
 196 000e D361     		str	r3, [r2, #28]
 124:../common/ubertooth.c **** 	PINSEL10 = 0;
 197              		.loc 1 124 0
 198 0010 5362     		str	r3, [r2, #36]
 125:../common/ubertooth.c **** 
 199              		.loc 1 125 0
 200 0012 9362     		str	r3, [r2, #40]
 128:../common/ubertooth.c **** 	FIO1DIR = 0;
 201              		.loc 1 128 0
ARM GAS  /tmp/cc9UKiNn.s 			page 11


 202 0014 0C4A     		ldr	r2, .L18+4
 203 0016 1360     		str	r3, [r2]
 129:../common/ubertooth.c **** 	FIO2DIR = 0;
 204              		.loc 1 129 0
 205 0018 1362     		str	r3, [r2, #32]
 130:../common/ubertooth.c **** 	FIO3DIR = 0;
 206              		.loc 1 130 0
 207 001a 1364     		str	r3, [r2, #64]
 131:../common/ubertooth.c **** 	FIO4DIR = 0;
 208              		.loc 1 131 0
 209 001c 1366     		str	r3, [r2, #96]
 132:../common/ubertooth.c **** 
 210              		.loc 1 132 0
 211 001e C2F88030 		str	r3, [r2, #128]
 135:../common/ubertooth.c **** 	PINMODE1 = 0;
 212              		.loc 1 135 0
 213 0022 0A4A     		ldr	r2, .L18+8
 214 0024 1360     		str	r3, [r2]
 136:../common/ubertooth.c **** 	PINMODE2 = 0;
 215              		.loc 1 136 0
 216 0026 5360     		str	r3, [r2, #4]
 137:../common/ubertooth.c **** 	PINMODE3 = 0;
 217              		.loc 1 137 0
 218 0028 9360     		str	r3, [r2, #8]
 138:../common/ubertooth.c **** 	PINMODE4 = 0;
 219              		.loc 1 138 0
 220 002a D360     		str	r3, [r2, #12]
 139:../common/ubertooth.c **** 	PINMODE7 = 0;
 221              		.loc 1 139 0
 222 002c 1361     		str	r3, [r2, #16]
 140:../common/ubertooth.c **** 	PINMODE9 = 0;
 223              		.loc 1 140 0
 224 002e D361     		str	r3, [r2, #28]
 141:../common/ubertooth.c **** 
 225              		.loc 1 141 0
 226 0030 5362     		str	r3, [r2, #36]
 144:../common/ubertooth.c **** 	FIO1PIN = 0;
 227              		.loc 1 144 0
 228 0032 074A     		ldr	r2, .L18+12
 229 0034 1360     		str	r3, [r2]
 145:../common/ubertooth.c **** 	FIO2PIN = 0;
 230              		.loc 1 145 0
 231 0036 1362     		str	r3, [r2, #32]
 146:../common/ubertooth.c **** 	FIO3PIN = 0;
 232              		.loc 1 146 0
 233 0038 1364     		str	r3, [r2, #64]
 147:../common/ubertooth.c **** 	FIO4PIN = 0;
 234              		.loc 1 147 0
 235 003a 1366     		str	r3, [r2, #96]
 148:../common/ubertooth.c **** }
 236              		.loc 1 148 0
 237 003c C2F88030 		str	r3, [r2, #128]
 238 0040 7047     		bx	lr
 239              	.L19:
 240 0042 00BF     		.align	2
 241              	.L18:
 242 0044 00C00240 		.word	1073922048
ARM GAS  /tmp/cc9UKiNn.s 			page 12


 243 0048 00C00920 		.word	537509888
 244 004c 40C00240 		.word	1073922112
 245 0050 14C00920 		.word	537509908
 246              		.cfi_endproc
 247              	.LFE5:
 249              		.section	.text.gpio_init,"ax",%progbits
 250              		.align	1
 251              		.global	gpio_init
 252              		.thumb
 253              		.thumb_func
 255              	gpio_init:
 256              	.LFB4:
  66:../common/ubertooth.c **** 	/* 
 257              		.loc 1 66 0
 258              		.cfi_startproc
 259              		@ args = 0, pretend = 0, frame = 0
 260              		@ frame_needed = 0, uses_anonymous_args = 0
 261 0000 08B5     		push	{r3, lr}
 262              		.cfi_def_cfa_offset 8
 263              		.cfi_offset 3, -8
 264              		.cfi_offset 14, -4
  71:../common/ubertooth.c **** 
 265              		.loc 1 71 0
 266 0002 FFF7FEFF 		bl	all_pins_off
 267              	.LVL11:
  83:../common/ubertooth.c **** 	FIO1DIR = (PIN_USRLED | PIN_RXLED | PIN_TXLED | PIN_CC3V3 |
 268              		.loc 1 83 0
 269 0006 0A4A     		ldr	r2, .L21
 270 0008 0023     		movs	r3, #0
  84:../common/ubertooth.c **** 			PIN_RX | PIN_CC1V8 | PIN_BTGR);
 271              		.loc 1 84 0
 272 000a 4CF21271 		movw	r1, #50962
  83:../common/ubertooth.c **** 	FIO1DIR = (PIN_USRLED | PIN_RXLED | PIN_TXLED | PIN_CC3V3 |
 273              		.loc 1 83 0
 274 000e 1360     		str	r3, [r2]
  84:../common/ubertooth.c **** 			PIN_RX | PIN_CC1V8 | PIN_BTGR);
 275              		.loc 1 84 0
 276 0010 1162     		str	r1, [r2, #32]
  86:../common/ubertooth.c **** 	FIO3DIR = 0;
 277              		.loc 1 86 0
 278 0012 40F2B111 		movw	r1, #433
 279 0016 1164     		str	r1, [r2, #64]
  88:../common/ubertooth.c **** #endif
 280              		.loc 1 88 0
 281 0018 4FF04051 		mov	r1, #805306368
  87:../common/ubertooth.c **** 	FIO4DIR = (PIN_TX | PIN_SSEL1);
 282              		.loc 1 87 0
 283 001c 1366     		str	r3, [r2, #96]
  88:../common/ubertooth.c **** #endif
 284              		.loc 1 88 0
 285 001e C2F88010 		str	r1, [r2, #128]
 103:../common/ubertooth.c **** 	FIO1PIN = 0;
 286              		.loc 1 103 0
 287 0022 5361     		str	r3, [r2, #20]
 104:../common/ubertooth.c **** 	FIO2PIN = 0;
 288              		.loc 1 104 0
 289 0024 5363     		str	r3, [r2, #52]
ARM GAS  /tmp/cc9UKiNn.s 			page 13


 105:../common/ubertooth.c **** 	FIO3PIN = 0;
 290              		.loc 1 105 0
 291 0026 5365     		str	r3, [r2, #84]
 106:../common/ubertooth.c **** 	FIO4PIN = 0;
 292              		.loc 1 106 0
 293 0028 5367     		str	r3, [r2, #116]
 107:../common/ubertooth.c **** 
 294              		.loc 1 107 0
 295 002a C2F89430 		str	r3, [r2, #148]
 296 002e 08BD     		pop	{r3, pc}
 297              	.L22:
 298              		.align	2
 299              	.L21:
 300 0030 00C00920 		.word	537509888
 301              		.cfi_endproc
 302              	.LFE4:
 304              		.section	.text.dio_ssp_init,"ax",%progbits
 305              		.align	1
 306              		.global	dio_ssp_init
 307              		.thumb
 308              		.thumb_func
 310              	dio_ssp_init:
 311              	.LFB7:
 164:../common/ubertooth.c **** #ifdef UBERTOOTH_ZERO
 312              		.loc 1 164 0
 313              		.cfi_startproc
 314              		@ args = 0, pretend = 0, frame = 0
 315              		@ frame_needed = 0, uses_anonymous_args = 0
 316              		@ link register save eliminated.
 180:../common/ubertooth.c **** 
 317              		.loc 1 180 0
 318 0000 114B     		ldr	r3, .L24
 319 0002 1A68     		ldr	r2, [r3]
 320 0004 22F44042 		bic	r2, r2, #49152
 321 0008 42F40042 		orr	r2, r2, #32768
 322 000c 1A60     		str	r2, [r3]
 183:../common/ubertooth.c **** 
 323              		.loc 1 183 0
 324 000e 1A68     		ldr	r2, [r3]
 325 0010 22F44052 		bic	r2, r2, #12288
 326 0014 42F40052 		orr	r2, r2, #8192
 327 0018 1A60     		str	r2, [r3]
 186:../common/ubertooth.c **** 
 328              		.loc 1 186 0
 329 001a 1A68     		ldr	r2, [r3]
 330 001c 22F44032 		bic	r2, r2, #196608
 331 0020 42F40032 		orr	r2, r2, #131072
 332 0024 1A60     		str	r2, [r3]
 189:../common/ubertooth.c **** #endif
 333              		.loc 1 189 0
 334 0026 1A68     		ldr	r2, [r3]
 335 0028 22F44022 		bic	r2, r2, #786432
 336 002c 42F40022 		orr	r2, r2, #524288
 337 0030 1A60     		str	r2, [r3]
 200:../common/ubertooth.c **** 
 338              		.loc 1 200 0
 339 0032 064B     		ldr	r3, .L24+4
ARM GAS  /tmp/cc9UKiNn.s 			page 14


 340 0034 4FF08052 		mov	r2, #268435456
 341 0038 1A60     		str	r2, [r3]
 203:../common/ubertooth.c **** 	DIO_SSP_CR1 = (SSPCR1_MS | SSPCR1_SOD);
 342              		.loc 1 203 0
 343 003a 054B     		ldr	r3, .L24+8
 344 003c C722     		movs	r2, #199
 345 003e 1A60     		str	r2, [r3]
 204:../common/ubertooth.c **** }
 346              		.loc 1 204 0
 347 0040 0C22     		movs	r2, #12
 348 0042 5A60     		str	r2, [r3, #4]
 349 0044 7047     		bx	lr
 350              	.L25:
 351 0046 00BF     		.align	2
 352              	.L24:
 353 0048 00C00240 		.word	1073922048
 354 004c 98C00920 		.word	537510040
 355 0050 00000340 		.word	1073938432
 356              		.cfi_endproc
 357              	.LFE7:
 359              		.section	.text.atest_init,"ax",%progbits
 360              		.align	1
 361              		.global	atest_init
 362              		.thumb
 363              		.thumb_func
 365              	atest_init:
 366              	.LFB8:
 208:../common/ubertooth.c **** 	/*
 367              		.loc 1 208 0
 368              		.cfi_startproc
 369              		@ args = 0, pretend = 0, frame = 0
 370              		@ frame_needed = 0, uses_anonymous_args = 0
 371              		@ link register save eliminated.
 215:../common/ubertooth.c **** 	FIO0DIR &= ~(0x3 << 25); // set as input
 372              		.loc 1 215 0
 373 0000 094B     		ldr	r3, .L27
 374 0002 1A68     		ldr	r2, [r3]
 375 0004 22F47012 		bic	r2, r2, #3932160
 376 0008 1A60     		str	r2, [r3]
 216:../common/ubertooth.c **** 	PINMODE1 |= (0x5 << 19); // no pull-up/pull-down
 377              		.loc 1 216 0
 378 000a 084B     		ldr	r3, .L27+4
 379 000c 1A68     		ldr	r2, [r3]
 380 000e 22F0C062 		bic	r2, r2, #100663296
 381 0012 1A60     		str	r2, [r3]
 217:../common/ubertooth.c **** 	PINMODE1 &= ~(0x5 << 18); // no pull-up/pull-down
 382              		.loc 1 217 0
 383 0014 064B     		ldr	r3, .L27+8
 384 0016 1A68     		ldr	r2, [r3]
 385 0018 42F42012 		orr	r2, r2, #2621440
 386 001c 1A60     		str	r2, [r3]
 218:../common/ubertooth.c **** }
 387              		.loc 1 218 0
 388 001e 1A68     		ldr	r2, [r3]
 389 0020 22F4A012 		bic	r2, r2, #1310720
 390 0024 1A60     		str	r2, [r3]
 391 0026 7047     		bx	lr
ARM GAS  /tmp/cc9UKiNn.s 			page 15


 392              	.L28:
 393              		.align	2
 394              	.L27:
 395 0028 04C00240 		.word	1073922052
 396 002c 00C00920 		.word	537509888
 397 0030 44C00240 		.word	1073922116
 398              		.cfi_endproc
 399              	.LFE8:
 401              		.section	.text.cc2400_spi,"ax",%progbits
 402              		.align	1
 403              		.global	cc2400_spi
 404              		.thumb
 405              		.thumb_func
 407              	cc2400_spi:
 408              	.LFB10:
 273:../common/ubertooth.c **** 	u32 msb = 1 << (len - 1);
 409              		.loc 1 273 0
 410              		.cfi_startproc
 411              		@ args = 0, pretend = 0, frame = 0
 412              		@ frame_needed = 0, uses_anonymous_args = 0
 413              	.LVL12:
 414 0000 30B5     		push	{r4, r5, lr}
 415              		.cfi_def_cfa_offset 12
 416              		.cfi_offset 4, -12
 417              		.cfi_offset 5, -8
 418              		.cfi_offset 14, -4
 274:../common/ubertooth.c **** 
 419              		.loc 1 274 0
 420 0002 0124     		movs	r4, #1
 421 0004 431E     		subs	r3, r0, #1
 422 0006 9C40     		lsls	r4, r4, r3
 423              	.LVL13:
 277:../common/ubertooth.c **** 
 424              		.loc 1 277 0
 425 0008 2022     		movs	r2, #32
 426              	.LVL14:
 427              	.L33:
 279:../common/ubertooth.c **** 		if (data & msb)
 428              		.loc 1 279 0
 429 000a 0138     		subs	r0, r0, #1
 290:../common/ubertooth.c **** 	}
 430              		.loc 1 290 0
 431 000c 0D4B     		ldr	r3, .L39
 279:../common/ubertooth.c **** 		if (data & msb)
 432              		.loc 1 279 0
 433 000e C0B2     		uxtb	r0, r0
 434 0010 FF28     		cmp	r0, #255
 290:../common/ubertooth.c **** 	}
 435              		.loc 1 290 0
 436 0012 1A60     		str	r2, [r3]
 437              	.LVL15:
 438 0014 0C4B     		ldr	r3, .L39+4
 279:../common/ubertooth.c **** 		if (data & msb)
 439              		.loc 1 279 0
 440 0016 11D0     		beq	.L38
 280:../common/ubertooth.c **** 			MOSI_SET;
 441              		.loc 1 280 0
ARM GAS  /tmp/cc9UKiNn.s 			page 16


 442 0018 2142     		tst	r1, r4
 283:../common/ubertooth.c **** 		data <<= 1;
 443              		.loc 1 283 0
 444 001a 08BF     		it	eq
 445 001c 094D     		ldreq	r5, .L39
 446 001e 4FF00102 		mov	r2, #1
 281:../common/ubertooth.c **** 		else
 447              		.loc 1 281 0
 448 0022 14BF     		ite	ne
 449 0024 1A60     		strne	r2, [r3]
 283:../common/ubertooth.c **** 		data <<= 1;
 450              		.loc 1 283 0
 451 0026 2A60     		streq	r2, [r5]
 286:../common/ubertooth.c **** 		if (MISO)
 452              		.loc 1 286 0
 453 0028 1022     		movs	r2, #16
 454 002a 1A60     		str	r2, [r3]
 287:../common/ubertooth.c **** 			data |= 1;
 455              		.loc 1 287 0
 456 002c 074B     		ldr	r3, .L39+8
 284:../common/ubertooth.c **** 
 457              		.loc 1 284 0
 458 002e 4900     		lsls	r1, r1, #1
 459              	.LVL16:
 287:../common/ubertooth.c **** 			data |= 1;
 460              		.loc 1 287 0
 461 0030 1B68     		ldr	r3, [r3]
 462 0032 9B07     		lsls	r3, r3, #30
 288:../common/ubertooth.c **** 
 463              		.loc 1 288 0
 464 0034 48BF     		it	mi
 465 0036 41F00101 		orrmi	r1, r1, #1
 466              	.LVL17:
 467 003a E6E7     		b	.L33
 468              	.L38:
 294:../common/ubertooth.c **** 
 469              		.loc 1 294 0
 470 003c 2022     		movs	r2, #32
 471 003e 1A60     		str	r2, [r3]
 297:../common/ubertooth.c **** 
 472              		.loc 1 297 0
 473 0040 0846     		mov	r0, r1
 474              	.LVL18:
 475 0042 30BD     		pop	{r4, r5, pc}
 476              	.LVL19:
 477              	.L40:
 478              		.align	2
 479              	.L39:
 480 0044 5CC00920 		.word	537509980
 481 0048 58C00920 		.word	537509976
 482 004c 54C00920 		.word	537509972
 483              		.cfi_endproc
 484              	.LFE10:
 486              		.section	.text.cc2400_init,"ax",%progbits
 487              		.align	1
 488              		.global	cc2400_init
 489              		.thumb
ARM GAS  /tmp/cc9UKiNn.s 			page 17


 490              		.thumb_func
 492              	cc2400_init:
 493              	.LFB9:
 222:../common/ubertooth.c **** #ifdef TC13BADGE
 494              		.loc 1 222 0
 495              		.cfi_startproc
 496              		@ args = 0, pretend = 0, frame = 0
 497              		@ frame_needed = 0, uses_anonymous_args = 0
 498 0000 10B5     		push	{r4, lr}
 499              		.cfi_def_cfa_offset 8
 500              		.cfi_offset 4, -8
 501              		.cfi_offset 14, -4
 246:../common/ubertooth.c **** 	wait_us(50);
 502              		.loc 1 246 0
 503 0002 0A4C     		ldr	r4, .L42
 242:../common/ubertooth.c **** #endif
 504              		.loc 1 242 0
 505 0004 FFF7FEFF 		bl	atest_init
 506              	.LVL20:
 246:../common/ubertooth.c **** 	wait_us(50);
 507              		.loc 1 246 0
 508 0008 4FF40073 		mov	r3, #512
 509 000c 2360     		str	r3, [r4]
 247:../common/ubertooth.c **** 
 510              		.loc 1 247 0
 511 000e 3220     		movs	r0, #50
 512 0010 FFF7FEFF 		bl	wait_us
 513              	.LVL21:
 250:../common/ubertooth.c **** 
 514              		.loc 1 250 0
 515 0014 064B     		ldr	r3, .L42+4
 516 0016 2022     		movs	r2, #32
 517 0018 1A60     		str	r2, [r3]
 253:../common/ubertooth.c **** 
 518              		.loc 1 253 0
 519 001a 4FF48043 		mov	r3, #16384
 520 001e 2360     		str	r3, [r4]
 521              	.LVL22:
 522              	.LBB4:
 523              	.LBB5:
 313:../common/ubertooth.c **** }
 524              		.loc 1 313 0
 525 0020 1820     		movs	r0, #24
 526 0022 0449     		ldr	r1, .L42+8
 527              	.LBE5:
 528              	.LBE4:
 257:../common/ubertooth.c **** 
 529              		.loc 1 257 0
 530 0024 BDE81040 		pop	{r4, lr}
 531              	.LBB7:
 532              	.LBB6:
 313:../common/ubertooth.c **** }
 533              		.loc 1 313 0
 534 0028 FFF7FEBF 		b	cc2400_spi
 535              	.LVL23:
 536              	.L43:
 537              		.align	2
ARM GAS  /tmp/cc9UKiNn.s 			page 18


 538              	.L42:
 539 002c 38C00920 		.word	537509944
 540 0030 58C00920 		.word	537509976
 541 0034 FF7F0D00 		.word	884735
 542              	.LBE6:
 543              	.LBE7:
 544              		.cfi_endproc
 545              	.LFE9:
 547              		.section	.text.cc2400_get,"ax",%progbits
 548              		.align	1
 549              		.global	cc2400_get
 550              		.thumb
 551              		.thumb_func
 553              	cc2400_get:
 554              	.LFB11:
 301:../common/ubertooth.c **** 	u32 in;
 555              		.loc 1 301 0
 556              		.cfi_startproc
 557              		@ args = 0, pretend = 0, frame = 0
 558              		@ frame_needed = 0, uses_anonymous_args = 0
 559              	.LVL24:
 560 0000 08B5     		push	{r3, lr}
 561              		.cfi_def_cfa_offset 8
 562              		.cfi_offset 3, -8
 563              		.cfi_offset 14, -4
 564              	.LVL25:
 304:../common/ubertooth.c **** 	in = cc2400_spi(24, out);
 565              		.loc 1 304 0
 566 0002 40F08001 		orr	r1, r0, #128
 305:../common/ubertooth.c **** 	return in & 0xFFFF;
 567              		.loc 1 305 0
 568 0006 0904     		lsls	r1, r1, #16
 569 0008 1820     		movs	r0, #24
 570              	.LVL26:
 571 000a FFF7FEFF 		bl	cc2400_spi
 572              	.LVL27:
 307:../common/ubertooth.c **** 
 573              		.loc 1 307 0
 574 000e 80B2     		uxth	r0, r0
 575              	.LVL28:
 576 0010 08BD     		pop	{r3, pc}
 577              		.cfi_endproc
 578              	.LFE11:
 580              		.section	.text.cc2400_set,"ax",%progbits
 581              		.align	1
 582              		.global	cc2400_set
 583              		.thumb
 584              		.thumb_func
 586              	cc2400_set:
 587              	.LFB12:
 311:../common/ubertooth.c **** 	u32 out = (reg << 16) | val;
 588              		.loc 1 311 0
 589              		.cfi_startproc
 590              		@ args = 0, pretend = 0, frame = 0
 591              		@ frame_needed = 0, uses_anonymous_args = 0
 592              		@ link register save eliminated.
 593              	.LVL29:
ARM GAS  /tmp/cc9UKiNn.s 			page 19


 594              	.LVL30:
 312:../common/ubertooth.c **** 	cc2400_spi(24, out);
 595              		.loc 1 312 0
 596 0000 41EA0041 		orr	r1, r1, r0, lsl #16
 597              	.LVL31:
 313:../common/ubertooth.c **** }
 598              		.loc 1 313 0
 599 0004 1820     		movs	r0, #24
 600              	.LVL32:
 601 0006 FFF7FEBF 		b	cc2400_spi
 602              	.LVL33:
 603              		.cfi_endproc
 604              	.LFE12:
 606              		.section	.text.cc2400_get8,"ax",%progbits
 607              		.align	1
 608              		.global	cc2400_get8
 609              		.thumb
 610              		.thumb_func
 612              	cc2400_get8:
 613              	.LFB13:
 318:../common/ubertooth.c **** 	u16 in;
 614              		.loc 1 318 0
 615              		.cfi_startproc
 616              		@ args = 0, pretend = 0, frame = 0
 617              		@ frame_needed = 0, uses_anonymous_args = 0
 618              	.LVL34:
 619 0000 08B5     		push	{r3, lr}
 620              		.cfi_def_cfa_offset 8
 621              		.cfi_offset 3, -8
 622              		.cfi_offset 14, -4
 623              	.LVL35:
 321:../common/ubertooth.c **** 	in = cc2400_spi(16, out);
 624              		.loc 1 321 0
 625 0002 40F08001 		orr	r1, r0, #128
 322:../common/ubertooth.c **** 	return in & 0xFF;
 626              		.loc 1 322 0
 627 0006 0902     		lsls	r1, r1, #8
 628 0008 1020     		movs	r0, #16
 629              	.LVL36:
 630 000a FFF7FEFF 		bl	cc2400_spi
 631              	.LVL37:
 324:../common/ubertooth.c **** 
 632              		.loc 1 324 0
 633 000e C0B2     		uxtb	r0, r0
 634              	.LVL38:
 635 0010 08BD     		pop	{r3, pc}
 636              		.cfi_endproc
 637              	.LFE13:
 639              		.section	.text.cc2400_get_rev,"ax",%progbits
 640              		.align	1
 641              		.global	cc2400_get_rev
 642              		.thumb
 643              		.thumb_func
 645              	cc2400_get_rev:
 646              	.LFB14:
 328:../common/ubertooth.c **** 	u32 out = (reg | 0x80) << 8;
 647              		.loc 1 328 0
ARM GAS  /tmp/cc9UKiNn.s 			page 20


 648              		.cfi_startproc
 649              		@ args = 0, pretend = 0, frame = 0
 650              		@ frame_needed = 0, uses_anonymous_args = 0
 651              	.LVL39:
 652 0000 10B5     		push	{r4, lr}
 653              		.cfi_def_cfa_offset 8
 654              		.cfi_offset 4, -8
 655              		.cfi_offset 14, -4
 332:../common/ubertooth.c **** 	while (len--) {
 656              		.loc 1 332 0
 657 0002 124B     		ldr	r3, .L57
 658 0004 2022     		movs	r2, #32
 329:../common/ubertooth.c **** 	u32 msb = 1 << 15;
 659              		.loc 1 329 0
 660 0006 40F08000 		orr	r0, r0, #128
 661              	.LVL40:
 332:../common/ubertooth.c **** 	while (len--) {
 662              		.loc 1 332 0
 663 000a 1A60     		str	r2, [r3]
 329:../common/ubertooth.c **** 	u32 msb = 1 << 15;
 664              		.loc 1 329 0
 665 000c 0002     		lsls	r0, r0, #8
 666              	.LVL41:
 333:../common/ubertooth.c **** 		if (out & msb) MOSI_SET;
 667              		.loc 1 333 0
 668 000e 1122     		movs	r2, #17
 669              	.LVL42:
 670              	.L48:
 671 0010 531E     		subs	r3, r2, #1
 333:../common/ubertooth.c **** 		if (out & msb) MOSI_SET;
 672              		.loc 1 333 0 is_stmt 0 discriminator 1
 673 0012 13F0FF02 		ands	r2, r3, #255
 674              	.LVL43:
 675 0016 0E4B     		ldr	r3, .L57+4
 676              	.LVL44:
 677 0018 14D0     		beq	.L56
 678              	.LVL45:
 334:../common/ubertooth.c **** 		else MOSI_CLR;
 679              		.loc 1 334 0 is_stmt 1
 680 001a 10F4004F 		tst	r0, #32768
 335:../common/ubertooth.c **** 		out <<= 1;
 681              		.loc 1 335 0
 682 001e 08BF     		it	eq
 683 0020 0A4C     		ldreq	r4, .L57
 684 0022 4FF00101 		mov	r1, #1
 334:../common/ubertooth.c **** 		else MOSI_CLR;
 685              		.loc 1 334 0
 686 0026 14BF     		ite	ne
 687 0028 1960     		strne	r1, [r3]
 335:../common/ubertooth.c **** 		out <<= 1;
 688              		.loc 1 335 0
 689 002a 2160     		streq	r1, [r4]
 337:../common/ubertooth.c **** 		if (MISO) out |= 1;
 690              		.loc 1 337 0
 691 002c 1021     		movs	r1, #16
 692 002e 1960     		str	r1, [r3]
 338:../common/ubertooth.c **** 		SCLK_CLR;
ARM GAS  /tmp/cc9UKiNn.s 			page 21


 693              		.loc 1 338 0
 694 0030 084B     		ldr	r3, .L57+8
 336:../common/ubertooth.c **** 		SCLK_SET;
 695              		.loc 1 336 0
 696 0032 4000     		lsls	r0, r0, #1
 697              	.LVL46:
 338:../common/ubertooth.c **** 		SCLK_CLR;
 698              		.loc 1 338 0
 699 0034 1B68     		ldr	r3, [r3]
 700 0036 9C07     		lsls	r4, r3, #30
 339:../common/ubertooth.c **** 	}
 701              		.loc 1 339 0
 702 0038 044B     		ldr	r3, .L57
 338:../common/ubertooth.c **** 		SCLK_CLR;
 703              		.loc 1 338 0
 704 003a 48BF     		it	mi
 705 003c 40F00100 		orrmi	r0, r0, #1
 706              	.LVL47:
 339:../common/ubertooth.c **** 	}
 707              		.loc 1 339 0
 708 0040 1960     		str	r1, [r3]
 709 0042 E5E7     		b	.L48
 710              	.LVL48:
 711              	.L56:
 341:../common/ubertooth.c **** 	return out & 0xFF;
 712              		.loc 1 341 0
 713 0044 2022     		movs	r2, #32
 714 0046 1A60     		str	r2, [r3]
 343:../common/ubertooth.c **** 
 715              		.loc 1 343 0
 716 0048 C0B2     		uxtb	r0, r0
 717              	.LVL49:
 718 004a 10BD     		pop	{r4, pc}
 719              	.L58:
 720              		.align	2
 721              	.L57:
 722 004c 5CC00920 		.word	537509980
 723 0050 58C00920 		.word	537509976
 724 0054 54C00920 		.word	537509972
 725              		.cfi_endproc
 726              	.LFE14:
 728              		.section	.text.cc2400_set8,"ax",%progbits
 729              		.align	1
 730              		.global	cc2400_set8
 731              		.thumb
 732              		.thumb_func
 734              	cc2400_set8:
 735              	.LFB15:
 347:../common/ubertooth.c **** 	u32 out = (reg << 8) | val;
 736              		.loc 1 347 0
 737              		.cfi_startproc
 738              		@ args = 0, pretend = 0, frame = 0
 739              		@ frame_needed = 0, uses_anonymous_args = 0
 740              		@ link register save eliminated.
 741              	.LVL50:
 742              	.LVL51:
 348:../common/ubertooth.c **** 	cc2400_spi(16, out);
ARM GAS  /tmp/cc9UKiNn.s 			page 22


 743              		.loc 1 348 0
 744 0000 41EA0021 		orr	r1, r1, r0, lsl #8
 745              	.LVL52:
 349:../common/ubertooth.c **** }
 746              		.loc 1 349 0
 747 0004 1020     		movs	r0, #16
 748              	.LVL53:
 749 0006 FFF7FEBF 		b	cc2400_spi
 750              	.LVL54:
 751              		.cfi_endproc
 752              	.LFE15:
 754              		.section	.text.cc2400_fifo_write,"ax",%progbits
 755              		.align	1
 756              		.global	cc2400_fifo_write
 757              		.thumb
 758              		.thumb_func
 760              	cc2400_fifo_write:
 761              	.LFB17:
 357:../common/ubertooth.c **** 
 358:../common/ubertooth.c **** 
 359:../common/ubertooth.c **** /* write multiple bytes to SPI */
 360:../common/ubertooth.c **** void cc2400_fifo_write(u8 len, u8 *data) {
 762              		.loc 1 360 0
 763              		.cfi_startproc
 764              		@ args = 0, pretend = 0, frame = 0
 765              		@ frame_needed = 0, uses_anonymous_args = 0
 766              	.LVL55:
 767 0000 F8B5     		push	{r3, r4, r5, r6, r7, lr}
 768              		.cfi_def_cfa_offset 24
 769              		.cfi_offset 3, -24
 770              		.cfi_offset 4, -20
 771              		.cfi_offset 5, -16
 772              		.cfi_offset 6, -12
 773              		.cfi_offset 7, -8
 774              		.cfi_offset 14, -4
 775              	.LVL56:
 361:../common/ubertooth.c **** 	u8 msb = 1 << 7;
 362:../common/ubertooth.c **** 	u8 reg = FIFOREG;
 363:../common/ubertooth.c **** 	u8 i, j, temp;
 364:../common/ubertooth.c **** 
 365:../common/ubertooth.c **** 	/* start transaction by dropping CSN */
 366:../common/ubertooth.c **** 	CSN_CLR;
 776              		.loc 1 366 0
 777 0002 214B     		ldr	r3, .L76
 778 0004 2022     		movs	r2, #32
 779 0006 1A60     		str	r2, [r3]
 780              	.LVL57:
 781 0008 0823     		movs	r3, #8
 362:../common/ubertooth.c **** 	u8 i, j, temp;
 782              		.loc 1 362 0
 783 000a 7022     		movs	r2, #112
 784              	.LVL58:
 785              	.L65:
 367:../common/ubertooth.c **** 
 368:../common/ubertooth.c **** 	for (i = 0; i < 8; ++i) {
 369:../common/ubertooth.c **** 		if (reg & msb)
 786              		.loc 1 369 0
ARM GAS  /tmp/cc9UKiNn.s 			page 23


 787 000c 12F0800F 		tst	r2, #128
 788 0010 1E4D     		ldr	r5, .L76+4
 370:../common/ubertooth.c **** 			MOSI_SET;
 371:../common/ubertooth.c **** 		else
 372:../common/ubertooth.c **** 			MOSI_CLR;
 789              		.loc 1 372 0
 790 0012 08BF     		it	eq
 791 0014 1C4E     		ldreq	r6, .L76
 792 0016 4FF00104 		mov	r4, #1
 370:../common/ubertooth.c **** 			MOSI_SET;
 793              		.loc 1 370 0
 794 001a 14BF     		ite	ne
 795 001c 2C60     		strne	r4, [r5]
 796              		.loc 1 372 0
 797 001e 3460     		streq	r4, [r6]
 373:../common/ubertooth.c **** 		reg <<= 1;
 374:../common/ubertooth.c **** 		SCLK_SET;
 798              		.loc 1 374 0
 799 0020 1024     		movs	r4, #16
 800 0022 2C60     		str	r4, [r5]
 801 0024 013B     		subs	r3, r3, #1
 802              	.LVL59:
 375:../common/ubertooth.c **** 		SCLK_CLR;
 803              		.loc 1 375 0
 804 0026 184D     		ldr	r5, .L76
 373:../common/ubertooth.c **** 		reg <<= 1;
 805              		.loc 1 373 0
 806 0028 5200     		lsls	r2, r2, #1
 807              	.LVL60:
 368:../common/ubertooth.c **** 		if (reg & msb)
 808              		.loc 1 368 0
 809 002a 13F0FF03 		ands	r3, r3, #255
 810              	.LVL61:
 373:../common/ubertooth.c **** 		reg <<= 1;
 811              		.loc 1 373 0
 812 002e D2B2     		uxtb	r2, r2
 813              	.LVL62:
 814              		.loc 1 375 0
 815 0030 2C60     		str	r4, [r5]
 368:../common/ubertooth.c **** 		if (reg & msb)
 816              		.loc 1 368 0
 817 0032 EBD1     		bne	.L65
 818              	.LVL63:
 819              	.L64:
 376:../common/ubertooth.c **** 	}
 377:../common/ubertooth.c **** 
 378:../common/ubertooth.c **** 	for (i = 0; i < len; ++i) {
 820              		.loc 1 378 0 discriminator 1
 821 0034 DAB2     		uxtb	r2, r3
 822 0036 8242     		cmp	r2, r0
 823 0038 17D2     		bcs	.L75
 379:../common/ubertooth.c **** 		temp = data[i];
 824              		.loc 1 379 0
 825 003a CA5C     		ldrb	r2, [r1, r3]	@ zero_extendqisi2
 826              	.LVL64:
 827 003c 0824     		movs	r4, #8
 828              	.LVL65:
ARM GAS  /tmp/cc9UKiNn.s 			page 24


 829              	.L69:
 380:../common/ubertooth.c **** 		for (j = 0; j < 8; ++j) {
 381:../common/ubertooth.c **** 			if (temp & msb)
 830              		.loc 1 381 0
 831 003e 12F0800F 		tst	r2, #128
 832 0042 124E     		ldr	r6, .L76+4
 382:../common/ubertooth.c **** 				MOSI_SET;
 383:../common/ubertooth.c **** 			else
 384:../common/ubertooth.c **** 				MOSI_CLR;
 833              		.loc 1 384 0
 834 0044 08BF     		it	eq
 835 0046 104F     		ldreq	r7, .L76
 836 0048 4FF00105 		mov	r5, #1
 382:../common/ubertooth.c **** 				MOSI_SET;
 837              		.loc 1 382 0
 838 004c 14BF     		ite	ne
 839 004e 3560     		strne	r5, [r6]
 840              		.loc 1 384 0
 841 0050 3D60     		streq	r5, [r7]
 385:../common/ubertooth.c **** 			temp <<= 1;
 386:../common/ubertooth.c **** 			SCLK_SET;
 842              		.loc 1 386 0
 843 0052 1025     		movs	r5, #16
 844 0054 3560     		str	r5, [r6]
 845 0056 013C     		subs	r4, r4, #1
 846              	.LVL66:
 387:../common/ubertooth.c **** 			SCLK_CLR;
 847              		.loc 1 387 0
 848 0058 0B4E     		ldr	r6, .L76
 385:../common/ubertooth.c **** 			temp <<= 1;
 849              		.loc 1 385 0
 850 005a 5200     		lsls	r2, r2, #1
 851              	.LVL67:
 380:../common/ubertooth.c **** 			if (temp & msb)
 852              		.loc 1 380 0
 853 005c 14F0FF04 		ands	r4, r4, #255
 854              	.LVL68:
 385:../common/ubertooth.c **** 			temp <<= 1;
 855              		.loc 1 385 0
 856 0060 D2B2     		uxtb	r2, r2
 857              	.LVL69:
 858              		.loc 1 387 0
 859 0062 3560     		str	r5, [r6]
 380:../common/ubertooth.c **** 			if (temp & msb)
 860              		.loc 1 380 0
 861 0064 EBD1     		bne	.L69
 862              	.LVL70:
 863 0066 0133     		adds	r3, r3, #1
 864              	.LVL71:
 865 0068 E4E7     		b	.L64
 866              	.LVL72:
 867              	.L75:
 378:../common/ubertooth.c **** 		temp = data[i];
 868              		.loc 1 378 0
 869 006a 0823     		movs	r3, #8
 870              	.LVL73:
 871              	.L72:
ARM GAS  /tmp/cc9UKiNn.s 			page 25


 388:../common/ubertooth.c **** 		}
 389:../common/ubertooth.c **** 	}
 390:../common/ubertooth.c **** 
 391:../common/ubertooth.c **** 	// this is necessary to clock in the last byte
 392:../common/ubertooth.c **** 	for (i = 0; i < 8; ++i) {
 393:../common/ubertooth.c **** 		SCLK_SET;
 872              		.loc 1 393 0 discriminator 2
 873 006c 074C     		ldr	r4, .L76+4
 394:../common/ubertooth.c **** 		SCLK_CLR;
 874              		.loc 1 394 0 discriminator 2
 875 006e 0649     		ldr	r1, .L76
 876 0070 013B     		subs	r3, r3, #1
 877              	.LVL74:
 393:../common/ubertooth.c **** 		SCLK_CLR;
 878              		.loc 1 393 0 discriminator 2
 879 0072 1022     		movs	r2, #16
 392:../common/ubertooth.c **** 		SCLK_SET;
 880              		.loc 1 392 0 discriminator 2
 881 0074 13F0FF03 		ands	r3, r3, #255
 882              	.LVL75:
 393:../common/ubertooth.c **** 		SCLK_CLR;
 883              		.loc 1 393 0 discriminator 2
 884 0078 2260     		str	r2, [r4]
 885              		.loc 1 394 0 discriminator 2
 886 007a 0A60     		str	r2, [r1]
 392:../common/ubertooth.c **** 		SCLK_SET;
 887              		.loc 1 392 0 discriminator 2
 888 007c F6D1     		bne	.L72
 395:../common/ubertooth.c **** 	}
 396:../common/ubertooth.c **** 	
 397:../common/ubertooth.c **** 	spi_delay();
 889              		.loc 1 397 0
 890 007e FFF7FEFF 		bl	spi_delay
 891              	.LVL76:
 398:../common/ubertooth.c **** 	/* end transaction by raising CSN */
 399:../common/ubertooth.c **** 	CSN_SET;
 892              		.loc 1 399 0
 893 0082 2023     		movs	r3, #32
 894 0084 2360     		str	r3, [r4]
 895 0086 F8BD     		pop	{r3, r4, r5, r6, r7, pc}
 896              	.L77:
 897              		.align	2
 898              	.L76:
 899 0088 5CC00920 		.word	537509980
 900 008c 58C00920 		.word	537509976
 901              		.cfi_endproc
 902              	.LFE17:
 904              		.section	.text.cc2400_fifo_read,"ax",%progbits
 905              		.align	1
 906              		.global	cc2400_fifo_read
 907              		.thumb
 908              		.thumb_func
 910              	cc2400_fifo_read:
 911              	.LFB18:
 400:../common/ubertooth.c **** }
 401:../common/ubertooth.c **** 
 402:../common/ubertooth.c **** /* read multiple bytes from SPI */
ARM GAS  /tmp/cc9UKiNn.s 			page 26


 403:../common/ubertooth.c **** void cc2400_fifo_read(u8 len, u8 *buf) {
 912              		.loc 1 403 0
 913              		.cfi_startproc
 914              		@ args = 0, pretend = 0, frame = 0
 915              		@ frame_needed = 0, uses_anonymous_args = 0
 916              	.LVL77:
 917 0000 2DE9F041 		push	{r4, r5, r6, r7, r8, lr}
 918              		.cfi_def_cfa_offset 24
 919              		.cfi_offset 4, -24
 920              		.cfi_offset 5, -20
 921              		.cfi_offset 6, -16
 922              		.cfi_offset 7, -12
 923              		.cfi_offset 8, -8
 924              		.cfi_offset 14, -4
 925              	.LVL78:
 404:../common/ubertooth.c **** 	u8 msb = 1 << 7;
 405:../common/ubertooth.c **** 	u8 i, j, temp, reg;
 406:../common/ubertooth.c **** 	// Set first bit because it's a read
 407:../common/ubertooth.c **** 	reg = 0x80 | FIFOREG;
 408:../common/ubertooth.c **** 
 409:../common/ubertooth.c **** 	/* start transaction by dropping CSN */
 410:../common/ubertooth.c **** 	CSN_CLR;
 926              		.loc 1 410 0
 927 0004 204B     		ldr	r3, .L91
 928 0006 2022     		movs	r2, #32
 929 0008 1A60     		str	r2, [r3]
 930              	.LVL79:
 403:../common/ubertooth.c **** 	u8 msb = 1 << 7;
 931              		.loc 1 403 0
 932 000a 0746     		mov	r7, r0
 933 000c 8846     		mov	r8, r1
 934              		.loc 1 410 0
 935 000e 0825     		movs	r5, #8
 407:../common/ubertooth.c **** 
 936              		.loc 1 407 0
 937 0010 F023     		movs	r3, #240
 938              	.LVL80:
 939              	.L83:
 411:../common/ubertooth.c **** 
 412:../common/ubertooth.c **** 	for (i = 0; i < 8; ++i) {
 413:../common/ubertooth.c **** 		if (reg & msb)
 940              		.loc 1 413 0
 941 0012 13F0800F 		tst	r3, #128
 942 0016 1D49     		ldr	r1, .L91+4
 414:../common/ubertooth.c **** 			MOSI_SET;
 415:../common/ubertooth.c **** 		else
 416:../common/ubertooth.c **** 			MOSI_CLR;
 943              		.loc 1 416 0
 944 0018 08BF     		it	eq
 945 001a 1B48     		ldreq	r0, .L91
 946 001c 4FF00102 		mov	r2, #1
 414:../common/ubertooth.c **** 			MOSI_SET;
 947              		.loc 1 414 0
 948 0020 14BF     		ite	ne
 949 0022 0A60     		strne	r2, [r1]
 950              		.loc 1 416 0
 951 0024 0260     		streq	r2, [r0]
ARM GAS  /tmp/cc9UKiNn.s 			page 27


 417:../common/ubertooth.c **** 		reg <<= 1;
 418:../common/ubertooth.c **** 		SCLK_SET;
 952              		.loc 1 418 0
 953 0026 1022     		movs	r2, #16
 954 0028 0A60     		str	r2, [r1]
 955 002a 013D     		subs	r5, r5, #1
 956              	.LVL81:
 419:../common/ubertooth.c **** 		SCLK_CLR;
 957              		.loc 1 419 0
 958 002c 1649     		ldr	r1, .L91
 417:../common/ubertooth.c **** 		reg <<= 1;
 959              		.loc 1 417 0
 960 002e 5B00     		lsls	r3, r3, #1
 961              	.LVL82:
 412:../common/ubertooth.c **** 		if (reg & msb)
 962              		.loc 1 412 0
 963 0030 15F0FF05 		ands	r5, r5, #255
 964              	.LVL83:
 417:../common/ubertooth.c **** 		reg <<= 1;
 965              		.loc 1 417 0
 966 0034 DBB2     		uxtb	r3, r3
 967              	.LVL84:
 968              		.loc 1 419 0
 969 0036 0A60     		str	r2, [r1]
 412:../common/ubertooth.c **** 		if (reg & msb)
 970              		.loc 1 412 0
 971 0038 EBD1     		bne	.L83
 972              	.LVL85:
 973              	.L82:
 420:../common/ubertooth.c **** 	}
 421:../common/ubertooth.c **** 
 422:../common/ubertooth.c **** 	for (i = 0; i < len; ++i) {
 974              		.loc 1 422 0 discriminator 1
 975 003a EBB2     		uxtb	r3, r5
 976 003c BB42     		cmp	r3, r7
 977 003e 1BD2     		bcs	.L86
 978              		.loc 1 422 0 is_stmt 0
 979 0040 0826     		movs	r6, #8
 980 0042 0024     		movs	r4, #0
 981              	.L87:
 982              	.LVL86:
 423:../common/ubertooth.c **** 		temp = 0;
 424:../common/ubertooth.c **** 		for (j = 0; j < 8; ++j) {
 425:../common/ubertooth.c **** 			spi_delay();
 983              		.loc 1 425 0 is_stmt 1
 984 0044 FFF7FEFF 		bl	spi_delay
 985              	.LVL87:
 426:../common/ubertooth.c **** 			SCLK_SET;
 986              		.loc 1 426 0
 987 0048 104B     		ldr	r3, .L91+4
 988 004a 1022     		movs	r2, #16
 989 004c 1A60     		str	r2, [r3]
 427:../common/ubertooth.c **** 			temp <<= 1;
 428:../common/ubertooth.c **** 			if (MISO)
 990              		.loc 1 428 0
 991 004e 043B     		subs	r3, r3, #4
 992 0050 1B68     		ldr	r3, [r3]
ARM GAS  /tmp/cc9UKiNn.s 			page 28


 427:../common/ubertooth.c **** 			temp <<= 1;
 993              		.loc 1 427 0
 994 0052 6400     		lsls	r4, r4, #1
 995              	.LVL88:
 996              		.loc 1 428 0
 997 0054 9B07     		lsls	r3, r3, #30
 427:../common/ubertooth.c **** 			temp <<= 1;
 998              		.loc 1 427 0
 999 0056 E4B2     		uxtb	r4, r4
 1000              	.LVL89:
 429:../common/ubertooth.c **** 				temp |= 1;
 1001              		.loc 1 429 0
 1002 0058 48BF     		it	mi
 1003 005a 44F00104 		orrmi	r4, r4, #1
 1004              	.LVL90:
 1005 005e 013E     		subs	r6, r6, #1
 1006              	.LVL91:
 430:../common/ubertooth.c **** 			spi_delay();
 1007              		.loc 1 430 0
 1008 0060 FFF7FEFF 		bl	spi_delay
 1009              	.LVL92:
 431:../common/ubertooth.c **** 			SCLK_CLR;
 1010              		.loc 1 431 0
 1011 0064 084B     		ldr	r3, .L91
 1012 0066 1022     		movs	r2, #16
 424:../common/ubertooth.c **** 			spi_delay();
 1013              		.loc 1 424 0
 1014 0068 16F0FF06 		ands	r6, r6, #255
 1015              	.LVL93:
 1016              		.loc 1 431 0
 1017 006c 1A60     		str	r2, [r3]
 424:../common/ubertooth.c **** 			spi_delay();
 1018              		.loc 1 424 0
 1019 006e E9D1     		bne	.L87
 432:../common/ubertooth.c **** 		}
 433:../common/ubertooth.c **** 		buf[i] = temp;
 1020              		.loc 1 433 0
 1021 0070 08F80540 		strb	r4, [r8, r5]
 1022              	.LVL94:
 1023 0074 0135     		adds	r5, r5, #1
 1024              	.LVL95:
 1025 0076 E0E7     		b	.L82
 1026              	.LVL96:
 1027              	.L86:
 434:../common/ubertooth.c **** 	}
 435:../common/ubertooth.c **** 
 436:../common/ubertooth.c **** 	/* end transaction by raising CSN */
 437:../common/ubertooth.c **** 	spi_delay();
 1028              		.loc 1 437 0
 1029 0078 FFF7FEFF 		bl	spi_delay
 1030              	.LVL97:
 438:../common/ubertooth.c **** 	CSN_SET;
 1031              		.loc 1 438 0
 1032 007c 034B     		ldr	r3, .L91+4
 1033 007e 2022     		movs	r2, #32
 1034 0080 1A60     		str	r2, [r3]
 1035 0082 BDE8F081 		pop	{r4, r5, r6, r7, r8, pc}
ARM GAS  /tmp/cc9UKiNn.s 			page 29


 1036              	.LVL98:
 1037              	.L92:
 1038 0086 00BF     		.align	2
 1039              	.L91:
 1040 0088 5CC00920 		.word	537509980
 1041 008c 58C00920 		.word	537509976
 1042              		.cfi_endproc
 1043              	.LFE18:
 1045              		.section	.text.cc2400_status,"ax",%progbits
 1046              		.align	1
 1047              		.global	cc2400_status
 1048              		.thumb
 1049              		.thumb_func
 1051              	cc2400_status:
 1052              	.LFB19:
 439:../common/ubertooth.c **** }
 440:../common/ubertooth.c **** 
 441:../common/ubertooth.c **** /* get the status */
 442:../common/ubertooth.c **** u8 cc2400_status()
 443:../common/ubertooth.c **** {
 1053              		.loc 1 443 0
 1054              		.cfi_startproc
 1055              		@ args = 0, pretend = 0, frame = 0
 1056              		@ frame_needed = 0, uses_anonymous_args = 0
 1057 0000 08B5     		push	{r3, lr}
 1058              		.cfi_def_cfa_offset 8
 1059              		.cfi_offset 3, -8
 1060              		.cfi_offset 14, -4
 444:../common/ubertooth.c **** 	return cc2400_spi(8, 0);
 1061              		.loc 1 444 0
 1062 0002 0021     		movs	r1, #0
 1063 0004 0820     		movs	r0, #8
 1064 0006 FFF7FEFF 		bl	cc2400_spi
 1065              	.LVL99:
 445:../common/ubertooth.c **** }
 1066              		.loc 1 445 0
 1067 000a C0B2     		uxtb	r0, r0
 1068 000c 08BD     		pop	{r3, pc}
 1069              		.cfi_endproc
 1070              	.LFE19:
 1072              		.section	.text.cc2400_strobe,"ax",%progbits
 1073              		.align	1
 1074              		.global	cc2400_strobe
 1075              		.thumb
 1076              		.thumb_func
 1078              	cc2400_strobe:
 1079              	.LFB20:
 446:../common/ubertooth.c **** 
 447:../common/ubertooth.c **** /* strobe register, return status */
 448:../common/ubertooth.c **** u8 cc2400_strobe(u8 reg)
 449:../common/ubertooth.c **** {
 1080              		.loc 1 449 0
 1081              		.cfi_startproc
 1082              		@ args = 0, pretend = 0, frame = 0
 1083              		@ frame_needed = 0, uses_anonymous_args = 0
 1084              	.LVL100:
 1085 0000 08B5     		push	{r3, lr}
ARM GAS  /tmp/cc9UKiNn.s 			page 30


 1086              		.cfi_def_cfa_offset 8
 1087              		.cfi_offset 3, -8
 1088              		.cfi_offset 14, -4
 1089              		.loc 1 449 0
 1090 0002 0146     		mov	r1, r0
 450:../common/ubertooth.c **** 	return cc2400_spi(8, reg);
 1091              		.loc 1 450 0
 1092 0004 0820     		movs	r0, #8
 1093              	.LVL101:
 1094 0006 FFF7FEFF 		bl	cc2400_spi
 1095              	.LVL102:
 451:../common/ubertooth.c **** }
 1096              		.loc 1 451 0
 1097 000a C0B2     		uxtb	r0, r0
 1098 000c 08BD     		pop	{r3, pc}
 1099              		.cfi_endproc
 1100              	.LFE20:
 1102              		.section	.text.cc2400_reset,"ax",%progbits
 1103              		.align	1
 1104              		.global	cc2400_reset
 1105              		.thumb
 1106              		.thumb_func
 1108              	cc2400_reset:
 1109              	.LFB21:
 452:../common/ubertooth.c **** 
 453:../common/ubertooth.c **** /*
 454:../common/ubertooth.c ****  * Warning: This should only be called when running on the internal oscillator.
 455:../common/ubertooth.c ****  * Otherwise use clock_start().
 456:../common/ubertooth.c ****  */
 457:../common/ubertooth.c **** void cc2400_reset()
 458:../common/ubertooth.c **** {
 1110              		.loc 1 458 0
 1111              		.cfi_startproc
 1112              		@ args = 0, pretend = 0, frame = 0
 1113              		@ frame_needed = 0, uses_anonymous_args = 0
 1114 0000 08B5     		push	{r3, lr}
 1115              		.cfi_def_cfa_offset 8
 1116              		.cfi_offset 3, -8
 1117              		.cfi_offset 14, -4
 1118              	.LVL103:
 1119              	.LBB12:
 1120              	.LBB13:
 313:../common/ubertooth.c **** }
 1121              		.loc 1 313 0
 1122 0002 1820     		movs	r0, #24
 1123 0004 0021     		movs	r1, #0
 1124 0006 FFF7FEFF 		bl	cc2400_spi
 1125              	.LVL104:
 1126              	.L97:
 1127              	.LBE13:
 1128              	.LBE12:
 459:../common/ubertooth.c **** 	cc2400_set(MAIN, 0x0000);
 460:../common/ubertooth.c **** 	while (cc2400_get(MAIN) != 0x0000);
 1129              		.loc 1 460 0 discriminator 1
 1130 000a 0020     		movs	r0, #0
 1131 000c FFF7FEFF 		bl	cc2400_get
 1132              	.LVL105:
ARM GAS  /tmp/cc9UKiNn.s 			page 31


 1133 0010 0028     		cmp	r0, #0
 1134 0012 FAD1     		bne	.L97
 1135              	.LVL106:
 1136              	.LBB14:
 1137              	.LBB15:
 313:../common/ubertooth.c **** }
 1138              		.loc 1 313 0
 1139 0014 1820     		movs	r0, #24
 1140 0016 4FF40041 		mov	r1, #32768
 1141 001a FFF7FEFF 		bl	cc2400_spi
 1142              	.LVL107:
 1143              	.L99:
 1144              	.LBE15:
 1145              	.LBE14:
 461:../common/ubertooth.c **** 	cc2400_set(MAIN, 0x8000);
 462:../common/ubertooth.c **** 	while (cc2400_get(MAIN) != 0x8000);
 1146              		.loc 1 462 0 discriminator 1
 1147 001e 0020     		movs	r0, #0
 1148 0020 FFF7FEFF 		bl	cc2400_get
 1149              	.LVL108:
 1150 0024 B0F5004F 		cmp	r0, #32768
 1151 0028 F9D1     		bne	.L99
 463:../common/ubertooth.c **** }
 1152              		.loc 1 463 0
 1153 002a 08BD     		pop	{r3, pc}
 1154              		.cfi_endproc
 1155              	.LFE21:
 1157              		.section	.text.clock_start,"ax",%progbits
 1158              		.align	1
 1159              		.global	clock_start
 1160              		.thumb
 1161              		.thumb_func
 1163              	clock_start:
 1164              	.LFB22:
 464:../common/ubertooth.c **** 
 465:../common/ubertooth.c **** /* activate the CC2400's 16 MHz oscillator and sync LPC175x to it */
 466:../common/ubertooth.c **** void clock_start()
 467:../common/ubertooth.c **** {
 1165              		.loc 1 467 0
 1166              		.cfi_startproc
 1167              		@ args = 0, pretend = 0, frame = 0
 1168              		@ frame_needed = 0, uses_anonymous_args = 0
 1169 0000 10B5     		push	{r4, lr}
 1170              		.cfi_def_cfa_offset 8
 1171              		.cfi_offset 4, -8
 1172              		.cfi_offset 14, -4
 468:../common/ubertooth.c **** 	/* configure flash accelerator for higher clock rate */
 469:../common/ubertooth.c **** 	FLASHCFG = (0x03A | (FLASHTIM << 12));
 1173              		.loc 1 469 0
 1174 0002 464B     		ldr	r3, .L119
 1175 0004 44F23A02 		movw	r2, #16442
 1176 0008 1A60     		str	r2, [r3]
 470:../common/ubertooth.c **** 
 471:../common/ubertooth.c **** 	/* switch to the internal oscillator if necessary */
 472:../common/ubertooth.c **** 	CLKSRCSEL = 0;
 1177              		.loc 1 472 0
 1178 000a 0022     		movs	r2, #0
ARM GAS  /tmp/cc9UKiNn.s 			page 32


 1179 000c C3F80C21 		str	r2, [r3, #268]
 473:../common/ubertooth.c **** 
 474:../common/ubertooth.c **** 	/* disconnect PLL0 */
 475:../common/ubertooth.c **** 	PLL0CON &= ~PLL0CON_PLLC0;
 1180              		.loc 1 475 0
 1181 0010 8033     		adds	r3, r3, #128
 1182 0012 1A68     		ldr	r2, [r3]
 476:../common/ubertooth.c **** 	PLL0FEED_SEQUENCE;
 1183              		.loc 1 476 0
 1184 0014 AA21     		movs	r1, #170
 475:../common/ubertooth.c **** 	PLL0FEED_SEQUENCE;
 1185              		.loc 1 475 0
 1186 0016 22F00202 		bic	r2, r2, #2
 1187 001a 1A60     		str	r2, [r3]
 1188              		.loc 1 476 0
 1189 001c 404A     		ldr	r2, .L119+4
 1190 001e 1160     		str	r1, [r2]
 1191 0020 5521     		movs	r1, #85
 1192 0022 1160     		str	r1, [r2]
 1193              	.L102:
 477:../common/ubertooth.c **** 	while (PLL0STAT & PLL0STAT_PLLC0_STAT);
 1194              		.loc 1 477 0 discriminator 1
 1195 0024 3F4A     		ldr	r2, .L119+8
 1196 0026 1268     		ldr	r2, [r2]
 1197 0028 9001     		lsls	r0, r2, #6
 1198 002a FBD4     		bmi	.L102
 478:../common/ubertooth.c **** 
 479:../common/ubertooth.c **** 	/* turn off PLL0 */
 480:../common/ubertooth.c **** 	PLL0CON &= ~PLL0CON_PLLE0;
 1199              		.loc 1 480 0
 1200 002c 1A68     		ldr	r2, [r3]
 1201 002e 22F00102 		bic	r2, r2, #1
 1202 0032 1A60     		str	r2, [r3]
 481:../common/ubertooth.c **** 	PLL0FEED_SEQUENCE;
 1203              		.loc 1 481 0
 1204 0034 3A4B     		ldr	r3, .L119+4
 1205 0036 AA22     		movs	r2, #170
 1206 0038 1A60     		str	r2, [r3]
 1207 003a 5522     		movs	r2, #85
 1208 003c 1A60     		str	r2, [r3]
 1209              	.L104:
 482:../common/ubertooth.c **** 	while (PLL0STAT & PLL0STAT_PLLE0_STAT);
 1210              		.loc 1 482 0 discriminator 1
 1211 003e 394B     		ldr	r3, .L119+8
 1212 0040 1B68     		ldr	r3, [r3]
 1213 0042 13F08073 		ands	r3, r3, #16777216
 1214 0046 FAD1     		bne	.L104
 483:../common/ubertooth.c **** 
 484:../common/ubertooth.c **** 	/* temporarily set CPU clock divider to 1 */
 485:../common/ubertooth.c **** 	CCLKCFG = 0;
 1215              		.loc 1 485 0
 1216 0048 374A     		ldr	r2, .L119+12
 1217 004a 1360     		str	r3, [r2]
 486:../common/ubertooth.c **** 
 487:../common/ubertooth.c **** 	/* configure CC2400 oscillator, output carrier sense on GIO6 */
 488:../common/ubertooth.c **** 	cc2400_reset();
 1218              		.loc 1 488 0
ARM GAS  /tmp/cc9UKiNn.s 			page 33


 1219 004c FFF7FEFF 		bl	cc2400_reset
 1220              	.LVL109:
 1221              	.LBB18:
 1222              	.LBB19:
 313:../common/ubertooth.c **** }
 1223              		.loc 1 313 0
 1224 0050 1820     		movs	r0, #24
 1225 0052 3649     		ldr	r1, .L119+16
 1226 0054 FFF7FEFF 		bl	cc2400_spi
 1227              	.LVL110:
 1228              	.LBE19:
 1229              	.LBE18:
 489:../common/ubertooth.c **** 	cc2400_set(IOCFG, (GIO_CARRIER_SENSE_N << 9) | (GIO_CLK_16M << 3));
 490:../common/ubertooth.c **** 	cc2400_strobe(SXOSCON);
 1230              		.loc 1 490 0
 1231 0058 6020     		movs	r0, #96
 1232 005a FFF7FEFF 		bl	cc2400_strobe
 1233              	.LVL111:
 1234              	.L106:
 491:../common/ubertooth.c **** 	while (!(cc2400_status() & XOSC16M_STABLE));
 1235              		.loc 1 491 0 discriminator 1
 1236 005e FFF7FEFF 		bl	cc2400_status
 1237              	.LVL112:
 1238 0062 4106     		lsls	r1, r0, #25
 1239 0064 FBD5     		bpl	.L106
 492:../common/ubertooth.c **** 
 493:../common/ubertooth.c **** 	/* activate main oscillator */
 494:../common/ubertooth.c **** 	SCS = SCS_OSCEN;
 1240              		.loc 1 494 0
 1241 0066 324B     		ldr	r3, .L119+20
 1242 0068 2022     		movs	r2, #32
 1243 006a 1A60     		str	r2, [r3]
 1244              	.L108:
 495:../common/ubertooth.c **** 	while (!(SCS & SCS_OSCSTAT));
 1245              		.loc 1 495 0 discriminator 1
 1246 006c 1A68     		ldr	r2, [r3]
 1247 006e 5206     		lsls	r2, r2, #25
 1248 0070 FCD5     		bpl	.L108
 496:../common/ubertooth.c **** 
 497:../common/ubertooth.c **** 	/*
 498:../common/ubertooth.c **** 	 * errata sheet says we must select peripheral clock before enabling and
 499:../common/ubertooth.c **** 	 * connecting PLL0
 500:../common/ubertooth.c ****  	 */
 501:../common/ubertooth.c **** #ifdef TC13BADGE
 502:../common/ubertooth.c **** 	PCLKSEL0  = (1 << 2); /* TIMER0 at cclk (30 MHz) */
 503:../common/ubertooth.c **** #else
 504:../common/ubertooth.c **** 	PCLKSEL0  = (2 << 2); /* TIMER0 at cclk/2 (50 MHz) */
 1249              		.loc 1 504 0
 1250 0072 304B     		ldr	r3, .L119+24
 1251 0074 0822     		movs	r2, #8
 1252 0076 1A60     		str	r2, [r3]
 505:../common/ubertooth.c **** #endif
 506:../common/ubertooth.c **** 	PCLKSEL1  = 0;
 1253              		.loc 1 506 0
 1254 0078 0022     		movs	r2, #0
 1255 007a 5A60     		str	r2, [r3, #4]
 507:../common/ubertooth.c **** 
ARM GAS  /tmp/cc9UKiNn.s 			page 34


 508:../common/ubertooth.c **** 	/* switch to main oscillator */
 509:../common/ubertooth.c **** 	CLKSRCSEL = 1;
 1256              		.loc 1 509 0
 1257 007c 0122     		movs	r2, #1
 1258 007e 43F89C2C 		str	r2, [r3, #-156]
 510:../common/ubertooth.c **** 
 511:../common/ubertooth.c **** 	/* configure PLL0 */
 512:../common/ubertooth.c **** 	PLL0CFG = (MSEL0 << 0) | (NSEL0 << 16);
 1259              		.loc 1 512 0
 1260 0082 2D4A     		ldr	r2, .L119+28
 509:../common/ubertooth.c **** 
 1261              		.loc 1 509 0
 1262 0084 9C3B     		subs	r3, r3, #156
 1263              		.loc 1 512 0
 1264 0086 43F8882C 		str	r2, [r3, #-136]
 513:../common/ubertooth.c **** 	PLL0FEED_SEQUENCE;
 1265              		.loc 1 513 0
 1266 008a AA21     		movs	r1, #170
 1267 008c 5522     		movs	r2, #85
 514:../common/ubertooth.c **** 
 515:../common/ubertooth.c **** 	/* turn on PLL0 */
 516:../common/ubertooth.c **** 	PLL0CON |= PLL0CON_PLLE0;
 1268              		.loc 1 516 0
 1269 008e 2B48     		ldr	r0, .L119+32
 513:../common/ubertooth.c **** 	PLL0FEED_SEQUENCE;
 1270              		.loc 1 513 0
 1271 0090 43F8801C 		str	r1, [r3, #-128]
 1272 0094 43F8802C 		str	r2, [r3, #-128]
 1273              		.loc 1 516 0
 1274 0098 0468     		ldr	r4, [r0]
 1275 009a 44F00104 		orr	r4, r4, #1
 1276 009e 0460     		str	r4, [r0]
 517:../common/ubertooth.c **** 	PLL0FEED_SEQUENCE;
 1277              		.loc 1 517 0
 1278 00a0 43F8801C 		str	r1, [r3, #-128]
 1279 00a4 43F8802C 		str	r2, [r3, #-128]
 1280              	.L110:
 518:../common/ubertooth.c **** 	while (!(PLL0STAT & PLL0STAT_PLLE0_STAT));
 1281              		.loc 1 518 0 discriminator 1
 1282 00a8 1E4B     		ldr	r3, .L119+8
 1283 00aa 1B68     		ldr	r3, [r3]
 1284 00ac DB01     		lsls	r3, r3, #7
 1285 00ae FBD5     		bpl	.L110
 519:../common/ubertooth.c **** 
 520:../common/ubertooth.c **** 	/* set CPU clock divider */
 521:../common/ubertooth.c **** 	CCLKCFG = CCLKSEL;
 1286              		.loc 1 521 0
 1287 00b0 1D4B     		ldr	r3, .L119+12
 1288 00b2 0322     		movs	r2, #3
 1289 00b4 1A60     		str	r2, [r3]
 522:../common/ubertooth.c **** 
 523:../common/ubertooth.c **** 	/* connect PLL0 */
 524:../common/ubertooth.c **** 	PLL0CON |= PLL0CON_PLLC0;
 1290              		.loc 1 524 0
 1291 00b6 53F8842C 		ldr	r2, [r3, #-132]
 1292 00ba 42F00202 		orr	r2, r2, #2
 1293 00be 43F8842C 		str	r2, [r3, #-132]
ARM GAS  /tmp/cc9UKiNn.s 			page 35


 525:../common/ubertooth.c **** 	PLL0FEED_SEQUENCE;
 1294              		.loc 1 525 0
 1295 00c2 AA22     		movs	r2, #170
 1296 00c4 43F8782C 		str	r2, [r3, #-120]
 1297 00c8 5522     		movs	r2, #85
 1298 00ca 43F8782C 		str	r2, [r3, #-120]
 1299              	.L112:
 526:../common/ubertooth.c **** 	while (!(PLL0STAT & PLL0STAT_PLLC0_STAT));
 1300              		.loc 1 526 0 discriminator 1
 1301 00ce 154B     		ldr	r3, .L119+8
 1302 00d0 1B68     		ldr	r3, [r3]
 1303 00d2 9C01     		lsls	r4, r3, #6
 1304 00d4 FBD5     		bpl	.L112
 527:../common/ubertooth.c **** 
 528:../common/ubertooth.c **** 	/* configure PLL1 */
 529:../common/ubertooth.c **** 	PLL1CFG = (MSEL1 << 0) | (PSEL1 << 5);
 1305              		.loc 1 529 0
 1306 00d6 1A4B     		ldr	r3, .L119+36
 1307 00d8 2222     		movs	r2, #34
 1308 00da 1A60     		str	r2, [r3]
 530:../common/ubertooth.c **** 	PLL1FEED_SEQUENCE;
 1309              		.loc 1 530 0
 1310 00dc AA21     		movs	r1, #170
 1311 00de 5522     		movs	r2, #85
 531:../common/ubertooth.c **** 
 532:../common/ubertooth.c **** 	/* turn on PLL1 */
 533:../common/ubertooth.c **** 	PLL1CON |= PLL1CON_PLLE1;
 1312              		.loc 1 533 0
 1313 00e0 1848     		ldr	r0, .L119+40
 530:../common/ubertooth.c **** 	PLL1FEED_SEQUENCE;
 1314              		.loc 1 530 0
 1315 00e2 9960     		str	r1, [r3, #8]
 1316 00e4 9A60     		str	r2, [r3, #8]
 1317              		.loc 1 533 0
 1318 00e6 0468     		ldr	r4, [r0]
 1319 00e8 44F00104 		orr	r4, r4, #1
 1320 00ec 0460     		str	r4, [r0]
 534:../common/ubertooth.c **** 	PLL1FEED_SEQUENCE;
 1321              		.loc 1 534 0
 1322 00ee 9960     		str	r1, [r3, #8]
 1323 00f0 9A60     		str	r2, [r3, #8]
 1324              	.L114:
 535:../common/ubertooth.c **** 	while (!(PLL1STAT & PLL1STAT_PLLE1_STAT));
 1325              		.loc 1 535 0 discriminator 1
 1326 00f2 154B     		ldr	r3, .L119+44
 1327 00f4 1A68     		ldr	r2, [r3]
 1328 00f6 D005     		lsls	r0, r2, #23
 1329 00f8 FBD5     		bpl	.L114
 1330              	.L116:
 536:../common/ubertooth.c **** 	while (!(PLL1STAT & PLL1STAT_PLOCK1));
 1331              		.loc 1 536 0
 1332 00fa 1A68     		ldr	r2, [r3]
 1333 00fc 5105     		lsls	r1, r2, #21
 1334 00fe FCD5     		bpl	.L116
 537:../common/ubertooth.c **** 
 538:../common/ubertooth.c **** 	/* connect PLL1 */
 539:../common/ubertooth.c **** 	PLL1CON |= PLL1CON_PLLC1;
ARM GAS  /tmp/cc9UKiNn.s 			page 36


 1335              		.loc 1 539 0
 1336 0100 104B     		ldr	r3, .L119+40
 1337 0102 1A68     		ldr	r2, [r3]
 1338 0104 42F00202 		orr	r2, r2, #2
 1339 0108 1A60     		str	r2, [r3]
 540:../common/ubertooth.c **** 	PLL1FEED_SEQUENCE;
 1340              		.loc 1 540 0
 1341 010a AA22     		movs	r2, #170
 1342 010c DA60     		str	r2, [r3, #12]
 1343 010e 5522     		movs	r2, #85
 1344 0110 DA60     		str	r2, [r3, #12]
 1345              	.L118:
 541:../common/ubertooth.c **** 	while (!(PLL1STAT & PLL1STAT_PLLC1_STAT));
 1346              		.loc 1 541 0 discriminator 1
 1347 0112 0D4B     		ldr	r3, .L119+44
 1348 0114 1B68     		ldr	r3, [r3]
 1349 0116 9A05     		lsls	r2, r3, #22
 1350 0118 FBD5     		bpl	.L118
 542:../common/ubertooth.c **** }
 1351              		.loc 1 542 0
 1352 011a 10BD     		pop	{r4, pc}
 1353              	.L120:
 1354              		.align	2
 1355              	.L119:
 1356 011c 00C00F40 		.word	1074774016
 1357 0120 8CC00F40 		.word	1074774156
 1358 0124 88C00F40 		.word	1074774152
 1359 0128 04C10F40 		.word	1074774276
 1360 012c 70150800 		.word	529776
 1361 0130 A0C10F40 		.word	1074774432
 1362 0134 A8C10F40 		.word	1074774440
 1363 0138 18000100 		.word	65560
 1364 013c 80C00F40 		.word	1074774144
 1365 0140 A4C00F40 		.word	1074774180
 1366 0144 A0C00F40 		.word	1074774176
 1367 0148 A8C00F40 		.word	1074774184
 1368              		.cfi_endproc
 1369              	.LFE22:
 1371              		.section	.text.ubertooth_init,"ax",%progbits
 1372              		.align	1
 1373              		.global	ubertooth_init
 1374              		.thumb
 1375              		.thumb_func
 1377              	ubertooth_init:
 1378              	.LFB6:
 156:../common/ubertooth.c **** 	gpio_init();
 1379              		.loc 1 156 0
 1380              		.cfi_startproc
 1381              		@ args = 0, pretend = 0, frame = 0
 1382              		@ frame_needed = 0, uses_anonymous_args = 0
 1383 0000 08B5     		push	{r3, lr}
 1384              		.cfi_def_cfa_offset 8
 1385              		.cfi_offset 3, -8
 1386              		.cfi_offset 14, -4
 157:../common/ubertooth.c **** 	cc2400_init();
 1387              		.loc 1 157 0
 1388 0002 FFF7FEFF 		bl	gpio_init
ARM GAS  /tmp/cc9UKiNn.s 			page 37


 1389              	.LVL113:
 158:../common/ubertooth.c **** 	clock_start();
 1390              		.loc 1 158 0
 1391 0006 FFF7FEFF 		bl	cc2400_init
 1392              	.LVL114:
 160:../common/ubertooth.c **** 
 1393              		.loc 1 160 0
 1394 000a BDE80840 		pop	{r3, lr}
 159:../common/ubertooth.c **** }
 1395              		.loc 1 159 0
 1396 000e FFF7FEBF 		b	clock_start
 1397              	.LVL115:
 1398              		.cfi_endproc
 1399              	.LFE6:
 1401              		.section	.text.reset,"ax",%progbits
 1402              		.align	1
 1403              		.global	reset
 1404              		.thumb
 1405              		.thumb_func
 1407              	reset:
 1408              	.LFB23:
 543:../common/ubertooth.c **** 
 544:../common/ubertooth.c **** /* reset the LPC17xx, the cc2400 will be handled by the boot code */
 545:../common/ubertooth.c **** void reset()
 546:../common/ubertooth.c **** {
 1409              		.loc 1 546 0
 1410              		.cfi_startproc
 1411              		@ args = 0, pretend = 0, frame = 0
 1412              		@ frame_needed = 0, uses_anonymous_args = 0
 1413 0000 08B5     		push	{r3, lr}
 1414              		.cfi_def_cfa_offset 8
 1415              		.cfi_offset 3, -8
 1416              		.cfi_offset 14, -4
 547:../common/ubertooth.c **** 	all_pins_off();
 1417              		.loc 1 547 0
 1418 0002 FFF7FEFF 		bl	all_pins_off
 1419              	.LVL116:
 548:../common/ubertooth.c **** 
 549:../common/ubertooth.c **** 	/* Enable the watchdog with reset enabled */
 550:../common/ubertooth.c **** 	USRLED_CLR;
 1420              		.loc 1 550 0
 1421 0006 094B     		ldr	r3, .L123
 1422 0008 0222     		movs	r2, #2
 1423 000a 1A60     		str	r2, [r3]
 551:../common/ubertooth.c **** 	WDMOD |= WDMOD_WDEN | WDMOD_WDRESET;
 1424              		.loc 1 551 0
 1425 000c 4FF08043 		mov	r3, #1073741824
 1426 0010 1A68     		ldr	r2, [r3]
 1427              	.LBB22:
 1428              	.LBB23:
  30:../common/ubertooth.c **** }
 1429              		.loc 1 30 0
 1430 0012 0748     		ldr	r0, .L123+4
 1431              	.LBE23:
 1432              	.LBE22:
 1433              		.loc 1 551 0
 1434 0014 42F00302 		orr	r2, r2, #3
ARM GAS  /tmp/cc9UKiNn.s 			page 38


 1435 0018 1A60     		str	r2, [r3]
 552:../common/ubertooth.c **** 	WDFEED_SEQUENCE;
 1436              		.loc 1 552 0
 1437 001a AA22     		movs	r2, #170
 1438 001c 9A60     		str	r2, [r3, #8]
 1439 001e 5522     		movs	r2, #85
 1440 0020 9A60     		str	r2, [r3, #8]
 1441              	.LVL117:
 553:../common/ubertooth.c **** 	
 554:../common/ubertooth.c **** 	/* Set watchdog timeout to 256us (minimum) */
 555:../common/ubertooth.c **** 	
 556:../common/ubertooth.c **** 	/* sleep for 1s (minimum) */
 557:../common/ubertooth.c **** 	wait(1);
 558:../common/ubertooth.c **** }
 1442              		.loc 1 558 0
 1443 0022 BDE80840 		pop	{r3, lr}
 1444              	.LBB25:
 1445              	.LBB24:
  30:../common/ubertooth.c **** }
 1446              		.loc 1 30 0
 1447 0026 FFF7FEBF 		b	wait_us
 1448              	.LVL118:
 1449              	.L124:
 1450 002a 00BF     		.align	2
 1451              	.L123:
 1452 002c 3CC00920 		.word	537509948
 1453 0030 40420F00 		.word	1000000
 1454              	.LBE24:
 1455              	.LBE25:
 1456              		.cfi_endproc
 1457              	.LFE23:
 1459              		.section	.text.cc2400_tune_rx,"ax",%progbits
 1460              		.align	1
 1461              		.global	cc2400_tune_rx
 1462              		.thumb
 1463              		.thumb_func
 1465              	cc2400_tune_rx:
 1466              	.LFB24:
 559:../common/ubertooth.c **** 
 560:../common/ubertooth.c **** /* take control of R8C microcontroller and CC2400 on the ToorCon 13 badge */
 561:../common/ubertooth.c **** #ifdef TC13BADGE
 562:../common/ubertooth.c **** void r8c_takeover(void)
 563:../common/ubertooth.c **** {
 564:../common/ubertooth.c **** 	/* wait until user presses SW1 while USB is connected */
 565:../common/ubertooth.c **** 	while (SW1 || !VBUS) {
 566:../common/ubertooth.c **** 		/* turn off power to all peripherals except GPIO */
 567:../common/ubertooth.c **** 		PCONP = PCONP_PCGPIO;
 568:../common/ubertooth.c **** 
 569:../common/ubertooth.c **** 		/* enable interrupt on falling edge of P2.8 (SW1) */
 570:../common/ubertooth.c **** 		IO2IntEnF |= (0x1 << 8);
 571:../common/ubertooth.c **** 		ISER0 |= ISER0_ISE_EINT3;
 572:../common/ubertooth.c **** 
 573:../common/ubertooth.c **** 		/* go into power-down mode and wait for interrupt */
 574:../common/ubertooth.c **** 		SCB_SCR = SCB_SCR_SLEEPDEEP;
 575:../common/ubertooth.c **** 		PCON = (PCON_PM0 | PCON_BOGD);
 576:../common/ubertooth.c **** 		asm("WFI");
 577:../common/ubertooth.c **** 
ARM GAS  /tmp/cc9UKiNn.s 			page 39


 578:../common/ubertooth.c **** 		/* disable interrupt */
 579:../common/ubertooth.c **** 		IO2IntEnF &= ~(0x1 << 8);
 580:../common/ubertooth.c **** 		ICER0 |= ICER0_ICE_EINT3;
 581:../common/ubertooth.c **** 
 582:../common/ubertooth.c **** 		/* turn power back on for peripherals we use */
 583:../common/ubertooth.c **** 		PCONP = (PCONP_PCTIM0 | PCONP_PCSSP1 | PCONP_PCGPIO | PCONP_PCSSP0);
 584:../common/ubertooth.c **** 	}
 585:../common/ubertooth.c **** 
 586:../common/ubertooth.c **** 	/* drop R8C_CTL to let the R8C know we are taking over */
 587:../common/ubertooth.c **** 	R8C_CTL_CLR;
 588:../common/ubertooth.c **** 
 589:../common/ubertooth.c **** 	/* wait for the R8C to acknowledge the takeover */
 590:../common/ubertooth.c **** 	while (R8C_ACK);
 591:../common/ubertooth.c **** }
 592:../common/ubertooth.c **** 
 593:../common/ubertooth.c **** /* interrupt handler for SW1 */
 594:../common/ubertooth.c **** void EINT3_IRQHandler(void)
 595:../common/ubertooth.c **** {
 596:../common/ubertooth.c **** 	/* clear interrupt */
 597:../common/ubertooth.c **** 	IO2IntClr |= (0x1 << 8);
 598:../common/ubertooth.c **** }
 599:../common/ubertooth.c **** #endif
 600:../common/ubertooth.c **** 
 601:../common/ubertooth.c **** /*
 602:../common/ubertooth.c ****  * Tune the CC2400 to a frequency in MHz for RX.  The calling function should
 603:../common/ubertooth.c ****  * ensure that the CC2400 is in the IDLE state.
 604:../common/ubertooth.c ****  */
 605:../common/ubertooth.c **** void cc2400_tune_rx(uint16_t channel)
 606:../common/ubertooth.c **** {
 1467              		.loc 1 606 0
 1468              		.cfi_startproc
 1469              		@ args = 0, pretend = 0, frame = 0
 1470              		@ frame_needed = 0, uses_anonymous_args = 0
 1471              		@ link register save eliminated.
 1472              	.LVL119:
 607:../common/ubertooth.c **** 	cc2400_set(FSDIV, channel - 1);
 1473              		.loc 1 607 0
 1474 0000 411E     		subs	r1, r0, #1
 1475 0002 89B2     		uxth	r1, r1
 1476 0004 0220     		movs	r0, #2
 1477              	.LVL120:
 1478 0006 FFF7FEBF 		b	cc2400_set
 1479              	.LVL121:
 1480              		.cfi_endproc
 1481              	.LFE24:
 1483              		.section	.text.cc2400_tune_tx,"ax",%progbits
 1484              		.align	1
 1485              		.global	cc2400_tune_tx
 1486              		.thumb
 1487              		.thumb_func
 1489              	cc2400_tune_tx:
 1490              	.LFB25:
 608:../common/ubertooth.c **** }
 609:../common/ubertooth.c **** 
 610:../common/ubertooth.c **** /*
 611:../common/ubertooth.c ****  * Tune the CC2400 to a frequency in MHz for TX.  The calling function should
 612:../common/ubertooth.c ****  * ensure that the CC2400 is in the IDLE state.
ARM GAS  /tmp/cc9UKiNn.s 			page 40


 613:../common/ubertooth.c ****  */
 614:../common/ubertooth.c **** void cc2400_tune_tx(uint16_t channel)
 615:../common/ubertooth.c **** {
 1491              		.loc 1 615 0
 1492              		.cfi_startproc
 1493              		@ args = 0, pretend = 0, frame = 0
 1494              		@ frame_needed = 0, uses_anonymous_args = 0
 1495              		@ link register save eliminated.
 1496              	.LVL122:
 1497              		.loc 1 615 0
 1498 0000 0146     		mov	r1, r0
 616:../common/ubertooth.c **** 	cc2400_set(FSDIV, channel);
 1499              		.loc 1 616 0
 1500 0002 0220     		movs	r0, #2
 1501              	.LVL123:
 1502 0004 FFF7FEBF 		b	cc2400_set
 1503              	.LVL124:
 1504              		.cfi_endproc
 1505              	.LFE25:
 1507              		.section	.text.cc2400_hop_rx,"ax",%progbits
 1508              		.align	1
 1509              		.global	cc2400_hop_rx
 1510              		.thumb
 1511              		.thumb_func
 1513              	cc2400_hop_rx:
 1514              	.LFB26:
 617:../common/ubertooth.c **** }
 618:../common/ubertooth.c **** 
 619:../common/ubertooth.c **** /* Hop to a new RX frequency in MHz.  Assumes starting from RX or TX state. */
 620:../common/ubertooth.c **** void cc2400_hop_rx(uint16_t channel)
 621:../common/ubertooth.c **** {
 1515              		.loc 1 621 0
 1516              		.cfi_startproc
 1517              		@ args = 0, pretend = 0, frame = 0
 1518              		@ frame_needed = 0, uses_anonymous_args = 0
 1519              	.LVL125:
 1520 0000 10B5     		push	{r4, lr}
 1521              		.cfi_def_cfa_offset 8
 1522              		.cfi_offset 4, -8
 1523              		.cfi_offset 14, -4
 1524              		.loc 1 621 0
 1525 0002 0446     		mov	r4, r0
 622:../common/ubertooth.c **** 	cc2400_strobe(SRFOFF);
 1526              		.loc 1 622 0
 1527 0004 6420     		movs	r0, #100
 1528              	.LVL126:
 1529 0006 FFF7FEFF 		bl	cc2400_strobe
 1530              	.LVL127:
 1531              	.L129:
 623:../common/ubertooth.c **** 	while ((cc2400_status() & FS_LOCK));
 1532              		.loc 1 623 0 discriminator 1
 1533 000a FFF7FEFF 		bl	cc2400_status
 1534              	.LVL128:
 1535 000e 4207     		lsls	r2, r0, #29
 1536 0010 FBD4     		bmi	.L129
 624:../common/ubertooth.c **** 	cc2400_tune_rx(channel);
 1537              		.loc 1 624 0
ARM GAS  /tmp/cc9UKiNn.s 			page 41


 1538 0012 2046     		mov	r0, r4
 1539 0014 FFF7FEFF 		bl	cc2400_tune_rx
 1540              	.LVL129:
 1541              	.L131:
 625:../common/ubertooth.c **** 	while (!(cc2400_status() & XOSC16M_STABLE));
 1542              		.loc 1 625 0 discriminator 1
 1543 0018 FFF7FEFF 		bl	cc2400_status
 1544              	.LVL130:
 1545 001c 4306     		lsls	r3, r0, #25
 1546 001e FBD5     		bpl	.L131
 626:../common/ubertooth.c **** 	cc2400_strobe(SFSON);
 1547              		.loc 1 626 0
 1548 0020 6120     		movs	r0, #97
 1549 0022 FFF7FEFF 		bl	cc2400_strobe
 1550              	.LVL131:
 1551              	.L133:
 627:../common/ubertooth.c **** 	while (!(cc2400_status() & FS_LOCK));
 1552              		.loc 1 627 0 discriminator 1
 1553 0026 FFF7FEFF 		bl	cc2400_status
 1554              	.LVL132:
 1555 002a 4407     		lsls	r4, r0, #29
 1556 002c FBD5     		bpl	.L133
 628:../common/ubertooth.c **** 	cc2400_strobe(SRX);
 1557              		.loc 1 628 0
 1558 002e 6220     		movs	r0, #98
 629:../common/ubertooth.c **** }
 1559              		.loc 1 629 0
 1560 0030 BDE81040 		pop	{r4, lr}
 628:../common/ubertooth.c **** 	cc2400_strobe(SRX);
 1561              		.loc 1 628 0
 1562 0034 FFF7FEBF 		b	cc2400_strobe
 1563              	.LVL133:
 1564              		.cfi_endproc
 1565              	.LFE26:
 1567              		.section	.text.cc2400_hop_tx,"ax",%progbits
 1568              		.align	1
 1569              		.global	cc2400_hop_tx
 1570              		.thumb
 1571              		.thumb_func
 1573              	cc2400_hop_tx:
 1574              	.LFB27:
 630:../common/ubertooth.c **** 
 631:../common/ubertooth.c **** /* Hop to a new TX frequency in MHz.  Assumes starting from RX or TX state. */
 632:../common/ubertooth.c **** void cc2400_hop_tx(uint16_t channel)
 633:../common/ubertooth.c **** {
 1575              		.loc 1 633 0
 1576              		.cfi_startproc
 1577              		@ args = 0, pretend = 0, frame = 0
 1578              		@ frame_needed = 0, uses_anonymous_args = 0
 1579              	.LVL134:
 1580 0000 10B5     		push	{r4, lr}
 1581              		.cfi_def_cfa_offset 8
 1582              		.cfi_offset 4, -8
 1583              		.cfi_offset 14, -4
 1584              		.loc 1 633 0
 1585 0002 0446     		mov	r4, r0
 634:../common/ubertooth.c **** 	cc2400_strobe(SRFOFF);
ARM GAS  /tmp/cc9UKiNn.s 			page 42


 1586              		.loc 1 634 0
 1587 0004 6420     		movs	r0, #100
 1588              	.LVL135:
 1589 0006 FFF7FEFF 		bl	cc2400_strobe
 1590              	.LVL136:
 1591              	.L136:
 635:../common/ubertooth.c **** 	while ((cc2400_status() & FS_LOCK));
 1592              		.loc 1 635 0 discriminator 1
 1593 000a FFF7FEFF 		bl	cc2400_status
 1594              	.LVL137:
 1595 000e 4307     		lsls	r3, r0, #29
 1596 0010 FBD4     		bmi	.L136
 636:../common/ubertooth.c **** 	cc2400_tune_rx(channel);
 1597              		.loc 1 636 0
 1598 0012 2046     		mov	r0, r4
 1599 0014 FFF7FEFF 		bl	cc2400_tune_rx
 1600              	.LVL138:
 1601              	.L138:
 637:../common/ubertooth.c **** 	while (!(cc2400_status() & XOSC16M_STABLE));
 1602              		.loc 1 637 0 discriminator 1
 1603 0018 FFF7FEFF 		bl	cc2400_status
 1604              	.LVL139:
 1605 001c 4006     		lsls	r0, r0, #25
 1606 001e FBD5     		bpl	.L138
 638:../common/ubertooth.c **** 	cc2400_strobe(SFSON);
 1607              		.loc 1 638 0
 1608 0020 6120     		movs	r0, #97
 1609 0022 FFF7FEFF 		bl	cc2400_strobe
 1610              	.LVL140:
 1611              	.L140:
 639:../common/ubertooth.c **** 	while (!(cc2400_status() & FS_LOCK));
 1612              		.loc 1 639 0 discriminator 1
 1613 0026 FFF7FEFF 		bl	cc2400_status
 1614              	.LVL141:
 1615 002a 4107     		lsls	r1, r0, #29
 1616 002c FBD5     		bpl	.L140
 640:../common/ubertooth.c **** 	cc2400_strobe(SRX);
 1617              		.loc 1 640 0
 1618 002e 6220     		movs	r0, #98
 641:../common/ubertooth.c **** }
 1619              		.loc 1 641 0
 1620 0030 BDE81040 		pop	{r4, lr}
 640:../common/ubertooth.c **** 	cc2400_strobe(SRX);
 1621              		.loc 1 640 0
 1622 0034 FFF7FEBF 		b	cc2400_strobe
 1623              	.LVL142:
 1624              		.cfi_endproc
 1625              	.LFE27:
 1627              		.section	.text.get_part_num,"ax",%progbits
 1628              		.align	1
 1629              		.global	get_part_num
 1630              		.thumb
 1631              		.thumb_func
 1633              	get_part_num:
 1634              	.LFB28:
 642:../common/ubertooth.c **** 
 643:../common/ubertooth.c **** void get_part_num(uint8_t *buffer, int *len)
ARM GAS  /tmp/cc9UKiNn.s 			page 43


 644:../common/ubertooth.c **** {
 1635              		.loc 1 644 0
 1636              		.cfi_startproc
 1637              		@ args = 0, pretend = 0, frame = 40
 1638              		@ frame_needed = 0, uses_anonymous_args = 0
 1639              	.LVL143:
 1640 0000 30B5     		push	{r4, r5, lr}
 1641              		.cfi_def_cfa_offset 12
 1642              		.cfi_offset 4, -12
 1643              		.cfi_offset 5, -8
 1644              		.cfi_offset 14, -4
 1645 0002 8BB0     		sub	sp, sp, #44
 1646              		.cfi_def_cfa_offset 56
 645:../common/ubertooth.c **** 	u32 command[5];
 646:../common/ubertooth.c **** 	u32 result[5];
 647:../common/ubertooth.c **** 	command[0] = 54; /* read part number */
 1647              		.loc 1 647 0
 1648 0004 3623     		movs	r3, #54
 644:../common/ubertooth.c **** 	u32 command[5];
 1649              		.loc 1 644 0
 1650 0006 0446     		mov	r4, r0
 1651              		.loc 1 647 0
 1652 0008 0AA8     		add	r0, sp, #40
 1653              	.LVL144:
 644:../common/ubertooth.c **** 	u32 command[5];
 1654              		.loc 1 644 0
 1655 000a 0D46     		mov	r5, r1
 1656              		.loc 1 647 0
 1657 000c 40F8283D 		str	r3, [r0, #-40]!
 648:../common/ubertooth.c **** 	iap_entry(command, result);
 1658              		.loc 1 648 0
 1659 0010 05A9     		add	r1, sp, #20
 1660              	.LVL145:
 1661 0012 6846     		mov	r0, sp
 1662 0014 074B     		ldr	r3, .L142
 1663 0016 9847     		blx	r3
 1664              	.LVL146:
 649:../common/ubertooth.c **** 	buffer[0] = result[0] & 0xFF; /* status */
 1665              		.loc 1 649 0
 1666 0018 059B     		ldr	r3, [sp, #20]
 1667 001a 2370     		strb	r3, [r4]
 650:../common/ubertooth.c **** 	buffer[1] = result[1] & 0xFF;
 1668              		.loc 1 650 0
 1669 001c 069B     		ldr	r3, [sp, #24]
 651:../common/ubertooth.c **** 	buffer[2] = (result[1] >> 8) & 0xFF;
 1670              		.loc 1 651 0
 1671 001e 1A0A     		lsrs	r2, r3, #8
 650:../common/ubertooth.c **** 	buffer[1] = result[1] & 0xFF;
 1672              		.loc 1 650 0
 1673 0020 6370     		strb	r3, [r4, #1]
 1674              		.loc 1 651 0
 1675 0022 A270     		strb	r2, [r4, #2]
 652:../common/ubertooth.c **** 	buffer[3] = (result[1] >> 16) & 0xFF;
 1676              		.loc 1 652 0
 1677 0024 1A0C     		lsrs	r2, r3, #16
 653:../common/ubertooth.c **** 	buffer[4] = (result[1] >> 24) & 0xFF;
 1678              		.loc 1 653 0
ARM GAS  /tmp/cc9UKiNn.s 			page 44


 1679 0026 1B0E     		lsrs	r3, r3, #24
 1680 0028 2371     		strb	r3, [r4, #4]
 654:../common/ubertooth.c **** 	*len = 5;
 1681              		.loc 1 654 0
 1682 002a 0523     		movs	r3, #5
 652:../common/ubertooth.c **** 	buffer[3] = (result[1] >> 16) & 0xFF;
 1683              		.loc 1 652 0
 1684 002c E270     		strb	r2, [r4, #3]
 1685              		.loc 1 654 0
 1686 002e 2B60     		str	r3, [r5]
 655:../common/ubertooth.c **** 	
 656:../common/ubertooth.c **** }
 1687              		.loc 1 656 0
 1688 0030 0BB0     		add	sp, sp, #44
 1689              		@ sp needed
 1690 0032 30BD     		pop	{r4, r5, pc}
 1691              	.LVL147:
 1692              	.L143:
 1693              		.align	2
 1694              	.L142:
 1695 0034 F11FFF1F 		.word	536813553
 1696              		.cfi_endproc
 1697              	.LFE28:
 1699              		.section	.text.get_device_serial,"ax",%progbits
 1700              		.align	1
 1701              		.global	get_device_serial
 1702              		.thumb
 1703              		.thumb_func
 1705              	get_device_serial:
 1706              	.LFB29:
 657:../common/ubertooth.c **** 
 658:../common/ubertooth.c **** void get_device_serial(uint8_t *buffer, int *len)
 659:../common/ubertooth.c **** {
 1707              		.loc 1 659 0
 1708              		.cfi_startproc
 1709              		@ args = 0, pretend = 0, frame = 40
 1710              		@ frame_needed = 0, uses_anonymous_args = 0
 1711              	.LVL148:
 1712 0000 30B5     		push	{r4, r5, lr}
 1713              		.cfi_def_cfa_offset 12
 1714              		.cfi_offset 4, -12
 1715              		.cfi_offset 5, -8
 1716              		.cfi_offset 14, -4
 1717 0002 8BB0     		sub	sp, sp, #44
 1718              		.cfi_def_cfa_offset 56
 660:../common/ubertooth.c **** 	u32 command[5];
 661:../common/ubertooth.c **** 	u32 result[5];
 662:../common/ubertooth.c **** 	command[0] = 58; /* read device serial number */
 1719              		.loc 1 662 0
 1720 0004 3A23     		movs	r3, #58
 659:../common/ubertooth.c **** 	u32 command[5];
 1721              		.loc 1 659 0
 1722 0006 0446     		mov	r4, r0
 1723              		.loc 1 662 0
 1724 0008 0AA8     		add	r0, sp, #40
 1725              	.LVL149:
 659:../common/ubertooth.c **** 	u32 command[5];
ARM GAS  /tmp/cc9UKiNn.s 			page 45


 1726              		.loc 1 659 0
 1727 000a 0D46     		mov	r5, r1
 1728              		.loc 1 662 0
 1729 000c 40F8283D 		str	r3, [r0, #-40]!
 663:../common/ubertooth.c **** 	iap_entry(command, result);
 1730              		.loc 1 663 0
 1731 0010 05A9     		add	r1, sp, #20
 1732              	.LVL150:
 1733 0012 6846     		mov	r0, sp
 1734 0014 134B     		ldr	r3, .L145
 1735 0016 9847     		blx	r3
 1736              	.LVL151:
 664:../common/ubertooth.c **** 	buffer[0] = result[0] & 0xFF; /* status */
 1737              		.loc 1 664 0
 1738 0018 059B     		ldr	r3, [sp, #20]
 1739 001a 2370     		strb	r3, [r4]
 665:../common/ubertooth.c **** 	buffer[1] = result[1] & 0xFF;
 1740              		.loc 1 665 0
 1741 001c 069B     		ldr	r3, [sp, #24]
 666:../common/ubertooth.c **** 	buffer[2] = (result[1] >> 8) & 0xFF;
 1742              		.loc 1 666 0
 1743 001e 1A0A     		lsrs	r2, r3, #8
 665:../common/ubertooth.c **** 	buffer[1] = result[1] & 0xFF;
 1744              		.loc 1 665 0
 1745 0020 6370     		strb	r3, [r4, #1]
 1746              		.loc 1 666 0
 1747 0022 A270     		strb	r2, [r4, #2]
 667:../common/ubertooth.c **** 	buffer[3] = (result[1] >> 16) & 0xFF;
 1748              		.loc 1 667 0
 1749 0024 1A0C     		lsrs	r2, r3, #16
 668:../common/ubertooth.c **** 	buffer[4] = (result[1] >> 24) & 0xFF;
 1750              		.loc 1 668 0
 1751 0026 1B0E     		lsrs	r3, r3, #24
 1752 0028 2371     		strb	r3, [r4, #4]
 669:../common/ubertooth.c **** 	buffer[5] = result[2] & 0xFF;
 1753              		.loc 1 669 0
 1754 002a 079B     		ldr	r3, [sp, #28]
 667:../common/ubertooth.c **** 	buffer[3] = (result[1] >> 16) & 0xFF;
 1755              		.loc 1 667 0
 1756 002c E270     		strb	r2, [r4, #3]
 670:../common/ubertooth.c **** 	buffer[6] = (result[2] >> 8) & 0xFF;
 1757              		.loc 1 670 0
 1758 002e 1A0A     		lsrs	r2, r3, #8
 669:../common/ubertooth.c **** 	buffer[5] = result[2] & 0xFF;
 1759              		.loc 1 669 0
 1760 0030 6371     		strb	r3, [r4, #5]
 1761              		.loc 1 670 0
 1762 0032 A271     		strb	r2, [r4, #6]
 671:../common/ubertooth.c **** 	buffer[7] = (result[2] >> 16) & 0xFF;
 1763              		.loc 1 671 0
 1764 0034 1A0C     		lsrs	r2, r3, #16
 672:../common/ubertooth.c **** 	buffer[8] = (result[2] >> 24) & 0xFF;
 1765              		.loc 1 672 0
 1766 0036 1B0E     		lsrs	r3, r3, #24
 1767 0038 2372     		strb	r3, [r4, #8]
 673:../common/ubertooth.c **** 	buffer[9] = result[3] & 0xFF;
 1768              		.loc 1 673 0
ARM GAS  /tmp/cc9UKiNn.s 			page 46


 1769 003a 089B     		ldr	r3, [sp, #32]
 671:../common/ubertooth.c **** 	buffer[7] = (result[2] >> 16) & 0xFF;
 1770              		.loc 1 671 0
 1771 003c E271     		strb	r2, [r4, #7]
 674:../common/ubertooth.c **** 	buffer[10] = (result[3] >> 8) & 0xFF;
 1772              		.loc 1 674 0
 1773 003e 1A0A     		lsrs	r2, r3, #8
 673:../common/ubertooth.c **** 	buffer[9] = result[3] & 0xFF;
 1774              		.loc 1 673 0
 1775 0040 6372     		strb	r3, [r4, #9]
 1776              		.loc 1 674 0
 1777 0042 A272     		strb	r2, [r4, #10]
 675:../common/ubertooth.c **** 	buffer[11] = (result[3] >> 16) & 0xFF;
 1778              		.loc 1 675 0
 1779 0044 1A0C     		lsrs	r2, r3, #16
 676:../common/ubertooth.c **** 	buffer[12] = (result[3] >> 24) & 0xFF;
 1780              		.loc 1 676 0
 1781 0046 1B0E     		lsrs	r3, r3, #24
 1782 0048 2373     		strb	r3, [r4, #12]
 677:../common/ubertooth.c **** 	buffer[13] = result[4] & 0xFF;
 1783              		.loc 1 677 0
 1784 004a 099B     		ldr	r3, [sp, #36]
 675:../common/ubertooth.c **** 	buffer[11] = (result[3] >> 16) & 0xFF;
 1785              		.loc 1 675 0
 1786 004c E272     		strb	r2, [r4, #11]
 678:../common/ubertooth.c **** 	buffer[14] = (result[4] >> 8) & 0xFF;
 1787              		.loc 1 678 0
 1788 004e 1A0A     		lsrs	r2, r3, #8
 677:../common/ubertooth.c **** 	buffer[13] = result[4] & 0xFF;
 1789              		.loc 1 677 0
 1790 0050 6373     		strb	r3, [r4, #13]
 1791              		.loc 1 678 0
 1792 0052 A273     		strb	r2, [r4, #14]
 679:../common/ubertooth.c **** 	buffer[15] = (result[4] >> 16) & 0xFF;
 1793              		.loc 1 679 0
 1794 0054 1A0C     		lsrs	r2, r3, #16
 680:../common/ubertooth.c **** 	buffer[16] = (result[4] >> 24) & 0xFF;
 1795              		.loc 1 680 0
 1796 0056 1B0E     		lsrs	r3, r3, #24
 1797 0058 2374     		strb	r3, [r4, #16]
 681:../common/ubertooth.c **** 	*len = 17;
 1798              		.loc 1 681 0
 1799 005a 1123     		movs	r3, #17
 679:../common/ubertooth.c **** 	buffer[15] = (result[4] >> 16) & 0xFF;
 1800              		.loc 1 679 0
 1801 005c E273     		strb	r2, [r4, #15]
 1802              		.loc 1 681 0
 1803 005e 2B60     		str	r3, [r5]
 682:../common/ubertooth.c **** }
 1804              		.loc 1 682 0
 1805 0060 0BB0     		add	sp, sp, #44
 1806              		@ sp needed
 1807 0062 30BD     		pop	{r4, r5, pc}
 1808              	.LVL152:
 1809              	.L146:
 1810              		.align	2
 1811              	.L145:
ARM GAS  /tmp/cc9UKiNn.s 			page 47


 1812 0064 F11FFF1F 		.word	536813553
 1813              		.cfi_endproc
 1814              	.LFE29:
 1816              		.section	.text.set_isp,"ax",%progbits
 1817              		.align	1
 1818              		.global	set_isp
 1819              		.thumb
 1820              		.thumb_func
 1822              	set_isp:
 1823              	.LFB30:
 683:../common/ubertooth.c **** 
 684:../common/ubertooth.c **** void set_isp(void)
 685:../common/ubertooth.c **** {
 1824              		.loc 1 685 0
 1825              		.cfi_startproc
 1826              		@ args = 0, pretend = 0, frame = 40
 1827              		@ frame_needed = 0, uses_anonymous_args = 0
 1828 0000 00B5     		push	{lr}
 1829              		.cfi_def_cfa_offset 4
 1830              		.cfi_offset 14, -4
 1831 0002 8BB0     		sub	sp, sp, #44
 1832              		.cfi_def_cfa_offset 48
 686:../common/ubertooth.c **** 	u32 command[5];
 687:../common/ubertooth.c **** 	u32 result[5];
 688:../common/ubertooth.c **** 	command[0] = 57;
 1833              		.loc 1 688 0
 1834 0004 3923     		movs	r3, #57
 1835 0006 0AA8     		add	r0, sp, #40
 1836 0008 40F8283D 		str	r3, [r0, #-40]!
 689:../common/ubertooth.c **** 	iap_entry(command, result);
 1837              		.loc 1 689 0
 1838 000c 05A9     		add	r1, sp, #20
 1839 000e 6846     		mov	r0, sp
 1840 0010 024B     		ldr	r3, .L148
 1841 0012 9847     		blx	r3
 1842              	.LVL153:
 690:../common/ubertooth.c **** }
 1843              		.loc 1 690 0
 1844 0014 0BB0     		add	sp, sp, #44
 1845              		@ sp needed
 1846 0016 5DF804FB 		ldr	pc, [sp], #4
 1847              	.L149:
 1848 001a 00BF     		.align	2
 1849              	.L148:
 1850 001c F11FFF1F 		.word	536813553
 1851              		.cfi_endproc
 1852              	.LFE30:
 1854              		.global	iap_entry
 1855              		.section	.rodata
 1856              		.align	2
 1859              	iap_entry:
 1860 0000 F11FFF1F 		.word	536813553
 1861              		.bss
 1862              		.align	2
 1863              		.set	.LANCHOR0,. + 0
 1866              	delay_counter:
 1867 0000 00000000 		.space	4
ARM GAS  /tmp/cc9UKiNn.s 			page 48


 1870              	wait_us_counter:
 1871 0004 00000000 		.space	4
 1872              		.text
 1873              	.Letext0:
 1874              		.file 2 "/usr/lib/gcc/arm-none-eabi/4.8.2/include/stdint-gcc.h"
 1875              		.file 3 "../common/ubertooth.h"
ARM GAS  /tmp/cc9UKiNn.s 			page 49

